
at90masskeyboardfatfs.elf:     file format elf32-avr

Sections:
Idx Name          Size      VMA       LMA       File off  Algn
  0 .data         000004c8  00800100  00005ff2  00006086  2**0
                  CONTENTS, ALLOC, LOAD, DATA
  1 .text         00005ff2  00000000  00000000  00000094  2**1
                  CONTENTS, ALLOC, LOAD, READONLY, CODE
  2 .bss          000006ab  008005c8  008005c8  0000654e  2**0
                  ALLOC
  3 .noinit       00000004  00800c73  00800c73  0000654e  2**0
                  ALLOC
  4 .comment      0000005c  00000000  00000000  0000654e  2**0
                  CONTENTS, READONLY
  5 .note.gnu.avr.deviceinfo 00000040  00000000  00000000  000065ac  2**2
                  CONTENTS, READONLY
  6 .debug_aranges 00000040  00000000  00000000  000065f0  2**3
                  CONTENTS, READONLY, DEBUGGING
  7 .debug_info   00000ca8  00000000  00000000  00006630  2**0
                  CONTENTS, READONLY, DEBUGGING
  8 .debug_abbrev 00000afa  00000000  00000000  000072d8  2**0
                  CONTENTS, READONLY, DEBUGGING
  9 .debug_line   00000293  00000000  00000000  00007dd2  2**0
                  CONTENTS, READONLY, DEBUGGING
 10 .debug_str    000003f7  00000000  00000000  00008065  2**0
                  CONTENTS, READONLY, DEBUGGING

Disassembly of section .text:

00000000 <__vectors>:
       0:	e0 c0       	rjmp	.+448    	; 0x1c2 <__ctors_end>
       2:	00 00       	nop
       4:	fd c0       	rjmp	.+506    	; 0x200 <__bad_interrupt>
       6:	00 00       	nop
       8:	fb c0       	rjmp	.+502    	; 0x200 <__bad_interrupt>
       a:	00 00       	nop
       c:	f9 c0       	rjmp	.+498    	; 0x200 <__bad_interrupt>
       e:	00 00       	nop
      10:	f7 c0       	rjmp	.+494    	; 0x200 <__bad_interrupt>
      12:	00 00       	nop
      14:	f5 c0       	rjmp	.+490    	; 0x200 <__bad_interrupt>
      16:	00 00       	nop
      18:	f3 c0       	rjmp	.+486    	; 0x200 <__bad_interrupt>
      1a:	00 00       	nop
      1c:	f1 c0       	rjmp	.+482    	; 0x200 <__bad_interrupt>
      1e:	00 00       	nop
      20:	ef c0       	rjmp	.+478    	; 0x200 <__bad_interrupt>
      22:	00 00       	nop
      24:	ed c0       	rjmp	.+474    	; 0x200 <__bad_interrupt>
      26:	00 00       	nop
      28:	0c 94 6b 29 	jmp	0x52d6	; 0x52d6 <__vector_10>
      2c:	0c 94 3d 2a 	jmp	0x547a	; 0x547a <__vector_11>
      30:	e7 c0       	rjmp	.+462    	; 0x200 <__bad_interrupt>
      32:	00 00       	nop
      34:	e5 c0       	rjmp	.+458    	; 0x200 <__bad_interrupt>
      36:	00 00       	nop
      38:	e3 c0       	rjmp	.+454    	; 0x200 <__bad_interrupt>
      3a:	00 00       	nop
      3c:	e1 c0       	rjmp	.+450    	; 0x200 <__bad_interrupt>
      3e:	00 00       	nop
      40:	df c0       	rjmp	.+446    	; 0x200 <__bad_interrupt>
      42:	00 00       	nop
      44:	dd c0       	rjmp	.+442    	; 0x200 <__bad_interrupt>
      46:	00 00       	nop
      48:	db c0       	rjmp	.+438    	; 0x200 <__bad_interrupt>
      4a:	00 00       	nop
      4c:	d9 c0       	rjmp	.+434    	; 0x200 <__bad_interrupt>
      4e:	00 00       	nop
      50:	d7 c0       	rjmp	.+430    	; 0x200 <__bad_interrupt>
      52:	00 00       	nop
      54:	d5 c0       	rjmp	.+426    	; 0x200 <__bad_interrupt>
      56:	00 00       	nop
      58:	d3 c0       	rjmp	.+422    	; 0x200 <__bad_interrupt>
      5a:	00 00       	nop
      5c:	d1 c0       	rjmp	.+418    	; 0x200 <__bad_interrupt>
      5e:	00 00       	nop
      60:	cf c0       	rjmp	.+414    	; 0x200 <__bad_interrupt>
      62:	00 00       	nop
      64:	cd c0       	rjmp	.+410    	; 0x200 <__bad_interrupt>
      66:	00 00       	nop
      68:	cb c0       	rjmp	.+406    	; 0x200 <__bad_interrupt>
      6a:	00 00       	nop
      6c:	c9 c0       	rjmp	.+402    	; 0x200 <__bad_interrupt>
      6e:	00 00       	nop
      70:	c7 c0       	rjmp	.+398    	; 0x200 <__bad_interrupt>
      72:	00 00       	nop
      74:	c5 c0       	rjmp	.+394    	; 0x200 <__bad_interrupt>
      76:	00 00       	nop
      78:	c3 c0       	rjmp	.+390    	; 0x200 <__bad_interrupt>
      7a:	00 00       	nop
      7c:	c1 c0       	rjmp	.+386    	; 0x200 <__bad_interrupt>
      7e:	00 00       	nop
      80:	0c 94 91 16 	jmp	0x2d22	; 0x2d22 <__vector_32>
      84:	bd c0       	rjmp	.+378    	; 0x200 <__bad_interrupt>
      86:	00 00       	nop
      88:	bb c0       	rjmp	.+374    	; 0x200 <__bad_interrupt>
      8a:	00 00       	nop
      8c:	b9 c0       	rjmp	.+370    	; 0x200 <__bad_interrupt>
      8e:	00 00       	nop
      90:	b7 c0       	rjmp	.+366    	; 0x200 <__bad_interrupt>
      92:	00 00       	nop
      94:	b5 c0       	rjmp	.+362    	; 0x200 <__bad_interrupt>
	...

00000098 <__trampolines_end>:
      98:	52 65       	ori	r21, 0x52	; 82
      9a:	61 64       	ori	r22, 0x41	; 65
      9c:	79 0d       	add	r23, r9
      9e:	0a 00       	.word	0x000a	; ????

000000a0 <__c.4999>:
      a0:	44 69 73 63 6f 6e 6e 65 63 74 0d 0a 00              Disconnect...

000000ad <__c.4994>:
      ad:	43 6f 6e 6e 65 63 74 0d 0a 00                       Connect...

000000b7 <__c.4989>:
      b7:	68 74 74 70 73 3a 2f 2f 77 77 77 2e 66 72 33 33     https://www.fr33
      c7:	70 72 6f 6a 65 63 74 2e 6f 72 67 0d 0a 70 6f 77     project.org..pow
      d7:	65 72 65 64 20 62 79 20 4c 55 46 41 20 68 74 74     ered by LUFA htt
      e7:	70 3a 2f 2f 65 6c 6d 2d 63 68 61 6e 2e 6f 72 67     p://elm-chan.org
      f7:	2f 66 73 77 2f 66 66 2f 30 30 69 6e 64 65 78 5f     /fsw/ff/00index_
     107:	65 2e 68 74 6d 6c 20 61 6e 64 20 46 61 74 46 73     e.html and FatFs
     117:	20 68 74 74 70 3a 2f 2f 65 6c 6d 2d 63 68 61 6e      http://elm-chan
     127:	2e 6f 72 67 2f 66 73 77 2f 66 66 2f 30 30 69 6e     .org/fsw/ff/00in
     137:	64 65 78 5f 65 2e 68 74 6d 6c 0d 0a 0d 0a 00        dex_e.html.....

00000146 <__c.4995>:
     146:	52 20 25 6c 69 20 25 69 0d 0a 00                    R %li %i...

00000151 <__c.4975>:
     151:	57 20 25 6c 69 20 25 69 0d 0a 00                    W %li %i...

0000015c <__c.4961>:
     15c:	53 44 20 62 6c 6f 63 6b 73 3a 20 25 6c 69 0d 0a     SD blocks: %li..
	...

0000016d <__c.4954>:
     16d:	0d 0a 0d 0a 00                                      .....

00000172 <__c.4952>:
     172:	66 69 72 73 74 20 53 44 20 73 65 63 74 6f 72 3a     first SD sector:
     182:	0d 0a 00                                            ...

00000185 <__c.4949>:
     185:	64 69 73 6b 5f 69 6e 69 74 69 61 6c 69 7a 65 20     disk_initialize 
     195:	73 75 63 63 65 73 73 0d 0a 00                       success...

0000019f <__c.4945>:
     19f:	74 72 79 69 6e 67 20 2e 2e 2e 20 64 69 73 6b 5f     trying ... disk_
     1af:	69 6e 69 74 69 61 6c 69 7a 65 0d 0a 00              initialize...

000001bc <__c.4943>:
     1bc:	0d 0a 0d 0a 00 00                                   ......

000001c2 <__ctors_end>:
     1c2:	11 24       	eor	r1, r1
     1c4:	1f be       	out	0x3f, r1	; 63
     1c6:	cf ef       	ldi	r28, 0xFF	; 255
     1c8:	d0 e2       	ldi	r29, 0x20	; 32
     1ca:	de bf       	out	0x3e, r29	; 62
     1cc:	cd bf       	out	0x3d, r28	; 61

000001ce <__do_copy_data>:
     1ce:	15 e0       	ldi	r17, 0x05	; 5
     1d0:	a0 e0       	ldi	r26, 0x00	; 0
     1d2:	b1 e0       	ldi	r27, 0x01	; 1
     1d4:	e2 ef       	ldi	r30, 0xF2	; 242
     1d6:	ff e5       	ldi	r31, 0x5F	; 95
     1d8:	00 e0       	ldi	r16, 0x00	; 0
     1da:	0b bf       	out	0x3b, r16	; 59
     1dc:	02 c0       	rjmp	.+4      	; 0x1e2 <__do_copy_data+0x14>
     1de:	07 90       	elpm	r0, Z+
     1e0:	0d 92       	st	X+, r0
     1e2:	a8 3c       	cpi	r26, 0xC8	; 200
     1e4:	b1 07       	cpc	r27, r17
     1e6:	d9 f7       	brne	.-10     	; 0x1de <__do_copy_data+0x10>

000001e8 <__do_clear_bss>:
     1e8:	2c e0       	ldi	r18, 0x0C	; 12
     1ea:	a8 ec       	ldi	r26, 0xC8	; 200
     1ec:	b5 e0       	ldi	r27, 0x05	; 5
     1ee:	01 c0       	rjmp	.+2      	; 0x1f2 <.do_clear_bss_start>

000001f0 <.do_clear_bss_loop>:
     1f0:	1d 92       	st	X+, r1

000001f2 <.do_clear_bss_start>:
     1f2:	a3 37       	cpi	r26, 0x73	; 115
     1f4:	b2 07       	cpc	r27, r18
     1f6:	e1 f7       	brne	.-8      	; 0x1f0 <.do_clear_bss_loop>
     1f8:	0e 94 2a 17 	call	0x2e54	; 0x2e54 <main>
     1fc:	0c 94 f7 2f 	jmp	0x5fee	; 0x5fee <_exit>

00000200 <__bad_interrupt>:
     200:	ff ce       	rjmp	.-514    	; 0x0 <__vectors>

00000202 <on_sd>:
     202:	26 9a       	sbi	0x04, 6	; 4
     204:	2e 98       	cbi	0x05, 6	; 5
     206:	08 95       	ret

00000208 <uart_putc>:
     208:	90 91 c8 00 	lds	r25, 0x00C8	; 0x8000c8 <__TEXT_REGION_LENGTH__+0x7e00c8>
     20c:	95 ff       	sbrs	r25, 5
     20e:	fc cf       	rjmp	.-8      	; 0x208 <uart_putc>
     210:	80 93 ce 00 	sts	0x00CE, r24	; 0x8000ce <__TEXT_REGION_LENGTH__+0x7e00ce>
     214:	08 95       	ret

00000216 <uart_puts>:
     216:	cf 93       	push	r28
     218:	df 93       	push	r29
     21a:	ec 01       	movw	r28, r24
     21c:	88 81       	ld	r24, Y
     21e:	88 23       	and	r24, r24
     220:	71 f0       	breq	.+28     	; 0x23e <uart_puts+0x28>
     222:	8a 30       	cpi	r24, 0x0A	; 10
     224:	39 f4       	brne	.+14     	; 0x234 <uart_puts+0x1e>
     226:	90 91 c8 05 	lds	r25, 0x05C8	; 0x8005c8 <__data_end>
     22a:	9d 30       	cpi	r25, 0x0D	; 13
     22c:	19 f0       	breq	.+6      	; 0x234 <uart_puts+0x1e>
     22e:	8d e0       	ldi	r24, 0x0D	; 13
     230:	eb df       	rcall	.-42     	; 0x208 <uart_putc>
     232:	8a e0       	ldi	r24, 0x0A	; 10
     234:	e9 df       	rcall	.-46     	; 0x208 <uart_putc>
     236:	89 91       	ld	r24, Y+
     238:	80 93 c8 05 	sts	0x05C8, r24	; 0x8005c8 <__data_end>
     23c:	ef cf       	rjmp	.-34     	; 0x21c <uart_puts+0x6>
     23e:	df 91       	pop	r29
     240:	cf 91       	pop	r28
     242:	08 95       	ret

00000244 <uart_putsnl>:
     244:	e8 df       	rcall	.-48     	; 0x216 <uart_puts>
     246:	8f e3       	ldi	r24, 0x3F	; 63
     248:	92 e0       	ldi	r25, 0x02	; 2
     24a:	e5 cf       	rjmp	.-54     	; 0x216 <uart_puts>

0000024c <uart_printhexchar>:
     24c:	1f 93       	push	r17
     24e:	cf 93       	push	r28
     250:	df 93       	push	r29
     252:	cd b7       	in	r28, 0x3d	; 61
     254:	de b7       	in	r29, 0x3e	; 62
     256:	61 97       	sbiw	r28, 0x11	; 17
     258:	0f b6       	in	r0, 0x3f	; 63
     25a:	f8 94       	cli
     25c:	de bf       	out	0x3e, r29	; 62
     25e:	0f be       	out	0x3f, r0	; 63
     260:	cd bf       	out	0x3d, r28	; 61
     262:	18 2f       	mov	r17, r24
     264:	81 e1       	ldi	r24, 0x11	; 17
     266:	eb e8       	ldi	r30, 0x8B	; 139
     268:	f1 e0       	ldi	r31, 0x01	; 1
     26a:	de 01       	movw	r26, r28
     26c:	11 96       	adiw	r26, 0x01	; 1
     26e:	01 90       	ld	r0, Z+
     270:	0d 92       	st	X+, r0
     272:	8a 95       	dec	r24
     274:	e1 f7       	brne	.-8      	; 0x26e <uart_printhexchar+0x22>
     276:	81 2f       	mov	r24, r17
     278:	82 95       	swap	r24
     27a:	8f 70       	andi	r24, 0x0F	; 15
     27c:	e1 e0       	ldi	r30, 0x01	; 1
     27e:	f0 e0       	ldi	r31, 0x00	; 0
     280:	ec 0f       	add	r30, r28
     282:	fd 1f       	adc	r31, r29
     284:	e8 0f       	add	r30, r24
     286:	f1 1d       	adc	r31, r1
     288:	80 81       	ld	r24, Z
     28a:	be df       	rcall	.-132    	; 0x208 <uart_putc>
     28c:	1f 70       	andi	r17, 0x0F	; 15
     28e:	e1 e0       	ldi	r30, 0x01	; 1
     290:	f0 e0       	ldi	r31, 0x00	; 0
     292:	ec 0f       	add	r30, r28
     294:	fd 1f       	adc	r31, r29
     296:	e1 0f       	add	r30, r17
     298:	f1 1d       	adc	r31, r1
     29a:	80 81       	ld	r24, Z
     29c:	61 96       	adiw	r28, 0x11	; 17
     29e:	0f b6       	in	r0, 0x3f	; 63
     2a0:	f8 94       	cli
     2a2:	de bf       	out	0x3e, r29	; 62
     2a4:	0f be       	out	0x3f, r0	; 63
     2a6:	cd bf       	out	0x3d, r28	; 61
     2a8:	df 91       	pop	r29
     2aa:	cf 91       	pop	r28
     2ac:	1f 91       	pop	r17
     2ae:	ac cf       	rjmp	.-168    	; 0x208 <uart_putc>

000002b0 <uart_printhexdump>:
     2b0:	9f 92       	push	r9
     2b2:	af 92       	push	r10
     2b4:	bf 92       	push	r11
     2b6:	cf 92       	push	r12
     2b8:	df 92       	push	r13
     2ba:	ef 92       	push	r14
     2bc:	ff 92       	push	r15
     2be:	0f 93       	push	r16
     2c0:	1f 93       	push	r17
     2c2:	cf 93       	push	r28
     2c4:	df 93       	push	r29
     2c6:	61 15       	cp	r22, r1
     2c8:	71 05       	cpc	r23, r1
     2ca:	09 f4       	brne	.+2      	; 0x2ce <uart_printhexdump+0x1e>
     2cc:	41 c0       	rjmp	.+130    	; 0x350 <uart_printhexdump+0xa0>
     2ce:	8b 01       	movw	r16, r22
     2d0:	ec 01       	movw	r28, r24
     2d2:	e1 2c       	mov	r14, r1
     2d4:	f1 2c       	mov	r15, r1
     2d6:	5b 01       	movw	r10, r22
     2d8:	81 e0       	ldi	r24, 0x01	; 1
     2da:	a8 1a       	sub	r10, r24
     2dc:	b1 08       	sbc	r11, r1
     2de:	6e 01       	movw	r12, r28
     2e0:	8f ef       	ldi	r24, 0xFF	; 255
     2e2:	c8 1a       	sub	r12, r24
     2e4:	d8 0a       	sbc	r13, r24
     2e6:	88 81       	ld	r24, Y
     2e8:	b1 df       	rcall	.-158    	; 0x24c <uart_printhexchar>
     2ea:	80 e2       	ldi	r24, 0x20	; 32
     2ec:	8d df       	rcall	.-230    	; 0x208 <uart_putc>
     2ee:	8f ef       	ldi	r24, 0xFF	; 255
     2f0:	e8 1a       	sub	r14, r24
     2f2:	f8 0a       	sbc	r15, r24
     2f4:	c7 01       	movw	r24, r14
     2f6:	8f 70       	andi	r24, 0x0F	; 15
     2f8:	99 27       	eor	r25, r25
     2fa:	89 2b       	or	r24, r25
     2fc:	29 f0       	breq	.+10     	; 0x308 <uart_printhexdump+0x58>
     2fe:	c7 01       	movw	r24, r14
     300:	01 97       	sbiw	r24, 0x01	; 1
     302:	8a 15       	cp	r24, r10
     304:	9b 05       	cpc	r25, r11
     306:	91 f4       	brne	.+36     	; 0x32c <uart_printhexdump+0x7c>
     308:	2f 97       	sbiw	r28, 0x0f	; 15
     30a:	99 90       	ld	r9, Y+
     30c:	89 2d       	mov	r24, r9
     30e:	90 e0       	ldi	r25, 0x00	; 0
     310:	0e 94 6b 2c 	call	0x58d6	; 0x58d6 <isprint>
     314:	89 2b       	or	r24, r25
     316:	11 f0       	breq	.+4      	; 0x31c <uart_printhexdump+0x6c>
     318:	89 2d       	mov	r24, r9
     31a:	01 c0       	rjmp	.+2      	; 0x31e <uart_printhexdump+0x6e>
     31c:	8e e2       	ldi	r24, 0x2E	; 46
     31e:	74 df       	rcall	.-280    	; 0x208 <uart_putc>
     320:	cc 15       	cp	r28, r12
     322:	dd 05       	cpc	r29, r13
     324:	91 f7       	brne	.-28     	; 0x30a <uart_printhexdump+0x5a>
     326:	8f e3       	ldi	r24, 0x3F	; 63
     328:	92 e0       	ldi	r25, 0x02	; 2
     32a:	75 df       	rcall	.-278    	; 0x216 <uart_puts>
     32c:	e6 01       	movw	r28, r12
     32e:	e0 16       	cp	r14, r16
     330:	f1 06       	cpc	r15, r17
     332:	a9 f6       	brne	.-86     	; 0x2de <uart_printhexdump+0x2e>
     334:	8f e3       	ldi	r24, 0x3F	; 63
     336:	92 e0       	ldi	r25, 0x02	; 2
     338:	df 91       	pop	r29
     33a:	cf 91       	pop	r28
     33c:	1f 91       	pop	r17
     33e:	0f 91       	pop	r16
     340:	ff 90       	pop	r15
     342:	ef 90       	pop	r14
     344:	df 90       	pop	r13
     346:	cf 90       	pop	r12
     348:	bf 90       	pop	r11
     34a:	af 90       	pop	r10
     34c:	9f 90       	pop	r9
     34e:	63 cf       	rjmp	.-314    	; 0x216 <uart_puts>
     350:	df 91       	pop	r29
     352:	cf 91       	pop	r28
     354:	1f 91       	pop	r17
     356:	0f 91       	pop	r16
     358:	ff 90       	pop	r15
     35a:	ef 90       	pop	r14
     35c:	df 90       	pop	r13
     35e:	cf 90       	pop	r12
     360:	bf 90       	pop	r11
     362:	af 90       	pop	r10
     364:	9f 90       	pop	r9
     366:	08 95       	ret

00000368 <SPI_write>:
     368:	8e bd       	out	0x2e, r24	; 46
     36a:	0d b4       	in	r0, 0x2d	; 45
     36c:	07 fe       	sbrs	r0, 7
     36e:	fd cf       	rjmp	.-6      	; 0x36a <SPI_write+0x2>
     370:	8e b5       	in	r24, 0x2e	; 46
     372:	08 95       	ret

00000374 <wait_sd_some_cycl>:
     374:	8f ef       	ldi	r24, 0xFF	; 255
     376:	f8 df       	rcall	.-16     	; 0x368 <SPI_write>
     378:	8f ef       	ldi	r24, 0xFF	; 255
     37a:	f6 df       	rcall	.-20     	; 0x368 <SPI_write>
     37c:	8f ef       	ldi	r24, 0xFF	; 255
     37e:	f4 df       	rcall	.-24     	; 0x368 <SPI_write>
     380:	8f ef       	ldi	r24, 0xFF	; 255
     382:	f2 df       	rcall	.-28     	; 0x368 <SPI_write>
     384:	8f ef       	ldi	r24, 0xFF	; 255
     386:	f0 df       	rcall	.-32     	; 0x368 <SPI_write>
     388:	8f ef       	ldi	r24, 0xFF	; 255
     38a:	ee df       	rcall	.-36     	; 0x368 <SPI_write>
     38c:	8f ef       	ldi	r24, 0xFF	; 255
     38e:	ec df       	rcall	.-40     	; 0x368 <SPI_write>
     390:	8f ef       	ldi	r24, 0xFF	; 255
     392:	ea df       	rcall	.-44     	; 0x368 <SPI_write>
     394:	8f ef       	ldi	r24, 0xFF	; 255
     396:	e8 df       	rcall	.-48     	; 0x368 <SPI_write>
     398:	8f ef       	ldi	r24, 0xFF	; 255
     39a:	e6 cf       	rjmp	.-52     	; 0x368 <SPI_write>

0000039c <read_spi_while_byte_is_not>:
     39c:	4f 92       	push	r4
     39e:	5f 92       	push	r5
     3a0:	6f 92       	push	r6
     3a2:	7f 92       	push	r7
     3a4:	8f 92       	push	r8
     3a6:	9f 92       	push	r9
     3a8:	af 92       	push	r10
     3aa:	bf 92       	push	r11
     3ac:	cf 92       	push	r12
     3ae:	df 92       	push	r13
     3b0:	ef 92       	push	r14
     3b2:	ff 92       	push	r15
     3b4:	cf 93       	push	r28
     3b6:	c8 2f       	mov	r28, r24
     3b8:	4a 01       	movw	r8, r20
     3ba:	5b 01       	movw	r10, r22
     3bc:	c1 2c       	mov	r12, r1
     3be:	d1 2c       	mov	r13, r1
     3c0:	76 01       	movw	r14, r12
     3c2:	88 ee       	ldi	r24, 0xE8	; 232
     3c4:	48 2e       	mov	r4, r24
     3c6:	83 e0       	ldi	r24, 0x03	; 3
     3c8:	58 2e       	mov	r5, r24
     3ca:	61 2c       	mov	r6, r1
     3cc:	71 2c       	mov	r7, r1
     3ce:	c8 14       	cp	r12, r8
     3d0:	d9 04       	cpc	r13, r9
     3d2:	ea 04       	cpc	r14, r10
     3d4:	fb 04       	cpc	r15, r11
     3d6:	b9 f0       	breq	.+46     	; 0x406 <__LOCK_REGION_LENGTH__+0x6>
     3d8:	8f ef       	ldi	r24, 0xFF	; 255
     3da:	c6 df       	rcall	.-116    	; 0x368 <SPI_write>
     3dc:	8c 17       	cp	r24, r28
     3de:	c1 f0       	breq	.+48     	; 0x410 <__LOCK_REGION_LENGTH__+0x10>
     3e0:	8f ef       	ldi	r24, 0xFF	; 255
     3e2:	c8 1a       	sub	r12, r24
     3e4:	d8 0a       	sbc	r13, r24
     3e6:	e8 0a       	sbc	r14, r24
     3e8:	f8 0a       	sbc	r15, r24
     3ea:	c7 01       	movw	r24, r14
     3ec:	b6 01       	movw	r22, r12
     3ee:	a3 01       	movw	r20, r6
     3f0:	92 01       	movw	r18, r4
     3f2:	0e 94 2e 2c 	call	0x585c	; 0x585c <__udivmodsi4>
     3f6:	67 2b       	or	r22, r23
     3f8:	68 2b       	or	r22, r24
     3fa:	69 2b       	or	r22, r25
     3fc:	41 f7       	brne	.-48     	; 0x3ce <read_spi_while_byte_is_not+0x32>
     3fe:	8c e9       	ldi	r24, 0x9C	; 156
     400:	91 e0       	ldi	r25, 0x01	; 1
     402:	20 df       	rcall	.-448    	; 0x244 <uart_putsnl>
     404:	e4 cf       	rjmp	.-56     	; 0x3ce <read_spi_while_byte_is_not+0x32>
     406:	85 eb       	ldi	r24, 0xB5	; 181
     408:	91 e0       	ldi	r25, 0x01	; 1
     40a:	1c df       	rcall	.-456    	; 0x244 <uart_putsnl>
     40c:	80 e0       	ldi	r24, 0x00	; 0
     40e:	01 c0       	rjmp	.+2      	; 0x412 <__LOCK_REGION_LENGTH__+0x12>
     410:	81 e0       	ldi	r24, 0x01	; 1
     412:	cf 91       	pop	r28
     414:	ff 90       	pop	r15
     416:	ef 90       	pop	r14
     418:	df 90       	pop	r13
     41a:	cf 90       	pop	r12
     41c:	bf 90       	pop	r11
     41e:	af 90       	pop	r10
     420:	9f 90       	pop	r9
     422:	8f 90       	pop	r8
     424:	7f 90       	pop	r7
     426:	6f 90       	pop	r6
     428:	5f 90       	pop	r5
     42a:	4f 90       	pop	r4
     42c:	08 95       	ret

0000042e <SD_read_sector>:
     42e:	cf 92       	push	r12
     430:	df 92       	push	r13
     432:	ef 92       	push	r14
     434:	ff 92       	push	r15
     436:	0f 93       	push	r16
     438:	1f 93       	push	r17
     43a:	cf 93       	push	r28
     43c:	df 93       	push	r29
     43e:	6b 01       	movw	r12, r22
     440:	7c 01       	movw	r14, r24
     442:	8a 01       	movw	r16, r20
     444:	28 98       	cbi	0x05, 0	; 5
     446:	96 df       	rcall	.-212    	; 0x374 <wait_sd_some_cycl>
     448:	81 e5       	ldi	r24, 0x51	; 81
     44a:	8e df       	rcall	.-228    	; 0x368 <SPI_write>
     44c:	d7 01       	movw	r26, r14
     44e:	c6 01       	movw	r24, r12
     450:	2f e0       	ldi	r18, 0x0F	; 15
     452:	b6 95       	lsr	r27
     454:	a7 95       	ror	r26
     456:	97 95       	ror	r25
     458:	87 95       	ror	r24
     45a:	2a 95       	dec	r18
     45c:	d1 f7       	brne	.-12     	; 0x452 <SD_read_sector+0x24>
     45e:	84 df       	rcall	.-248    	; 0x368 <SPI_write>
     460:	d7 01       	movw	r26, r14
     462:	c6 01       	movw	r24, r12
     464:	37 e0       	ldi	r19, 0x07	; 7
     466:	b6 95       	lsr	r27
     468:	a7 95       	ror	r26
     46a:	97 95       	ror	r25
     46c:	87 95       	ror	r24
     46e:	3a 95       	dec	r19
     470:	d1 f7       	brne	.-12     	; 0x466 <SD_read_sector+0x38>
     472:	7a df       	rcall	.-268    	; 0x368 <SPI_write>
     474:	8c 2d       	mov	r24, r12
     476:	88 0f       	add	r24, r24
     478:	77 df       	rcall	.-274    	; 0x368 <SPI_write>
     47a:	80 e0       	ldi	r24, 0x00	; 0
     47c:	75 df       	rcall	.-278    	; 0x368 <SPI_write>
     47e:	8f ef       	ldi	r24, 0xFF	; 255
     480:	73 df       	rcall	.-282    	; 0x368 <SPI_write>
     482:	40 ea       	ldi	r20, 0xA0	; 160
     484:	56 e8       	ldi	r21, 0x86	; 134
     486:	61 e0       	ldi	r22, 0x01	; 1
     488:	70 e0       	ldi	r23, 0x00	; 0
     48a:	80 e0       	ldi	r24, 0x00	; 0
     48c:	87 df       	rcall	.-242    	; 0x39c <read_spi_while_byte_is_not>
     48e:	81 11       	cpse	r24, r1
     490:	02 c0       	rjmp	.+4      	; 0x496 <SD_read_sector+0x68>
     492:	80 e0       	ldi	r24, 0x00	; 0
     494:	17 c0       	rjmp	.+46     	; 0x4c4 <SD_read_sector+0x96>
     496:	40 ea       	ldi	r20, 0xA0	; 160
     498:	56 e8       	ldi	r21, 0x86	; 134
     49a:	61 e0       	ldi	r22, 0x01	; 1
     49c:	70 e0       	ldi	r23, 0x00	; 0
     49e:	8e ef       	ldi	r24, 0xFE	; 254
     4a0:	7d df       	rcall	.-262    	; 0x39c <read_spi_while_byte_is_not>
     4a2:	88 23       	and	r24, r24
     4a4:	b1 f3       	breq	.-20     	; 0x492 <SD_read_sector+0x64>
     4a6:	e8 01       	movw	r28, r16
     4a8:	78 01       	movw	r14, r16
     4aa:	8e ef       	ldi	r24, 0xFE	; 254
     4ac:	f8 1a       	sub	r15, r24
     4ae:	8f ef       	ldi	r24, 0xFF	; 255
     4b0:	5b df       	rcall	.-330    	; 0x368 <SPI_write>
     4b2:	89 93       	st	Y+, r24
     4b4:	ce 15       	cp	r28, r14
     4b6:	df 05       	cpc	r29, r15
     4b8:	d1 f7       	brne	.-12     	; 0x4ae <SD_read_sector+0x80>
     4ba:	8f ef       	ldi	r24, 0xFF	; 255
     4bc:	55 df       	rcall	.-342    	; 0x368 <SPI_write>
     4be:	8f ef       	ldi	r24, 0xFF	; 255
     4c0:	53 df       	rcall	.-346    	; 0x368 <SPI_write>
     4c2:	81 e0       	ldi	r24, 0x01	; 1
     4c4:	28 9a       	sbi	0x05, 0	; 5
     4c6:	df 91       	pop	r29
     4c8:	cf 91       	pop	r28
     4ca:	1f 91       	pop	r17
     4cc:	0f 91       	pop	r16
     4ce:	ff 90       	pop	r15
     4d0:	ef 90       	pop	r14
     4d2:	df 90       	pop	r13
     4d4:	cf 90       	pop	r12
     4d6:	08 95       	ret

000004d8 <CALLBACK_USB_GetDescriptor>:
     4d8:	29 2f       	mov	r18, r25
     4da:	33 27       	eor	r19, r19
     4dc:	23 30       	cpi	r18, 0x03	; 3
     4de:	31 05       	cpc	r19, r1
     4e0:	e9 f0       	breq	.+58     	; 0x51c <CALLBACK_USB_GetDescriptor+0x44>
     4e2:	60 f4       	brcc	.+24     	; 0x4fc <CALLBACK_USB_GetDescriptor+0x24>
     4e4:	21 30       	cpi	r18, 0x01	; 1
     4e6:	31 05       	cpc	r19, r1
     4e8:	a1 f0       	breq	.+40     	; 0x512 <CALLBACK_USB_GetDescriptor+0x3a>
     4ea:	22 30       	cpi	r18, 0x02	; 2
     4ec:	31 05       	cpc	r19, r1
     4ee:	09 f0       	breq	.+2      	; 0x4f2 <CALLBACK_USB_GetDescriptor+0x1a>
     4f0:	41 c0       	rjmp	.+130    	; 0x574 <CALLBACK_USB_GetDescriptor+0x9c>
     4f2:	89 e3       	ldi	r24, 0x39	; 57
     4f4:	90 e0       	ldi	r25, 0x00	; 0
     4f6:	2d ea       	ldi	r18, 0xAD	; 173
     4f8:	32 e0       	ldi	r19, 0x02	; 2
     4fa:	40 c0       	rjmp	.+128    	; 0x57c <CALLBACK_USB_GetDescriptor+0xa4>
     4fc:	21 32       	cpi	r18, 0x21	; 33
     4fe:	31 05       	cpc	r19, r1
     500:	a1 f1       	breq	.+104    	; 0x56a <CALLBACK_USB_GetDescriptor+0x92>
     502:	22 32       	cpi	r18, 0x22	; 34
     504:	31 05       	cpc	r19, r1
     506:	b1 f5       	brne	.+108    	; 0x574 <CALLBACK_USB_GetDescriptor+0x9c>
     508:	80 e4       	ldi	r24, 0x40	; 64
     50a:	90 e0       	ldi	r25, 0x00	; 0
     50c:	28 ef       	ldi	r18, 0xF8	; 248
     50e:	32 e0       	ldi	r19, 0x02	; 2
     510:	35 c0       	rjmp	.+106    	; 0x57c <CALLBACK_USB_GetDescriptor+0xa4>
     512:	82 e1       	ldi	r24, 0x12	; 18
     514:	90 e0       	ldi	r25, 0x00	; 0
     516:	26 ee       	ldi	r18, 0xE6	; 230
     518:	32 e0       	ldi	r19, 0x02	; 2
     51a:	30 c0       	rjmp	.+96     	; 0x57c <CALLBACK_USB_GetDescriptor+0xa4>
     51c:	20 91 6b 0c 	lds	r18, 0x0C6B	; 0x800c6b <USB_ControlRequest+0x6>
     520:	30 91 6c 0c 	lds	r19, 0x0C6C	; 0x800c6c <USB_ControlRequest+0x7>
     524:	2f 3f       	cpi	r18, 0xFF	; 255
     526:	31 05       	cpc	r19, r1
     528:	29 f4       	brne	.+10     	; 0x534 <CALLBACK_USB_GetDescriptor+0x5c>
     52a:	20 91 f9 09 	lds	r18, 0x09F9	; 0x8009f9 <guess_os>
     52e:	23 60       	ori	r18, 0x03	; 3
     530:	20 62       	ori	r18, 0x20	; 32
     532:	03 c0       	rjmp	.+6      	; 0x53a <CALLBACK_USB_GetDescriptor+0x62>
     534:	20 91 f9 09 	lds	r18, 0x09F9	; 0x8009f9 <guess_os>
     538:	28 60       	ori	r18, 0x08	; 8
     53a:	20 93 f9 09 	sts	0x09F9, r18	; 0x8009f9 <guess_os>
     53e:	99 27       	eor	r25, r25
     540:	81 30       	cpi	r24, 0x01	; 1
     542:	91 05       	cpc	r25, r1
     544:	69 f0       	breq	.+26     	; 0x560 <CALLBACK_USB_GetDescriptor+0x88>
     546:	38 f0       	brcs	.+14     	; 0x556 <CALLBACK_USB_GetDescriptor+0x7e>
     548:	02 97       	sbiw	r24, 0x02	; 2
     54a:	a1 f4       	brne	.+40     	; 0x574 <CALLBACK_USB_GetDescriptor+0x9c>
     54c:	8e e3       	ldi	r24, 0x3E	; 62
     54e:	90 e0       	ldi	r25, 0x00	; 0
     550:	2d e5       	ldi	r18, 0x5D	; 93
     552:	32 e0       	ldi	r19, 0x02	; 2
     554:	13 c0       	rjmp	.+38     	; 0x57c <CALLBACK_USB_GetDescriptor+0xa4>
     556:	84 e0       	ldi	r24, 0x04	; 4
     558:	90 e0       	ldi	r25, 0x00	; 0
     55a:	29 ea       	ldi	r18, 0xA9	; 169
     55c:	32 e0       	ldi	r19, 0x02	; 2
     55e:	0e c0       	rjmp	.+28     	; 0x57c <CALLBACK_USB_GetDescriptor+0xa4>
     560:	8a e0       	ldi	r24, 0x0A	; 10
     562:	90 e0       	ldi	r25, 0x00	; 0
     564:	2d e9       	ldi	r18, 0x9D	; 157
     566:	32 e0       	ldi	r19, 0x02	; 2
     568:	09 c0       	rjmp	.+18     	; 0x57c <CALLBACK_USB_GetDescriptor+0xa4>
     56a:	89 e0       	ldi	r24, 0x09	; 9
     56c:	90 e0       	ldi	r25, 0x00	; 0
     56e:	26 ed       	ldi	r18, 0xD6	; 214
     570:	32 e0       	ldi	r19, 0x02	; 2
     572:	04 c0       	rjmp	.+8      	; 0x57c <CALLBACK_USB_GetDescriptor+0xa4>
     574:	80 e0       	ldi	r24, 0x00	; 0
     576:	90 e0       	ldi	r25, 0x00	; 0
     578:	20 e0       	ldi	r18, 0x00	; 0
     57a:	30 e0       	ldi	r19, 0x00	; 0
     57c:	fa 01       	movw	r30, r20
     57e:	31 83       	std	Z+1, r19	; 0x01
     580:	20 83       	st	Z, r18
     582:	08 95       	ret

00000584 <guess_host_os>:
     584:	80 91 f9 09 	lds	r24, 0x09F9	; 0x8009f9 <guess_os>
     588:	98 2f       	mov	r25, r24
     58a:	9a 72       	andi	r25, 0x2A	; 42
     58c:	9a 32       	cpi	r25, 0x2A	; 42
     58e:	51 f0       	breq	.+20     	; 0x5a4 <guess_host_os+0x20>
     590:	98 2f       	mov	r25, r24
     592:	99 70       	andi	r25, 0x09	; 9
     594:	91 30       	cpi	r25, 0x01	; 1
     596:	21 f0       	breq	.+8      	; 0x5a0 <guess_host_os+0x1c>
     598:	85 fd       	sbrc	r24, 5
     59a:	04 c0       	rjmp	.+8      	; 0x5a4 <guess_host_os+0x20>
     59c:	82 e0       	ldi	r24, 0x02	; 2
     59e:	08 95       	ret
     5a0:	81 e0       	ldi	r24, 0x01	; 1
     5a2:	08 95       	ret
     5a4:	80 e0       	ldi	r24, 0x00	; 0
     5a6:	08 95       	ret

000005a8 <guess_host_os_string>:
     5a8:	ed df       	rcall	.-38     	; 0x584 <guess_host_os>
     5aa:	81 30       	cpi	r24, 0x01	; 1
     5ac:	29 f0       	breq	.+10     	; 0x5b8 <guess_host_os_string+0x10>
     5ae:	82 30       	cpi	r24, 0x02	; 2
     5b0:	31 f4       	brne	.+12     	; 0x5be <guess_host_os_string+0x16>
     5b2:	86 e5       	ldi	r24, 0x56	; 86
     5b4:	92 e0       	ldi	r25, 0x02	; 2
     5b6:	08 95       	ret
     5b8:	8d e4       	ldi	r24, 0x4D	; 77
     5ba:	92 e0       	ldi	r25, 0x02	; 2
     5bc:	08 95       	ret
     5be:	82 e4       	ldi	r24, 0x42	; 66
     5c0:	92 e0       	ldi	r25, 0x02	; 2
     5c2:	08 95       	ret

000005c4 <disk_status>:
     5c4:	81 11       	cpse	r24, r1
     5c6:	02 c0       	rjmp	.+4      	; 0x5cc <disk_status+0x8>
     5c8:	0c 94 d4 19 	jmp	0x33a8	; 0x33a8 <mmc_disk_status>
     5cc:	81 e0       	ldi	r24, 0x01	; 1
     5ce:	08 95       	ret

000005d0 <disk_initialize>:
     5d0:	81 11       	cpse	r24, r1
     5d2:	02 c0       	rjmp	.+4      	; 0x5d8 <disk_initialize+0x8>
     5d4:	0c 94 16 19 	jmp	0x322c	; 0x322c <mmc_disk_initialize>
     5d8:	81 e0       	ldi	r24, 0x01	; 1
     5da:	08 95       	ret

000005dc <disk_read>:
     5dc:	0f 93       	push	r16
     5de:	1f 93       	push	r17
     5e0:	fb 01       	movw	r30, r22
     5e2:	ba 01       	movw	r22, r20
     5e4:	a9 01       	movw	r20, r18
     5e6:	98 01       	movw	r18, r16
     5e8:	81 11       	cpse	r24, r1
     5ea:	05 c0       	rjmp	.+10     	; 0x5f6 <disk_read+0x1a>
     5ec:	cf 01       	movw	r24, r30
     5ee:	1f 91       	pop	r17
     5f0:	0f 91       	pop	r16
     5f2:	0c 94 d7 19 	jmp	0x33ae	; 0x33ae <mmc_disk_read>
     5f6:	84 e0       	ldi	r24, 0x04	; 4
     5f8:	1f 91       	pop	r17
     5fa:	0f 91       	pop	r16
     5fc:	08 95       	ret

000005fe <disk_write>:
     5fe:	0f 93       	push	r16
     600:	1f 93       	push	r17
     602:	fb 01       	movw	r30, r22
     604:	ba 01       	movw	r22, r20
     606:	a9 01       	movw	r20, r18
     608:	98 01       	movw	r18, r16
     60a:	81 11       	cpse	r24, r1
     60c:	05 c0       	rjmp	.+10     	; 0x618 <disk_write+0x1a>
     60e:	cf 01       	movw	r24, r30
     610:	1f 91       	pop	r17
     612:	0f 91       	pop	r16
     614:	0c 94 19 1a 	jmp	0x3432	; 0x3432 <mmc_disk_write>
     618:	84 e0       	ldi	r24, 0x04	; 4
     61a:	1f 91       	pop	r17
     61c:	0f 91       	pop	r16
     61e:	08 95       	ret

00000620 <disk_ioctl>:
     620:	96 2f       	mov	r25, r22
     622:	81 11       	cpse	r24, r1
     624:	04 c0       	rjmp	.+8      	; 0x62e <disk_ioctl+0xe>
     626:	ba 01       	movw	r22, r20
     628:	89 2f       	mov	r24, r25
     62a:	0c 94 88 1a 	jmp	0x3510	; 0x3510 <mmc_disk_ioctl>
     62e:	84 e0       	ldi	r24, 0x04	; 4
     630:	08 95       	ret

00000632 <disk_timerproc>:
     632:	0c 94 d5 1c 	jmp	0x39aa	; 0x39aa <mmc_disk_timerproc>

00000636 <ld_dword>:
     636:	fc 01       	movw	r30, r24
     638:	62 81       	ldd	r22, Z+2	; 0x02
     63a:	73 81       	ldd	r23, Z+3	; 0x03
     63c:	cb 01       	movw	r24, r22
     63e:	a0 e0       	ldi	r26, 0x00	; 0
     640:	b0 e0       	ldi	r27, 0x00	; 0
     642:	ba 2f       	mov	r27, r26
     644:	a9 2f       	mov	r26, r25
     646:	98 2f       	mov	r25, r24
     648:	88 27       	eor	r24, r24
     64a:	21 81       	ldd	r18, Z+1	; 0x01
     64c:	82 2b       	or	r24, r18
     64e:	ba 2f       	mov	r27, r26
     650:	a9 2f       	mov	r26, r25
     652:	98 2f       	mov	r25, r24
     654:	88 27       	eor	r24, r24
     656:	20 81       	ld	r18, Z
     658:	bc 01       	movw	r22, r24
     65a:	cd 01       	movw	r24, r26
     65c:	62 2b       	or	r22, r18
     65e:	08 95       	ret

00000660 <st_dword>:
     660:	fc 01       	movw	r30, r24
     662:	40 83       	st	Z, r20
     664:	51 83       	std	Z+1, r21	; 0x01
     666:	62 83       	std	Z+2, r22	; 0x02
     668:	73 83       	std	Z+3, r23	; 0x03
     66a:	08 95       	ret

0000066c <dbc_2nd>:
     66c:	80 34       	cpi	r24, 0x40	; 64
     66e:	68 f0       	brcs	.+26     	; 0x68a <dbc_2nd+0x1e>
     670:	8f 37       	cpi	r24, 0x7F	; 127
     672:	48 f0       	brcs	.+18     	; 0x686 <dbc_2nd+0x1a>
     674:	8f 37       	cpi	r24, 0x7F	; 127
     676:	49 f0       	breq	.+18     	; 0x68a <dbc_2nd+0x1e>
     678:	21 e0       	ldi	r18, 0x01	; 1
     67a:	90 e0       	ldi	r25, 0x00	; 0
     67c:	8d 3f       	cpi	r24, 0xFD	; 253
     67e:	08 f0       	brcs	.+2      	; 0x682 <dbc_2nd+0x16>
     680:	20 e0       	ldi	r18, 0x00	; 0
     682:	82 2f       	mov	r24, r18
     684:	08 95       	ret
     686:	81 e0       	ldi	r24, 0x01	; 1
     688:	01 c0       	rjmp	.+2      	; 0x68c <dbc_2nd+0x20>
     68a:	80 e0       	ldi	r24, 0x00	; 0
     68c:	90 e0       	ldi	r25, 0x00	; 0
     68e:	08 95       	ret

00000690 <clst2sect>:
     690:	0f 93       	push	r16
     692:	1f 93       	push	r17
     694:	fc 01       	movw	r30, r24
     696:	9a 01       	movw	r18, r20
     698:	ab 01       	movw	r20, r22
     69a:	22 50       	subi	r18, 0x02	; 2
     69c:	31 09       	sbc	r19, r1
     69e:	41 09       	sbc	r20, r1
     6a0:	51 09       	sbc	r21, r1
     6a2:	87 89       	ldd	r24, Z+23	; 0x17
     6a4:	90 8d       	ldd	r25, Z+24	; 0x18
     6a6:	a1 8d       	ldd	r26, Z+25	; 0x19
     6a8:	b2 8d       	ldd	r27, Z+26	; 0x1a
     6aa:	02 97       	sbiw	r24, 0x02	; 2
     6ac:	a1 09       	sbc	r26, r1
     6ae:	b1 09       	sbc	r27, r1
     6b0:	28 17       	cp	r18, r24
     6b2:	39 07       	cpc	r19, r25
     6b4:	4a 07       	cpc	r20, r26
     6b6:	5b 07       	cpc	r21, r27
     6b8:	68 f4       	brcc	.+26     	; 0x6d4 <clst2sect+0x44>
     6ba:	a1 85       	ldd	r26, Z+9	; 0x09
     6bc:	b2 85       	ldd	r27, Z+10	; 0x0a
     6be:	0e 94 50 2c 	call	0x58a0	; 0x58a0 <__muluhisi3>
     6c2:	03 a5       	ldd	r16, Z+43	; 0x2b
     6c4:	14 a5       	ldd	r17, Z+44	; 0x2c
     6c6:	25 a5       	ldd	r18, Z+45	; 0x2d
     6c8:	36 a5       	ldd	r19, Z+46	; 0x2e
     6ca:	60 0f       	add	r22, r16
     6cc:	71 1f       	adc	r23, r17
     6ce:	82 1f       	adc	r24, r18
     6d0:	93 1f       	adc	r25, r19
     6d2:	03 c0       	rjmp	.+6      	; 0x6da <clst2sect+0x4a>
     6d4:	60 e0       	ldi	r22, 0x00	; 0
     6d6:	70 e0       	ldi	r23, 0x00	; 0
     6d8:	cb 01       	movw	r24, r22
     6da:	1f 91       	pop	r17
     6dc:	0f 91       	pop	r16
     6de:	08 95       	ret

000006e0 <get_ldnumber>:
     6e0:	dc 01       	movw	r26, r24
     6e2:	ed 91       	ld	r30, X+
     6e4:	fc 91       	ld	r31, X
     6e6:	30 97       	sbiw	r30, 0x00	; 0
     6e8:	19 f1       	breq	.+70     	; 0x730 <get_ldnumber+0x50>
     6ea:	af 01       	movw	r20, r30
     6ec:	4f 5f       	subi	r20, 0xFF	; 255
     6ee:	5f 4f       	sbci	r21, 0xFF	; 255
     6f0:	da 01       	movw	r26, r20
     6f2:	11 97       	sbiw	r26, 0x01	; 1
     6f4:	2c 91       	ld	r18, X
     6f6:	21 32       	cpi	r18, 0x21	; 33
     6f8:	18 f0       	brcs	.+6      	; 0x700 <get_ldnumber+0x20>
     6fa:	2a 33       	cpi	r18, 0x3A	; 58
     6fc:	b9 f7       	brne	.-18     	; 0x6ec <get_ldnumber+0xc>
     6fe:	04 c0       	rjmp	.+8      	; 0x708 <get_ldnumber+0x28>
     700:	80 91 c9 05 	lds	r24, 0x05C9	; 0x8005c9 <CurrVol>
     704:	90 e0       	ldi	r25, 0x00	; 0
     706:	08 95       	ret
     708:	20 81       	ld	r18, Z
     70a:	30 ed       	ldi	r19, 0xD0	; 208
     70c:	32 0f       	add	r19, r18
     70e:	3a 30       	cpi	r19, 0x0A	; 10
     710:	78 f4       	brcc	.+30     	; 0x730 <get_ldnumber+0x50>
     712:	32 96       	adiw	r30, 0x02	; 2
     714:	4e 17       	cp	r20, r30
     716:	5f 07       	cpc	r21, r31
     718:	59 f4       	brne	.+22     	; 0x730 <get_ldnumber+0x50>
     71a:	30 e0       	ldi	r19, 0x00	; 0
     71c:	20 53       	subi	r18, 0x30	; 48
     71e:	31 09       	sbc	r19, r1
     720:	22 30       	cpi	r18, 0x02	; 2
     722:	31 05       	cpc	r19, r1
     724:	2c f4       	brge	.+10     	; 0x730 <get_ldnumber+0x50>
     726:	fc 01       	movw	r30, r24
     728:	51 83       	std	Z+1, r21	; 0x01
     72a:	40 83       	st	Z, r20
     72c:	c9 01       	movw	r24, r18
     72e:	08 95       	ret
     730:	8f ef       	ldi	r24, 0xFF	; 255
     732:	9f ef       	ldi	r25, 0xFF	; 255
     734:	08 95       	ret

00000736 <validate>:
     736:	0f 93       	push	r16
     738:	1f 93       	push	r17
     73a:	cf 93       	push	r28
     73c:	df 93       	push	r29
     73e:	ec 01       	movw	r28, r24
     740:	8b 01       	movw	r16, r22
     742:	89 2b       	or	r24, r25
     744:	e9 f0       	breq	.+58     	; 0x780 <validate+0x4a>
     746:	e8 81       	ld	r30, Y
     748:	f9 81       	ldd	r31, Y+1	; 0x01
     74a:	30 97       	sbiw	r30, 0x00	; 0
     74c:	c9 f0       	breq	.+50     	; 0x780 <validate+0x4a>
     74e:	80 81       	ld	r24, Z
     750:	88 23       	and	r24, r24
     752:	b1 f0       	breq	.+44     	; 0x780 <validate+0x4a>
     754:	2a 81       	ldd	r18, Y+2	; 0x02
     756:	3b 81       	ldd	r19, Y+3	; 0x03
     758:	85 81       	ldd	r24, Z+5	; 0x05
     75a:	96 81       	ldd	r25, Z+6	; 0x06
     75c:	28 17       	cp	r18, r24
     75e:	39 07       	cpc	r19, r25
     760:	79 f4       	brne	.+30     	; 0x780 <validate+0x4a>
     762:	81 81       	ldd	r24, Z+1	; 0x01
     764:	2f df       	rcall	.-418    	; 0x5c4 <disk_status>
     766:	80 fd       	sbrc	r24, 0
     768:	0b c0       	rjmp	.+22     	; 0x780 <validate+0x4a>
     76a:	28 81       	ld	r18, Y
     76c:	39 81       	ldd	r19, Y+1	; 0x01
     76e:	80 e0       	ldi	r24, 0x00	; 0
     770:	f8 01       	movw	r30, r16
     772:	31 83       	std	Z+1, r19	; 0x01
     774:	20 83       	st	Z, r18
     776:	df 91       	pop	r29
     778:	cf 91       	pop	r28
     77a:	1f 91       	pop	r17
     77c:	0f 91       	pop	r16
     77e:	08 95       	ret
     780:	89 e0       	ldi	r24, 0x09	; 9
     782:	20 e0       	ldi	r18, 0x00	; 0
     784:	30 e0       	ldi	r19, 0x00	; 0
     786:	f4 cf       	rjmp	.-24     	; 0x770 <validate+0x3a>

00000788 <ld_clust.isra.0>:
     788:	fb 01       	movw	r30, r22
     78a:	42 8d       	ldd	r20, Z+26	; 0x1a
     78c:	53 8d       	ldd	r21, Z+27	; 0x1b
     78e:	60 e0       	ldi	r22, 0x00	; 0
     790:	70 e0       	ldi	r23, 0x00	; 0
     792:	83 30       	cpi	r24, 0x03	; 3
     794:	59 f4       	brne	.+22     	; 0x7ac <ld_clust.isra.0+0x24>
     796:	84 89       	ldd	r24, Z+20	; 0x14
     798:	95 89       	ldd	r25, Z+21	; 0x15
     79a:	a0 e0       	ldi	r26, 0x00	; 0
     79c:	b0 e0       	ldi	r27, 0x00	; 0
     79e:	dc 01       	movw	r26, r24
     7a0:	99 27       	eor	r25, r25
     7a2:	88 27       	eor	r24, r24
     7a4:	48 2b       	or	r20, r24
     7a6:	59 2b       	or	r21, r25
     7a8:	6a 2b       	or	r22, r26
     7aa:	7b 2b       	or	r23, r27
     7ac:	cb 01       	movw	r24, r22
     7ae:	ba 01       	movw	r22, r20
     7b0:	08 95       	ret

000007b2 <st_clust.isra.1>:
     7b2:	fb 01       	movw	r30, r22
     7b4:	22 8f       	std	Z+26, r18	; 0x1a
     7b6:	33 8f       	std	Z+27, r19	; 0x1b
     7b8:	dc 01       	movw	r26, r24
     7ba:	8c 91       	ld	r24, X
     7bc:	83 30       	cpi	r24, 0x03	; 3
     7be:	29 f4       	brne	.+10     	; 0x7ca <st_clust.isra.1+0x18>
     7c0:	ca 01       	movw	r24, r20
     7c2:	aa 27       	eor	r26, r26
     7c4:	bb 27       	eor	r27, r27
     7c6:	84 8b       	std	Z+20, r24	; 0x14
     7c8:	95 8b       	std	Z+21, r25	; 0x15
     7ca:	08 95       	ret

000007cc <sync_window>:
     7cc:	8f 92       	push	r8
     7ce:	9f 92       	push	r9
     7d0:	af 92       	push	r10
     7d2:	bf 92       	push	r11
     7d4:	ef 92       	push	r14
     7d6:	ff 92       	push	r15
     7d8:	0f 93       	push	r16
     7da:	1f 93       	push	r17
     7dc:	cf 93       	push	r28
     7de:	df 93       	push	r29
     7e0:	fc 01       	movw	r30, r24
     7e2:	23 81       	ldd	r18, Z+3	; 0x03
     7e4:	22 23       	and	r18, r18
     7e6:	b1 f1       	breq	.+108    	; 0x854 <sync_window+0x88>
     7e8:	ec 01       	movw	r28, r24
     7ea:	7c 01       	movw	r14, r24
     7ec:	f3 e3       	ldi	r31, 0x33	; 51
     7ee:	ef 0e       	add	r14, r31
     7f0:	f1 1c       	adc	r15, r1
     7f2:	2f a5       	ldd	r18, Y+47	; 0x2f
     7f4:	38 a9       	ldd	r19, Y+48	; 0x30
     7f6:	49 a9       	ldd	r20, Y+49	; 0x31
     7f8:	5a a9       	ldd	r21, Y+50	; 0x32
     7fa:	01 e0       	ldi	r16, 0x01	; 1
     7fc:	10 e0       	ldi	r17, 0x00	; 0
     7fe:	b7 01       	movw	r22, r14
     800:	89 81       	ldd	r24, Y+1	; 0x01
     802:	fd de       	rcall	.-518    	; 0x5fe <disk_write>
     804:	81 11       	cpse	r24, r1
     806:	28 c0       	rjmp	.+80     	; 0x858 <sync_window+0x8c>
     808:	1b 82       	std	Y+3, r1	; 0x03
     80a:	0f a5       	ldd	r16, Y+47	; 0x2f
     80c:	18 a9       	ldd	r17, Y+48	; 0x30
     80e:	29 a9       	ldd	r18, Y+49	; 0x31
     810:	3a a9       	ldd	r19, Y+50	; 0x32
     812:	8b 8d       	ldd	r24, Y+27	; 0x1b
     814:	9c 8d       	ldd	r25, Y+28	; 0x1c
     816:	ad 8d       	ldd	r26, Y+29	; 0x1d
     818:	be 8d       	ldd	r27, Y+30	; 0x1e
     81a:	8b a0       	ldd	r8, Y+35	; 0x23
     81c:	9c a0       	ldd	r9, Y+36	; 0x24
     81e:	ad a0       	ldd	r10, Y+37	; 0x25
     820:	be a0       	ldd	r11, Y+38	; 0x26
     822:	b9 01       	movw	r22, r18
     824:	a8 01       	movw	r20, r16
     826:	48 19       	sub	r20, r8
     828:	59 09       	sbc	r21, r9
     82a:	6a 09       	sbc	r22, r10
     82c:	7b 09       	sbc	r23, r11
     82e:	48 17       	cp	r20, r24
     830:	59 07       	cpc	r21, r25
     832:	6a 07       	cpc	r22, r26
     834:	7b 07       	cpc	r23, r27
     836:	70 f4       	brcc	.+28     	; 0x854 <sync_window+0x88>
     838:	6a 81       	ldd	r22, Y+2	; 0x02
     83a:	62 30       	cpi	r22, 0x02	; 2
     83c:	59 f4       	brne	.+22     	; 0x854 <sync_window+0x88>
     83e:	a9 01       	movw	r20, r18
     840:	98 01       	movw	r18, r16
     842:	28 0f       	add	r18, r24
     844:	39 1f       	adc	r19, r25
     846:	4a 1f       	adc	r20, r26
     848:	5b 1f       	adc	r21, r27
     84a:	01 e0       	ldi	r16, 0x01	; 1
     84c:	10 e0       	ldi	r17, 0x00	; 0
     84e:	b7 01       	movw	r22, r14
     850:	89 81       	ldd	r24, Y+1	; 0x01
     852:	d5 de       	rcall	.-598    	; 0x5fe <disk_write>
     854:	80 e0       	ldi	r24, 0x00	; 0
     856:	01 c0       	rjmp	.+2      	; 0x85a <sync_window+0x8e>
     858:	81 e0       	ldi	r24, 0x01	; 1
     85a:	df 91       	pop	r29
     85c:	cf 91       	pop	r28
     85e:	1f 91       	pop	r17
     860:	0f 91       	pop	r16
     862:	ff 90       	pop	r15
     864:	ef 90       	pop	r14
     866:	bf 90       	pop	r11
     868:	af 90       	pop	r10
     86a:	9f 90       	pop	r9
     86c:	8f 90       	pop	r8
     86e:	08 95       	ret

00000870 <sync_fs>:
     870:	ef 92       	push	r14
     872:	ff 92       	push	r15
     874:	0f 93       	push	r16
     876:	1f 93       	push	r17
     878:	cf 93       	push	r28
     87a:	df 93       	push	r29
     87c:	ec 01       	movw	r28, r24
     87e:	a6 df       	rcall	.-180    	; 0x7cc <sync_window>
     880:	98 2f       	mov	r25, r24
     882:	81 11       	cpse	r24, r1
     884:	59 c0       	rjmp	.+178    	; 0x938 <sync_fs+0xc8>
     886:	88 81       	ld	r24, Y
     888:	83 30       	cpi	r24, 0x03	; 3
     88a:	09 f0       	breq	.+2      	; 0x88e <sync_fs+0x1e>
     88c:	4c c0       	rjmp	.+152    	; 0x926 <sync_fs+0xb6>
     88e:	8c 81       	ldd	r24, Y+4	; 0x04
     890:	81 30       	cpi	r24, 0x01	; 1
     892:	09 f0       	breq	.+2      	; 0x896 <sync_fs+0x26>
     894:	48 c0       	rjmp	.+144    	; 0x926 <sync_fs+0xb6>
     896:	80 e0       	ldi	r24, 0x00	; 0
     898:	92 e0       	ldi	r25, 0x02	; 2
     89a:	7e 01       	movw	r14, r28
     89c:	23 e3       	ldi	r18, 0x33	; 51
     89e:	e2 0e       	add	r14, r18
     8a0:	f1 1c       	adc	r15, r1
     8a2:	f7 01       	movw	r30, r14
     8a4:	9c 01       	movw	r18, r24
     8a6:	11 92       	st	Z+, r1
     8a8:	21 50       	subi	r18, 0x01	; 1
     8aa:	30 40       	sbci	r19, 0x00	; 0
     8ac:	e1 f7       	brne	.-8      	; 0x8a6 <sync_fs+0x36>
     8ae:	85 e5       	ldi	r24, 0x55	; 85
     8b0:	fe 01       	movw	r30, r28
     8b2:	ef 5c       	subi	r30, 0xCF	; 207
     8b4:	fd 4f       	sbci	r31, 0xFD	; 253
     8b6:	80 83       	st	Z, r24
     8b8:	8a ea       	ldi	r24, 0xAA	; 170
     8ba:	31 96       	adiw	r30, 0x01	; 1
     8bc:	80 83       	st	Z, r24
     8be:	82 e5       	ldi	r24, 0x52	; 82
     8c0:	8b ab       	std	Y+51, r24	; 0x33
     8c2:	8c ab       	std	Y+52, r24	; 0x34
     8c4:	81 e6       	ldi	r24, 0x61	; 97
     8c6:	8d ab       	std	Y+53, r24	; 0x35
     8c8:	91 e4       	ldi	r25, 0x41	; 65
     8ca:	9e ab       	std	Y+54, r25	; 0x36
     8cc:	22 e7       	ldi	r18, 0x72	; 114
     8ce:	7b 97       	sbiw	r30, 0x1b	; 27
     8d0:	20 83       	st	Z, r18
     8d2:	31 96       	adiw	r30, 0x01	; 1
     8d4:	20 83       	st	Z, r18
     8d6:	31 96       	adiw	r30, 0x01	; 1
     8d8:	90 83       	st	Z, r25
     8da:	31 96       	adiw	r30, 0x01	; 1
     8dc:	80 83       	st	Z, r24
     8de:	4f 85       	ldd	r20, Y+15	; 0x0f
     8e0:	58 89       	ldd	r21, Y+16	; 0x10
     8e2:	69 89       	ldd	r22, Y+17	; 0x11
     8e4:	7a 89       	ldd	r23, Y+18	; 0x12
     8e6:	ce 01       	movw	r24, r28
     8e8:	85 5e       	subi	r24, 0xE5	; 229
     8ea:	9d 4f       	sbci	r25, 0xFD	; 253
     8ec:	b9 de       	rcall	.-654    	; 0x660 <st_dword>
     8ee:	4b 85       	ldd	r20, Y+11	; 0x0b
     8f0:	5c 85       	ldd	r21, Y+12	; 0x0c
     8f2:	6d 85       	ldd	r22, Y+13	; 0x0d
     8f4:	7e 85       	ldd	r23, Y+14	; 0x0e
     8f6:	ce 01       	movw	r24, r28
     8f8:	81 5e       	subi	r24, 0xE1	; 225
     8fa:	9d 4f       	sbci	r25, 0xFD	; 253
     8fc:	b1 de       	rcall	.-670    	; 0x660 <st_dword>
     8fe:	8f 8d       	ldd	r24, Y+31	; 0x1f
     900:	98 a1       	ldd	r25, Y+32	; 0x20
     902:	a9 a1       	ldd	r26, Y+33	; 0x21
     904:	ba a1       	ldd	r27, Y+34	; 0x22
     906:	9c 01       	movw	r18, r24
     908:	ad 01       	movw	r20, r26
     90a:	2f 5f       	subi	r18, 0xFF	; 255
     90c:	3f 4f       	sbci	r19, 0xFF	; 255
     90e:	4f 4f       	sbci	r20, 0xFF	; 255
     910:	5f 4f       	sbci	r21, 0xFF	; 255
     912:	2f a7       	std	Y+47, r18	; 0x2f
     914:	38 ab       	std	Y+48, r19	; 0x30
     916:	49 ab       	std	Y+49, r20	; 0x31
     918:	5a ab       	std	Y+50, r21	; 0x32
     91a:	01 e0       	ldi	r16, 0x01	; 1
     91c:	10 e0       	ldi	r17, 0x00	; 0
     91e:	b7 01       	movw	r22, r14
     920:	89 81       	ldd	r24, Y+1	; 0x01
     922:	6d de       	rcall	.-806    	; 0x5fe <disk_write>
     924:	1c 82       	std	Y+4, r1	; 0x04
     926:	40 e0       	ldi	r20, 0x00	; 0
     928:	50 e0       	ldi	r21, 0x00	; 0
     92a:	60 e0       	ldi	r22, 0x00	; 0
     92c:	89 81       	ldd	r24, Y+1	; 0x01
     92e:	78 de       	rcall	.-784    	; 0x620 <disk_ioctl>
     930:	91 e0       	ldi	r25, 0x01	; 1
     932:	81 11       	cpse	r24, r1
     934:	01 c0       	rjmp	.+2      	; 0x938 <sync_fs+0xc8>
     936:	90 e0       	ldi	r25, 0x00	; 0
     938:	89 2f       	mov	r24, r25
     93a:	df 91       	pop	r29
     93c:	cf 91       	pop	r28
     93e:	1f 91       	pop	r17
     940:	0f 91       	pop	r16
     942:	ff 90       	pop	r15
     944:	ef 90       	pop	r14
     946:	08 95       	ret

00000948 <move_window.part.4>:
     948:	8f 92       	push	r8
     94a:	9f 92       	push	r9
     94c:	af 92       	push	r10
     94e:	bf 92       	push	r11
     950:	ff 92       	push	r15
     952:	0f 93       	push	r16
     954:	1f 93       	push	r17
     956:	cf 93       	push	r28
     958:	df 93       	push	r29
     95a:	ec 01       	movw	r28, r24
     95c:	4a 01       	movw	r8, r20
     95e:	5b 01       	movw	r10, r22
     960:	35 df       	rcall	.-406    	; 0x7cc <sync_window>
     962:	f8 2e       	mov	r15, r24
     964:	81 11       	cpse	r24, r1
     966:	15 c0       	rjmp	.+42     	; 0x992 <move_window.part.4+0x4a>
     968:	01 e0       	ldi	r16, 0x01	; 1
     96a:	10 e0       	ldi	r17, 0x00	; 0
     96c:	a5 01       	movw	r20, r10
     96e:	94 01       	movw	r18, r8
     970:	be 01       	movw	r22, r28
     972:	6d 5c       	subi	r22, 0xCD	; 205
     974:	7f 4f       	sbci	r23, 0xFF	; 255
     976:	89 81       	ldd	r24, Y+1	; 0x01
     978:	31 de       	rcall	.-926    	; 0x5dc <disk_read>
     97a:	88 23       	and	r24, r24
     97c:	31 f0       	breq	.+12     	; 0x98a <move_window.part.4+0x42>
     97e:	ff 24       	eor	r15, r15
     980:	f3 94       	inc	r15
     982:	88 24       	eor	r8, r8
     984:	8a 94       	dec	r8
     986:	98 2c       	mov	r9, r8
     988:	54 01       	movw	r10, r8
     98a:	8f a6       	std	Y+47, r8	; 0x2f
     98c:	98 aa       	std	Y+48, r9	; 0x30
     98e:	a9 aa       	std	Y+49, r10	; 0x31
     990:	ba aa       	std	Y+50, r11	; 0x32
     992:	8f 2d       	mov	r24, r15
     994:	df 91       	pop	r29
     996:	cf 91       	pop	r28
     998:	1f 91       	pop	r17
     99a:	0f 91       	pop	r16
     99c:	ff 90       	pop	r15
     99e:	bf 90       	pop	r11
     9a0:	af 90       	pop	r10
     9a2:	9f 90       	pop	r9
     9a4:	8f 90       	pop	r8
     9a6:	08 95       	ret

000009a8 <move_window>:
     9a8:	0f 93       	push	r16
     9aa:	1f 93       	push	r17
     9ac:	fc 01       	movw	r30, r24
     9ae:	07 a5       	ldd	r16, Z+47	; 0x2f
     9b0:	10 a9       	ldd	r17, Z+48	; 0x30
     9b2:	21 a9       	ldd	r18, Z+49	; 0x31
     9b4:	32 a9       	ldd	r19, Z+50	; 0x32
     9b6:	04 17       	cp	r16, r20
     9b8:	15 07       	cpc	r17, r21
     9ba:	26 07       	cpc	r18, r22
     9bc:	37 07       	cpc	r19, r23
     9be:	19 f0       	breq	.+6      	; 0x9c6 <move_window+0x1e>
     9c0:	1f 91       	pop	r17
     9c2:	0f 91       	pop	r16
     9c4:	c1 cf       	rjmp	.-126    	; 0x948 <move_window.part.4>
     9c6:	80 e0       	ldi	r24, 0x00	; 0
     9c8:	1f 91       	pop	r17
     9ca:	0f 91       	pop	r16
     9cc:	08 95       	ret

000009ce <check_fs.part.5>:
     9ce:	ef 92       	push	r14
     9d0:	ff 92       	push	r15
     9d2:	0f 93       	push	r16
     9d4:	1f 93       	push	r17
     9d6:	cf 93       	push	r28
     9d8:	df 93       	push	r29
     9da:	ec 01       	movw	r28, r24
     9dc:	fc 01       	movw	r30, r24
     9de:	ef 5c       	subi	r30, 0xCF	; 207
     9e0:	fd 4f       	sbci	r31, 0xFD	; 253
     9e2:	e0 80       	ld	r14, Z
     9e4:	f1 80       	ldd	r15, Z+1	; 0x01
     9e6:	9b a9       	ldd	r25, Y+51	; 0x33
     9e8:	9b 3e       	cpi	r25, 0xEB	; 235
     9ea:	21 f0       	breq	.+8      	; 0x9f4 <check_fs.part.5+0x26>
     9ec:	98 5e       	subi	r25, 0xE8	; 232
     9ee:	92 30       	cpi	r25, 0x02	; 2
     9f0:	08 f0       	brcs	.+2      	; 0x9f4 <check_fs.part.5+0x26>
     9f2:	51 c0       	rjmp	.+162    	; 0xa96 <check_fs.part.5+0xc8>
     9f4:	25 e5       	ldi	r18, 0x55	; 85
     9f6:	e2 16       	cp	r14, r18
     9f8:	2a ea       	ldi	r18, 0xAA	; 170
     9fa:	f2 06       	cpc	r15, r18
     9fc:	61 f4       	brne	.+24     	; 0xa16 <check_fs.part.5+0x48>
     9fe:	48 e0       	ldi	r20, 0x08	; 8
     a00:	50 e0       	ldi	r21, 0x00	; 0
     a02:	6e e5       	ldi	r22, 0x5E	; 94
     a04:	73 e0       	ldi	r23, 0x03	; 3
     a06:	ce 01       	movw	r24, r28
     a08:	8b 57       	subi	r24, 0x7B	; 123
     a0a:	9f 4f       	sbci	r25, 0xFF	; 255
     a0c:	0e 94 71 2c 	call	0x58e2	; 0x58e2 <memcmp>
     a10:	89 2b       	or	r24, r25
     a12:	09 f4       	brne	.+2      	; 0xa16 <check_fs.part.5+0x48>
     a14:	48 c0       	rjmp	.+144    	; 0xaa6 <check_fs.part.5+0xd8>
     a16:	8e ad       	ldd	r24, Y+62	; 0x3e
     a18:	9f ad       	ldd	r25, Y+63	; 0x3f
     a1a:	8c 01       	movw	r16, r24
     a1c:	01 50       	subi	r16, 0x01	; 1
     a1e:	11 09       	sbc	r17, r1
     a20:	08 23       	and	r16, r24
     a22:	19 23       	and	r17, r25
     a24:	01 15       	cp	r16, r1
     a26:	11 05       	cpc	r17, r1
     a28:	b1 f5       	brne	.+108    	; 0xa96 <check_fs.part.5+0xc8>
     a2a:	81 15       	cp	r24, r1
     a2c:	92 40       	sbci	r25, 0x02	; 2
     a2e:	99 f5       	brne	.+102    	; 0xa96 <check_fs.part.5+0xc8>
     a30:	fe 01       	movw	r30, r28
     a32:	e0 5c       	subi	r30, 0xC0	; 192
     a34:	ff 4f       	sbci	r31, 0xFF	; 255
     a36:	80 81       	ld	r24, Z
     a38:	88 23       	and	r24, r24
     a3a:	69 f1       	breq	.+90     	; 0xa96 <check_fs.part.5+0xc8>
     a3c:	90 e0       	ldi	r25, 0x00	; 0
     a3e:	9c 01       	movw	r18, r24
     a40:	21 50       	subi	r18, 0x01	; 1
     a42:	31 09       	sbc	r19, r1
     a44:	82 23       	and	r24, r18
     a46:	93 23       	and	r25, r19
     a48:	89 2b       	or	r24, r25
     a4a:	29 f5       	brne	.+74     	; 0xa96 <check_fs.part.5+0xc8>
     a4c:	31 96       	adiw	r30, 0x01	; 1
     a4e:	80 81       	ld	r24, Z
     a50:	91 81       	ldd	r25, Z+1	; 0x01
     a52:	89 2b       	or	r24, r25
     a54:	01 f1       	breq	.+64     	; 0xa96 <check_fs.part.5+0xc8>
     a56:	32 96       	adiw	r30, 0x02	; 2
     a58:	80 81       	ld	r24, Z
     a5a:	90 e0       	ldi	r25, 0x00	; 0
     a5c:	01 97       	sbiw	r24, 0x01	; 1
     a5e:	02 97       	sbiw	r24, 0x02	; 2
     a60:	d0 f4       	brcc	.+52     	; 0xa96 <check_fs.part.5+0xc8>
     a62:	31 96       	adiw	r30, 0x01	; 1
     a64:	80 81       	ld	r24, Z
     a66:	91 81       	ldd	r25, Z+1	; 0x01
     a68:	89 2b       	or	r24, r25
     a6a:	a9 f0       	breq	.+42     	; 0xa96 <check_fs.part.5+0xc8>
     a6c:	32 96       	adiw	r30, 0x02	; 2
     a6e:	80 81       	ld	r24, Z
     a70:	91 81       	ldd	r25, Z+1	; 0x01
     a72:	80 38       	cpi	r24, 0x80	; 128
     a74:	91 05       	cpc	r25, r1
     a76:	48 f4       	brcc	.+18     	; 0xa8a <check_fs.part.5+0xbc>
     a78:	ce 01       	movw	r24, r28
     a7a:	8d 5a       	subi	r24, 0xAD	; 173
     a7c:	9f 4f       	sbci	r25, 0xFF	; 255
     a7e:	db dd       	rcall	.-1098   	; 0x636 <ld_dword>
     a80:	61 15       	cp	r22, r1
     a82:	71 05       	cpc	r23, r1
     a84:	81 40       	sbci	r24, 0x01	; 1
     a86:	91 05       	cpc	r25, r1
     a88:	30 f0       	brcs	.+12     	; 0xa96 <check_fs.part.5+0xc8>
     a8a:	c7 5b       	subi	r28, 0xB7	; 183
     a8c:	df 4f       	sbci	r29, 0xFF	; 255
     a8e:	88 81       	ld	r24, Y
     a90:	99 81       	ldd	r25, Y+1	; 0x01
     a92:	89 2b       	or	r24, r25
     a94:	69 f4       	brne	.+26     	; 0xab0 <check_fs.part.5+0xe2>
     a96:	85 e5       	ldi	r24, 0x55	; 85
     a98:	e8 16       	cp	r14, r24
     a9a:	8a ea       	ldi	r24, 0xAA	; 170
     a9c:	f8 06       	cpc	r15, r24
     a9e:	31 f0       	breq	.+12     	; 0xaac <check_fs.part.5+0xde>
     aa0:	03 e0       	ldi	r16, 0x03	; 3
     aa2:	10 e0       	ldi	r17, 0x00	; 0
     aa4:	05 c0       	rjmp	.+10     	; 0xab0 <check_fs.part.5+0xe2>
     aa6:	00 e0       	ldi	r16, 0x00	; 0
     aa8:	10 e0       	ldi	r17, 0x00	; 0
     aaa:	02 c0       	rjmp	.+4      	; 0xab0 <check_fs.part.5+0xe2>
     aac:	02 e0       	ldi	r16, 0x02	; 2
     aae:	10 e0       	ldi	r17, 0x00	; 0
     ab0:	c8 01       	movw	r24, r16
     ab2:	df 91       	pop	r29
     ab4:	cf 91       	pop	r28
     ab6:	1f 91       	pop	r17
     ab8:	0f 91       	pop	r16
     aba:	ff 90       	pop	r15
     abc:	ef 90       	pop	r14
     abe:	08 95       	ret

00000ac0 <put_fat>:
     ac0:	2f 92       	push	r2
     ac2:	3f 92       	push	r3
     ac4:	4f 92       	push	r4
     ac6:	5f 92       	push	r5
     ac8:	6f 92       	push	r6
     aca:	7f 92       	push	r7
     acc:	8f 92       	push	r8
     ace:	9f 92       	push	r9
     ad0:	af 92       	push	r10
     ad2:	bf 92       	push	r11
     ad4:	cf 92       	push	r12
     ad6:	df 92       	push	r13
     ad8:	ef 92       	push	r14
     ada:	ff 92       	push	r15
     adc:	0f 93       	push	r16
     ade:	1f 93       	push	r17
     ae0:	cf 93       	push	r28
     ae2:	df 93       	push	r29
     ae4:	00 d0       	rcall	.+0      	; 0xae6 <put_fat+0x26>
     ae6:	00 d0       	rcall	.+0      	; 0xae8 <put_fat+0x28>
     ae8:	cd b7       	in	r28, 0x3d	; 61
     aea:	de b7       	in	r29, 0x3e	; 62
     aec:	42 30       	cpi	r20, 0x02	; 2
     aee:	51 05       	cpc	r21, r1
     af0:	61 05       	cpc	r22, r1
     af2:	71 05       	cpc	r23, r1
     af4:	08 f4       	brcc	.+2      	; 0xaf8 <put_fat+0x38>
     af6:	e0 c0       	rjmp	.+448    	; 0xcb8 <put_fat+0x1f8>
     af8:	fc 01       	movw	r30, r24
     afa:	c7 88       	ldd	r12, Z+23	; 0x17
     afc:	d0 8c       	ldd	r13, Z+24	; 0x18
     afe:	e1 8c       	ldd	r14, Z+25	; 0x19
     b00:	f2 8c       	ldd	r15, Z+26	; 0x1a
     b02:	4c 15       	cp	r20, r12
     b04:	5d 05       	cpc	r21, r13
     b06:	6e 05       	cpc	r22, r14
     b08:	7f 05       	cpc	r23, r15
     b0a:	08 f0       	brcs	.+2      	; 0xb0e <put_fat+0x4e>
     b0c:	d5 c0       	rjmp	.+426    	; 0xcb8 <put_fat+0x1f8>
     b0e:	28 01       	movw	r4, r16
     b10:	39 01       	movw	r6, r18
     b12:	6a 01       	movw	r12, r20
     b14:	7b 01       	movw	r14, r22
     b16:	9c 83       	std	Y+4, r25	; 0x04
     b18:	8b 83       	std	Y+3, r24	; 0x03
     b1a:	80 81       	ld	r24, Z
     b1c:	82 30       	cpi	r24, 0x02	; 2
     b1e:	09 f4       	brne	.+2      	; 0xb22 <put_fat+0x62>
     b20:	6f c0       	rjmp	.+222    	; 0xc00 <put_fat+0x140>
     b22:	83 30       	cpi	r24, 0x03	; 3
     b24:	09 f4       	brne	.+2      	; 0xb28 <put_fat+0x68>
     b26:	8d c0       	rjmp	.+282    	; 0xc42 <put_fat+0x182>
     b28:	81 30       	cpi	r24, 0x01	; 1
     b2a:	09 f0       	breq	.+2      	; 0xb2e <put_fat+0x6e>
     b2c:	c5 c0       	rjmp	.+394    	; 0xcb8 <put_fat+0x1f8>
     b2e:	5a 01       	movw	r10, r20
     b30:	b6 94       	lsr	r11
     b32:	a7 94       	ror	r10
     b34:	a4 0e       	add	r10, r20
     b36:	b5 1e       	adc	r11, r21
     b38:	c5 01       	movw	r24, r10
     b3a:	89 2f       	mov	r24, r25
     b3c:	99 27       	eor	r25, r25
     b3e:	86 95       	lsr	r24
     b40:	43 a1       	ldd	r20, Z+35	; 0x23
     b42:	54 a1       	ldd	r21, Z+36	; 0x24
     b44:	65 a1       	ldd	r22, Z+37	; 0x25
     b46:	76 a1       	ldd	r23, Z+38	; 0x26
     b48:	48 0f       	add	r20, r24
     b4a:	59 1f       	adc	r21, r25
     b4c:	61 1d       	adc	r22, r1
     b4e:	71 1d       	adc	r23, r1
     b50:	cf 01       	movw	r24, r30
     b52:	2a df       	rcall	.-428    	; 0x9a8 <move_window>
     b54:	18 2f       	mov	r17, r24
     b56:	81 11       	cpse	r24, r1
     b58:	b0 c0       	rjmp	.+352    	; 0xcba <put_fat+0x1fa>
     b5a:	2b 81       	ldd	r18, Y+3	; 0x03
     b5c:	3c 81       	ldd	r19, Y+4	; 0x04
     b5e:	2d 5c       	subi	r18, 0xCD	; 205
     b60:	3f 4f       	sbci	r19, 0xFF	; 255
     b62:	3a 83       	std	Y+2, r19	; 0x02
     b64:	29 83       	std	Y+1, r18	; 0x01
     b66:	15 01       	movw	r2, r10
     b68:	3f ef       	ldi	r19, 0xFF	; 255
     b6a:	23 1a       	sub	r2, r19
     b6c:	33 0a       	sbc	r3, r19
     b6e:	81 e0       	ldi	r24, 0x01	; 1
     b70:	b8 22       	and	r11, r24
     b72:	e9 81       	ldd	r30, Y+1	; 0x01
     b74:	fa 81       	ldd	r31, Y+2	; 0x02
     b76:	ea 0d       	add	r30, r10
     b78:	fb 1d       	adc	r31, r11
     b7a:	46 01       	movw	r8, r12
     b7c:	57 01       	movw	r10, r14
     b7e:	91 e0       	ldi	r25, 0x01	; 1
     b80:	89 22       	and	r8, r25
     b82:	99 24       	eor	r9, r9
     b84:	aa 24       	eor	r10, r10
     b86:	bb 24       	eor	r11, r11
     b88:	c0 fe       	sbrs	r12, 0
     b8a:	09 c0       	rjmp	.+18     	; 0xb9e <put_fat+0xde>
     b8c:	80 81       	ld	r24, Z
     b8e:	28 2f       	mov	r18, r24
     b90:	2f 70       	andi	r18, 0x0F	; 15
     b92:	30 e1       	ldi	r19, 0x10	; 16
     b94:	43 9e       	mul	r4, r19
     b96:	c0 01       	movw	r24, r0
     b98:	11 24       	eor	r1, r1
     b9a:	82 2b       	or	r24, r18
     b9c:	01 c0       	rjmp	.+2      	; 0xba0 <put_fat+0xe0>
     b9e:	84 2d       	mov	r24, r4
     ba0:	80 83       	st	Z, r24
     ba2:	81 e0       	ldi	r24, 0x01	; 1
     ba4:	eb 81       	ldd	r30, Y+3	; 0x03
     ba6:	fc 81       	ldd	r31, Y+4	; 0x04
     ba8:	83 83       	std	Z+3, r24	; 0x03
     baa:	43 a1       	ldd	r20, Z+35	; 0x23
     bac:	54 a1       	ldd	r21, Z+36	; 0x24
     bae:	65 a1       	ldd	r22, Z+37	; 0x25
     bb0:	76 a1       	ldd	r23, Z+38	; 0x26
     bb2:	c1 01       	movw	r24, r2
     bb4:	89 2f       	mov	r24, r25
     bb6:	99 27       	eor	r25, r25
     bb8:	86 95       	lsr	r24
     bba:	48 0f       	add	r20, r24
     bbc:	59 1f       	adc	r21, r25
     bbe:	61 1d       	adc	r22, r1
     bc0:	71 1d       	adc	r23, r1
     bc2:	cf 01       	movw	r24, r30
     bc4:	f1 de       	rcall	.-542    	; 0x9a8 <move_window>
     bc6:	18 2f       	mov	r17, r24
     bc8:	81 11       	cpse	r24, r1
     bca:	77 c0       	rjmp	.+238    	; 0xcba <put_fat+0x1fa>
     bcc:	f1 e0       	ldi	r31, 0x01	; 1
     bce:	3f 22       	and	r3, r31
     bd0:	e9 81       	ldd	r30, Y+1	; 0x01
     bd2:	fa 81       	ldd	r31, Y+2	; 0x02
     bd4:	e2 0d       	add	r30, r2
     bd6:	f3 1d       	adc	r31, r3
     bd8:	89 28       	or	r8, r9
     bda:	8a 28       	or	r8, r10
     bdc:	8b 28       	or	r8, r11
     bde:	41 f0       	breq	.+16     	; 0xbf0 <put_fat+0x130>
     be0:	54 e0       	ldi	r21, 0x04	; 4
     be2:	76 94       	lsr	r7
     be4:	67 94       	ror	r6
     be6:	57 94       	ror	r5
     be8:	47 94       	ror	r4
     bea:	5a 95       	dec	r21
     bec:	d1 f7       	brne	.-12     	; 0xbe2 <put_fat+0x122>
     bee:	06 c0       	rjmp	.+12     	; 0xbfc <put_fat+0x13c>
     bf0:	00 81       	ld	r16, Z
     bf2:	00 7f       	andi	r16, 0xF0	; 240
     bf4:	85 2d       	mov	r24, r5
     bf6:	8f 70       	andi	r24, 0x0F	; 15
     bf8:	40 2e       	mov	r4, r16
     bfa:	48 2a       	or	r4, r24
     bfc:	40 82       	st	Z, r4
     bfe:	57 c0       	rjmp	.+174    	; 0xcae <put_fat+0x1ee>
     c00:	77 27       	eor	r23, r23
     c02:	6f 2d       	mov	r22, r15
     c04:	5e 2d       	mov	r21, r14
     c06:	4d 2d       	mov	r20, r13
     c08:	eb 81       	ldd	r30, Y+3	; 0x03
     c0a:	fc 81       	ldd	r31, Y+4	; 0x04
     c0c:	83 a1       	ldd	r24, Z+35	; 0x23
     c0e:	94 a1       	ldd	r25, Z+36	; 0x24
     c10:	a5 a1       	ldd	r26, Z+37	; 0x25
     c12:	b6 a1       	ldd	r27, Z+38	; 0x26
     c14:	48 0f       	add	r20, r24
     c16:	59 1f       	adc	r21, r25
     c18:	6a 1f       	adc	r22, r26
     c1a:	7b 1f       	adc	r23, r27
     c1c:	cf 01       	movw	r24, r30
     c1e:	c4 de       	rcall	.-632    	; 0x9a8 <move_window>
     c20:	18 2f       	mov	r17, r24
     c22:	81 11       	cpse	r24, r1
     c24:	4a c0       	rjmp	.+148    	; 0xcba <put_fat+0x1fa>
     c26:	eb 81       	ldd	r30, Y+3	; 0x03
     c28:	fc 81       	ldd	r31, Y+4	; 0x04
     c2a:	f3 96       	adiw	r30, 0x33	; 51
     c2c:	cc 0c       	add	r12, r12
     c2e:	dd 1c       	adc	r13, r13
     c30:	e8 94       	clt
     c32:	c0 f8       	bld	r12, 0
     c34:	21 e0       	ldi	r18, 0x01	; 1
     c36:	d2 22       	and	r13, r18
     c38:	ec 0d       	add	r30, r12
     c3a:	fd 1d       	adc	r31, r13
     c3c:	40 82       	st	Z, r4
     c3e:	51 82       	std	Z+1, r5	; 0x01
     c40:	36 c0       	rjmp	.+108    	; 0xcae <put_fat+0x1ee>
     c42:	eb 81       	ldd	r30, Y+3	; 0x03
     c44:	fc 81       	ldd	r31, Y+4	; 0x04
     c46:	83 a1       	ldd	r24, Z+35	; 0x23
     c48:	94 a1       	ldd	r25, Z+36	; 0x24
     c4a:	a5 a1       	ldd	r26, Z+37	; 0x25
     c4c:	b6 a1       	ldd	r27, Z+38	; 0x26
     c4e:	27 e0       	ldi	r18, 0x07	; 7
     c50:	76 95       	lsr	r23
     c52:	67 95       	ror	r22
     c54:	57 95       	ror	r21
     c56:	47 95       	ror	r20
     c58:	2a 95       	dec	r18
     c5a:	d1 f7       	brne	.-12     	; 0xc50 <put_fat+0x190>
     c5c:	48 0f       	add	r20, r24
     c5e:	59 1f       	adc	r21, r25
     c60:	6a 1f       	adc	r22, r26
     c62:	7b 1f       	adc	r23, r27
     c64:	cf 01       	movw	r24, r30
     c66:	a0 de       	rcall	.-704    	; 0x9a8 <move_window>
     c68:	18 2f       	mov	r17, r24
     c6a:	81 11       	cpse	r24, r1
     c6c:	26 c0       	rjmp	.+76     	; 0xcba <put_fat+0x1fa>
     c6e:	4b 81       	ldd	r20, Y+3	; 0x03
     c70:	5c 81       	ldd	r21, Y+4	; 0x04
     c72:	4d 5c       	subi	r20, 0xCD	; 205
     c74:	5f 4f       	sbci	r21, 0xFF	; 255
     c76:	cc 0c       	add	r12, r12
     c78:	dd 1c       	adc	r13, r13
     c7a:	cc 0c       	add	r12, r12
     c7c:	dd 1c       	adc	r13, r13
     c7e:	fc ef       	ldi	r31, 0xFC	; 252
     c80:	cf 22       	and	r12, r31
     c82:	f1 e0       	ldi	r31, 0x01	; 1
     c84:	df 22       	and	r13, r31
     c86:	c4 0e       	add	r12, r20
     c88:	d5 1e       	adc	r13, r21
     c8a:	c6 01       	movw	r24, r12
     c8c:	d4 dc       	rcall	.-1624   	; 0x636 <ld_dword>
     c8e:	2f e0       	ldi	r18, 0x0F	; 15
     c90:	72 22       	and	r7, r18
     c92:	dc 01       	movw	r26, r24
     c94:	cb 01       	movw	r24, r22
     c96:	88 27       	eor	r24, r24
     c98:	99 27       	eor	r25, r25
     c9a:	aa 27       	eor	r26, r26
     c9c:	b0 7f       	andi	r27, 0xF0	; 240
     c9e:	b3 01       	movw	r22, r6
     ca0:	a2 01       	movw	r20, r4
     ca2:	48 2b       	or	r20, r24
     ca4:	59 2b       	or	r21, r25
     ca6:	6a 2b       	or	r22, r26
     ca8:	7b 2b       	or	r23, r27
     caa:	c6 01       	movw	r24, r12
     cac:	d9 dc       	rcall	.-1614   	; 0x660 <st_dword>
     cae:	81 e0       	ldi	r24, 0x01	; 1
     cb0:	eb 81       	ldd	r30, Y+3	; 0x03
     cb2:	fc 81       	ldd	r31, Y+4	; 0x04
     cb4:	83 83       	std	Z+3, r24	; 0x03
     cb6:	01 c0       	rjmp	.+2      	; 0xcba <put_fat+0x1fa>
     cb8:	12 e0       	ldi	r17, 0x02	; 2
     cba:	81 2f       	mov	r24, r17
     cbc:	0f 90       	pop	r0
     cbe:	0f 90       	pop	r0
     cc0:	0f 90       	pop	r0
     cc2:	0f 90       	pop	r0
     cc4:	df 91       	pop	r29
     cc6:	cf 91       	pop	r28
     cc8:	1f 91       	pop	r17
     cca:	0f 91       	pop	r16
     ccc:	ff 90       	pop	r15
     cce:	ef 90       	pop	r14
     cd0:	df 90       	pop	r13
     cd2:	cf 90       	pop	r12
     cd4:	bf 90       	pop	r11
     cd6:	af 90       	pop	r10
     cd8:	9f 90       	pop	r9
     cda:	8f 90       	pop	r8
     cdc:	7f 90       	pop	r7
     cde:	6f 90       	pop	r6
     ce0:	5f 90       	pop	r5
     ce2:	4f 90       	pop	r4
     ce4:	3f 90       	pop	r3
     ce6:	2f 90       	pop	r2
     ce8:	08 95       	ret

00000cea <get_fat.isra.7>:
     cea:	af 92       	push	r10
     cec:	bf 92       	push	r11
     cee:	cf 92       	push	r12
     cf0:	df 92       	push	r13
     cf2:	ef 92       	push	r14
     cf4:	ff 92       	push	r15
     cf6:	0f 93       	push	r16
     cf8:	1f 93       	push	r17
     cfa:	cf 93       	push	r28
     cfc:	df 93       	push	r29
     cfe:	42 30       	cpi	r20, 0x02	; 2
     d00:	51 05       	cpc	r21, r1
     d02:	61 05       	cpc	r22, r1
     d04:	71 05       	cpc	r23, r1
     d06:	08 f4       	brcc	.+2      	; 0xd0a <get_fat.isra.7+0x20>
     d08:	9c c0       	rjmp	.+312    	; 0xe42 <get_fat.isra.7+0x158>
     d0a:	fc 01       	movw	r30, r24
     d0c:	07 89       	ldd	r16, Z+23	; 0x17
     d0e:	10 8d       	ldd	r17, Z+24	; 0x18
     d10:	21 8d       	ldd	r18, Z+25	; 0x19
     d12:	32 8d       	ldd	r19, Z+26	; 0x1a
     d14:	40 17       	cp	r20, r16
     d16:	51 07       	cpc	r21, r17
     d18:	62 07       	cpc	r22, r18
     d1a:	73 07       	cpc	r23, r19
     d1c:	08 f0       	brcs	.+2      	; 0xd20 <get_fat.isra.7+0x36>
     d1e:	91 c0       	rjmp	.+290    	; 0xe42 <get_fat.isra.7+0x158>
     d20:	6a 01       	movw	r12, r20
     d22:	7b 01       	movw	r14, r22
     d24:	8c 01       	movw	r16, r24
     d26:	80 81       	ld	r24, Z
     d28:	82 30       	cpi	r24, 0x02	; 2
     d2a:	09 f4       	brne	.+2      	; 0xd2e <get_fat.isra.7+0x44>
     d2c:	4b c0       	rjmp	.+150    	; 0xdc4 <get_fat.isra.7+0xda>
     d2e:	83 30       	cpi	r24, 0x03	; 3
     d30:	09 f4       	brne	.+2      	; 0xd34 <get_fat.isra.7+0x4a>
     d32:	66 c0       	rjmp	.+204    	; 0xe00 <get_fat.isra.7+0x116>
     d34:	81 30       	cpi	r24, 0x01	; 1
     d36:	09 f0       	breq	.+2      	; 0xd3a <get_fat.isra.7+0x50>
     d38:	84 c0       	rjmp	.+264    	; 0xe42 <get_fat.isra.7+0x158>
     d3a:	ea 01       	movw	r28, r20
     d3c:	d6 95       	lsr	r29
     d3e:	c7 95       	ror	r28
     d40:	cc 0d       	add	r28, r12
     d42:	dd 1d       	adc	r29, r13
     d44:	ce 01       	movw	r24, r28
     d46:	89 2f       	mov	r24, r25
     d48:	99 27       	eor	r25, r25
     d4a:	86 95       	lsr	r24
     d4c:	43 a1       	ldd	r20, Z+35	; 0x23
     d4e:	54 a1       	ldd	r21, Z+36	; 0x24
     d50:	65 a1       	ldd	r22, Z+37	; 0x25
     d52:	76 a1       	ldd	r23, Z+38	; 0x26
     d54:	48 0f       	add	r20, r24
     d56:	59 1f       	adc	r21, r25
     d58:	61 1d       	adc	r22, r1
     d5a:	71 1d       	adc	r23, r1
     d5c:	cf 01       	movw	r24, r30
     d5e:	24 de       	rcall	.-952    	; 0x9a8 <move_window>
     d60:	88 23       	and	r24, r24
     d62:	21 f0       	breq	.+8      	; 0xd6c <get_fat.isra.7+0x82>
     d64:	6f ef       	ldi	r22, 0xFF	; 255
     d66:	7f ef       	ldi	r23, 0xFF	; 255
     d68:	cb 01       	movw	r24, r22
     d6a:	6f c0       	rjmp	.+222    	; 0xe4a <get_fat.isra.7+0x160>
     d6c:	5e 01       	movw	r10, r28
     d6e:	ff ef       	ldi	r31, 0xFF	; 255
     d70:	af 1a       	sub	r10, r31
     d72:	bf 0a       	sbc	r11, r31
     d74:	d1 70       	andi	r29, 0x01	; 1
     d76:	c0 0f       	add	r28, r16
     d78:	d1 1f       	adc	r29, r17
     d7a:	cb a9       	ldd	r28, Y+51	; 0x33
     d7c:	c5 01       	movw	r24, r10
     d7e:	89 2f       	mov	r24, r25
     d80:	99 27       	eor	r25, r25
     d82:	86 95       	lsr	r24
     d84:	f8 01       	movw	r30, r16
     d86:	43 a1       	ldd	r20, Z+35	; 0x23
     d88:	54 a1       	ldd	r21, Z+36	; 0x24
     d8a:	65 a1       	ldd	r22, Z+37	; 0x25
     d8c:	76 a1       	ldd	r23, Z+38	; 0x26
     d8e:	48 0f       	add	r20, r24
     d90:	59 1f       	adc	r21, r25
     d92:	61 1d       	adc	r22, r1
     d94:	71 1d       	adc	r23, r1
     d96:	c8 01       	movw	r24, r16
     d98:	07 de       	rcall	.-1010   	; 0x9a8 <move_window>
     d9a:	81 11       	cpse	r24, r1
     d9c:	e3 cf       	rjmp	.-58     	; 0xd64 <get_fat.isra.7+0x7a>
     d9e:	f1 e0       	ldi	r31, 0x01	; 1
     da0:	bf 22       	and	r11, r31
     da2:	f8 01       	movw	r30, r16
     da4:	ea 0d       	add	r30, r10
     da6:	fb 1d       	adc	r31, r11
     da8:	83 a9       	ldd	r24, Z+51	; 0x33
     daa:	6c 2f       	mov	r22, r28
     dac:	70 e0       	ldi	r23, 0x00	; 0
     dae:	78 2b       	or	r23, r24
     db0:	c0 fe       	sbrs	r12, 0
     db2:	06 c0       	rjmp	.+12     	; 0xdc0 <get_fat.isra.7+0xd6>
     db4:	54 e0       	ldi	r21, 0x04	; 4
     db6:	76 95       	lsr	r23
     db8:	67 95       	ror	r22
     dba:	5a 95       	dec	r21
     dbc:	e1 f7       	brne	.-8      	; 0xdb6 <get_fat.isra.7+0xcc>
     dbe:	1d c0       	rjmp	.+58     	; 0xdfa <get_fat.isra.7+0x110>
     dc0:	7f 70       	andi	r23, 0x0F	; 15
     dc2:	1b c0       	rjmp	.+54     	; 0xdfa <get_fat.isra.7+0x110>
     dc4:	77 27       	eor	r23, r23
     dc6:	6f 2d       	mov	r22, r15
     dc8:	5e 2d       	mov	r21, r14
     dca:	4d 2d       	mov	r20, r13
     dcc:	83 a1       	ldd	r24, Z+35	; 0x23
     dce:	94 a1       	ldd	r25, Z+36	; 0x24
     dd0:	a5 a1       	ldd	r26, Z+37	; 0x25
     dd2:	b6 a1       	ldd	r27, Z+38	; 0x26
     dd4:	48 0f       	add	r20, r24
     dd6:	59 1f       	adc	r21, r25
     dd8:	6a 1f       	adc	r22, r26
     dda:	7b 1f       	adc	r23, r27
     ddc:	cf 01       	movw	r24, r30
     dde:	e4 dd       	rcall	.-1080   	; 0x9a8 <move_window>
     de0:	81 11       	cpse	r24, r1
     de2:	c0 cf       	rjmp	.-128    	; 0xd64 <get_fat.isra.7+0x7a>
     de4:	cc 0c       	add	r12, r12
     de6:	dd 1c       	adc	r13, r13
     de8:	e8 94       	clt
     dea:	c0 f8       	bld	r12, 0
     dec:	f1 e0       	ldi	r31, 0x01	; 1
     dee:	df 22       	and	r13, r31
     df0:	f8 01       	movw	r30, r16
     df2:	ec 0d       	add	r30, r12
     df4:	fd 1d       	adc	r31, r13
     df6:	63 a9       	ldd	r22, Z+51	; 0x33
     df8:	74 a9       	ldd	r23, Z+52	; 0x34
     dfa:	80 e0       	ldi	r24, 0x00	; 0
     dfc:	90 e0       	ldi	r25, 0x00	; 0
     dfe:	25 c0       	rjmp	.+74     	; 0xe4a <get_fat.isra.7+0x160>
     e00:	83 a1       	ldd	r24, Z+35	; 0x23
     e02:	94 a1       	ldd	r25, Z+36	; 0x24
     e04:	a5 a1       	ldd	r26, Z+37	; 0x25
     e06:	b6 a1       	ldd	r27, Z+38	; 0x26
     e08:	27 e0       	ldi	r18, 0x07	; 7
     e0a:	76 95       	lsr	r23
     e0c:	67 95       	ror	r22
     e0e:	57 95       	ror	r21
     e10:	47 95       	ror	r20
     e12:	2a 95       	dec	r18
     e14:	d1 f7       	brne	.-12     	; 0xe0a <get_fat.isra.7+0x120>
     e16:	48 0f       	add	r20, r24
     e18:	59 1f       	adc	r21, r25
     e1a:	6a 1f       	adc	r22, r26
     e1c:	7b 1f       	adc	r23, r27
     e1e:	cf 01       	movw	r24, r30
     e20:	c3 dd       	rcall	.-1146   	; 0x9a8 <move_window>
     e22:	81 11       	cpse	r24, r1
     e24:	9f cf       	rjmp	.-194    	; 0xd64 <get_fat.isra.7+0x7a>
     e26:	0d 5c       	subi	r16, 0xCD	; 205
     e28:	1f 4f       	sbci	r17, 0xFF	; 255
     e2a:	cc 0c       	add	r12, r12
     e2c:	dd 1c       	adc	r13, r13
     e2e:	cc 0c       	add	r12, r12
     e30:	dd 1c       	adc	r13, r13
     e32:	c6 01       	movw	r24, r12
     e34:	8c 7f       	andi	r24, 0xFC	; 252
     e36:	91 70       	andi	r25, 0x01	; 1
     e38:	80 0f       	add	r24, r16
     e3a:	91 1f       	adc	r25, r17
     e3c:	fc db       	rcall	.-2056   	; 0x636 <ld_dword>
     e3e:	9f 70       	andi	r25, 0x0F	; 15
     e40:	04 c0       	rjmp	.+8      	; 0xe4a <get_fat.isra.7+0x160>
     e42:	61 e0       	ldi	r22, 0x01	; 1
     e44:	70 e0       	ldi	r23, 0x00	; 0
     e46:	80 e0       	ldi	r24, 0x00	; 0
     e48:	90 e0       	ldi	r25, 0x00	; 0
     e4a:	df 91       	pop	r29
     e4c:	cf 91       	pop	r28
     e4e:	1f 91       	pop	r17
     e50:	0f 91       	pop	r16
     e52:	ff 90       	pop	r15
     e54:	ef 90       	pop	r14
     e56:	df 90       	pop	r13
     e58:	cf 90       	pop	r12
     e5a:	bf 90       	pop	r11
     e5c:	af 90       	pop	r10
     e5e:	08 95       	ret

00000e60 <dir_sdi>:
     e60:	4f 92       	push	r4
     e62:	5f 92       	push	r5
     e64:	6f 92       	push	r6
     e66:	7f 92       	push	r7
     e68:	8f 92       	push	r8
     e6a:	9f 92       	push	r9
     e6c:	af 92       	push	r10
     e6e:	bf 92       	push	r11
     e70:	cf 92       	push	r12
     e72:	df 92       	push	r13
     e74:	ef 92       	push	r14
     e76:	ff 92       	push	r15
     e78:	0f 93       	push	r16
     e7a:	1f 93       	push	r17
     e7c:	cf 93       	push	r28
     e7e:	df 93       	push	r29
     e80:	ec 01       	movw	r28, r24
     e82:	6a 01       	movw	r12, r20
     e84:	7b 01       	movw	r14, r22
     e86:	41 15       	cp	r20, r1
     e88:	51 05       	cpc	r21, r1
     e8a:	80 e2       	ldi	r24, 0x20	; 32
     e8c:	68 07       	cpc	r22, r24
     e8e:	71 05       	cpc	r23, r1
     e90:	10 f0       	brcs	.+4      	; 0xe96 <dir_sdi+0x36>
     e92:	82 e0       	ldi	r24, 0x02	; 2
     e94:	a7 c0       	rjmp	.+334    	; 0xfe4 <dir_sdi+0x184>
     e96:	db 01       	movw	r26, r22
     e98:	ca 01       	movw	r24, r20
     e9a:	8f 71       	andi	r24, 0x1F	; 31
     e9c:	99 27       	eor	r25, r25
     e9e:	aa 27       	eor	r26, r26
     ea0:	bb 27       	eor	r27, r27
     ea2:	89 2b       	or	r24, r25
     ea4:	8a 2b       	or	r24, r26
     ea6:	8b 2b       	or	r24, r27
     ea8:	a1 f7       	brne	.-24     	; 0xe92 <dir_sdi+0x32>
     eaa:	08 81       	ld	r16, Y
     eac:	19 81       	ldd	r17, Y+1	; 0x01
     eae:	4e 87       	std	Y+14, r20	; 0x0e
     eb0:	5f 87       	std	Y+15, r21	; 0x0f
     eb2:	68 8b       	std	Y+16, r22	; 0x10
     eb4:	79 8b       	std	Y+17, r23	; 0x11
     eb6:	8e 80       	ldd	r8, Y+6	; 0x06
     eb8:	9f 80       	ldd	r9, Y+7	; 0x07
     eba:	a8 84       	ldd	r10, Y+8	; 0x08
     ebc:	b9 84       	ldd	r11, Y+9	; 0x09
     ebe:	81 14       	cp	r8, r1
     ec0:	91 04       	cpc	r9, r1
     ec2:	a1 04       	cpc	r10, r1
     ec4:	b1 04       	cpc	r11, r1
     ec6:	51 f5       	brne	.+84     	; 0xf1c <dir_sdi+0xbc>
     ec8:	f8 01       	movw	r30, r16
     eca:	80 81       	ld	r24, Z
     ecc:	83 30       	cpi	r24, 0x03	; 3
     ece:	40 f0       	brcs	.+16     	; 0xee0 <dir_sdi+0x80>
     ed0:	87 a1       	ldd	r24, Z+39	; 0x27
     ed2:	90 a5       	ldd	r25, Z+40	; 0x28
     ed4:	a1 a5       	ldd	r26, Z+41	; 0x29
     ed6:	b2 a5       	ldd	r27, Z+42	; 0x2a
     ed8:	00 97       	sbiw	r24, 0x00	; 0
     eda:	a1 05       	cpc	r26, r1
     edc:	b1 05       	cpc	r27, r1
     ede:	e1 f4       	brne	.+56     	; 0xf18 <dir_sdi+0xb8>
     ee0:	f8 01       	movw	r30, r16
     ee2:	87 81       	ldd	r24, Z+7	; 0x07
     ee4:	90 85       	ldd	r25, Z+8	; 0x08
     ee6:	a0 e0       	ldi	r26, 0x00	; 0
     ee8:	b0 e0       	ldi	r27, 0x00	; 0
     eea:	b7 01       	movw	r22, r14
     eec:	a6 01       	movw	r20, r12
     eee:	25 e0       	ldi	r18, 0x05	; 5
     ef0:	76 95       	lsr	r23
     ef2:	67 95       	ror	r22
     ef4:	57 95       	ror	r21
     ef6:	47 95       	ror	r20
     ef8:	2a 95       	dec	r18
     efa:	d1 f7       	brne	.-12     	; 0xef0 <dir_sdi+0x90>
     efc:	48 17       	cp	r20, r24
     efe:	59 07       	cpc	r21, r25
     f00:	6a 07       	cpc	r22, r26
     f02:	7b 07       	cpc	r23, r27
     f04:	30 f6       	brcc	.-116    	; 0xe92 <dir_sdi+0x32>
     f06:	87 a1       	ldd	r24, Z+39	; 0x27
     f08:	90 a5       	ldd	r25, Z+40	; 0x28
     f0a:	a1 a5       	ldd	r26, Z+41	; 0x29
     f0c:	b2 a5       	ldd	r27, Z+42	; 0x2a
     f0e:	8e 8b       	std	Y+22, r24	; 0x16
     f10:	9f 8b       	std	Y+23, r25	; 0x17
     f12:	a8 8f       	std	Y+24, r26	; 0x18
     f14:	b9 8f       	std	Y+25, r27	; 0x19
     f16:	3d c0       	rjmp	.+122    	; 0xf92 <dir_sdi+0x132>
     f18:	4c 01       	movw	r8, r24
     f1a:	5d 01       	movw	r10, r26
     f1c:	f8 01       	movw	r30, r16
     f1e:	41 84       	ldd	r4, Z+9	; 0x09
     f20:	52 84       	ldd	r5, Z+10	; 0x0a
     f22:	61 2c       	mov	r6, r1
     f24:	71 2c       	mov	r7, r1
     f26:	39 e0       	ldi	r19, 0x09	; 9
     f28:	44 0c       	add	r4, r4
     f2a:	55 1c       	adc	r5, r5
     f2c:	66 1c       	adc	r6, r6
     f2e:	77 1c       	adc	r7, r7
     f30:	3a 95       	dec	r19
     f32:	d1 f7       	brne	.-12     	; 0xf28 <dir_sdi+0xc8>
     f34:	b5 01       	movw	r22, r10
     f36:	a4 01       	movw	r20, r8
     f38:	c4 14       	cp	r12, r4
     f3a:	d5 04       	cpc	r13, r5
     f3c:	e6 04       	cpc	r14, r6
     f3e:	f7 04       	cpc	r15, r7
     f40:	10 f1       	brcs	.+68     	; 0xf86 <dir_sdi+0x126>
     f42:	88 81       	ld	r24, Y
     f44:	99 81       	ldd	r25, Y+1	; 0x01
     f46:	d1 de       	rcall	.-606    	; 0xcea <get_fat.isra.7>
     f48:	4b 01       	movw	r8, r22
     f4a:	5c 01       	movw	r10, r24
     f4c:	6f 3f       	cpi	r22, 0xFF	; 255
     f4e:	7f 4f       	sbci	r23, 0xFF	; 255
     f50:	8f 4f       	sbci	r24, 0xFF	; 255
     f52:	9f 4f       	sbci	r25, 0xFF	; 255
     f54:	09 f4       	brne	.+2      	; 0xf58 <dir_sdi+0xf8>
     f56:	45 c0       	rjmp	.+138    	; 0xfe2 <dir_sdi+0x182>
     f58:	82 e0       	ldi	r24, 0x02	; 2
     f5a:	88 16       	cp	r8, r24
     f5c:	91 04       	cpc	r9, r1
     f5e:	a1 04       	cpc	r10, r1
     f60:	b1 04       	cpc	r11, r1
     f62:	08 f4       	brcc	.+2      	; 0xf66 <dir_sdi+0x106>
     f64:	96 cf       	rjmp	.-212    	; 0xe92 <dir_sdi+0x32>
     f66:	f8 01       	movw	r30, r16
     f68:	87 89       	ldd	r24, Z+23	; 0x17
     f6a:	90 8d       	ldd	r25, Z+24	; 0x18
     f6c:	a1 8d       	ldd	r26, Z+25	; 0x19
     f6e:	b2 8d       	ldd	r27, Z+26	; 0x1a
     f70:	88 16       	cp	r8, r24
     f72:	99 06       	cpc	r9, r25
     f74:	aa 06       	cpc	r10, r26
     f76:	bb 06       	cpc	r11, r27
     f78:	08 f0       	brcs	.+2      	; 0xf7c <dir_sdi+0x11c>
     f7a:	8b cf       	rjmp	.-234    	; 0xe92 <dir_sdi+0x32>
     f7c:	c4 18       	sub	r12, r4
     f7e:	d5 08       	sbc	r13, r5
     f80:	e6 08       	sbc	r14, r6
     f82:	f7 08       	sbc	r15, r7
     f84:	d7 cf       	rjmp	.-82     	; 0xf34 <dir_sdi+0xd4>
     f86:	c8 01       	movw	r24, r16
     f88:	83 db       	rcall	.-2298   	; 0x690 <clst2sect>
     f8a:	6e 8b       	std	Y+22, r22	; 0x16
     f8c:	7f 8b       	std	Y+23, r23	; 0x17
     f8e:	88 8f       	std	Y+24, r24	; 0x18
     f90:	99 8f       	std	Y+25, r25	; 0x19
     f92:	8a 8a       	std	Y+18, r8	; 0x12
     f94:	9b 8a       	std	Y+19, r9	; 0x13
     f96:	ac 8a       	std	Y+20, r10	; 0x14
     f98:	bd 8a       	std	Y+21, r11	; 0x15
     f9a:	8e 89       	ldd	r24, Y+22	; 0x16
     f9c:	9f 89       	ldd	r25, Y+23	; 0x17
     f9e:	a8 8d       	ldd	r26, Y+24	; 0x18
     fa0:	b9 8d       	ldd	r27, Y+25	; 0x19
     fa2:	00 97       	sbiw	r24, 0x00	; 0
     fa4:	a1 05       	cpc	r26, r1
     fa6:	b1 05       	cpc	r27, r1
     fa8:	09 f4       	brne	.+2      	; 0xfac <dir_sdi+0x14c>
     faa:	73 cf       	rjmp	.-282    	; 0xe92 <dir_sdi+0x32>
     fac:	b7 01       	movw	r22, r14
     fae:	a6 01       	movw	r20, r12
     fb0:	29 e0       	ldi	r18, 0x09	; 9
     fb2:	76 95       	lsr	r23
     fb4:	67 95       	ror	r22
     fb6:	57 95       	ror	r21
     fb8:	47 95       	ror	r20
     fba:	2a 95       	dec	r18
     fbc:	d1 f7       	brne	.-12     	; 0xfb2 <dir_sdi+0x152>
     fbe:	84 0f       	add	r24, r20
     fc0:	95 1f       	adc	r25, r21
     fc2:	a6 1f       	adc	r26, r22
     fc4:	b7 1f       	adc	r27, r23
     fc6:	8e 8b       	std	Y+22, r24	; 0x16
     fc8:	9f 8b       	std	Y+23, r25	; 0x17
     fca:	a8 8f       	std	Y+24, r26	; 0x18
     fcc:	b9 8f       	std	Y+25, r27	; 0x19
     fce:	0d 5c       	subi	r16, 0xCD	; 205
     fd0:	1f 4f       	sbci	r17, 0xFF	; 255
     fd2:	f1 e0       	ldi	r31, 0x01	; 1
     fd4:	df 22       	and	r13, r31
     fd6:	c0 0e       	add	r12, r16
     fd8:	d1 1e       	adc	r13, r17
     fda:	db 8e       	std	Y+27, r13	; 0x1b
     fdc:	ca 8e       	std	Y+26, r12	; 0x1a
     fde:	80 e0       	ldi	r24, 0x00	; 0
     fe0:	01 c0       	rjmp	.+2      	; 0xfe4 <dir_sdi+0x184>
     fe2:	81 e0       	ldi	r24, 0x01	; 1
     fe4:	df 91       	pop	r29
     fe6:	cf 91       	pop	r28
     fe8:	1f 91       	pop	r17
     fea:	0f 91       	pop	r16
     fec:	ff 90       	pop	r15
     fee:	ef 90       	pop	r14
     ff0:	df 90       	pop	r13
     ff2:	cf 90       	pop	r12
     ff4:	bf 90       	pop	r11
     ff6:	af 90       	pop	r10
     ff8:	9f 90       	pop	r9
     ffa:	8f 90       	pop	r8
     ffc:	7f 90       	pop	r7
     ffe:	6f 90       	pop	r6
    1000:	5f 90       	pop	r5
    1002:	4f 90       	pop	r4
    1004:	08 95       	ret

00001006 <create_chain>:
    1006:	4f 92       	push	r4
    1008:	5f 92       	push	r5
    100a:	6f 92       	push	r6
    100c:	7f 92       	push	r7
    100e:	8f 92       	push	r8
    1010:	9f 92       	push	r9
    1012:	af 92       	push	r10
    1014:	bf 92       	push	r11
    1016:	cf 92       	push	r12
    1018:	df 92       	push	r13
    101a:	ef 92       	push	r14
    101c:	ff 92       	push	r15
    101e:	0f 93       	push	r16
    1020:	1f 93       	push	r17
    1022:	cf 93       	push	r28
    1024:	df 93       	push	r29
    1026:	8c 01       	movw	r16, r24
    1028:	2a 01       	movw	r4, r20
    102a:	3b 01       	movw	r6, r22
    102c:	fc 01       	movw	r30, r24
    102e:	c0 81       	ld	r28, Z
    1030:	d1 81       	ldd	r29, Z+1	; 0x01
    1032:	41 15       	cp	r20, r1
    1034:	51 05       	cpc	r21, r1
    1036:	61 05       	cpc	r22, r1
    1038:	71 05       	cpc	r23, r1
    103a:	99 f4       	brne	.+38     	; 0x1062 <create_chain+0x5c>
    103c:	8b 84       	ldd	r8, Y+11	; 0x0b
    103e:	9c 84       	ldd	r9, Y+12	; 0x0c
    1040:	ad 84       	ldd	r10, Y+13	; 0x0d
    1042:	be 84       	ldd	r11, Y+14	; 0x0e
    1044:	81 14       	cp	r8, r1
    1046:	91 04       	cpc	r9, r1
    1048:	a1 04       	cpc	r10, r1
    104a:	b1 04       	cpc	r11, r1
    104c:	51 f1       	breq	.+84     	; 0x10a2 <create_chain+0x9c>
    104e:	8f 89       	ldd	r24, Y+23	; 0x17
    1050:	98 8d       	ldd	r25, Y+24	; 0x18
    1052:	a9 8d       	ldd	r26, Y+25	; 0x19
    1054:	ba 8d       	ldd	r27, Y+26	; 0x1a
    1056:	88 16       	cp	r8, r24
    1058:	99 06       	cpc	r9, r25
    105a:	aa 06       	cpc	r10, r26
    105c:	bb 06       	cpc	r11, r27
    105e:	28 f1       	brcs	.+74     	; 0x10aa <create_chain+0xa4>
    1060:	20 c0       	rjmp	.+64     	; 0x10a2 <create_chain+0x9c>
    1062:	ce 01       	movw	r24, r28
    1064:	42 de       	rcall	.-892    	; 0xcea <get_fat.isra.7>
    1066:	62 30       	cpi	r22, 0x02	; 2
    1068:	71 05       	cpc	r23, r1
    106a:	81 05       	cpc	r24, r1
    106c:	91 05       	cpc	r25, r1
    106e:	08 f4       	brcc	.+2      	; 0x1072 <create_chain+0x6c>
    1070:	ea c0       	rjmp	.+468    	; 0x1246 <create_chain+0x240>
    1072:	6f 3f       	cpi	r22, 0xFF	; 255
    1074:	ff ef       	ldi	r31, 0xFF	; 255
    1076:	7f 07       	cpc	r23, r31
    1078:	8f 07       	cpc	r24, r31
    107a:	9f 07       	cpc	r25, r31
    107c:	29 f4       	brne	.+10     	; 0x1088 <create_chain+0x82>
    107e:	4f ef       	ldi	r20, 0xFF	; 255
    1080:	3f ef       	ldi	r19, 0xFF	; 255
    1082:	2f ef       	ldi	r18, 0xFF	; 255
    1084:	9f ef       	ldi	r25, 0xFF	; 255
    1086:	e7 c0       	rjmp	.+462    	; 0x1256 <create_chain+0x250>
    1088:	cf 88       	ldd	r12, Y+23	; 0x17
    108a:	d8 8c       	ldd	r13, Y+24	; 0x18
    108c:	e9 8c       	ldd	r14, Y+25	; 0x19
    108e:	fa 8c       	ldd	r15, Y+26	; 0x1a
    1090:	6c 15       	cp	r22, r12
    1092:	7d 05       	cpc	r23, r13
    1094:	8e 05       	cpc	r24, r14
    1096:	9f 05       	cpc	r25, r15
    1098:	08 f4       	brcc	.+2      	; 0x109c <create_chain+0x96>
    109a:	da c0       	rjmp	.+436    	; 0x1250 <create_chain+0x24a>
    109c:	53 01       	movw	r10, r6
    109e:	42 01       	movw	r8, r4
    10a0:	04 c0       	rjmp	.+8      	; 0x10aa <create_chain+0xa4>
    10a2:	81 2c       	mov	r8, r1
    10a4:	91 2c       	mov	r9, r1
    10a6:	54 01       	movw	r10, r8
    10a8:	83 94       	inc	r8
    10aa:	8f 85       	ldd	r24, Y+15	; 0x0f
    10ac:	98 89       	ldd	r25, Y+16	; 0x10
    10ae:	a9 89       	ldd	r26, Y+17	; 0x11
    10b0:	ba 89       	ldd	r27, Y+18	; 0x12
    10b2:	89 2b       	or	r24, r25
    10b4:	8a 2b       	or	r24, r26
    10b6:	8b 2b       	or	r24, r27
    10b8:	11 f4       	brne	.+4      	; 0x10be <create_chain+0xb8>
    10ba:	40 e0       	ldi	r20, 0x00	; 0
    10bc:	c5 c0       	rjmp	.+394    	; 0x1248 <create_chain+0x242>
    10be:	84 14       	cp	r8, r4
    10c0:	95 04       	cpc	r9, r5
    10c2:	a6 04       	cpc	r10, r6
    10c4:	b7 04       	cpc	r11, r7
    10c6:	09 f0       	breq	.+2      	; 0x10ca <create_chain+0xc4>
    10c8:	46 c0       	rjmp	.+140    	; 0x1156 <create_chain+0x150>
    10ca:	75 01       	movw	r14, r10
    10cc:	64 01       	movw	r12, r8
    10ce:	2f ef       	ldi	r18, 0xFF	; 255
    10d0:	c2 1a       	sub	r12, r18
    10d2:	d2 0a       	sbc	r13, r18
    10d4:	e2 0a       	sbc	r14, r18
    10d6:	f2 0a       	sbc	r15, r18
    10d8:	8f 89       	ldd	r24, Y+23	; 0x17
    10da:	98 8d       	ldd	r25, Y+24	; 0x18
    10dc:	a9 8d       	ldd	r26, Y+25	; 0x19
    10de:	ba 8d       	ldd	r27, Y+26	; 0x1a
    10e0:	c8 16       	cp	r12, r24
    10e2:	d9 06       	cpc	r13, r25
    10e4:	ea 06       	cpc	r14, r26
    10e6:	fb 06       	cpc	r15, r27
    10e8:	28 f0       	brcs	.+10     	; 0x10f4 <create_chain+0xee>
    10ea:	92 e0       	ldi	r25, 0x02	; 2
    10ec:	c9 2e       	mov	r12, r25
    10ee:	d1 2c       	mov	r13, r1
    10f0:	e1 2c       	mov	r14, r1
    10f2:	f1 2c       	mov	r15, r1
    10f4:	b7 01       	movw	r22, r14
    10f6:	a6 01       	movw	r20, r12
    10f8:	f8 01       	movw	r30, r16
    10fa:	80 81       	ld	r24, Z
    10fc:	91 81       	ldd	r25, Z+1	; 0x01
    10fe:	f5 dd       	rcall	.-1046   	; 0xcea <get_fat.isra.7>
    1100:	61 30       	cpi	r22, 0x01	; 1
    1102:	71 05       	cpc	r23, r1
    1104:	81 05       	cpc	r24, r1
    1106:	91 05       	cpc	r25, r1
    1108:	09 f4       	brne	.+2      	; 0x110c <create_chain+0x106>
    110a:	9d c0       	rjmp	.+314    	; 0x1246 <create_chain+0x240>
    110c:	6f 3f       	cpi	r22, 0xFF	; 255
    110e:	ff ef       	ldi	r31, 0xFF	; 255
    1110:	7f 07       	cpc	r23, r31
    1112:	8f 07       	cpc	r24, r31
    1114:	9f 07       	cpc	r25, r31
    1116:	09 f4       	brne	.+2      	; 0x111a <create_chain+0x114>
    1118:	b2 cf       	rjmp	.-156    	; 0x107e <create_chain+0x78>
    111a:	67 2b       	or	r22, r23
    111c:	68 2b       	or	r22, r24
    111e:	69 2b       	or	r22, r25
    1120:	a9 f0       	breq	.+42     	; 0x114c <create_chain+0x146>
    1122:	8b 85       	ldd	r24, Y+11	; 0x0b
    1124:	9c 85       	ldd	r25, Y+12	; 0x0c
    1126:	ad 85       	ldd	r26, Y+13	; 0x0d
    1128:	be 85       	ldd	r27, Y+14	; 0x0e
    112a:	82 30       	cpi	r24, 0x02	; 2
    112c:	91 05       	cpc	r25, r1
    112e:	a1 05       	cpc	r26, r1
    1130:	b1 05       	cpc	r27, r1
    1132:	88 f0       	brcs	.+34     	; 0x1156 <create_chain+0x150>
    1134:	4f 89       	ldd	r20, Y+23	; 0x17
    1136:	58 8d       	ldd	r21, Y+24	; 0x18
    1138:	69 8d       	ldd	r22, Y+25	; 0x19
    113a:	7a 8d       	ldd	r23, Y+26	; 0x1a
    113c:	84 17       	cp	r24, r20
    113e:	95 07       	cpc	r25, r21
    1140:	a6 07       	cpc	r26, r22
    1142:	b7 07       	cpc	r27, r23
    1144:	40 f4       	brcc	.+16     	; 0x1156 <create_chain+0x150>
    1146:	4c 01       	movw	r8, r24
    1148:	5d 01       	movw	r10, r26
    114a:	05 c0       	rjmp	.+10     	; 0x1156 <create_chain+0x150>
    114c:	c1 14       	cp	r12, r1
    114e:	d1 04       	cpc	r13, r1
    1150:	e1 04       	cpc	r14, r1
    1152:	f1 04       	cpc	r15, r1
    1154:	c9 f5       	brne	.+114    	; 0x11c8 <create_chain+0x1c2>
    1156:	75 01       	movw	r14, r10
    1158:	64 01       	movw	r12, r8
    115a:	2f ef       	ldi	r18, 0xFF	; 255
    115c:	c2 1a       	sub	r12, r18
    115e:	d2 0a       	sbc	r13, r18
    1160:	e2 0a       	sbc	r14, r18
    1162:	f2 0a       	sbc	r15, r18
    1164:	8f 89       	ldd	r24, Y+23	; 0x17
    1166:	98 8d       	ldd	r25, Y+24	; 0x18
    1168:	a9 8d       	ldd	r26, Y+25	; 0x19
    116a:	ba 8d       	ldd	r27, Y+26	; 0x1a
    116c:	c8 16       	cp	r12, r24
    116e:	d9 06       	cpc	r13, r25
    1170:	ea 06       	cpc	r14, r26
    1172:	fb 06       	cpc	r15, r27
    1174:	60 f0       	brcs	.+24     	; 0x118e <create_chain+0x188>
    1176:	82 e0       	ldi	r24, 0x02	; 2
    1178:	88 16       	cp	r8, r24
    117a:	91 04       	cpc	r9, r1
    117c:	a1 04       	cpc	r10, r1
    117e:	b1 04       	cpc	r11, r1
    1180:	08 f4       	brcc	.+2      	; 0x1184 <create_chain+0x17e>
    1182:	9b cf       	rjmp	.-202    	; 0x10ba <create_chain+0xb4>
    1184:	82 e0       	ldi	r24, 0x02	; 2
    1186:	c8 2e       	mov	r12, r24
    1188:	d1 2c       	mov	r13, r1
    118a:	e1 2c       	mov	r14, r1
    118c:	f1 2c       	mov	r15, r1
    118e:	b7 01       	movw	r22, r14
    1190:	a6 01       	movw	r20, r12
    1192:	f8 01       	movw	r30, r16
    1194:	80 81       	ld	r24, Z
    1196:	91 81       	ldd	r25, Z+1	; 0x01
    1198:	a8 dd       	rcall	.-1200   	; 0xcea <get_fat.isra.7>
    119a:	61 15       	cp	r22, r1
    119c:	71 05       	cpc	r23, r1
    119e:	81 05       	cpc	r24, r1
    11a0:	91 05       	cpc	r25, r1
    11a2:	91 f0       	breq	.+36     	; 0x11c8 <create_chain+0x1c2>
    11a4:	61 30       	cpi	r22, 0x01	; 1
    11a6:	71 05       	cpc	r23, r1
    11a8:	81 05       	cpc	r24, r1
    11aa:	91 05       	cpc	r25, r1
    11ac:	09 f4       	brne	.+2      	; 0x11b0 <create_chain+0x1aa>
    11ae:	4b c0       	rjmp	.+150    	; 0x1246 <create_chain+0x240>
    11b0:	6f 3f       	cpi	r22, 0xFF	; 255
    11b2:	7f 4f       	sbci	r23, 0xFF	; 255
    11b4:	8f 4f       	sbci	r24, 0xFF	; 255
    11b6:	9f 4f       	sbci	r25, 0xFF	; 255
    11b8:	09 f4       	brne	.+2      	; 0x11bc <create_chain+0x1b6>
    11ba:	61 cf       	rjmp	.-318    	; 0x107e <create_chain+0x78>
    11bc:	c8 14       	cp	r12, r8
    11be:	d9 04       	cpc	r13, r9
    11c0:	ea 04       	cpc	r14, r10
    11c2:	fb 04       	cpc	r15, r11
    11c4:	51 f6       	brne	.-108    	; 0x115a <create_chain+0x154>
    11c6:	79 cf       	rjmp	.-270    	; 0x10ba <create_chain+0xb4>
    11c8:	0f ef       	ldi	r16, 0xFF	; 255
    11ca:	1f ef       	ldi	r17, 0xFF	; 255
    11cc:	98 01       	movw	r18, r16
    11ce:	b7 01       	movw	r22, r14
    11d0:	a6 01       	movw	r20, r12
    11d2:	ce 01       	movw	r24, r28
    11d4:	75 dc       	rcall	.-1814   	; 0xac0 <put_fat>
    11d6:	81 11       	cpse	r24, r1
    11d8:	33 c0       	rjmp	.+102    	; 0x1240 <create_chain+0x23a>
    11da:	41 14       	cp	r4, r1
    11dc:	51 04       	cpc	r5, r1
    11de:	61 04       	cpc	r6, r1
    11e0:	71 04       	cpc	r7, r1
    11e2:	e9 f4       	brne	.+58     	; 0x121e <create_chain+0x218>
    11e4:	cb 86       	std	Y+11, r12	; 0x0b
    11e6:	dc 86       	std	Y+12, r13	; 0x0c
    11e8:	ed 86       	std	Y+13, r14	; 0x0d
    11ea:	fe 86       	std	Y+14, r15	; 0x0e
    11ec:	8f 85       	ldd	r24, Y+15	; 0x0f
    11ee:	98 89       	ldd	r25, Y+16	; 0x10
    11f0:	a9 89       	ldd	r26, Y+17	; 0x11
    11f2:	ba 89       	ldd	r27, Y+18	; 0x12
    11f4:	4f 89       	ldd	r20, Y+23	; 0x17
    11f6:	58 8d       	ldd	r21, Y+24	; 0x18
    11f8:	69 8d       	ldd	r22, Y+25	; 0x19
    11fa:	7a 8d       	ldd	r23, Y+26	; 0x1a
    11fc:	42 50       	subi	r20, 0x02	; 2
    11fe:	51 09       	sbc	r21, r1
    1200:	61 09       	sbc	r22, r1
    1202:	71 09       	sbc	r23, r1
    1204:	48 17       	cp	r20, r24
    1206:	59 07       	cpc	r21, r25
    1208:	6a 07       	cpc	r22, r26
    120a:	7b 07       	cpc	r23, r27
    120c:	88 f0       	brcs	.+34     	; 0x1230 <create_chain+0x22a>
    120e:	01 97       	sbiw	r24, 0x01	; 1
    1210:	a1 09       	sbc	r26, r1
    1212:	b1 09       	sbc	r27, r1
    1214:	8f 87       	std	Y+15, r24	; 0x0f
    1216:	98 8b       	std	Y+16, r25	; 0x10
    1218:	a9 8b       	std	Y+17, r26	; 0x11
    121a:	ba 8b       	std	Y+18, r27	; 0x12
    121c:	09 c0       	rjmp	.+18     	; 0x1230 <create_chain+0x22a>
    121e:	97 01       	movw	r18, r14
    1220:	86 01       	movw	r16, r12
    1222:	b3 01       	movw	r22, r6
    1224:	a2 01       	movw	r20, r4
    1226:	ce 01       	movw	r24, r28
    1228:	4b dc       	rcall	.-1898   	; 0xac0 <put_fat>
    122a:	88 23       	and	r24, r24
    122c:	d9 f2       	breq	.-74     	; 0x11e4 <create_chain+0x1de>
    122e:	08 c0       	rjmp	.+16     	; 0x1240 <create_chain+0x23a>
    1230:	8c 81       	ldd	r24, Y+4	; 0x04
    1232:	81 60       	ori	r24, 0x01	; 1
    1234:	8c 83       	std	Y+4, r24	; 0x04
    1236:	4c 2d       	mov	r20, r12
    1238:	3d 2d       	mov	r19, r13
    123a:	2e 2d       	mov	r18, r14
    123c:	9f 2d       	mov	r25, r15
    123e:	0b c0       	rjmp	.+22     	; 0x1256 <create_chain+0x250>
    1240:	81 30       	cpi	r24, 0x01	; 1
    1242:	09 f4       	brne	.+2      	; 0x1246 <create_chain+0x240>
    1244:	1c cf       	rjmp	.-456    	; 0x107e <create_chain+0x78>
    1246:	41 e0       	ldi	r20, 0x01	; 1
    1248:	30 e0       	ldi	r19, 0x00	; 0
    124a:	20 e0       	ldi	r18, 0x00	; 0
    124c:	90 e0       	ldi	r25, 0x00	; 0
    124e:	03 c0       	rjmp	.+6      	; 0x1256 <create_chain+0x250>
    1250:	46 2f       	mov	r20, r22
    1252:	37 2f       	mov	r19, r23
    1254:	28 2f       	mov	r18, r24
    1256:	64 2f       	mov	r22, r20
    1258:	73 2f       	mov	r23, r19
    125a:	82 2f       	mov	r24, r18
    125c:	df 91       	pop	r29
    125e:	cf 91       	pop	r28
    1260:	1f 91       	pop	r17
    1262:	0f 91       	pop	r16
    1264:	ff 90       	pop	r15
    1266:	ef 90       	pop	r14
    1268:	df 90       	pop	r13
    126a:	cf 90       	pop	r12
    126c:	bf 90       	pop	r11
    126e:	af 90       	pop	r10
    1270:	9f 90       	pop	r9
    1272:	8f 90       	pop	r8
    1274:	7f 90       	pop	r7
    1276:	6f 90       	pop	r6
    1278:	5f 90       	pop	r5
    127a:	4f 90       	pop	r4
    127c:	08 95       	ret

0000127e <remove_chain>:
    127e:	4f 92       	push	r4
    1280:	5f 92       	push	r5
    1282:	6f 92       	push	r6
    1284:	7f 92       	push	r7
    1286:	8f 92       	push	r8
    1288:	9f 92       	push	r9
    128a:	af 92       	push	r10
    128c:	bf 92       	push	r11
    128e:	ef 92       	push	r14
    1290:	ff 92       	push	r15
    1292:	0f 93       	push	r16
    1294:	1f 93       	push	r17
    1296:	cf 93       	push	r28
    1298:	df 93       	push	r29
    129a:	7c 01       	movw	r14, r24
    129c:	4a 01       	movw	r8, r20
    129e:	5b 01       	movw	r10, r22
    12a0:	b9 01       	movw	r22, r18
    12a2:	a8 01       	movw	r20, r16
    12a4:	22 e0       	ldi	r18, 0x02	; 2
    12a6:	82 16       	cp	r8, r18
    12a8:	91 04       	cpc	r9, r1
    12aa:	a1 04       	cpc	r10, r1
    12ac:	b1 04       	cpc	r11, r1
    12ae:	10 f4       	brcc	.+4      	; 0x12b4 <remove_chain+0x36>
    12b0:	82 e0       	ldi	r24, 0x02	; 2
    12b2:	62 c0       	rjmp	.+196    	; 0x1378 <remove_chain+0xfa>
    12b4:	fc 01       	movw	r30, r24
    12b6:	c0 81       	ld	r28, Z
    12b8:	d1 81       	ldd	r29, Z+1	; 0x01
    12ba:	8f 89       	ldd	r24, Y+23	; 0x17
    12bc:	98 8d       	ldd	r25, Y+24	; 0x18
    12be:	a9 8d       	ldd	r26, Y+25	; 0x19
    12c0:	ba 8d       	ldd	r27, Y+26	; 0x1a
    12c2:	88 16       	cp	r8, r24
    12c4:	99 06       	cpc	r9, r25
    12c6:	aa 06       	cpc	r10, r26
    12c8:	bb 06       	cpc	r11, r27
    12ca:	90 f7       	brcc	.-28     	; 0x12b0 <remove_chain+0x32>
    12cc:	41 15       	cp	r20, r1
    12ce:	51 05       	cpc	r21, r1
    12d0:	61 05       	cpc	r22, r1
    12d2:	71 05       	cpc	r23, r1
    12d4:	39 f0       	breq	.+14     	; 0x12e4 <remove_chain+0x66>
    12d6:	0f ef       	ldi	r16, 0xFF	; 255
    12d8:	1f ef       	ldi	r17, 0xFF	; 255
    12da:	98 01       	movw	r18, r16
    12dc:	ce 01       	movw	r24, r28
    12de:	f0 db       	rcall	.-2080   	; 0xac0 <put_fat>
    12e0:	81 11       	cpse	r24, r1
    12e2:	4a c0       	rjmp	.+148    	; 0x1378 <remove_chain+0xfa>
    12e4:	b5 01       	movw	r22, r10
    12e6:	a4 01       	movw	r20, r8
    12e8:	f7 01       	movw	r30, r14
    12ea:	80 81       	ld	r24, Z
    12ec:	91 81       	ldd	r25, Z+1	; 0x01
    12ee:	fd dc       	rcall	.-1542   	; 0xcea <get_fat.isra.7>
    12f0:	2b 01       	movw	r4, r22
    12f2:	3c 01       	movw	r6, r24
    12f4:	61 15       	cp	r22, r1
    12f6:	71 05       	cpc	r23, r1
    12f8:	81 05       	cpc	r24, r1
    12fa:	91 05       	cpc	r25, r1
    12fc:	11 f4       	brne	.+4      	; 0x1302 <remove_chain+0x84>
    12fe:	80 e0       	ldi	r24, 0x00	; 0
    1300:	3b c0       	rjmp	.+118    	; 0x1378 <remove_chain+0xfa>
    1302:	61 30       	cpi	r22, 0x01	; 1
    1304:	71 05       	cpc	r23, r1
    1306:	81 05       	cpc	r24, r1
    1308:	91 05       	cpc	r25, r1
    130a:	91 f2       	breq	.-92     	; 0x12b0 <remove_chain+0x32>
    130c:	6f 3f       	cpi	r22, 0xFF	; 255
    130e:	7f 4f       	sbci	r23, 0xFF	; 255
    1310:	8f 4f       	sbci	r24, 0xFF	; 255
    1312:	9f 4f       	sbci	r25, 0xFF	; 255
    1314:	81 f1       	breq	.+96     	; 0x1376 <remove_chain+0xf8>
    1316:	00 e0       	ldi	r16, 0x00	; 0
    1318:	10 e0       	ldi	r17, 0x00	; 0
    131a:	98 01       	movw	r18, r16
    131c:	b5 01       	movw	r22, r10
    131e:	a4 01       	movw	r20, r8
    1320:	ce 01       	movw	r24, r28
    1322:	ce db       	rcall	.-2148   	; 0xac0 <put_fat>
    1324:	81 11       	cpse	r24, r1
    1326:	28 c0       	rjmp	.+80     	; 0x1378 <remove_chain+0xfa>
    1328:	8f 85       	ldd	r24, Y+15	; 0x0f
    132a:	98 89       	ldd	r25, Y+16	; 0x10
    132c:	a9 89       	ldd	r26, Y+17	; 0x11
    132e:	ba 89       	ldd	r27, Y+18	; 0x12
    1330:	4f 89       	ldd	r20, Y+23	; 0x17
    1332:	58 8d       	ldd	r21, Y+24	; 0x18
    1334:	69 8d       	ldd	r22, Y+25	; 0x19
    1336:	7a 8d       	ldd	r23, Y+26	; 0x1a
    1338:	4a 01       	movw	r8, r20
    133a:	5b 01       	movw	r10, r22
    133c:	e2 e0       	ldi	r30, 0x02	; 2
    133e:	8e 1a       	sub	r8, r30
    1340:	91 08       	sbc	r9, r1
    1342:	a1 08       	sbc	r10, r1
    1344:	b1 08       	sbc	r11, r1
    1346:	88 15       	cp	r24, r8
    1348:	99 05       	cpc	r25, r9
    134a:	aa 05       	cpc	r26, r10
    134c:	bb 05       	cpc	r27, r11
    134e:	50 f4       	brcc	.+20     	; 0x1364 <remove_chain+0xe6>
    1350:	01 96       	adiw	r24, 0x01	; 1
    1352:	a1 1d       	adc	r26, r1
    1354:	b1 1d       	adc	r27, r1
    1356:	8f 87       	std	Y+15, r24	; 0x0f
    1358:	98 8b       	std	Y+16, r25	; 0x10
    135a:	a9 8b       	std	Y+17, r26	; 0x11
    135c:	ba 8b       	std	Y+18, r27	; 0x12
    135e:	8c 81       	ldd	r24, Y+4	; 0x04
    1360:	81 60       	ori	r24, 0x01	; 1
    1362:	8c 83       	std	Y+4, r24	; 0x04
    1364:	53 01       	movw	r10, r6
    1366:	42 01       	movw	r8, r4
    1368:	44 16       	cp	r4, r20
    136a:	55 06       	cpc	r5, r21
    136c:	66 06       	cpc	r6, r22
    136e:	77 06       	cpc	r7, r23
    1370:	08 f4       	brcc	.+2      	; 0x1374 <remove_chain+0xf6>
    1372:	b8 cf       	rjmp	.-144    	; 0x12e4 <remove_chain+0x66>
    1374:	c4 cf       	rjmp	.-120    	; 0x12fe <remove_chain+0x80>
    1376:	81 e0       	ldi	r24, 0x01	; 1
    1378:	df 91       	pop	r29
    137a:	cf 91       	pop	r28
    137c:	1f 91       	pop	r17
    137e:	0f 91       	pop	r16
    1380:	ff 90       	pop	r15
    1382:	ef 90       	pop	r14
    1384:	bf 90       	pop	r11
    1386:	af 90       	pop	r10
    1388:	9f 90       	pop	r9
    138a:	8f 90       	pop	r8
    138c:	7f 90       	pop	r7
    138e:	6f 90       	pop	r6
    1390:	5f 90       	pop	r5
    1392:	4f 90       	pop	r4
    1394:	08 95       	ret

00001396 <dir_clear>:
    1396:	8f 92       	push	r8
    1398:	9f 92       	push	r9
    139a:	af 92       	push	r10
    139c:	bf 92       	push	r11
    139e:	cf 92       	push	r12
    13a0:	df 92       	push	r13
    13a2:	ef 92       	push	r14
    13a4:	ff 92       	push	r15
    13a6:	0f 93       	push	r16
    13a8:	1f 93       	push	r17
    13aa:	cf 93       	push	r28
    13ac:	df 93       	push	r29
    13ae:	ec 01       	movw	r28, r24
    13b0:	6a 01       	movw	r12, r20
    13b2:	7b 01       	movw	r14, r22
    13b4:	0b da       	rcall	.-3050   	; 0x7cc <sync_window>
    13b6:	81 11       	cpse	r24, r1
    13b8:	36 c0       	rjmp	.+108    	; 0x1426 <dir_clear+0x90>
    13ba:	b7 01       	movw	r22, r14
    13bc:	a6 01       	movw	r20, r12
    13be:	ce 01       	movw	r24, r28
    13c0:	67 d9       	rcall	.-3378   	; 0x690 <clst2sect>
    13c2:	4b 01       	movw	r8, r22
    13c4:	5c 01       	movw	r10, r24
    13c6:	6f a7       	std	Y+47, r22	; 0x2f
    13c8:	78 ab       	std	Y+48, r23	; 0x30
    13ca:	89 ab       	std	Y+49, r24	; 0x31
    13cc:	9a ab       	std	Y+50, r25	; 0x32
    13ce:	6e 01       	movw	r12, r28
    13d0:	23 e3       	ldi	r18, 0x33	; 51
    13d2:	c2 0e       	add	r12, r18
    13d4:	d1 1c       	adc	r13, r1
    13d6:	80 e0       	ldi	r24, 0x00	; 0
    13d8:	92 e0       	ldi	r25, 0x02	; 2
    13da:	f6 01       	movw	r30, r12
    13dc:	9c 01       	movw	r18, r24
    13de:	11 92       	st	Z+, r1
    13e0:	21 50       	subi	r18, 0x01	; 1
    13e2:	30 40       	sbci	r19, 0x00	; 0
    13e4:	e1 f7       	brne	.-8      	; 0x13de <dir_clear+0x48>
    13e6:	e1 2c       	mov	r14, r1
    13e8:	f1 2c       	mov	r15, r1
    13ea:	89 85       	ldd	r24, Y+9	; 0x09
    13ec:	9a 85       	ldd	r25, Y+10	; 0x0a
    13ee:	e8 16       	cp	r14, r24
    13f0:	f9 06       	cpc	r15, r25
    13f2:	40 f0       	brcs	.+16     	; 0x1404 <dir_clear+0x6e>
    13f4:	81 e0       	ldi	r24, 0x01	; 1
    13f6:	29 85       	ldd	r18, Y+9	; 0x09
    13f8:	3a 85       	ldd	r19, Y+10	; 0x0a
    13fa:	2e 15       	cp	r18, r14
    13fc:	3f 05       	cpc	r19, r15
    13fe:	a1 f4       	brne	.+40     	; 0x1428 <dir_clear+0x92>
    1400:	80 e0       	ldi	r24, 0x00	; 0
    1402:	12 c0       	rjmp	.+36     	; 0x1428 <dir_clear+0x92>
    1404:	01 e0       	ldi	r16, 0x01	; 1
    1406:	10 e0       	ldi	r17, 0x00	; 0
    1408:	a5 01       	movw	r20, r10
    140a:	94 01       	movw	r18, r8
    140c:	2e 0d       	add	r18, r14
    140e:	3f 1d       	adc	r19, r15
    1410:	41 1d       	adc	r20, r1
    1412:	51 1d       	adc	r21, r1
    1414:	b6 01       	movw	r22, r12
    1416:	89 81       	ldd	r24, Y+1	; 0x01
    1418:	f2 d8       	rcall	.-3612   	; 0x5fe <disk_write>
    141a:	81 11       	cpse	r24, r1
    141c:	eb cf       	rjmp	.-42     	; 0x13f4 <dir_clear+0x5e>
    141e:	3f ef       	ldi	r19, 0xFF	; 255
    1420:	e3 1a       	sub	r14, r19
    1422:	f3 0a       	sbc	r15, r19
    1424:	e2 cf       	rjmp	.-60     	; 0x13ea <dir_clear+0x54>
    1426:	81 e0       	ldi	r24, 0x01	; 1
    1428:	df 91       	pop	r29
    142a:	cf 91       	pop	r28
    142c:	1f 91       	pop	r17
    142e:	0f 91       	pop	r16
    1430:	ff 90       	pop	r15
    1432:	ef 90       	pop	r14
    1434:	df 90       	pop	r13
    1436:	cf 90       	pop	r12
    1438:	bf 90       	pop	r11
    143a:	af 90       	pop	r10
    143c:	9f 90       	pop	r9
    143e:	8f 90       	pop	r8
    1440:	08 95       	ret

00001442 <dir_next>:
    1442:	4f 92       	push	r4
    1444:	5f 92       	push	r5
    1446:	6f 92       	push	r6
    1448:	7f 92       	push	r7
    144a:	af 92       	push	r10
    144c:	bf 92       	push	r11
    144e:	cf 92       	push	r12
    1450:	df 92       	push	r13
    1452:	ef 92       	push	r14
    1454:	ff 92       	push	r15
    1456:	0f 93       	push	r16
    1458:	1f 93       	push	r17
    145a:	cf 93       	push	r28
    145c:	df 93       	push	r29
    145e:	ec 01       	movw	r28, r24
    1460:	08 81       	ld	r16, Y
    1462:	19 81       	ldd	r17, Y+1	; 0x01
    1464:	ce 84       	ldd	r12, Y+14	; 0x0e
    1466:	df 84       	ldd	r13, Y+15	; 0x0f
    1468:	e8 88       	ldd	r14, Y+16	; 0x10
    146a:	f9 88       	ldd	r15, Y+17	; 0x11
    146c:	80 e2       	ldi	r24, 0x20	; 32
    146e:	c8 0e       	add	r12, r24
    1470:	d1 1c       	adc	r13, r1
    1472:	e1 1c       	adc	r14, r1
    1474:	f1 1c       	adc	r15, r1
    1476:	c1 14       	cp	r12, r1
    1478:	d1 04       	cpc	r13, r1
    147a:	e0 e2       	ldi	r30, 0x20	; 32
    147c:	ee 06       	cpc	r14, r30
    147e:	f1 04       	cpc	r15, r1
    1480:	20 f0       	brcs	.+8      	; 0x148a <dir_next+0x48>
    1482:	1e 8a       	std	Y+22, r1	; 0x16
    1484:	1f 8a       	std	Y+23, r1	; 0x17
    1486:	18 8e       	std	Y+24, r1	; 0x18
    1488:	19 8e       	std	Y+25, r1	; 0x19
    148a:	8e 89       	ldd	r24, Y+22	; 0x16
    148c:	9f 89       	ldd	r25, Y+23	; 0x17
    148e:	a8 8d       	ldd	r26, Y+24	; 0x18
    1490:	b9 8d       	ldd	r27, Y+25	; 0x19
    1492:	00 97       	sbiw	r24, 0x00	; 0
    1494:	a1 05       	cpc	r26, r1
    1496:	b1 05       	cpc	r27, r1
    1498:	09 f4       	brne	.+2      	; 0x149c <dir_next+0x5a>
    149a:	a2 c0       	rjmp	.+324    	; 0x15e0 <dir_next+0x19e>
    149c:	5b 01       	movw	r10, r22
    149e:	b7 01       	movw	r22, r14
    14a0:	a6 01       	movw	r20, r12
    14a2:	51 70       	andi	r21, 0x01	; 1
    14a4:	66 27       	eor	r22, r22
    14a6:	77 27       	eor	r23, r23
    14a8:	45 2b       	or	r20, r21
    14aa:	46 2b       	or	r20, r22
    14ac:	47 2b       	or	r20, r23
    14ae:	09 f0       	breq	.+2      	; 0x14b2 <dir_next+0x70>
    14b0:	89 c0       	rjmp	.+274    	; 0x15c4 <dir_next+0x182>
    14b2:	01 96       	adiw	r24, 0x01	; 1
    14b4:	a1 1d       	adc	r26, r1
    14b6:	b1 1d       	adc	r27, r1
    14b8:	8e 8b       	std	Y+22, r24	; 0x16
    14ba:	9f 8b       	std	Y+23, r25	; 0x17
    14bc:	a8 8f       	std	Y+24, r26	; 0x18
    14be:	b9 8f       	std	Y+25, r27	; 0x19
    14c0:	4a 89       	ldd	r20, Y+18	; 0x12
    14c2:	5b 89       	ldd	r21, Y+19	; 0x13
    14c4:	6c 89       	ldd	r22, Y+20	; 0x14
    14c6:	7d 89       	ldd	r23, Y+21	; 0x15
    14c8:	f8 01       	movw	r30, r16
    14ca:	41 15       	cp	r20, r1
    14cc:	51 05       	cpc	r21, r1
    14ce:	61 05       	cpc	r22, r1
    14d0:	71 05       	cpc	r23, r1
    14d2:	c1 f4       	brne	.+48     	; 0x1504 <dir_next+0xc2>
    14d4:	87 81       	ldd	r24, Z+7	; 0x07
    14d6:	90 85       	ldd	r25, Z+8	; 0x08
    14d8:	a0 e0       	ldi	r26, 0x00	; 0
    14da:	b0 e0       	ldi	r27, 0x00	; 0
    14dc:	b7 01       	movw	r22, r14
    14de:	a6 01       	movw	r20, r12
    14e0:	35 e0       	ldi	r19, 0x05	; 5
    14e2:	76 95       	lsr	r23
    14e4:	67 95       	ror	r22
    14e6:	57 95       	ror	r21
    14e8:	47 95       	ror	r20
    14ea:	3a 95       	dec	r19
    14ec:	d1 f7       	brne	.-12     	; 0x14e2 <dir_next+0xa0>
    14ee:	48 17       	cp	r20, r24
    14f0:	59 07       	cpc	r21, r25
    14f2:	6a 07       	cpc	r22, r26
    14f4:	7b 07       	cpc	r23, r27
    14f6:	08 f4       	brcc	.+2      	; 0x14fa <dir_next+0xb8>
    14f8:	65 c0       	rjmp	.+202    	; 0x15c4 <dir_next+0x182>
    14fa:	1e 8a       	std	Y+22, r1	; 0x16
    14fc:	1f 8a       	std	Y+23, r1	; 0x17
    14fe:	18 8e       	std	Y+24, r1	; 0x18
    1500:	19 8e       	std	Y+25, r1	; 0x19
    1502:	6e c0       	rjmp	.+220    	; 0x15e0 <dir_next+0x19e>
    1504:	81 85       	ldd	r24, Z+9	; 0x09
    1506:	92 85       	ldd	r25, Z+10	; 0x0a
    1508:	01 97       	sbiw	r24, 0x01	; 1
    150a:	a0 e0       	ldi	r26, 0x00	; 0
    150c:	b0 e0       	ldi	r27, 0x00	; 0
    150e:	26 01       	movw	r4, r12
    1510:	37 01       	movw	r6, r14
    1512:	29 e0       	ldi	r18, 0x09	; 9
    1514:	76 94       	lsr	r7
    1516:	67 94       	ror	r6
    1518:	57 94       	ror	r5
    151a:	47 94       	ror	r4
    151c:	2a 95       	dec	r18
    151e:	d1 f7       	brne	.-12     	; 0x1514 <dir_next+0xd2>
    1520:	84 21       	and	r24, r4
    1522:	95 21       	and	r25, r5
    1524:	a6 21       	and	r26, r6
    1526:	b7 21       	and	r27, r7
    1528:	89 2b       	or	r24, r25
    152a:	8a 2b       	or	r24, r26
    152c:	8b 2b       	or	r24, r27
    152e:	09 f0       	breq	.+2      	; 0x1532 <dir_next+0xf0>
    1530:	49 c0       	rjmp	.+146    	; 0x15c4 <dir_next+0x182>
    1532:	c8 01       	movw	r24, r16
    1534:	da db       	rcall	.-2124   	; 0xcea <get_fat.isra.7>
    1536:	2b 01       	movw	r4, r22
    1538:	3c 01       	movw	r6, r24
    153a:	62 30       	cpi	r22, 0x02	; 2
    153c:	71 05       	cpc	r23, r1
    153e:	81 05       	cpc	r24, r1
    1540:	91 05       	cpc	r25, r1
    1542:	10 f4       	brcc	.+4      	; 0x1548 <dir_next+0x106>
    1544:	82 e0       	ldi	r24, 0x02	; 2
    1546:	4f c0       	rjmp	.+158    	; 0x15e6 <dir_next+0x1a4>
    1548:	8f ef       	ldi	r24, 0xFF	; 255
    154a:	48 16       	cp	r4, r24
    154c:	58 06       	cpc	r5, r24
    154e:	68 06       	cpc	r6, r24
    1550:	78 06       	cpc	r7, r24
    1552:	11 f4       	brne	.+4      	; 0x1558 <dir_next+0x116>
    1554:	81 e0       	ldi	r24, 0x01	; 1
    1556:	47 c0       	rjmp	.+142    	; 0x15e6 <dir_next+0x1a4>
    1558:	f8 01       	movw	r30, r16
    155a:	87 89       	ldd	r24, Z+23	; 0x17
    155c:	90 8d       	ldd	r25, Z+24	; 0x18
    155e:	a1 8d       	ldd	r26, Z+25	; 0x19
    1560:	b2 8d       	ldd	r27, Z+26	; 0x1a
    1562:	48 16       	cp	r4, r24
    1564:	59 06       	cpc	r5, r25
    1566:	6a 06       	cpc	r6, r26
    1568:	7b 06       	cpc	r7, r27
    156a:	00 f1       	brcs	.+64     	; 0x15ac <dir_next+0x16a>
    156c:	ab 28       	or	r10, r11
    156e:	29 f2       	breq	.-118    	; 0x14fa <dir_next+0xb8>
    1570:	4a 89       	ldd	r20, Y+18	; 0x12
    1572:	5b 89       	ldd	r21, Y+19	; 0x13
    1574:	6c 89       	ldd	r22, Y+20	; 0x14
    1576:	7d 89       	ldd	r23, Y+21	; 0x15
    1578:	ce 01       	movw	r24, r28
    157a:	45 dd       	rcall	.-1398   	; 0x1006 <create_chain>
    157c:	2b 01       	movw	r4, r22
    157e:	3c 01       	movw	r6, r24
    1580:	61 15       	cp	r22, r1
    1582:	71 05       	cpc	r23, r1
    1584:	81 05       	cpc	r24, r1
    1586:	91 05       	cpc	r25, r1
    1588:	69 f1       	breq	.+90     	; 0x15e4 <dir_next+0x1a2>
    158a:	61 30       	cpi	r22, 0x01	; 1
    158c:	71 05       	cpc	r23, r1
    158e:	81 05       	cpc	r24, r1
    1590:	91 05       	cpc	r25, r1
    1592:	c1 f2       	breq	.-80     	; 0x1544 <dir_next+0x102>
    1594:	8f ef       	ldi	r24, 0xFF	; 255
    1596:	48 16       	cp	r4, r24
    1598:	58 06       	cpc	r5, r24
    159a:	68 06       	cpc	r6, r24
    159c:	78 06       	cpc	r7, r24
    159e:	d1 f2       	breq	.-76     	; 0x1554 <dir_next+0x112>
    15a0:	b3 01       	movw	r22, r6
    15a2:	a2 01       	movw	r20, r4
    15a4:	c8 01       	movw	r24, r16
    15a6:	f7 de       	rcall	.-530    	; 0x1396 <dir_clear>
    15a8:	81 11       	cpse	r24, r1
    15aa:	d4 cf       	rjmp	.-88     	; 0x1554 <dir_next+0x112>
    15ac:	4a 8a       	std	Y+18, r4	; 0x12
    15ae:	5b 8a       	std	Y+19, r5	; 0x13
    15b0:	6c 8a       	std	Y+20, r6	; 0x14
    15b2:	7d 8a       	std	Y+21, r7	; 0x15
    15b4:	b3 01       	movw	r22, r6
    15b6:	a2 01       	movw	r20, r4
    15b8:	c8 01       	movw	r24, r16
    15ba:	6a d8       	rcall	.-3884   	; 0x690 <clst2sect>
    15bc:	6e 8b       	std	Y+22, r22	; 0x16
    15be:	7f 8b       	std	Y+23, r23	; 0x17
    15c0:	88 8f       	std	Y+24, r24	; 0x18
    15c2:	99 8f       	std	Y+25, r25	; 0x19
    15c4:	ce 86       	std	Y+14, r12	; 0x0e
    15c6:	df 86       	std	Y+15, r13	; 0x0f
    15c8:	e8 8a       	std	Y+16, r14	; 0x10
    15ca:	f9 8a       	std	Y+17, r15	; 0x11
    15cc:	0d 5c       	subi	r16, 0xCD	; 205
    15ce:	1f 4f       	sbci	r17, 0xFF	; 255
    15d0:	e1 e0       	ldi	r30, 0x01	; 1
    15d2:	de 22       	and	r13, r30
    15d4:	c0 0e       	add	r12, r16
    15d6:	d1 1e       	adc	r13, r17
    15d8:	db 8e       	std	Y+27, r13	; 0x1b
    15da:	ca 8e       	std	Y+26, r12	; 0x1a
    15dc:	80 e0       	ldi	r24, 0x00	; 0
    15de:	03 c0       	rjmp	.+6      	; 0x15e6 <dir_next+0x1a4>
    15e0:	84 e0       	ldi	r24, 0x04	; 4
    15e2:	01 c0       	rjmp	.+2      	; 0x15e6 <dir_next+0x1a4>
    15e4:	87 e0       	ldi	r24, 0x07	; 7
    15e6:	df 91       	pop	r29
    15e8:	cf 91       	pop	r28
    15ea:	1f 91       	pop	r17
    15ec:	0f 91       	pop	r16
    15ee:	ff 90       	pop	r15
    15f0:	ef 90       	pop	r14
    15f2:	df 90       	pop	r13
    15f4:	cf 90       	pop	r12
    15f6:	bf 90       	pop	r11
    15f8:	af 90       	pop	r10
    15fa:	7f 90       	pop	r7
    15fc:	6f 90       	pop	r6
    15fe:	5f 90       	pop	r5
    1600:	4f 90       	pop	r4
    1602:	08 95       	ret

00001604 <follow_path>:
    1604:	2f 92       	push	r2
    1606:	3f 92       	push	r3
    1608:	4f 92       	push	r4
    160a:	5f 92       	push	r5
    160c:	6f 92       	push	r6
    160e:	7f 92       	push	r7
    1610:	8f 92       	push	r8
    1612:	9f 92       	push	r9
    1614:	af 92       	push	r10
    1616:	bf 92       	push	r11
    1618:	cf 92       	push	r12
    161a:	df 92       	push	r13
    161c:	ef 92       	push	r14
    161e:	ff 92       	push	r15
    1620:	0f 93       	push	r16
    1622:	1f 93       	push	r17
    1624:	cf 93       	push	r28
    1626:	df 93       	push	r29
    1628:	00 d0       	rcall	.+0      	; 0x162a <follow_path+0x26>
    162a:	00 d0       	rcall	.+0      	; 0x162c <follow_path+0x28>
    162c:	cd b7       	in	r28, 0x3d	; 61
    162e:	de b7       	in	r29, 0x3e	; 62
    1630:	9c 83       	std	Y+4, r25	; 0x04
    1632:	8b 83       	std	Y+3, r24	; 0x03
    1634:	8b 01       	movw	r16, r22
    1636:	dc 01       	movw	r26, r24
    1638:	6d 90       	ld	r6, X+
    163a:	7c 90       	ld	r7, X
    163c:	fb 01       	movw	r30, r22
    163e:	80 81       	ld	r24, Z
    1640:	8f 32       	cpi	r24, 0x2F	; 47
    1642:	11 f0       	breq	.+4      	; 0x1648 <follow_path+0x44>
    1644:	8c 35       	cpi	r24, 0x5C	; 92
    1646:	11 f4       	brne	.+4      	; 0x164c <follow_path+0x48>
    1648:	98 01       	movw	r18, r16
    164a:	0c c0       	rjmp	.+24     	; 0x1664 <follow_path+0x60>
    164c:	f3 01       	movw	r30, r6
    164e:	83 89       	ldd	r24, Z+19	; 0x13
    1650:	94 89       	ldd	r25, Z+20	; 0x14
    1652:	a5 89       	ldd	r26, Z+21	; 0x15
    1654:	b6 89       	ldd	r27, Z+22	; 0x16
    1656:	eb 81       	ldd	r30, Y+3	; 0x03
    1658:	fc 81       	ldd	r31, Y+4	; 0x04
    165a:	86 83       	std	Z+6, r24	; 0x06
    165c:	97 83       	std	Z+7, r25	; 0x07
    165e:	a0 87       	std	Z+8, r26	; 0x08
    1660:	b1 87       	std	Z+9, r27	; 0x09
    1662:	0f c0       	rjmp	.+30     	; 0x1682 <follow_path+0x7e>
    1664:	89 01       	movw	r16, r18
    1666:	d9 01       	movw	r26, r18
    1668:	8c 91       	ld	r24, X
    166a:	2f 5f       	subi	r18, 0xFF	; 255
    166c:	3f 4f       	sbci	r19, 0xFF	; 255
    166e:	8f 32       	cpi	r24, 0x2F	; 47
    1670:	c9 f3       	breq	.-14     	; 0x1664 <follow_path+0x60>
    1672:	8c 35       	cpi	r24, 0x5C	; 92
    1674:	b9 f3       	breq	.-18     	; 0x1664 <follow_path+0x60>
    1676:	eb 81       	ldd	r30, Y+3	; 0x03
    1678:	fc 81       	ldd	r31, Y+4	; 0x04
    167a:	16 82       	std	Z+6, r1	; 0x06
    167c:	17 82       	std	Z+7, r1	; 0x07
    167e:	10 86       	std	Z+8, r1	; 0x08
    1680:	11 86       	std	Z+9, r1	; 0x09
    1682:	d8 01       	movw	r26, r16
    1684:	8c 91       	ld	r24, X
    1686:	80 32       	cpi	r24, 0x20	; 32
    1688:	60 f0       	brcs	.+24     	; 0x16a2 <follow_path+0x9e>
    168a:	cb 80       	ldd	r12, Y+3	; 0x03
    168c:	dc 80       	ldd	r13, Y+4	; 0x04
    168e:	bc e1       	ldi	r27, 0x1C	; 28
    1690:	cb 0e       	add	r12, r27
    1692:	d1 1c       	adc	r13, r1
    1694:	65 e0       	ldi	r22, 0x05	; 5
    1696:	26 2e       	mov	r2, r22
    1698:	f3 01       	movw	r30, r6
    169a:	f3 96       	adiw	r30, 0x33	; 51
    169c:	fa 83       	std	Y+2, r31	; 0x02
    169e:	e9 83       	std	Y+1, r30	; 0x01
    16a0:	63 c0       	rjmp	.+198    	; 0x1768 <follow_path+0x164>
    16a2:	80 e8       	ldi	r24, 0x80	; 128
    16a4:	ab 81       	ldd	r26, Y+3	; 0x03
    16a6:	bc 81       	ldd	r27, Y+4	; 0x04
    16a8:	97 96       	adiw	r26, 0x27	; 39
    16aa:	8c 93       	st	X, r24
    16ac:	97 97       	sbiw	r26, 0x27	; 39
    16ae:	40 e0       	ldi	r20, 0x00	; 0
    16b0:	50 e0       	ldi	r21, 0x00	; 0
    16b2:	ba 01       	movw	r22, r20
    16b4:	cd 01       	movw	r24, r26
    16b6:	0f 90       	pop	r0
    16b8:	0f 90       	pop	r0
    16ba:	0f 90       	pop	r0
    16bc:	0f 90       	pop	r0
    16be:	df 91       	pop	r29
    16c0:	cf 91       	pop	r28
    16c2:	1f 91       	pop	r17
    16c4:	0f 91       	pop	r16
    16c6:	ff 90       	pop	r15
    16c8:	ef 90       	pop	r14
    16ca:	df 90       	pop	r13
    16cc:	cf 90       	pop	r12
    16ce:	bf 90       	pop	r11
    16d0:	af 90       	pop	r10
    16d2:	9f 90       	pop	r9
    16d4:	8f 90       	pop	r8
    16d6:	7f 90       	pop	r7
    16d8:	6f 90       	pop	r6
    16da:	5f 90       	pop	r5
    16dc:	4f 90       	pop	r4
    16de:	3f 90       	pop	r3
    16e0:	2f 90       	pop	r2
    16e2:	be cb       	rjmp	.-2180   	; 0xe60 <dir_sdi>
    16e4:	ab 81       	ldd	r26, Y+3	; 0x03
    16e6:	bc 81       	ldd	r27, Y+4	; 0x04
    16e8:	5a 96       	adiw	r26, 0x1a	; 26
    16ea:	ed 91       	ld	r30, X+
    16ec:	fc 91       	ld	r31, X
    16ee:	5b 97       	sbiw	r26, 0x1b	; 27
    16f0:	80 81       	ld	r24, Z
    16f2:	88 23       	and	r24, r24
    16f4:	09 f4       	brne	.+2      	; 0x16f8 <follow_path+0xf4>
    16f6:	07 c1       	rjmp	.+526    	; 0x1906 <follow_path+0x302>
    16f8:	83 85       	ldd	r24, Z+11	; 0x0b
    16fa:	8f 73       	andi	r24, 0x3F	; 63
    16fc:	14 96       	adiw	r26, 0x04	; 4
    16fe:	8c 93       	st	X, r24
    1700:	83 85       	ldd	r24, Z+11	; 0x0b
    1702:	83 ff       	sbrs	r24, 3
    1704:	f6 c0       	rjmp	.+492    	; 0x18f2 <follow_path+0x2ee>
    1706:	60 e0       	ldi	r22, 0x00	; 0
    1708:	70 e0       	ldi	r23, 0x00	; 0
    170a:	8b 81       	ldd	r24, Y+3	; 0x03
    170c:	9c 81       	ldd	r25, Y+4	; 0x04
    170e:	99 de       	rcall	.-718    	; 0x1442 <dir_next>
    1710:	b8 2e       	mov	r11, r24
    1712:	81 11       	cpse	r24, r1
    1714:	0d c0       	rjmp	.+26     	; 0x1730 <follow_path+0x12c>
    1716:	ab 81       	ldd	r26, Y+3	; 0x03
    1718:	bc 81       	ldd	r27, Y+4	; 0x04
    171a:	56 96       	adiw	r26, 0x16	; 22
    171c:	4d 91       	ld	r20, X+
    171e:	5d 91       	ld	r21, X+
    1720:	6d 91       	ld	r22, X+
    1722:	7c 91       	ld	r23, X
    1724:	59 97       	sbiw	r26, 0x19	; 25
    1726:	c7 01       	movw	r24, r14
    1728:	3f d9       	rcall	.-3458   	; 0x9a8 <move_window>
    172a:	b8 2e       	mov	r11, r24
    172c:	88 23       	and	r24, r24
    172e:	d1 f2       	breq	.-76     	; 0x16e4 <follow_path+0xe0>
    1730:	eb 81       	ldd	r30, Y+3	; 0x03
    1732:	fc 81       	ldd	r31, Y+4	; 0x04
    1734:	87 a1       	ldd	r24, Z+39	; 0x27
    1736:	b1 10       	cpse	r11, r1
    1738:	e9 c0       	rjmp	.+466    	; 0x190c <follow_path+0x308>
    173a:	82 fd       	sbrc	r24, 2
    173c:	0b c1       	rjmp	.+534    	; 0x1954 <follow_path+0x350>
    173e:	eb 81       	ldd	r30, Y+3	; 0x03
    1740:	fc 81       	ldd	r31, Y+4	; 0x04
    1742:	84 81       	ldd	r24, Z+4	; 0x04
    1744:	84 ff       	sbrs	r24, 4
    1746:	f5 c0       	rjmp	.+490    	; 0x1932 <follow_path+0x32e>
    1748:	66 85       	ldd	r22, Z+14	; 0x0e
    174a:	77 85       	ldd	r23, Z+15	; 0x0f
    174c:	71 70       	andi	r23, 0x01	; 1
    174e:	89 81       	ldd	r24, Y+1	; 0x01
    1750:	9a 81       	ldd	r25, Y+2	; 0x02
    1752:	68 0f       	add	r22, r24
    1754:	79 1f       	adc	r23, r25
    1756:	d3 01       	movw	r26, r6
    1758:	8c 91       	ld	r24, X
    175a:	16 d8       	rcall	.-4052   	; 0x788 <ld_clust.isra.0>
    175c:	eb 81       	ldd	r30, Y+3	; 0x03
    175e:	fc 81       	ldd	r31, Y+4	; 0x04
    1760:	66 83       	std	Z+6, r22	; 0x06
    1762:	77 83       	std	Z+7, r23	; 0x07
    1764:	80 87       	std	Z+8, r24	; 0x08
    1766:	91 87       	std	Z+9, r25	; 0x09
    1768:	4b e0       	ldi	r20, 0x0B	; 11
    176a:	50 e0       	ldi	r21, 0x00	; 0
    176c:	60 e2       	ldi	r22, 0x20	; 32
    176e:	70 e0       	ldi	r23, 0x00	; 0
    1770:	c6 01       	movw	r24, r12
    1772:	0e 94 87 2c 	call	0x590e	; 0x590e <memset>
    1776:	f8 01       	movw	r30, r16
    1778:	80 81       	ld	r24, Z
    177a:	8e 32       	cpi	r24, 0x2E	; 46
    177c:	41 f0       	breq	.+16     	; 0x178e <follow_path+0x18a>
    177e:	e1 2c       	mov	r14, r1
    1780:	f1 2c       	mov	r15, r1
    1782:	41 2c       	mov	r4, r1
    1784:	51 2c       	mov	r5, r1
    1786:	58 e0       	ldi	r21, 0x08	; 8
    1788:	a5 2e       	mov	r10, r21
    178a:	b1 2c       	mov	r11, r1
    178c:	59 c0       	rjmp	.+178    	; 0x1840 <follow_path+0x23c>
    178e:	d8 01       	movw	r26, r16
    1790:	f6 01       	movw	r30, r12
    1792:	20 e0       	ldi	r18, 0x00	; 0
    1794:	30 e0       	ldi	r19, 0x00	; 0
    1796:	2f 5f       	subi	r18, 0xFF	; 255
    1798:	3f 4f       	sbci	r19, 0xFF	; 255
    179a:	8d 91       	ld	r24, X+
    179c:	8e 32       	cpi	r24, 0x2E	; 46
    179e:	31 f4       	brne	.+12     	; 0x17ac <follow_path+0x1a8>
    17a0:	23 30       	cpi	r18, 0x03	; 3
    17a2:	31 05       	cpc	r19, r1
    17a4:	09 f4       	brne	.+2      	; 0x17a8 <follow_path+0x1a4>
    17a6:	c8 c0       	rjmp	.+400    	; 0x1938 <follow_path+0x334>
    17a8:	81 93       	st	Z+, r24
    17aa:	f5 cf       	rjmp	.-22     	; 0x1796 <follow_path+0x192>
    17ac:	8f 32       	cpi	r24, 0x2F	; 47
    17ae:	29 f0       	breq	.+10     	; 0x17ba <follow_path+0x1b6>
    17b0:	8c 35       	cpi	r24, 0x5C	; 92
    17b2:	19 f0       	breq	.+6      	; 0x17ba <follow_path+0x1b6>
    17b4:	81 32       	cpi	r24, 0x21	; 33
    17b6:	08 f0       	brcs	.+2      	; 0x17ba <follow_path+0x1b6>
    17b8:	bf c0       	rjmp	.+382    	; 0x1938 <follow_path+0x334>
    17ba:	02 0f       	add	r16, r18
    17bc:	13 1f       	adc	r17, r19
    17be:	81 32       	cpi	r24, 0x21	; 33
    17c0:	10 f4       	brcc	.+4      	; 0x17c6 <follow_path+0x1c2>
    17c2:	84 e2       	ldi	r24, 0x24	; 36
    17c4:	01 c0       	rjmp	.+2      	; 0x17c8 <follow_path+0x1c4>
    17c6:	80 e2       	ldi	r24, 0x20	; 32
    17c8:	ab 81       	ldd	r26, Y+3	; 0x03
    17ca:	bc 81       	ldd	r27, Y+4	; 0x04
    17cc:	97 96       	adiw	r26, 0x27	; 39
    17ce:	8c 93       	st	X, r24
    17d0:	85 c0       	rjmp	.+266    	; 0x18dc <follow_path+0x2d8>
    17d2:	ff e2       	ldi	r31, 0x2F	; 47
    17d4:	3f 16       	cp	r3, r31
    17d6:	09 f4       	brne	.+2      	; 0x17da <follow_path+0x1d6>
    17d8:	40 c0       	rjmp	.+128    	; 0x185a <follow_path+0x256>
    17da:	8c e5       	ldi	r24, 0x5C	; 92
    17dc:	38 16       	cp	r3, r24
    17de:	e9 f1       	breq	.+122    	; 0x185a <follow_path+0x256>
    17e0:	9e e2       	ldi	r25, 0x2E	; 46
    17e2:	39 16       	cp	r3, r25
    17e4:	09 f4       	brne	.+2      	; 0x17e8 <follow_path+0x1e4>
    17e6:	ab c0       	rjmp	.+342    	; 0x193e <follow_path+0x33a>
    17e8:	ea 14       	cp	r14, r10
    17ea:	fb 04       	cpc	r15, r11
    17ec:	08 f0       	brcs	.+2      	; 0x17f0 <follow_path+0x1ec>
    17ee:	a4 c0       	rjmp	.+328    	; 0x1938 <follow_path+0x334>
    17f0:	a0 e8       	ldi	r26, 0x80	; 128
    17f2:	a3 15       	cp	r26, r3
    17f4:	08 f0       	brcs	.+2      	; 0x17f8 <follow_path+0x1f4>
    17f6:	5c c0       	rjmp	.+184    	; 0x18b0 <follow_path+0x2ac>
    17f8:	bf e9       	ldi	r27, 0x9F	; 159
    17fa:	b3 15       	cp	r27, r3
    17fc:	d8 f1       	brcs	.+118    	; 0x1874 <follow_path+0x270>
    17fe:	f2 e0       	ldi	r31, 0x02	; 2
    1800:	4f 0e       	add	r4, r31
    1802:	51 1c       	adc	r5, r1
    1804:	f8 01       	movw	r30, r16
    1806:	e8 0d       	add	r30, r8
    1808:	f9 1d       	adc	r31, r9
    180a:	90 80       	ld	r9, Z
    180c:	89 2d       	mov	r24, r9
    180e:	0e 94 36 03 	call	0x66c	; 0x66c <dbc_2nd>
    1812:	89 2b       	or	r24, r25
    1814:	09 f4       	brne	.+2      	; 0x1818 <follow_path+0x214>
    1816:	90 c0       	rjmp	.+288    	; 0x1938 <follow_path+0x334>
    1818:	c5 01       	movw	r24, r10
    181a:	01 97       	sbiw	r24, 0x01	; 1
    181c:	e8 16       	cp	r14, r24
    181e:	f9 06       	cpc	r15, r25
    1820:	08 f0       	brcs	.+2      	; 0x1824 <follow_path+0x220>
    1822:	8a c0       	rjmp	.+276    	; 0x1938 <follow_path+0x334>
    1824:	f6 01       	movw	r30, r12
    1826:	ee 0d       	add	r30, r14
    1828:	ff 1d       	adc	r31, r15
    182a:	30 82       	st	Z, r3
    182c:	f7 01       	movw	r30, r14
    182e:	31 96       	adiw	r30, 0x01	; 1
    1830:	ec 0d       	add	r30, r12
    1832:	fd 1d       	adc	r31, r13
    1834:	82 e0       	ldi	r24, 0x02	; 2
    1836:	e8 0e       	add	r14, r24
    1838:	f1 1c       	adc	r15, r1
    183a:	90 82       	st	Z, r9
    183c:	42 01       	movw	r8, r4
    183e:	24 01       	movw	r4, r8
    1840:	42 01       	movw	r8, r4
    1842:	bf ef       	ldi	r27, 0xFF	; 255
    1844:	8b 1a       	sub	r8, r27
    1846:	9b 0a       	sbc	r9, r27
    1848:	f8 01       	movw	r30, r16
    184a:	e4 0d       	add	r30, r4
    184c:	f5 1d       	adc	r31, r5
    184e:	30 80       	ld	r3, Z
    1850:	e0 e2       	ldi	r30, 0x20	; 32
    1852:	e3 15       	cp	r30, r3
    1854:	08 f4       	brcc	.+2      	; 0x1858 <follow_path+0x254>
    1856:	bd cf       	rjmp	.-134    	; 0x17d2 <follow_path+0x1ce>
    1858:	12 c0       	rjmp	.+36     	; 0x187e <follow_path+0x27a>
    185a:	f8 01       	movw	r30, r16
    185c:	e8 0d       	add	r30, r8
    185e:	f9 1d       	adc	r31, r9
    1860:	02 c0       	rjmp	.+4      	; 0x1866 <follow_path+0x262>
    1862:	8c 35       	cpi	r24, 0x5C	; 92
    1864:	61 f4       	brne	.+24     	; 0x187e <follow_path+0x27a>
    1866:	4f 01       	movw	r8, r30
    1868:	80 1a       	sub	r8, r16
    186a:	91 0a       	sbc	r9, r17
    186c:	81 91       	ld	r24, Z+
    186e:	8f 32       	cpi	r24, 0x2F	; 47
    1870:	c1 f7       	brne	.-16     	; 0x1862 <follow_path+0x25e>
    1872:	f9 cf       	rjmp	.-14     	; 0x1866 <follow_path+0x262>
    1874:	80 e2       	ldi	r24, 0x20	; 32
    1876:	83 0d       	add	r24, r3
    1878:	8d 31       	cpi	r24, 0x1D	; 29
    187a:	08 f2       	brcs	.-126    	; 0x17fe <follow_path+0x1fa>
    187c:	19 c0       	rjmp	.+50     	; 0x18b0 <follow_path+0x2ac>
    187e:	ef 28       	or	r14, r15
    1880:	09 f4       	brne	.+2      	; 0x1884 <follow_path+0x280>
    1882:	5a c0       	rjmp	.+180    	; 0x1938 <follow_path+0x334>
    1884:	eb 81       	ldd	r30, Y+3	; 0x03
    1886:	fc 81       	ldd	r31, Y+4	; 0x04
    1888:	84 8d       	ldd	r24, Z+28	; 0x1c
    188a:	85 3e       	cpi	r24, 0xE5	; 229
    188c:	09 f4       	brne	.+2      	; 0x1890 <follow_path+0x28c>
    188e:	24 8e       	std	Z+28, r2	; 0x1c
    1890:	08 0d       	add	r16, r8
    1892:	19 1d       	adc	r17, r9
    1894:	f0 e2       	ldi	r31, 0x20	; 32
    1896:	f3 15       	cp	r31, r3
    1898:	20 f4       	brcc	.+8      	; 0x18a2 <follow_path+0x29e>
    189a:	d8 01       	movw	r26, r16
    189c:	8c 91       	ld	r24, X
    189e:	81 32       	cpi	r24, 0x21	; 33
    18a0:	10 f4       	brcc	.+4      	; 0x18a6 <follow_path+0x2a2>
    18a2:	84 e0       	ldi	r24, 0x04	; 4
    18a4:	01 c0       	rjmp	.+2      	; 0x18a8 <follow_path+0x2a4>
    18a6:	80 e0       	ldi	r24, 0x00	; 0
    18a8:	eb 81       	ldd	r30, Y+3	; 0x03
    18aa:	fc 81       	ldd	r31, Y+4	; 0x04
    18ac:	87 a3       	std	Z+39, r24	; 0x27
    18ae:	16 c0       	rjmp	.+44     	; 0x18dc <follow_path+0x2d8>
    18b0:	63 2d       	mov	r22, r3
    18b2:	70 e0       	ldi	r23, 0x00	; 0
    18b4:	88 e3       	ldi	r24, 0x38	; 56
    18b6:	93 e0       	ldi	r25, 0x03	; 3
    18b8:	0e 94 8e 2c 	call	0x591c	; 0x591c <strchr>
    18bc:	89 2b       	or	r24, r25
    18be:	e1 f5       	brne	.+120    	; 0x1938 <follow_path+0x334>
    18c0:	8f e9       	ldi	r24, 0x9F	; 159
    18c2:	83 0d       	add	r24, r3
    18c4:	8a 31       	cpi	r24, 0x1A	; 26
    18c6:	10 f4       	brcc	.+4      	; 0x18cc <follow_path+0x2c8>
    18c8:	90 ee       	ldi	r25, 0xE0	; 224
    18ca:	39 0e       	add	r3, r25
    18cc:	f6 01       	movw	r30, r12
    18ce:	ee 0d       	add	r30, r14
    18d0:	ff 1d       	adc	r31, r15
    18d2:	30 82       	st	Z, r3
    18d4:	d7 01       	movw	r26, r14
    18d6:	11 96       	adiw	r26, 0x01	; 1
    18d8:	7d 01       	movw	r14, r26
    18da:	b1 cf       	rjmp	.-158    	; 0x183e <follow_path+0x23a>
    18dc:	ab 81       	ldd	r26, Y+3	; 0x03
    18de:	bc 81       	ldd	r27, Y+4	; 0x04
    18e0:	ed 90       	ld	r14, X+
    18e2:	fc 90       	ld	r15, X
    18e4:	11 97       	sbiw	r26, 0x01	; 1
    18e6:	40 e0       	ldi	r20, 0x00	; 0
    18e8:	50 e0       	ldi	r21, 0x00	; 0
    18ea:	ba 01       	movw	r22, r20
    18ec:	cd 01       	movw	r24, r26
    18ee:	b8 da       	rcall	.-2704   	; 0xe60 <dir_sdi>
    18f0:	0f cf       	rjmp	.-482    	; 0x1710 <follow_path+0x10c>
    18f2:	4b e0       	ldi	r20, 0x0B	; 11
    18f4:	50 e0       	ldi	r21, 0x00	; 0
    18f6:	b6 01       	movw	r22, r12
    18f8:	cf 01       	movw	r24, r30
    18fa:	0e 94 71 2c 	call	0x58e2	; 0x58e2 <memcmp>
    18fe:	89 2b       	or	r24, r25
    1900:	09 f0       	breq	.+2      	; 0x1904 <follow_path+0x300>
    1902:	01 cf       	rjmp	.-510    	; 0x1706 <follow_path+0x102>
    1904:	15 cf       	rjmp	.-470    	; 0x1730 <follow_path+0x12c>
    1906:	44 e0       	ldi	r20, 0x04	; 4
    1908:	b4 2e       	mov	r11, r20
    190a:	12 cf       	rjmp	.-476    	; 0x1730 <follow_path+0x12c>
    190c:	f4 e0       	ldi	r31, 0x04	; 4
    190e:	bf 12       	cpse	r11, r31
    1910:	21 c0       	rjmp	.+66     	; 0x1954 <follow_path+0x350>
    1912:	98 2f       	mov	r25, r24
    1914:	94 70       	andi	r25, 0x04	; 4
    1916:	85 ff       	sbrs	r24, 5
    1918:	0a c0       	rjmp	.+20     	; 0x192e <follow_path+0x32a>
    191a:	99 23       	and	r25, r25
    191c:	09 f4       	brne	.+2      	; 0x1920 <follow_path+0x31c>
    191e:	24 cf       	rjmp	.-440    	; 0x1768 <follow_path+0x164>
    1920:	80 e8       	ldi	r24, 0x80	; 128
    1922:	ab 81       	ldd	r26, Y+3	; 0x03
    1924:	bc 81       	ldd	r27, Y+4	; 0x04
    1926:	97 96       	adiw	r26, 0x27	; 39
    1928:	8c 93       	st	X, r24
    192a:	b1 2c       	mov	r11, r1
    192c:	13 c0       	rjmp	.+38     	; 0x1954 <follow_path+0x350>
    192e:	91 11       	cpse	r25, r1
    1930:	11 c0       	rjmp	.+34     	; 0x1954 <follow_path+0x350>
    1932:	35 e0       	ldi	r19, 0x05	; 5
    1934:	b3 2e       	mov	r11, r19
    1936:	0e c0       	rjmp	.+28     	; 0x1954 <follow_path+0x350>
    1938:	26 e0       	ldi	r18, 0x06	; 6
    193a:	b2 2e       	mov	r11, r18
    193c:	0b c0       	rjmp	.+22     	; 0x1954 <follow_path+0x350>
    193e:	bb e0       	ldi	r27, 0x0B	; 11
    1940:	ab 16       	cp	r10, r27
    1942:	b1 04       	cpc	r11, r1
    1944:	c9 f3       	breq	.-14     	; 0x1938 <follow_path+0x334>
    1946:	88 e0       	ldi	r24, 0x08	; 8
    1948:	e8 2e       	mov	r14, r24
    194a:	f1 2c       	mov	r15, r1
    194c:	9b e0       	ldi	r25, 0x0B	; 11
    194e:	a9 2e       	mov	r10, r25
    1950:	b1 2c       	mov	r11, r1
    1952:	75 cf       	rjmp	.-278    	; 0x183e <follow_path+0x23a>
    1954:	8b 2d       	mov	r24, r11
    1956:	0f 90       	pop	r0
    1958:	0f 90       	pop	r0
    195a:	0f 90       	pop	r0
    195c:	0f 90       	pop	r0
    195e:	df 91       	pop	r29
    1960:	cf 91       	pop	r28
    1962:	1f 91       	pop	r17
    1964:	0f 91       	pop	r16
    1966:	ff 90       	pop	r15
    1968:	ef 90       	pop	r14
    196a:	df 90       	pop	r13
    196c:	cf 90       	pop	r12
    196e:	bf 90       	pop	r11
    1970:	af 90       	pop	r10
    1972:	9f 90       	pop	r9
    1974:	8f 90       	pop	r8
    1976:	7f 90       	pop	r7
    1978:	6f 90       	pop	r6
    197a:	5f 90       	pop	r5
    197c:	4f 90       	pop	r4
    197e:	3f 90       	pop	r3
    1980:	2f 90       	pop	r2
    1982:	08 95       	ret

00001984 <dir_read>:
    1984:	ef 92       	push	r14
    1986:	ff 92       	push	r15
    1988:	0f 93       	push	r16
    198a:	1f 93       	push	r17
    198c:	cf 93       	push	r28
    198e:	df 93       	push	r29
    1990:	ec 01       	movw	r28, r24
    1992:	7b 01       	movw	r14, r22
    1994:	08 81       	ld	r16, Y
    1996:	19 81       	ldd	r17, Y+1	; 0x01
    1998:	84 e0       	ldi	r24, 0x04	; 4
    199a:	4e 89       	ldd	r20, Y+22	; 0x16
    199c:	5f 89       	ldd	r21, Y+23	; 0x17
    199e:	68 8d       	ldd	r22, Y+24	; 0x18
    19a0:	79 8d       	ldd	r23, Y+25	; 0x19
    19a2:	41 15       	cp	r20, r1
    19a4:	51 05       	cpc	r21, r1
    19a6:	61 05       	cpc	r22, r1
    19a8:	71 05       	cpc	r23, r1
    19aa:	31 f1       	breq	.+76     	; 0x19f8 <dir_read+0x74>
    19ac:	c8 01       	movw	r24, r16
    19ae:	0e 94 d4 04 	call	0x9a8	; 0x9a8 <move_window>
    19b2:	81 11       	cpse	r24, r1
    19b4:	23 c0       	rjmp	.+70     	; 0x19fc <dir_read+0x78>
    19b6:	ea 8d       	ldd	r30, Y+26	; 0x1a
    19b8:	fb 8d       	ldd	r31, Y+27	; 0x1b
    19ba:	90 81       	ld	r25, Z
    19bc:	99 23       	and	r25, r25
    19be:	19 f1       	breq	.+70     	; 0x1a06 <dir_read+0x82>
    19c0:	83 85       	ldd	r24, Z+11	; 0x0b
    19c2:	8f 73       	andi	r24, 0x3F	; 63
    19c4:	8c 83       	std	Y+4, r24	; 0x04
    19c6:	95 3e       	cpi	r25, 0xE5	; 229
    19c8:	81 f0       	breq	.+32     	; 0x19ea <dir_read+0x66>
    19ca:	9e 32       	cpi	r25, 0x2E	; 46
    19cc:	71 f0       	breq	.+28     	; 0x19ea <dir_read+0x66>
    19ce:	8f 30       	cpi	r24, 0x0F	; 15
    19d0:	61 f0       	breq	.+24     	; 0x19ea <dir_read+0x66>
    19d2:	8f 71       	andi	r24, 0x1F	; 31
    19d4:	21 e0       	ldi	r18, 0x01	; 1
    19d6:	30 e0       	ldi	r19, 0x00	; 0
    19d8:	88 30       	cpi	r24, 0x08	; 8
    19da:	11 f0       	breq	.+4      	; 0x19e0 <dir_read+0x5c>
    19dc:	20 e0       	ldi	r18, 0x00	; 0
    19de:	30 e0       	ldi	r19, 0x00	; 0
    19e0:	2e 15       	cp	r18, r14
    19e2:	3f 05       	cpc	r19, r15
    19e4:	11 f4       	brne	.+4      	; 0x19ea <dir_read+0x66>
    19e6:	80 e0       	ldi	r24, 0x00	; 0
    19e8:	10 c0       	rjmp	.+32     	; 0x1a0a <dir_read+0x86>
    19ea:	60 e0       	ldi	r22, 0x00	; 0
    19ec:	70 e0       	ldi	r23, 0x00	; 0
    19ee:	ce 01       	movw	r24, r28
    19f0:	28 dd       	rcall	.-1456   	; 0x1442 <dir_next>
    19f2:	88 23       	and	r24, r24
    19f4:	91 f2       	breq	.-92     	; 0x199a <dir_read+0x16>
    19f6:	02 c0       	rjmp	.+4      	; 0x19fc <dir_read+0x78>
    19f8:	88 23       	and	r24, r24
    19fa:	a9 f3       	breq	.-22     	; 0x19e6 <dir_read+0x62>
    19fc:	1e 8a       	std	Y+22, r1	; 0x16
    19fe:	1f 8a       	std	Y+23, r1	; 0x17
    1a00:	18 8e       	std	Y+24, r1	; 0x18
    1a02:	19 8e       	std	Y+25, r1	; 0x19
    1a04:	02 c0       	rjmp	.+4      	; 0x1a0a <dir_read+0x86>
    1a06:	84 e0       	ldi	r24, 0x04	; 4
    1a08:	f9 cf       	rjmp	.-14     	; 0x19fc <dir_read+0x78>
    1a0a:	df 91       	pop	r29
    1a0c:	cf 91       	pop	r28
    1a0e:	1f 91       	pop	r17
    1a10:	0f 91       	pop	r16
    1a12:	ff 90       	pop	r15
    1a14:	ef 90       	pop	r14
    1a16:	08 95       	ret

00001a18 <dir_alloc.constprop.11>:
    1a18:	0f 93       	push	r16
    1a1a:	1f 93       	push	r17
    1a1c:	cf 93       	push	r28
    1a1e:	df 93       	push	r29
    1a20:	ec 01       	movw	r28, r24
    1a22:	08 81       	ld	r16, Y
    1a24:	19 81       	ldd	r17, Y+1	; 0x01
    1a26:	40 e0       	ldi	r20, 0x00	; 0
    1a28:	50 e0       	ldi	r21, 0x00	; 0
    1a2a:	ba 01       	movw	r22, r20
    1a2c:	19 da       	rcall	.-3022   	; 0xe60 <dir_sdi>
    1a2e:	81 11       	cpse	r24, r1
    1a30:	15 c0       	rjmp	.+42     	; 0x1a5c <dir_alloc.constprop.11+0x44>
    1a32:	4e 89       	ldd	r20, Y+22	; 0x16
    1a34:	5f 89       	ldd	r21, Y+23	; 0x17
    1a36:	68 8d       	ldd	r22, Y+24	; 0x18
    1a38:	79 8d       	ldd	r23, Y+25	; 0x19
    1a3a:	c8 01       	movw	r24, r16
    1a3c:	0e 94 d4 04 	call	0x9a8	; 0x9a8 <move_window>
    1a40:	81 11       	cpse	r24, r1
    1a42:	0c c0       	rjmp	.+24     	; 0x1a5c <dir_alloc.constprop.11+0x44>
    1a44:	ea 8d       	ldd	r30, Y+26	; 0x1a
    1a46:	fb 8d       	ldd	r31, Y+27	; 0x1b
    1a48:	90 81       	ld	r25, Z
    1a4a:	95 3e       	cpi	r25, 0xE5	; 229
    1a4c:	51 f0       	breq	.+20     	; 0x1a62 <dir_alloc.constprop.11+0x4a>
    1a4e:	99 23       	and	r25, r25
    1a50:	41 f0       	breq	.+16     	; 0x1a62 <dir_alloc.constprop.11+0x4a>
    1a52:	61 e0       	ldi	r22, 0x01	; 1
    1a54:	70 e0       	ldi	r23, 0x00	; 0
    1a56:	ce 01       	movw	r24, r28
    1a58:	f4 dc       	rcall	.-1560   	; 0x1442 <dir_next>
    1a5a:	e9 cf       	rjmp	.-46     	; 0x1a2e <dir_alloc.constprop.11+0x16>
    1a5c:	84 30       	cpi	r24, 0x04	; 4
    1a5e:	09 f4       	brne	.+2      	; 0x1a62 <dir_alloc.constprop.11+0x4a>
    1a60:	87 e0       	ldi	r24, 0x07	; 7
    1a62:	df 91       	pop	r29
    1a64:	cf 91       	pop	r28
    1a66:	1f 91       	pop	r17
    1a68:	0f 91       	pop	r16
    1a6a:	08 95       	ret

00001a6c <dir_register>:
    1a6c:	0f 93       	push	r16
    1a6e:	1f 93       	push	r17
    1a70:	cf 93       	push	r28
    1a72:	df 93       	push	r29
    1a74:	ec 01       	movw	r28, r24
    1a76:	08 81       	ld	r16, Y
    1a78:	19 81       	ldd	r17, Y+1	; 0x01
    1a7a:	ce df       	rcall	.-100    	; 0x1a18 <dir_alloc.constprop.11>
    1a7c:	81 11       	cpse	r24, r1
    1a7e:	1c c0       	rjmp	.+56     	; 0x1ab8 <dir_register+0x4c>
    1a80:	4e 89       	ldd	r20, Y+22	; 0x16
    1a82:	5f 89       	ldd	r21, Y+23	; 0x17
    1a84:	68 8d       	ldd	r22, Y+24	; 0x18
    1a86:	79 8d       	ldd	r23, Y+25	; 0x19
    1a88:	c8 01       	movw	r24, r16
    1a8a:	0e 94 d4 04 	call	0x9a8	; 0x9a8 <move_window>
    1a8e:	81 11       	cpse	r24, r1
    1a90:	13 c0       	rjmp	.+38     	; 0x1ab8 <dir_register+0x4c>
    1a92:	ea 8d       	ldd	r30, Y+26	; 0x1a
    1a94:	fb 8d       	ldd	r31, Y+27	; 0x1b
    1a96:	90 e2       	ldi	r25, 0x20	; 32
    1a98:	df 01       	movw	r26, r30
    1a9a:	1d 92       	st	X+, r1
    1a9c:	9a 95       	dec	r25
    1a9e:	e9 f7       	brne	.-6      	; 0x1a9a <dir_register+0x2e>
    1aa0:	aa 8d       	ldd	r26, Y+26	; 0x1a
    1aa2:	bb 8d       	ldd	r27, Y+27	; 0x1b
    1aa4:	fe 01       	movw	r30, r28
    1aa6:	7c 96       	adiw	r30, 0x1c	; 28
    1aa8:	9b e0       	ldi	r25, 0x0B	; 11
    1aaa:	01 90       	ld	r0, Z+
    1aac:	0d 92       	st	X+, r0
    1aae:	9a 95       	dec	r25
    1ab0:	e1 f7       	brne	.-8      	; 0x1aaa <dir_register+0x3e>
    1ab2:	91 e0       	ldi	r25, 0x01	; 1
    1ab4:	f8 01       	movw	r30, r16
    1ab6:	93 83       	std	Z+3, r25	; 0x03
    1ab8:	df 91       	pop	r29
    1aba:	cf 91       	pop	r28
    1abc:	1f 91       	pop	r17
    1abe:	0f 91       	pop	r16
    1ac0:	08 95       	ret

00001ac2 <mount_volume>:
    1ac2:	4f 92       	push	r4
    1ac4:	5f 92       	push	r5
    1ac6:	6f 92       	push	r6
    1ac8:	7f 92       	push	r7
    1aca:	8f 92       	push	r8
    1acc:	9f 92       	push	r9
    1ace:	af 92       	push	r10
    1ad0:	bf 92       	push	r11
    1ad2:	cf 92       	push	r12
    1ad4:	df 92       	push	r13
    1ad6:	ef 92       	push	r14
    1ad8:	ff 92       	push	r15
    1ada:	0f 93       	push	r16
    1adc:	1f 93       	push	r17
    1ade:	cf 93       	push	r28
    1ae0:	df 93       	push	r29
    1ae2:	cd b7       	in	r28, 0x3d	; 61
    1ae4:	de b7       	in	r29, 0x3e	; 62
    1ae6:	a0 97       	sbiw	r28, 0x20	; 32
    1ae8:	0f b6       	in	r0, 0x3f	; 63
    1aea:	f8 94       	cli
    1aec:	de bf       	out	0x3e, r29	; 62
    1aee:	0f be       	out	0x3f, r0	; 63
    1af0:	cd bf       	out	0x3d, r28	; 61
    1af2:	5b 01       	movw	r10, r22
    1af4:	f4 2e       	mov	r15, r20
    1af6:	db 01       	movw	r26, r22
    1af8:	1d 92       	st	X+, r1
    1afa:	1c 92       	st	X, r1
    1afc:	0e 94 70 03 	call	0x6e0	; 0x6e0 <get_ldnumber>
    1b00:	6c 01       	movw	r12, r24
    1b02:	97 fd       	sbrc	r25, 7
    1b04:	69 c2       	rjmp	.+1234   	; 0x1fd8 <mount_volume+0x516>
    1b06:	fc 01       	movw	r30, r24
    1b08:	ee 0f       	add	r30, r30
    1b0a:	ff 1f       	adc	r31, r31
    1b0c:	e4 53       	subi	r30, 0x34	; 52
    1b0e:	fa 4f       	sbci	r31, 0xFA	; 250
    1b10:	00 81       	ld	r16, Z
    1b12:	11 81       	ldd	r17, Z+1	; 0x01
    1b14:	01 15       	cp	r16, r1
    1b16:	11 05       	cpc	r17, r1
    1b18:	09 f4       	brne	.+2      	; 0x1b1c <mount_volume+0x5a>
    1b1a:	60 c2       	rjmp	.+1216   	; 0x1fdc <mount_volume+0x51a>
    1b1c:	f5 01       	movw	r30, r10
    1b1e:	11 83       	std	Z+1, r17	; 0x01
    1b20:	00 83       	st	Z, r16
    1b22:	ff 2d       	mov	r31, r15
    1b24:	fe 7f       	andi	r31, 0xFE	; 254
    1b26:	ff 2e       	mov	r15, r31
    1b28:	d8 01       	movw	r26, r16
    1b2a:	8c 91       	ld	r24, X
    1b2c:	88 23       	and	r24, r24
    1b2e:	69 f0       	breq	.+26     	; 0x1b4a <mount_volume+0x88>
    1b30:	11 96       	adiw	r26, 0x01	; 1
    1b32:	8c 91       	ld	r24, X
    1b34:	0e 94 e2 02 	call	0x5c4	; 0x5c4 <disk_status>
    1b38:	80 fd       	sbrc	r24, 0
    1b3a:	07 c0       	rjmp	.+14     	; 0x1b4a <mount_volume+0x88>
    1b3c:	ff 20       	and	r15, r15
    1b3e:	09 f4       	brne	.+2      	; 0x1b42 <mount_volume+0x80>
    1b40:	4f c2       	rjmp	.+1182   	; 0x1fe0 <mount_volume+0x51e>
    1b42:	82 ff       	sbrs	r24, 2
    1b44:	4d c2       	rjmp	.+1178   	; 0x1fe0 <mount_volume+0x51e>
    1b46:	8a e0       	ldi	r24, 0x0A	; 10
    1b48:	57 c2       	rjmp	.+1198   	; 0x1ff8 <mount_volume+0x536>
    1b4a:	f8 01       	movw	r30, r16
    1b4c:	10 82       	st	Z, r1
    1b4e:	c1 82       	std	Z+1, r12	; 0x01
    1b50:	8c 2d       	mov	r24, r12
    1b52:	0e 94 e8 02 	call	0x5d0	; 0x5d0 <disk_initialize>
    1b56:	80 fd       	sbrc	r24, 0
    1b58:	45 c2       	rjmp	.+1162   	; 0x1fe4 <mount_volume+0x522>
    1b5a:	ff 20       	and	r15, r15
    1b5c:	11 f0       	breq	.+4      	; 0x1b62 <mount_volume+0xa0>
    1b5e:	82 fd       	sbrc	r24, 2
    1b60:	f2 cf       	rjmp	.-28     	; 0x1b46 <mount_volume+0x84>
    1b62:	d8 01       	movw	r26, r16
    1b64:	13 96       	adiw	r26, 0x03	; 3
    1b66:	1c 92       	st	X, r1
    1b68:	8f ef       	ldi	r24, 0xFF	; 255
    1b6a:	9f ef       	ldi	r25, 0xFF	; 255
    1b6c:	dc 01       	movw	r26, r24
    1b6e:	f8 01       	movw	r30, r16
    1b70:	87 a7       	std	Z+47, r24	; 0x2f
    1b72:	90 ab       	std	Z+48, r25	; 0x30
    1b74:	a1 ab       	std	Z+49, r26	; 0x31
    1b76:	b2 ab       	std	Z+50, r27	; 0x32
    1b78:	40 e0       	ldi	r20, 0x00	; 0
    1b7a:	50 e0       	ldi	r21, 0x00	; 0
    1b7c:	ba 01       	movw	r22, r20
    1b7e:	c8 01       	movw	r24, r16
    1b80:	0e 94 a4 04 	call	0x948	; 0x948 <move_window.part.4>
    1b84:	81 11       	cpse	r24, r1
    1b86:	4e c0       	rjmp	.+156    	; 0x1c24 <mount_volume+0x162>
    1b88:	c8 01       	movw	r24, r16
    1b8a:	0e 94 e7 04 	call	0x9ce	; 0x9ce <check_fs.part.5>
    1b8e:	82 30       	cpi	r24, 0x02	; 2
    1b90:	91 05       	cpc	r25, r1
    1b92:	09 f0       	breq	.+2      	; 0x1b96 <mount_volume+0xd4>
    1b94:	49 c0       	rjmp	.+146    	; 0x1c28 <mount_volume+0x166>
    1b96:	68 01       	movw	r12, r16
    1b98:	f7 e0       	ldi	r31, 0x07	; 7
    1b9a:	cf 1a       	sub	r12, r31
    1b9c:	fe ef       	ldi	r31, 0xFE	; 254
    1b9e:	df 0a       	sbc	r13, r31
    1ba0:	9e 01       	movw	r18, r28
    1ba2:	2f 5f       	subi	r18, 0xFF	; 255
    1ba4:	3f 4f       	sbci	r19, 0xFF	; 255
    1ba6:	79 01       	movw	r14, r18
    1ba8:	48 01       	movw	r8, r16
    1baa:	37 ec       	ldi	r19, 0xC7	; 199
    1bac:	83 1a       	sub	r8, r19
    1bae:	3d ef       	ldi	r19, 0xFD	; 253
    1bb0:	93 0a       	sbc	r9, r19
    1bb2:	57 01       	movw	r10, r14
    1bb4:	c6 01       	movw	r24, r12
    1bb6:	0e 94 1b 03 	call	0x636	; 0x636 <ld_dword>
    1bba:	d5 01       	movw	r26, r10
    1bbc:	6d 93       	st	X+, r22
    1bbe:	7d 93       	st	X+, r23
    1bc0:	8d 93       	st	X+, r24
    1bc2:	9d 93       	st	X+, r25
    1bc4:	5d 01       	movw	r10, r26
    1bc6:	b0 e1       	ldi	r27, 0x10	; 16
    1bc8:	cb 0e       	add	r12, r27
    1bca:	d1 1c       	adc	r13, r1
    1bcc:	c8 14       	cp	r12, r8
    1bce:	d9 04       	cpc	r13, r9
    1bd0:	89 f7       	brne	.-30     	; 0x1bb4 <mount_volume+0xf2>
    1bd2:	6e 01       	movw	r12, r28
    1bd4:	e1 e1       	ldi	r30, 0x11	; 17
    1bd6:	ce 0e       	add	r12, r30
    1bd8:	d1 1c       	adc	r13, r1
    1bda:	88 24       	eor	r8, r8
    1bdc:	8a 94       	dec	r8
    1bde:	98 2c       	mov	r9, r8
    1be0:	54 01       	movw	r10, r8
    1be2:	d7 01       	movw	r26, r14
    1be4:	4d 91       	ld	r20, X+
    1be6:	5d 91       	ld	r21, X+
    1be8:	6d 91       	ld	r22, X+
    1bea:	7d 91       	ld	r23, X+
    1bec:	7d 01       	movw	r14, r26
    1bee:	41 15       	cp	r20, r1
    1bf0:	51 05       	cpc	r21, r1
    1bf2:	61 05       	cpc	r22, r1
    1bf4:	71 05       	cpc	r23, r1
    1bf6:	09 f4       	brne	.+2      	; 0x1bfa <mount_volume+0x138>
    1bf8:	f9 c1       	rjmp	.+1010   	; 0x1fec <mount_volume+0x52a>
    1bfa:	f8 01       	movw	r30, r16
    1bfc:	13 82       	std	Z+3, r1	; 0x03
    1bfe:	87 a6       	std	Z+47, r8	; 0x2f
    1c00:	90 aa       	std	Z+48, r9	; 0x30
    1c02:	a1 aa       	std	Z+49, r10	; 0x31
    1c04:	b2 aa       	std	Z+50, r11	; 0x32
    1c06:	c8 01       	movw	r24, r16
    1c08:	0e 94 d4 04 	call	0x9a8	; 0x9a8 <move_window>
    1c0c:	81 11       	cpse	r24, r1
    1c0e:	f1 c1       	rjmp	.+994    	; 0x1ff2 <mount_volume+0x530>
    1c10:	c8 01       	movw	r24, r16
    1c12:	0e 94 e7 04 	call	0x9ce	; 0x9ce <check_fs.part.5>
    1c16:	82 30       	cpi	r24, 0x02	; 2
    1c18:	91 05       	cpc	r25, r1
    1c1a:	30 f0       	brcs	.+12     	; 0x1c28 <mount_volume+0x166>
    1c1c:	ce 14       	cp	r12, r14
    1c1e:	df 04       	cpc	r13, r15
    1c20:	01 f7       	brne	.-64     	; 0x1be2 <mount_volume+0x120>
    1c22:	02 c0       	rjmp	.+4      	; 0x1c28 <mount_volume+0x166>
    1c24:	84 e0       	ldi	r24, 0x04	; 4
    1c26:	90 e0       	ldi	r25, 0x00	; 0
    1c28:	84 30       	cpi	r24, 0x04	; 4
    1c2a:	91 05       	cpc	r25, r1
    1c2c:	09 f4       	brne	.+2      	; 0x1c30 <mount_volume+0x16e>
    1c2e:	dc c1       	rjmp	.+952    	; 0x1fe8 <mount_volume+0x526>
    1c30:	02 97       	sbiw	r24, 0x02	; 2
    1c32:	10 f0       	brcs	.+4      	; 0x1c38 <mount_volume+0x176>
    1c34:	8d e0       	ldi	r24, 0x0D	; 13
    1c36:	e0 c1       	rjmp	.+960    	; 0x1ff8 <mount_volume+0x536>
    1c38:	f8 01       	movw	r30, r16
    1c3a:	86 ad       	ldd	r24, Z+62	; 0x3e
    1c3c:	97 ad       	ldd	r25, Z+63	; 0x3f
    1c3e:	81 15       	cp	r24, r1
    1c40:	92 40       	sbci	r25, 0x02	; 2
    1c42:	c1 f7       	brne	.-16     	; 0x1c34 <mount_volume+0x172>
    1c44:	f8 01       	movw	r30, r16
    1c46:	e7 5b       	subi	r30, 0xB7	; 183
    1c48:	ff 4f       	sbci	r31, 0xFF	; 255
    1c4a:	40 80       	ld	r4, Z
    1c4c:	51 80       	ldd	r5, Z+1	; 0x01
    1c4e:	41 14       	cp	r4, r1
    1c50:	51 04       	cpc	r5, r1
    1c52:	19 f0       	breq	.+6      	; 0x1c5a <mount_volume+0x198>
    1c54:	61 2c       	mov	r6, r1
    1c56:	71 2c       	mov	r7, r1
    1c58:	07 c0       	rjmp	.+14     	; 0x1c68 <mount_volume+0x1a6>
    1c5a:	c8 01       	movw	r24, r16
    1c5c:	89 5a       	subi	r24, 0xA9	; 169
    1c5e:	9f 4f       	sbci	r25, 0xFF	; 255
    1c60:	0e 94 1b 03 	call	0x636	; 0x636 <ld_dword>
    1c64:	2b 01       	movw	r4, r22
    1c66:	3c 01       	movw	r6, r24
    1c68:	d8 01       	movw	r26, r16
    1c6a:	9f 96       	adiw	r26, 0x2f	; 47
    1c6c:	2d 91       	ld	r18, X+
    1c6e:	3d 91       	ld	r19, X+
    1c70:	4d 91       	ld	r20, X+
    1c72:	5c 91       	ld	r21, X
    1c74:	d2 97       	sbiw	r26, 0x32	; 50
    1c76:	29 8b       	std	Y+17, r18	; 0x11
    1c78:	3a 8b       	std	Y+18, r19	; 0x12
    1c7a:	4b 8b       	std	Y+19, r20	; 0x13
    1c7c:	5c 8b       	std	Y+20, r21	; 0x14
    1c7e:	f8 01       	movw	r30, r16
    1c80:	43 8e       	std	Z+27, r4	; 0x1b
    1c82:	54 8e       	std	Z+28, r5	; 0x1c
    1c84:	65 8e       	std	Z+29, r6	; 0x1d
    1c86:	76 8e       	std	Z+30, r7	; 0x1e
    1c88:	ed 5b       	subi	r30, 0xBD	; 189
    1c8a:	ff 4f       	sbci	r31, 0xFF	; 255
    1c8c:	a0 80       	ld	r10, Z
    1c8e:	12 96       	adiw	r26, 0x02	; 2
    1c90:	ac 92       	st	X, r10
    1c92:	12 97       	sbiw	r26, 0x02	; 2
    1c94:	8f ef       	ldi	r24, 0xFF	; 255
    1c96:	8a 0d       	add	r24, r10
    1c98:	82 30       	cpi	r24, 0x02	; 2
    1c9a:	60 f6       	brcc	.-104    	; 0x1c34 <mount_volume+0x172>
    1c9c:	33 97       	sbiw	r30, 0x03	; 3
    1c9e:	b0 80       	ld	r11, Z
    1ca0:	8b 2d       	mov	r24, r11
    1ca2:	90 e0       	ldi	r25, 0x00	; 0
    1ca4:	f8 01       	movw	r30, r16
    1ca6:	92 87       	std	Z+10, r25	; 0x0a
    1ca8:	81 87       	std	Z+9, r24	; 0x09
    1caa:	00 97       	sbiw	r24, 0x00	; 0
    1cac:	19 f2       	breq	.-122    	; 0x1c34 <mount_volume+0x172>
    1cae:	9c 01       	movw	r18, r24
    1cb0:	21 50       	subi	r18, 0x01	; 1
    1cb2:	31 09       	sbc	r19, r1
    1cb4:	82 23       	and	r24, r18
    1cb6:	93 23       	and	r25, r19
    1cb8:	89 2b       	or	r24, r25
    1cba:	09 f0       	breq	.+2      	; 0x1cbe <mount_volume+0x1fc>
    1cbc:	bb cf       	rjmp	.-138    	; 0x1c34 <mount_volume+0x172>
    1cbe:	ec 5b       	subi	r30, 0xBC	; 188
    1cc0:	ff 4f       	sbci	r31, 0xFF	; 255
    1cc2:	80 80       	ld	r8, Z
    1cc4:	91 80       	ldd	r9, Z+1	; 0x01
    1cc6:	18 96       	adiw	r26, 0x08	; 8
    1cc8:	9c 92       	st	X, r9
    1cca:	8e 92       	st	-X, r8
    1ccc:	17 97       	sbiw	r26, 0x07	; 7
    1cce:	c4 01       	movw	r24, r8
    1cd0:	8f 70       	andi	r24, 0x0F	; 15
    1cd2:	99 27       	eor	r25, r25
    1cd4:	89 2b       	or	r24, r25
    1cd6:	09 f0       	breq	.+2      	; 0x1cda <mount_volume+0x218>
    1cd8:	ad cf       	rjmp	.-166    	; 0x1c34 <mount_volume+0x172>
    1cda:	32 96       	adiw	r30, 0x02	; 2
    1cdc:	80 81       	ld	r24, Z
    1cde:	91 81       	ldd	r25, Z+1	; 0x01
    1ce0:	6c 01       	movw	r12, r24
    1ce2:	e1 2c       	mov	r14, r1
    1ce4:	f1 2c       	mov	r15, r1
    1ce6:	89 2b       	or	r24, r25
    1ce8:	39 f4       	brne	.+14     	; 0x1cf8 <mount_volume+0x236>
    1cea:	c8 01       	movw	r24, r16
    1cec:	8d 5a       	subi	r24, 0xAD	; 173
    1cee:	9f 4f       	sbci	r25, 0xFF	; 255
    1cf0:	0e 94 1b 03 	call	0x636	; 0x636 <ld_dword>
    1cf4:	6b 01       	movw	r12, r22
    1cf6:	7c 01       	movw	r14, r24
    1cf8:	f8 01       	movw	r30, r16
    1cfa:	ef 5b       	subi	r30, 0xBF	; 191
    1cfc:	ff 4f       	sbci	r31, 0xFF	; 255
    1cfe:	01 90       	ld	r0, Z+
    1d00:	f0 81       	ld	r31, Z
    1d02:	e0 2d       	mov	r30, r0
    1d04:	30 97       	sbiw	r30, 0x00	; 0
    1d06:	09 f4       	brne	.+2      	; 0x1d0a <mount_volume+0x248>
    1d08:	95 cf       	rjmp	.-214    	; 0x1c34 <mount_volume+0x172>
    1d0a:	aa 2d       	mov	r26, r10
    1d0c:	b0 e0       	ldi	r27, 0x00	; 0
    1d0e:	a3 01       	movw	r20, r6
    1d10:	92 01       	movw	r18, r4
    1d12:	0e 94 50 2c 	call	0x58a0	; 0x58a0 <__muluhisi3>
    1d16:	69 8f       	std	Y+25, r22	; 0x19
    1d18:	7a 8f       	std	Y+26, r23	; 0x1a
    1d1a:	8b 8f       	std	Y+27, r24	; 0x1b
    1d1c:	9c 8f       	std	Y+28, r25	; 0x1c
    1d1e:	9f 01       	movw	r18, r30
    1d20:	40 e0       	ldi	r20, 0x00	; 0
    1d22:	50 e0       	ldi	r21, 0x00	; 0
    1d24:	2d 8f       	std	Y+29, r18	; 0x1d
    1d26:	3e 8f       	std	Y+30, r19	; 0x1e
    1d28:	4f 8f       	std	Y+31, r20	; 0x1f
    1d2a:	58 a3       	std	Y+32, r21	; 0x20
    1d2c:	c4 01       	movw	r24, r8
    1d2e:	f4 e0       	ldi	r31, 0x04	; 4
    1d30:	96 95       	lsr	r25
    1d32:	87 95       	ror	r24
    1d34:	fa 95       	dec	r31
    1d36:	e1 f7       	brne	.-8      	; 0x1d30 <mount_volume+0x26e>
    1d38:	28 0f       	add	r18, r24
    1d3a:	39 1f       	adc	r19, r25
    1d3c:	41 1d       	adc	r20, r1
    1d3e:	51 1d       	adc	r21, r1
    1d40:	da 01       	movw	r26, r20
    1d42:	c9 01       	movw	r24, r18
    1d44:	29 8d       	ldd	r18, Y+25	; 0x19
    1d46:	3a 8d       	ldd	r19, Y+26	; 0x1a
    1d48:	4b 8d       	ldd	r20, Y+27	; 0x1b
    1d4a:	5c 8d       	ldd	r21, Y+28	; 0x1c
    1d4c:	28 0f       	add	r18, r24
    1d4e:	39 1f       	adc	r19, r25
    1d50:	4a 1f       	adc	r20, r26
    1d52:	5b 1f       	adc	r21, r27
    1d54:	2d 8b       	std	Y+21, r18	; 0x15
    1d56:	3e 8b       	std	Y+22, r19	; 0x16
    1d58:	4f 8b       	std	Y+23, r20	; 0x17
    1d5a:	58 8f       	std	Y+24, r21	; 0x18
    1d5c:	c2 16       	cp	r12, r18
    1d5e:	d3 06       	cpc	r13, r19
    1d60:	e4 06       	cpc	r14, r20
    1d62:	f5 06       	cpc	r15, r21
    1d64:	08 f4       	brcc	.+2      	; 0x1d68 <mount_volume+0x2a6>
    1d66:	66 cf       	rjmp	.-308    	; 0x1c34 <mount_volume+0x172>
    1d68:	c7 01       	movw	r24, r14
    1d6a:	b6 01       	movw	r22, r12
    1d6c:	62 1b       	sub	r22, r18
    1d6e:	73 0b       	sbc	r23, r19
    1d70:	84 0b       	sbc	r24, r20
    1d72:	95 0b       	sbc	r25, r21
    1d74:	2b 2d       	mov	r18, r11
    1d76:	30 e0       	ldi	r19, 0x00	; 0
    1d78:	40 e0       	ldi	r20, 0x00	; 0
    1d7a:	50 e0       	ldi	r21, 0x00	; 0
    1d7c:	0e 94 2e 2c 	call	0x585c	; 0x585c <__udivmodsi4>
    1d80:	da 01       	movw	r26, r20
    1d82:	c9 01       	movw	r24, r18
    1d84:	01 97       	sbiw	r24, 0x01	; 1
    1d86:	a1 09       	sbc	r26, r1
    1d88:	b1 09       	sbc	r27, r1
    1d8a:	85 3f       	cpi	r24, 0xF5	; 245
    1d8c:	9f 4f       	sbci	r25, 0xFF	; 255
    1d8e:	af 4f       	sbci	r26, 0xFF	; 255
    1d90:	bf 40       	sbci	r27, 0x0F	; 15
    1d92:	08 f0       	brcs	.+2      	; 0x1d96 <mount_volume+0x2d4>
    1d94:	4f cf       	rjmp	.-354    	; 0x1c34 <mount_volume+0x172>
    1d96:	26 3f       	cpi	r18, 0xF6	; 246
    1d98:	8f ef       	ldi	r24, 0xFF	; 255
    1d9a:	38 07       	cpc	r19, r24
    1d9c:	41 05       	cpc	r20, r1
    1d9e:	51 05       	cpc	r21, r1
    1da0:	50 f4       	brcc	.+20     	; 0x1db6 <mount_volume+0x2f4>
    1da2:	26 3f       	cpi	r18, 0xF6	; 246
    1da4:	9f e0       	ldi	r25, 0x0F	; 15
    1da6:	39 07       	cpc	r19, r25
    1da8:	41 05       	cpc	r20, r1
    1daa:	51 05       	cpc	r21, r1
    1dac:	40 f4       	brcc	.+16     	; 0x1dbe <mount_volume+0x2fc>
    1dae:	aa 24       	eor	r10, r10
    1db0:	a3 94       	inc	r10
    1db2:	b1 2c       	mov	r11, r1
    1db4:	07 c0       	rjmp	.+14     	; 0x1dc4 <mount_volume+0x302>
    1db6:	73 e0       	ldi	r23, 0x03	; 3
    1db8:	a7 2e       	mov	r10, r23
    1dba:	b1 2c       	mov	r11, r1
    1dbc:	03 c0       	rjmp	.+6      	; 0x1dc4 <mount_volume+0x302>
    1dbe:	62 e0       	ldi	r22, 0x02	; 2
    1dc0:	a6 2e       	mov	r10, r22
    1dc2:	b1 2c       	mov	r11, r1
    1dc4:	69 01       	movw	r12, r18
    1dc6:	7a 01       	movw	r14, r20
    1dc8:	a2 e0       	ldi	r26, 0x02	; 2
    1dca:	ca 0e       	add	r12, r26
    1dcc:	d1 1c       	adc	r13, r1
    1dce:	e1 1c       	adc	r14, r1
    1dd0:	f1 1c       	adc	r15, r1
    1dd2:	f8 01       	movw	r30, r16
    1dd4:	c7 8a       	std	Z+23, r12	; 0x17
    1dd6:	d0 8e       	std	Z+24, r13	; 0x18
    1dd8:	e1 8e       	std	Z+25, r14	; 0x19
    1dda:	f2 8e       	std	Z+26, r15	; 0x1a
    1ddc:	29 89       	ldd	r18, Y+17	; 0x11
    1dde:	3a 89       	ldd	r19, Y+18	; 0x12
    1de0:	4b 89       	ldd	r20, Y+19	; 0x13
    1de2:	5c 89       	ldd	r21, Y+20	; 0x14
    1de4:	27 8f       	std	Z+31, r18	; 0x1f
    1de6:	30 a3       	std	Z+32, r19	; 0x20
    1de8:	41 a3       	std	Z+33, r20	; 0x21
    1dea:	52 a3       	std	Z+34, r21	; 0x22
    1dec:	8d 8d       	ldd	r24, Y+29	; 0x1d
    1dee:	9e 8d       	ldd	r25, Y+30	; 0x1e
    1df0:	af 8d       	ldd	r26, Y+31	; 0x1f
    1df2:	b8 a1       	ldd	r27, Y+32	; 0x20
    1df4:	28 0f       	add	r18, r24
    1df6:	39 1f       	adc	r19, r25
    1df8:	4a 1f       	adc	r20, r26
    1dfa:	5b 1f       	adc	r21, r27
    1dfc:	2d 8f       	std	Y+29, r18	; 0x1d
    1dfe:	3e 8f       	std	Y+30, r19	; 0x1e
    1e00:	4f 8f       	std	Y+31, r20	; 0x1f
    1e02:	58 a3       	std	Y+32, r21	; 0x20
    1e04:	23 a3       	std	Z+35, r18	; 0x23
    1e06:	34 a3       	std	Z+36, r19	; 0x24
    1e08:	45 a3       	std	Z+37, r20	; 0x25
    1e0a:	56 a3       	std	Z+38, r21	; 0x26
    1e0c:	49 89       	ldd	r20, Y+17	; 0x11
    1e0e:	5a 89       	ldd	r21, Y+18	; 0x12
    1e10:	6b 89       	ldd	r22, Y+19	; 0x13
    1e12:	7c 89       	ldd	r23, Y+20	; 0x14
    1e14:	8d 89       	ldd	r24, Y+21	; 0x15
    1e16:	9e 89       	ldd	r25, Y+22	; 0x16
    1e18:	af 89       	ldd	r26, Y+23	; 0x17
    1e1a:	b8 8d       	ldd	r27, Y+24	; 0x18
    1e1c:	48 0f       	add	r20, r24
    1e1e:	59 1f       	adc	r21, r25
    1e20:	6a 1f       	adc	r22, r26
    1e22:	7b 1f       	adc	r23, r27
    1e24:	43 a7       	std	Z+43, r20	; 0x2b
    1e26:	54 a7       	std	Z+44, r21	; 0x2c
    1e28:	65 a7       	std	Z+45, r22	; 0x2d
    1e2a:	76 a7       	std	Z+46, r23	; 0x2e
    1e2c:	b3 e0       	ldi	r27, 0x03	; 3
    1e2e:	ab 16       	cp	r10, r27
    1e30:	b1 04       	cpc	r11, r1
    1e32:	e1 f4       	brne	.+56     	; 0x1e6c <mount_volume+0x3aa>
    1e34:	e3 5a       	subi	r30, 0xA3	; 163
    1e36:	ff 4f       	sbci	r31, 0xFF	; 255
    1e38:	80 81       	ld	r24, Z
    1e3a:	91 81       	ldd	r25, Z+1	; 0x01
    1e3c:	89 2b       	or	r24, r25
    1e3e:	09 f0       	breq	.+2      	; 0x1e42 <mount_volume+0x380>
    1e40:	f9 ce       	rjmp	.-526    	; 0x1c34 <mount_volume+0x172>
    1e42:	89 28       	or	r8, r9
    1e44:	09 f0       	breq	.+2      	; 0x1e48 <mount_volume+0x386>
    1e46:	f6 ce       	rjmp	.-532    	; 0x1c34 <mount_volume+0x172>
    1e48:	c8 01       	movw	r24, r16
    1e4a:	81 5a       	subi	r24, 0xA1	; 161
    1e4c:	9f 4f       	sbci	r25, 0xFF	; 255
    1e4e:	0e 94 1b 03 	call	0x636	; 0x636 <ld_dword>
    1e52:	f8 01       	movw	r30, r16
    1e54:	67 a3       	std	Z+39, r22	; 0x27
    1e56:	70 a7       	std	Z+40, r23	; 0x28
    1e58:	81 a7       	std	Z+41, r24	; 0x29
    1e5a:	92 a7       	std	Z+42, r25	; 0x2a
    1e5c:	42 e0       	ldi	r20, 0x02	; 2
    1e5e:	cc 0c       	add	r12, r12
    1e60:	dd 1c       	adc	r13, r13
    1e62:	ee 1c       	adc	r14, r14
    1e64:	ff 1c       	adc	r15, r15
    1e66:	4a 95       	dec	r20
    1e68:	d1 f7       	brne	.-12     	; 0x1e5e <mount_volume+0x39c>
    1e6a:	32 c0       	rjmp	.+100    	; 0x1ed0 <mount_volume+0x40e>
    1e6c:	89 28       	or	r8, r9
    1e6e:	09 f4       	brne	.+2      	; 0x1e72 <mount_volume+0x3b0>
    1e70:	e1 ce       	rjmp	.-574    	; 0x1c34 <mount_volume+0x172>
    1e72:	8d 8d       	ldd	r24, Y+29	; 0x1d
    1e74:	9e 8d       	ldd	r25, Y+30	; 0x1e
    1e76:	af 8d       	ldd	r26, Y+31	; 0x1f
    1e78:	b8 a1       	ldd	r27, Y+32	; 0x20
    1e7a:	29 8d       	ldd	r18, Y+25	; 0x19
    1e7c:	3a 8d       	ldd	r19, Y+26	; 0x1a
    1e7e:	4b 8d       	ldd	r20, Y+27	; 0x1b
    1e80:	5c 8d       	ldd	r21, Y+28	; 0x1c
    1e82:	82 0f       	add	r24, r18
    1e84:	93 1f       	adc	r25, r19
    1e86:	a4 1f       	adc	r26, r20
    1e88:	b5 1f       	adc	r27, r21
    1e8a:	f8 01       	movw	r30, r16
    1e8c:	87 a3       	std	Z+39, r24	; 0x27
    1e8e:	90 a7       	std	Z+40, r25	; 0x28
    1e90:	a1 a7       	std	Z+41, r26	; 0x29
    1e92:	b2 a7       	std	Z+42, r27	; 0x2a
    1e94:	f2 e0       	ldi	r31, 0x02	; 2
    1e96:	af 16       	cp	r10, r31
    1e98:	b1 04       	cpc	r11, r1
    1e9a:	29 f4       	brne	.+10     	; 0x1ea6 <mount_volume+0x3e4>
    1e9c:	cc 0c       	add	r12, r12
    1e9e:	dd 1c       	adc	r13, r13
    1ea0:	ee 1c       	adc	r14, r14
    1ea2:	ff 1c       	adc	r15, r15
    1ea4:	15 c0       	rjmp	.+42     	; 0x1ed0 <mount_volume+0x40e>
    1ea6:	a3 e0       	ldi	r26, 0x03	; 3
    1ea8:	b0 e0       	ldi	r27, 0x00	; 0
    1eaa:	a7 01       	movw	r20, r14
    1eac:	96 01       	movw	r18, r12
    1eae:	0e 94 50 2c 	call	0x58a0	; 0x58a0 <__muluhisi3>
    1eb2:	dc 01       	movw	r26, r24
    1eb4:	cb 01       	movw	r24, r22
    1eb6:	b6 95       	lsr	r27
    1eb8:	a7 95       	ror	r26
    1eba:	97 95       	ror	r25
    1ebc:	87 95       	ror	r24
    1ebe:	21 e0       	ldi	r18, 0x01	; 1
    1ec0:	c2 22       	and	r12, r18
    1ec2:	dd 24       	eor	r13, r13
    1ec4:	ee 24       	eor	r14, r14
    1ec6:	ff 24       	eor	r15, r15
    1ec8:	c8 0e       	add	r12, r24
    1eca:	d9 1e       	adc	r13, r25
    1ecc:	ea 1e       	adc	r14, r26
    1ece:	fb 1e       	adc	r15, r27
    1ed0:	3f ef       	ldi	r19, 0xFF	; 255
    1ed2:	c3 0e       	add	r12, r19
    1ed4:	31 e0       	ldi	r19, 0x01	; 1
    1ed6:	d3 1e       	adc	r13, r19
    1ed8:	e1 1c       	adc	r14, r1
    1eda:	f1 1c       	adc	r15, r1
    1edc:	89 e0       	ldi	r24, 0x09	; 9
    1ede:	f6 94       	lsr	r15
    1ee0:	e7 94       	ror	r14
    1ee2:	d7 94       	ror	r13
    1ee4:	c7 94       	ror	r12
    1ee6:	8a 95       	dec	r24
    1ee8:	d1 f7       	brne	.-12     	; 0x1ede <mount_volume+0x41c>
    1eea:	4c 14       	cp	r4, r12
    1eec:	5d 04       	cpc	r5, r13
    1eee:	6e 04       	cpc	r6, r14
    1ef0:	7f 04       	cpc	r7, r15
    1ef2:	08 f4       	brcc	.+2      	; 0x1ef6 <mount_volume+0x434>
    1ef4:	9f ce       	rjmp	.-706    	; 0x1c34 <mount_volume+0x172>
    1ef6:	8f ef       	ldi	r24, 0xFF	; 255
    1ef8:	9f ef       	ldi	r25, 0xFF	; 255
    1efa:	dc 01       	movw	r26, r24
    1efc:	f8 01       	movw	r30, r16
    1efe:	87 87       	std	Z+15, r24	; 0x0f
    1f00:	90 8b       	std	Z+16, r25	; 0x10
    1f02:	a1 8b       	std	Z+17, r26	; 0x11
    1f04:	b2 8b       	std	Z+18, r27	; 0x12
    1f06:	83 87       	std	Z+11, r24	; 0x0b
    1f08:	94 87       	std	Z+12, r25	; 0x0c
    1f0a:	a5 87       	std	Z+13, r26	; 0x0d
    1f0c:	b6 87       	std	Z+14, r27	; 0x0e
    1f0e:	80 e8       	ldi	r24, 0x80	; 128
    1f10:	84 83       	std	Z+4, r24	; 0x04
    1f12:	f3 e0       	ldi	r31, 0x03	; 3
    1f14:	af 16       	cp	r10, r31
    1f16:	b1 04       	cpc	r11, r1
    1f18:	09 f0       	breq	.+2      	; 0x1f1c <mount_volume+0x45a>
    1f1a:	49 c0       	rjmp	.+146    	; 0x1fae <mount_volume+0x4ec>
    1f1c:	f8 01       	movw	r30, r16
    1f1e:	ed 59       	subi	r30, 0x9D	; 157
    1f20:	ff 4f       	sbci	r31, 0xFF	; 255
    1f22:	80 81       	ld	r24, Z
    1f24:	91 81       	ldd	r25, Z+1	; 0x01
    1f26:	01 97       	sbiw	r24, 0x01	; 1
    1f28:	09 f0       	breq	.+2      	; 0x1f2c <mount_volume+0x46a>
    1f2a:	41 c0       	rjmp	.+130    	; 0x1fae <mount_volume+0x4ec>
    1f2c:	49 89       	ldd	r20, Y+17	; 0x11
    1f2e:	5a 89       	ldd	r21, Y+18	; 0x12
    1f30:	6b 89       	ldd	r22, Y+19	; 0x13
    1f32:	7c 89       	ldd	r23, Y+20	; 0x14
    1f34:	4f 5f       	subi	r20, 0xFF	; 255
    1f36:	5f 4f       	sbci	r21, 0xFF	; 255
    1f38:	6f 4f       	sbci	r22, 0xFF	; 255
    1f3a:	7f 4f       	sbci	r23, 0xFF	; 255
    1f3c:	c8 01       	movw	r24, r16
    1f3e:	0e 94 d4 04 	call	0x9a8	; 0x9a8 <move_window>
    1f42:	81 11       	cpse	r24, r1
    1f44:	34 c0       	rjmp	.+104    	; 0x1fae <mount_volume+0x4ec>
    1f46:	d8 01       	movw	r26, r16
    1f48:	14 96       	adiw	r26, 0x04	; 4
    1f4a:	1c 92       	st	X, r1
    1f4c:	f8 01       	movw	r30, r16
    1f4e:	ef 5c       	subi	r30, 0xCF	; 207
    1f50:	fd 4f       	sbci	r31, 0xFD	; 253
    1f52:	80 81       	ld	r24, Z
    1f54:	91 81       	ldd	r25, Z+1	; 0x01
    1f56:	85 35       	cpi	r24, 0x55	; 85
    1f58:	9a 4a       	sbci	r25, 0xAA	; 170
    1f5a:	49 f5       	brne	.+82     	; 0x1fae <mount_volume+0x4ec>
    1f5c:	c8 01       	movw	r24, r16
    1f5e:	c3 96       	adiw	r24, 0x33	; 51
    1f60:	0e 94 1b 03 	call	0x636	; 0x636 <ld_dword>
    1f64:	62 35       	cpi	r22, 0x52	; 82
    1f66:	72 45       	sbci	r23, 0x52	; 82
    1f68:	81 46       	sbci	r24, 0x61	; 97
    1f6a:	91 44       	sbci	r25, 0x41	; 65
    1f6c:	01 f5       	brne	.+64     	; 0x1fae <mount_volume+0x4ec>
    1f6e:	c8 01       	movw	r24, r16
    1f70:	89 5e       	subi	r24, 0xE9	; 233
    1f72:	9d 4f       	sbci	r25, 0xFD	; 253
    1f74:	0e 94 1b 03 	call	0x636	; 0x636 <ld_dword>
    1f78:	62 37       	cpi	r22, 0x72	; 114
    1f7a:	72 47       	sbci	r23, 0x72	; 114
    1f7c:	81 44       	sbci	r24, 0x41	; 65
    1f7e:	91 46       	sbci	r25, 0x61	; 97
    1f80:	b1 f4       	brne	.+44     	; 0x1fae <mount_volume+0x4ec>
    1f82:	c8 01       	movw	r24, r16
    1f84:	85 5e       	subi	r24, 0xE5	; 229
    1f86:	9d 4f       	sbci	r25, 0xFD	; 253
    1f88:	0e 94 1b 03 	call	0x636	; 0x636 <ld_dword>
    1f8c:	d8 01       	movw	r26, r16
    1f8e:	1f 96       	adiw	r26, 0x0f	; 15
    1f90:	6d 93       	st	X+, r22
    1f92:	7d 93       	st	X+, r23
    1f94:	8d 93       	st	X+, r24
    1f96:	9c 93       	st	X, r25
    1f98:	52 97       	sbiw	r26, 0x12	; 18
    1f9a:	c8 01       	movw	r24, r16
    1f9c:	81 5e       	subi	r24, 0xE1	; 225
    1f9e:	9d 4f       	sbci	r25, 0xFD	; 253
    1fa0:	0e 94 1b 03 	call	0x636	; 0x636 <ld_dword>
    1fa4:	f8 01       	movw	r30, r16
    1fa6:	63 87       	std	Z+11, r22	; 0x0b
    1fa8:	74 87       	std	Z+12, r23	; 0x0c
    1faa:	85 87       	std	Z+13, r24	; 0x0d
    1fac:	96 87       	std	Z+14, r25	; 0x0e
    1fae:	d8 01       	movw	r26, r16
    1fb0:	ac 92       	st	X, r10
    1fb2:	80 91 ca 05 	lds	r24, 0x05CA	; 0x8005ca <Fsid>
    1fb6:	90 91 cb 05 	lds	r25, 0x05CB	; 0x8005cb <Fsid+0x1>
    1fba:	01 96       	adiw	r24, 0x01	; 1
    1fbc:	90 93 cb 05 	sts	0x05CB, r25	; 0x8005cb <Fsid+0x1>
    1fc0:	80 93 ca 05 	sts	0x05CA, r24	; 0x8005ca <Fsid>
    1fc4:	16 96       	adiw	r26, 0x06	; 6
    1fc6:	9c 93       	st	X, r25
    1fc8:	8e 93       	st	-X, r24
    1fca:	15 97       	sbiw	r26, 0x05	; 5
    1fcc:	f8 01       	movw	r30, r16
    1fce:	13 8a       	std	Z+19, r1	; 0x13
    1fd0:	14 8a       	std	Z+20, r1	; 0x14
    1fd2:	15 8a       	std	Z+21, r1	; 0x15
    1fd4:	16 8a       	std	Z+22, r1	; 0x16
    1fd6:	04 c0       	rjmp	.+8      	; 0x1fe0 <mount_volume+0x51e>
    1fd8:	8b e0       	ldi	r24, 0x0B	; 11
    1fda:	0e c0       	rjmp	.+28     	; 0x1ff8 <mount_volume+0x536>
    1fdc:	8c e0       	ldi	r24, 0x0C	; 12
    1fde:	0c c0       	rjmp	.+24     	; 0x1ff8 <mount_volume+0x536>
    1fe0:	80 e0       	ldi	r24, 0x00	; 0
    1fe2:	0a c0       	rjmp	.+20     	; 0x1ff8 <mount_volume+0x536>
    1fe4:	83 e0       	ldi	r24, 0x03	; 3
    1fe6:	08 c0       	rjmp	.+16     	; 0x1ff8 <mount_volume+0x536>
    1fe8:	81 e0       	ldi	r24, 0x01	; 1
    1fea:	06 c0       	rjmp	.+12     	; 0x1ff8 <mount_volume+0x536>
    1fec:	83 e0       	ldi	r24, 0x03	; 3
    1fee:	90 e0       	ldi	r25, 0x00	; 0
    1ff0:	15 ce       	rjmp	.-982    	; 0x1c1c <mount_volume+0x15a>
    1ff2:	84 e0       	ldi	r24, 0x04	; 4
    1ff4:	90 e0       	ldi	r25, 0x00	; 0
    1ff6:	12 ce       	rjmp	.-988    	; 0x1c1c <mount_volume+0x15a>
    1ff8:	a0 96       	adiw	r28, 0x20	; 32
    1ffa:	0f b6       	in	r0, 0x3f	; 63
    1ffc:	f8 94       	cli
    1ffe:	de bf       	out	0x3e, r29	; 62
    2000:	0f be       	out	0x3f, r0	; 63
    2002:	cd bf       	out	0x3d, r28	; 61
    2004:	df 91       	pop	r29
    2006:	cf 91       	pop	r28
    2008:	1f 91       	pop	r17
    200a:	0f 91       	pop	r16
    200c:	ff 90       	pop	r15
    200e:	ef 90       	pop	r14
    2010:	df 90       	pop	r13
    2012:	cf 90       	pop	r12
    2014:	bf 90       	pop	r11
    2016:	af 90       	pop	r10
    2018:	9f 90       	pop	r9
    201a:	8f 90       	pop	r8
    201c:	7f 90       	pop	r7
    201e:	6f 90       	pop	r6
    2020:	5f 90       	pop	r5
    2022:	4f 90       	pop	r4
    2024:	08 95       	ret

00002026 <f_mount>:
    2026:	1f 93       	push	r17
    2028:	cf 93       	push	r28
    202a:	df 93       	push	r29
    202c:	00 d0       	rcall	.+0      	; 0x202e <f_mount+0x8>
    202e:	00 d0       	rcall	.+0      	; 0x2030 <f_mount+0xa>
    2030:	00 d0       	rcall	.+0      	; 0x2032 <f_mount+0xc>
    2032:	cd b7       	in	r28, 0x3d	; 61
    2034:	de b7       	in	r29, 0x3e	; 62
    2036:	9c 83       	std	Y+4, r25	; 0x04
    2038:	8b 83       	std	Y+3, r24	; 0x03
    203a:	7e 83       	std	Y+6, r23	; 0x06
    203c:	6d 83       	std	Y+5, r22	; 0x05
    203e:	14 2f       	mov	r17, r20
    2040:	7a 83       	std	Y+2, r23	; 0x02
    2042:	69 83       	std	Y+1, r22	; 0x01
    2044:	ce 01       	movw	r24, r28
    2046:	01 96       	adiw	r24, 0x01	; 1
    2048:	0e 94 70 03 	call	0x6e0	; 0x6e0 <get_ldnumber>
    204c:	97 fd       	sbrc	r25, 7
    204e:	21 c0       	rjmp	.+66     	; 0x2092 <f_mount+0x6c>
    2050:	88 0f       	add	r24, r24
    2052:	99 1f       	adc	r25, r25
    2054:	fc 01       	movw	r30, r24
    2056:	e4 53       	subi	r30, 0x34	; 52
    2058:	fa 4f       	sbci	r31, 0xFA	; 250
    205a:	01 90       	ld	r0, Z+
    205c:	f0 81       	ld	r31, Z
    205e:	e0 2d       	mov	r30, r0
    2060:	30 97       	sbiw	r30, 0x00	; 0
    2062:	09 f0       	breq	.+2      	; 0x2066 <f_mount+0x40>
    2064:	10 82       	st	Z, r1
    2066:	eb 81       	ldd	r30, Y+3	; 0x03
    2068:	fc 81       	ldd	r31, Y+4	; 0x04
    206a:	30 97       	sbiw	r30, 0x00	; 0
    206c:	09 f0       	breq	.+2      	; 0x2070 <f_mount+0x4a>
    206e:	10 82       	st	Z, r1
    2070:	fc 01       	movw	r30, r24
    2072:	e4 53       	subi	r30, 0x34	; 52
    2074:	fa 4f       	sbci	r31, 0xFA	; 250
    2076:	2b 81       	ldd	r18, Y+3	; 0x03
    2078:	3c 81       	ldd	r19, Y+4	; 0x04
    207a:	31 83       	std	Z+1, r19	; 0x01
    207c:	20 83       	st	Z, r18
    207e:	11 23       	and	r17, r17
    2080:	51 f0       	breq	.+20     	; 0x2096 <f_mount+0x70>
    2082:	40 e0       	ldi	r20, 0x00	; 0
    2084:	be 01       	movw	r22, r28
    2086:	6d 5f       	subi	r22, 0xFD	; 253
    2088:	7f 4f       	sbci	r23, 0xFF	; 255
    208a:	ce 01       	movw	r24, r28
    208c:	05 96       	adiw	r24, 0x05	; 5
    208e:	19 dd       	rcall	.-1486   	; 0x1ac2 <mount_volume>
    2090:	03 c0       	rjmp	.+6      	; 0x2098 <f_mount+0x72>
    2092:	8b e0       	ldi	r24, 0x0B	; 11
    2094:	01 c0       	rjmp	.+2      	; 0x2098 <f_mount+0x72>
    2096:	80 e0       	ldi	r24, 0x00	; 0
    2098:	26 96       	adiw	r28, 0x06	; 6
    209a:	0f b6       	in	r0, 0x3f	; 63
    209c:	f8 94       	cli
    209e:	de bf       	out	0x3e, r29	; 62
    20a0:	0f be       	out	0x3f, r0	; 63
    20a2:	cd bf       	out	0x3d, r28	; 61
    20a4:	df 91       	pop	r29
    20a6:	cf 91       	pop	r28
    20a8:	1f 91       	pop	r17
    20aa:	08 95       	ret

000020ac <f_open>:
    20ac:	4f 92       	push	r4
    20ae:	5f 92       	push	r5
    20b0:	6f 92       	push	r6
    20b2:	7f 92       	push	r7
    20b4:	8f 92       	push	r8
    20b6:	9f 92       	push	r9
    20b8:	af 92       	push	r10
    20ba:	bf 92       	push	r11
    20bc:	cf 92       	push	r12
    20be:	df 92       	push	r13
    20c0:	ef 92       	push	r14
    20c2:	ff 92       	push	r15
    20c4:	0f 93       	push	r16
    20c6:	1f 93       	push	r17
    20c8:	cf 93       	push	r28
    20ca:	df 93       	push	r29
    20cc:	cd b7       	in	r28, 0x3d	; 61
    20ce:	de b7       	in	r29, 0x3e	; 62
    20d0:	e0 97       	sbiw	r28, 0x30	; 48
    20d2:	0f b6       	in	r0, 0x3f	; 63
    20d4:	f8 94       	cli
    20d6:	de bf       	out	0x3e, r29	; 62
    20d8:	0f be       	out	0x3f, r0	; 63
    20da:	cd bf       	out	0x3d, r28	; 61
    20dc:	7c a7       	std	Y+44, r23	; 0x2c
    20de:	6b a7       	std	Y+43, r22	; 0x2b
    20e0:	00 97       	sbiw	r24, 0x00	; 0
    20e2:	09 f4       	brne	.+2      	; 0x20e6 <f_open+0x3a>
    20e4:	5b c1       	rjmp	.+694    	; 0x239c <__stack+0x29d>
    20e6:	14 2f       	mov	r17, r20
    20e8:	7c 01       	movw	r14, r24
    20ea:	24 2f       	mov	r18, r20
    20ec:	2f 73       	andi	r18, 0x3F	; 63
    20ee:	c2 2e       	mov	r12, r18
    20f0:	42 2f       	mov	r20, r18
    20f2:	be 01       	movw	r22, r28
    20f4:	67 5d       	subi	r22, 0xD7	; 215
    20f6:	7f 4f       	sbci	r23, 0xFF	; 255
    20f8:	ce 01       	movw	r24, r28
    20fa:	8b 96       	adiw	r24, 0x2b	; 43
    20fc:	e2 dc       	rcall	.-1596   	; 0x1ac2 <mount_volume>
    20fe:	d8 2e       	mov	r13, r24
    2100:	81 11       	cpse	r24, r1
    2102:	59 c1       	rjmp	.+690    	; 0x23b6 <__stack+0x2b7>
    2104:	89 a5       	ldd	r24, Y+41	; 0x29
    2106:	9a a5       	ldd	r25, Y+42	; 0x2a
    2108:	9a 83       	std	Y+2, r25	; 0x02
    210a:	89 83       	std	Y+1, r24	; 0x01
    210c:	6b a5       	ldd	r22, Y+43	; 0x2b
    210e:	7c a5       	ldd	r23, Y+44	; 0x2c
    2110:	ce 01       	movw	r24, r28
    2112:	01 96       	adiw	r24, 0x01	; 1
    2114:	77 da       	rcall	.-2834   	; 0x1604 <follow_path>
    2116:	81 11       	cpse	r24, r1
    2118:	03 c0       	rjmp	.+6      	; 0x2120 <__stack+0x21>
    211a:	98 a5       	ldd	r25, Y+40	; 0x28
    211c:	97 fd       	sbrc	r25, 7
    211e:	86 e0       	ldi	r24, 0x06	; 6
    2120:	91 2f       	mov	r25, r17
    2122:	9c 71       	andi	r25, 0x1C	; 28
    2124:	09 f4       	brne	.+2      	; 0x2128 <__stack+0x29>
    2126:	6f c0       	rjmp	.+222    	; 0x2206 <__stack+0x107>
    2128:	88 23       	and	r24, r24
    212a:	59 f0       	breq	.+22     	; 0x2142 <__stack+0x43>
    212c:	84 30       	cpi	r24, 0x04	; 4
    212e:	19 f4       	brne	.+6      	; 0x2136 <__stack+0x37>
    2130:	ce 01       	movw	r24, r28
    2132:	01 96       	adiw	r24, 0x01	; 1
    2134:	9b dc       	rcall	.-1738   	; 0x1a6c <dir_register>
    2136:	3c 2d       	mov	r19, r12
    2138:	38 60       	ori	r19, 0x08	; 8
    213a:	c3 2e       	mov	r12, r19
    213c:	88 23       	and	r24, r24
    213e:	39 f0       	breq	.+14     	; 0x214e <__stack+0x4f>
    2140:	34 c1       	rjmp	.+616    	; 0x23aa <__stack+0x2ab>
    2142:	8d 81       	ldd	r24, Y+5	; 0x05
    2144:	81 71       	andi	r24, 0x11	; 17
    2146:	09 f0       	breq	.+2      	; 0x214a <__stack+0x4b>
    2148:	2f c1       	rjmp	.+606    	; 0x23a8 <__stack+0x2a9>
    214a:	12 fd       	sbrc	r17, 2
    214c:	29 c1       	rjmp	.+594    	; 0x23a0 <__stack+0x2a1>
    214e:	c3 fe       	sbrs	r12, 3
    2150:	68 c0       	rjmp	.+208    	; 0x2222 <__stack+0x123>
    2152:	0e 94 64 1f 	call	0x3ec8	; 0x3ec8 <get_fattime>
    2156:	4b 01       	movw	r8, r22
    2158:	5c 01       	movw	r10, r24
    215a:	8b 8d       	ldd	r24, Y+27	; 0x1b
    215c:	9c 8d       	ldd	r25, Y+28	; 0x1c
    215e:	b5 01       	movw	r22, r10
    2160:	a4 01       	movw	r20, r8
    2162:	0e 96       	adiw	r24, 0x0e	; 14
    2164:	0e 94 30 03 	call	0x660	; 0x660 <st_dword>
    2168:	8b 8d       	ldd	r24, Y+27	; 0x1b
    216a:	9c 8d       	ldd	r25, Y+28	; 0x1c
    216c:	b5 01       	movw	r22, r10
    216e:	a4 01       	movw	r20, r8
    2170:	46 96       	adiw	r24, 0x16	; 22
    2172:	0e 94 30 03 	call	0x660	; 0x660 <st_dword>
    2176:	ab 8c       	ldd	r10, Y+27	; 0x1b
    2178:	bc 8c       	ldd	r11, Y+28	; 0x1c
    217a:	09 a5       	ldd	r16, Y+41	; 0x29
    217c:	1a a5       	ldd	r17, Y+42	; 0x2a
    217e:	b5 01       	movw	r22, r10
    2180:	d8 01       	movw	r26, r16
    2182:	8c 91       	ld	r24, X
    2184:	0e 94 c4 03 	call	0x788	; 0x788 <ld_clust.isra.0>
    2188:	2b 01       	movw	r4, r22
    218a:	3c 01       	movw	r6, r24
    218c:	80 e2       	ldi	r24, 0x20	; 32
    218e:	f5 01       	movw	r30, r10
    2190:	83 87       	std	Z+11, r24	; 0x0b
    2192:	eb 8d       	ldd	r30, Y+27	; 0x1b
    2194:	fc 8d       	ldd	r31, Y+28	; 0x1c
    2196:	12 8e       	std	Z+26, r1	; 0x1a
    2198:	13 8e       	std	Z+27, r1	; 0x1b
    219a:	d8 01       	movw	r26, r16
    219c:	8c 91       	ld	r24, X
    219e:	83 30       	cpi	r24, 0x03	; 3
    21a0:	11 f4       	brne	.+4      	; 0x21a6 <__stack+0xa7>
    21a2:	14 8a       	std	Z+20, r1	; 0x14
    21a4:	15 8a       	std	Z+21, r1	; 0x15
    21a6:	eb 8d       	ldd	r30, Y+27	; 0x1b
    21a8:	fc 8d       	ldd	r31, Y+28	; 0x1c
    21aa:	14 8e       	std	Z+28, r1	; 0x1c
    21ac:	15 8e       	std	Z+29, r1	; 0x1d
    21ae:	16 8e       	std	Z+30, r1	; 0x1e
    21b0:	17 8e       	std	Z+31, r1	; 0x1f
    21b2:	81 e0       	ldi	r24, 0x01	; 1
    21b4:	f8 01       	movw	r30, r16
    21b6:	83 83       	std	Z+3, r24	; 0x03
    21b8:	41 14       	cp	r4, r1
    21ba:	51 04       	cpc	r5, r1
    21bc:	61 04       	cpc	r6, r1
    21be:	71 04       	cpc	r7, r1
    21c0:	69 f1       	breq	.+90     	; 0x221c <__stack+0x11d>
    21c2:	87 a4       	ldd	r8, Z+47	; 0x2f
    21c4:	90 a8       	ldd	r9, Z+48	; 0x30
    21c6:	a1 a8       	ldd	r10, Z+49	; 0x31
    21c8:	b2 a8       	ldd	r11, Z+50	; 0x32
    21ca:	00 e0       	ldi	r16, 0x00	; 0
    21cc:	10 e0       	ldi	r17, 0x00	; 0
    21ce:	98 01       	movw	r18, r16
    21d0:	b3 01       	movw	r22, r6
    21d2:	a2 01       	movw	r20, r4
    21d4:	ce 01       	movw	r24, r28
    21d6:	01 96       	adiw	r24, 0x01	; 1
    21d8:	52 d8       	rcall	.-3932   	; 0x127e <remove_chain>
    21da:	81 11       	cpse	r24, r1
    21dc:	e6 c0       	rjmp	.+460    	; 0x23aa <__stack+0x2ab>
    21de:	b5 01       	movw	r22, r10
    21e0:	a4 01       	movw	r20, r8
    21e2:	89 a5       	ldd	r24, Y+41	; 0x29
    21e4:	9a a5       	ldd	r25, Y+42	; 0x2a
    21e6:	0e 94 d4 04 	call	0x9a8	; 0x9a8 <move_window>
    21ea:	e9 a5       	ldd	r30, Y+41	; 0x29
    21ec:	fa a5       	ldd	r31, Y+42	; 0x2a
    21ee:	21 e0       	ldi	r18, 0x01	; 1
    21f0:	42 1a       	sub	r4, r18
    21f2:	51 08       	sbc	r5, r1
    21f4:	61 08       	sbc	r6, r1
    21f6:	71 08       	sbc	r7, r1
    21f8:	43 86       	std	Z+11, r4	; 0x0b
    21fa:	54 86       	std	Z+12, r5	; 0x0c
    21fc:	65 86       	std	Z+13, r6	; 0x0d
    21fe:	76 86       	std	Z+14, r7	; 0x0e
    2200:	88 23       	and	r24, r24
    2202:	51 f0       	breq	.+20     	; 0x2218 <__stack+0x119>
    2204:	d2 c0       	rjmp	.+420    	; 0x23aa <__stack+0x2ab>
    2206:	81 11       	cpse	r24, r1
    2208:	d0 c0       	rjmp	.+416    	; 0x23aa <__stack+0x2ab>
    220a:	8d 81       	ldd	r24, Y+5	; 0x05
    220c:	84 fd       	sbrc	r24, 4
    220e:	ca c0       	rjmp	.+404    	; 0x23a4 <__stack+0x2a5>
    2210:	11 ff       	sbrs	r17, 1
    2212:	02 c0       	rjmp	.+4      	; 0x2218 <__stack+0x119>
    2214:	80 fd       	sbrc	r24, 0
    2216:	c8 c0       	rjmp	.+400    	; 0x23a8 <__stack+0x2a9>
    2218:	c3 fe       	sbrs	r12, 3
    221a:	03 c0       	rjmp	.+6      	; 0x2222 <__stack+0x123>
    221c:	3c 2d       	mov	r19, r12
    221e:	30 64       	ori	r19, 0x40	; 64
    2220:	c3 2e       	mov	r12, r19
    2222:	09 a5       	ldd	r16, Y+41	; 0x29
    2224:	1a a5       	ldd	r17, Y+42	; 0x2a
    2226:	f8 01       	movw	r30, r16
    2228:	87 a5       	ldd	r24, Z+47	; 0x2f
    222a:	90 a9       	ldd	r25, Z+48	; 0x30
    222c:	a1 a9       	ldd	r26, Z+49	; 0x31
    222e:	b2 a9       	ldd	r27, Z+50	; 0x32
    2230:	f7 01       	movw	r30, r14
    2232:	84 8f       	std	Z+28, r24	; 0x1c
    2234:	95 8f       	std	Z+29, r25	; 0x1d
    2236:	a6 8f       	std	Z+30, r26	; 0x1e
    2238:	b7 8f       	std	Z+31, r27	; 0x1f
    223a:	ab 8c       	ldd	r10, Y+27	; 0x1b
    223c:	bc 8c       	ldd	r11, Y+28	; 0x1c
    223e:	b1 a2       	std	Z+33, r11	; 0x21
    2240:	a0 a2       	std	Z+32, r10	; 0x20
    2242:	b5 01       	movw	r22, r10
    2244:	d8 01       	movw	r26, r16
    2246:	8c 91       	ld	r24, X
    2248:	0e 94 c4 03 	call	0x788	; 0x788 <ld_clust.isra.0>
    224c:	2b 01       	movw	r4, r22
    224e:	3c 01       	movw	r6, r24
    2250:	f7 01       	movw	r30, r14
    2252:	66 83       	std	Z+6, r22	; 0x06
    2254:	77 83       	std	Z+7, r23	; 0x07
    2256:	80 87       	std	Z+8, r24	; 0x08
    2258:	91 87       	std	Z+9, r25	; 0x09
    225a:	c5 01       	movw	r24, r10
    225c:	4c 96       	adiw	r24, 0x1c	; 28
    225e:	0e 94 1b 03 	call	0x636	; 0x636 <ld_dword>
    2262:	4b 01       	movw	r8, r22
    2264:	5c 01       	movw	r10, r24
    2266:	d7 01       	movw	r26, r14
    2268:	1a 96       	adiw	r26, 0x0a	; 10
    226a:	6d 93       	st	X+, r22
    226c:	7d 93       	st	X+, r23
    226e:	8d 93       	st	X+, r24
    2270:	9c 93       	st	X, r25
    2272:	1d 97       	sbiw	r26, 0x0d	; 13
    2274:	11 96       	adiw	r26, 0x01	; 1
    2276:	1c 93       	st	X, r17
    2278:	0e 93       	st	-X, r16
    227a:	f8 01       	movw	r30, r16
    227c:	85 81       	ldd	r24, Z+5	; 0x05
    227e:	96 81       	ldd	r25, Z+6	; 0x06
    2280:	13 96       	adiw	r26, 0x03	; 3
    2282:	9c 93       	st	X, r25
    2284:	8e 93       	st	-X, r24
    2286:	12 97       	sbiw	r26, 0x02	; 2
    2288:	1e 96       	adiw	r26, 0x0e	; 14
    228a:	cc 92       	st	X, r12
    228c:	1e 97       	sbiw	r26, 0x0e	; 14
    228e:	1f 96       	adiw	r26, 0x0f	; 15
    2290:	1c 92       	st	X, r1
    2292:	1f 97       	sbiw	r26, 0x0f	; 15
    2294:	58 96       	adiw	r26, 0x18	; 24
    2296:	1d 92       	st	X+, r1
    2298:	1d 92       	st	X+, r1
    229a:	1d 92       	st	X+, r1
    229c:	1c 92       	st	X, r1
    229e:	5b 97       	sbiw	r26, 0x1b	; 27
    22a0:	f7 01       	movw	r30, r14
    22a2:	10 8a       	std	Z+16, r1	; 0x10
    22a4:	11 8a       	std	Z+17, r1	; 0x11
    22a6:	12 8a       	std	Z+18, r1	; 0x12
    22a8:	13 8a       	std	Z+19, r1	; 0x13
    22aa:	c5 fe       	sbrs	r12, 5
    22ac:	80 c0       	rjmp	.+256    	; 0x23ae <__stack+0x2af>
    22ae:	81 14       	cp	r8, r1
    22b0:	91 04       	cpc	r9, r1
    22b2:	a1 04       	cpc	r10, r1
    22b4:	b1 04       	cpc	r11, r1
    22b6:	09 f4       	brne	.+2      	; 0x22ba <__stack+0x1bb>
    22b8:	7a c0       	rjmp	.+244    	; 0x23ae <__stack+0x2af>
    22ba:	50 96       	adiw	r26, 0x10	; 16
    22bc:	8d 92       	st	X+, r8
    22be:	9d 92       	st	X+, r9
    22c0:	ad 92       	st	X+, r10
    22c2:	bc 92       	st	X, r11
    22c4:	53 97       	sbiw	r26, 0x13	; 19
    22c6:	f8 01       	movw	r30, r16
    22c8:	81 85       	ldd	r24, Z+9	; 0x09
    22ca:	92 85       	ldd	r25, Z+10	; 0x0a
    22cc:	a0 e0       	ldi	r26, 0x00	; 0
    22ce:	b0 e0       	ldi	r27, 0x00	; 0
    22d0:	9c 01       	movw	r18, r24
    22d2:	ad 01       	movw	r20, r26
    22d4:	69 e0       	ldi	r22, 0x09	; 9
    22d6:	22 0f       	add	r18, r18
    22d8:	33 1f       	adc	r19, r19
    22da:	44 1f       	adc	r20, r20
    22dc:	55 1f       	adc	r21, r21
    22de:	6a 95       	dec	r22
    22e0:	d1 f7       	brne	.-12     	; 0x22d6 <__stack+0x1d7>
    22e2:	2d a7       	std	Y+45, r18	; 0x2d
    22e4:	3e a7       	std	Y+46, r19	; 0x2e
    22e6:	4f a7       	std	Y+47, r20	; 0x2f
    22e8:	58 ab       	std	Y+48, r21	; 0x30
    22ea:	8d a5       	ldd	r24, Y+45	; 0x2d
    22ec:	9e a5       	ldd	r25, Y+46	; 0x2e
    22ee:	af a5       	ldd	r26, Y+47	; 0x2f
    22f0:	b8 a9       	ldd	r27, Y+48	; 0x30
    22f2:	88 15       	cp	r24, r8
    22f4:	99 05       	cpc	r25, r9
    22f6:	aa 05       	cpc	r26, r10
    22f8:	bb 05       	cpc	r27, r11
    22fa:	00 f5       	brcc	.+64     	; 0x233c <__stack+0x23d>
    22fc:	b3 01       	movw	r22, r6
    22fe:	a2 01       	movw	r20, r4
    2300:	d7 01       	movw	r26, r14
    2302:	8d 91       	ld	r24, X+
    2304:	9c 91       	ld	r25, X
    2306:	0e 94 75 06 	call	0xcea	; 0xcea <get_fat.isra.7>
    230a:	2b 01       	movw	r4, r22
    230c:	3c 01       	movw	r6, r24
    230e:	2d a5       	ldd	r18, Y+45	; 0x2d
    2310:	3e a5       	ldd	r19, Y+46	; 0x2e
    2312:	4f a5       	ldd	r20, Y+47	; 0x2f
    2314:	58 a9       	ldd	r21, Y+48	; 0x30
    2316:	82 1a       	sub	r8, r18
    2318:	93 0a       	sbc	r9, r19
    231a:	a4 0a       	sbc	r10, r20
    231c:	b5 0a       	sbc	r11, r21
    231e:	62 30       	cpi	r22, 0x02	; 2
    2320:	71 05       	cpc	r23, r1
    2322:	81 05       	cpc	r24, r1
    2324:	91 05       	cpc	r25, r1
    2326:	40 f0       	brcs	.+16     	; 0x2338 <__stack+0x239>
    2328:	6f 3f       	cpi	r22, 0xFF	; 255
    232a:	7f 4f       	sbci	r23, 0xFF	; 255
    232c:	8f 4f       	sbci	r24, 0xFF	; 255
    232e:	9f 4f       	sbci	r25, 0xFF	; 255
    2330:	e1 f6       	brne	.-72     	; 0x22ea <__stack+0x1eb>
    2332:	dd 24       	eor	r13, r13
    2334:	d3 94       	inc	r13
    2336:	02 c0       	rjmp	.+4      	; 0x233c <__stack+0x23d>
    2338:	82 e0       	ldi	r24, 0x02	; 2
    233a:	d8 2e       	mov	r13, r24
    233c:	d7 01       	movw	r26, r14
    233e:	54 96       	adiw	r26, 0x14	; 20
    2340:	4d 92       	st	X+, r4
    2342:	5d 92       	st	X+, r5
    2344:	6d 92       	st	X+, r6
    2346:	7c 92       	st	X, r7
    2348:	57 97       	sbiw	r26, 0x17	; 23
    234a:	d1 10       	cpse	r13, r1
    234c:	34 c0       	rjmp	.+104    	; 0x23b6 <__stack+0x2b7>
    234e:	d5 01       	movw	r26, r10
    2350:	c4 01       	movw	r24, r8
    2352:	91 70       	andi	r25, 0x01	; 1
    2354:	aa 27       	eor	r26, r26
    2356:	bb 27       	eor	r27, r27
    2358:	89 2b       	or	r24, r25
    235a:	8a 2b       	or	r24, r26
    235c:	8b 2b       	or	r24, r27
    235e:	39 f1       	breq	.+78     	; 0x23ae <__stack+0x2af>
    2360:	b3 01       	movw	r22, r6
    2362:	a2 01       	movw	r20, r4
    2364:	89 a5       	ldd	r24, Y+41	; 0x29
    2366:	9a a5       	ldd	r25, Y+42	; 0x2a
    2368:	0e 94 48 03 	call	0x690	; 0x690 <clst2sect>
    236c:	61 15       	cp	r22, r1
    236e:	71 05       	cpc	r23, r1
    2370:	81 05       	cpc	r24, r1
    2372:	91 05       	cpc	r25, r1
    2374:	f1 f0       	breq	.+60     	; 0x23b2 <__stack+0x2b3>
    2376:	29 e0       	ldi	r18, 0x09	; 9
    2378:	b6 94       	lsr	r11
    237a:	a7 94       	ror	r10
    237c:	97 94       	ror	r9
    237e:	87 94       	ror	r8
    2380:	2a 95       	dec	r18
    2382:	d1 f7       	brne	.-12     	; 0x2378 <__stack+0x279>
    2384:	dc 01       	movw	r26, r24
    2386:	cb 01       	movw	r24, r22
    2388:	88 0d       	add	r24, r8
    238a:	99 1d       	adc	r25, r9
    238c:	aa 1d       	adc	r26, r10
    238e:	bb 1d       	adc	r27, r11
    2390:	f7 01       	movw	r30, r14
    2392:	80 8f       	std	Z+24, r24	; 0x18
    2394:	91 8f       	std	Z+25, r25	; 0x19
    2396:	a2 8f       	std	Z+26, r26	; 0x1a
    2398:	b3 8f       	std	Z+27, r27	; 0x1b
    239a:	09 c0       	rjmp	.+18     	; 0x23ae <__stack+0x2af>
    239c:	89 e0       	ldi	r24, 0x09	; 9
    239e:	0f c0       	rjmp	.+30     	; 0x23be <__stack+0x2bf>
    23a0:	88 e0       	ldi	r24, 0x08	; 8
    23a2:	03 c0       	rjmp	.+6      	; 0x23aa <__stack+0x2ab>
    23a4:	84 e0       	ldi	r24, 0x04	; 4
    23a6:	01 c0       	rjmp	.+2      	; 0x23aa <__stack+0x2ab>
    23a8:	87 e0       	ldi	r24, 0x07	; 7
    23aa:	d8 2e       	mov	r13, r24
    23ac:	04 c0       	rjmp	.+8      	; 0x23b6 <__stack+0x2b7>
    23ae:	80 e0       	ldi	r24, 0x00	; 0
    23b0:	06 c0       	rjmp	.+12     	; 0x23be <__stack+0x2bf>
    23b2:	92 e0       	ldi	r25, 0x02	; 2
    23b4:	d9 2e       	mov	r13, r25
    23b6:	d7 01       	movw	r26, r14
    23b8:	1d 92       	st	X+, r1
    23ba:	1c 92       	st	X, r1
    23bc:	8d 2d       	mov	r24, r13
    23be:	e0 96       	adiw	r28, 0x30	; 48
    23c0:	0f b6       	in	r0, 0x3f	; 63
    23c2:	f8 94       	cli
    23c4:	de bf       	out	0x3e, r29	; 62
    23c6:	0f be       	out	0x3f, r0	; 63
    23c8:	cd bf       	out	0x3d, r28	; 61
    23ca:	df 91       	pop	r29
    23cc:	cf 91       	pop	r28
    23ce:	1f 91       	pop	r17
    23d0:	0f 91       	pop	r16
    23d2:	ff 90       	pop	r15
    23d4:	ef 90       	pop	r14
    23d6:	df 90       	pop	r13
    23d8:	cf 90       	pop	r12
    23da:	bf 90       	pop	r11
    23dc:	af 90       	pop	r10
    23de:	9f 90       	pop	r9
    23e0:	8f 90       	pop	r8
    23e2:	7f 90       	pop	r7
    23e4:	6f 90       	pop	r6
    23e6:	5f 90       	pop	r5
    23e8:	4f 90       	pop	r4
    23ea:	08 95       	ret

000023ec <f_read>:
    23ec:	2f 92       	push	r2
    23ee:	3f 92       	push	r3
    23f0:	4f 92       	push	r4
    23f2:	5f 92       	push	r5
    23f4:	6f 92       	push	r6
    23f6:	7f 92       	push	r7
    23f8:	8f 92       	push	r8
    23fa:	9f 92       	push	r9
    23fc:	af 92       	push	r10
    23fe:	bf 92       	push	r11
    2400:	cf 92       	push	r12
    2402:	df 92       	push	r13
    2404:	ef 92       	push	r14
    2406:	ff 92       	push	r15
    2408:	0f 93       	push	r16
    240a:	1f 93       	push	r17
    240c:	cf 93       	push	r28
    240e:	df 93       	push	r29
    2410:	00 d0       	rcall	.+0      	; 0x2412 <f_read+0x26>
    2412:	00 d0       	rcall	.+0      	; 0x2414 <f_read+0x28>
    2414:	cd b7       	in	r28, 0x3d	; 61
    2416:	de b7       	in	r29, 0x3e	; 62
    2418:	7c 01       	movw	r14, r24
    241a:	4b 01       	movw	r8, r22
    241c:	5a 01       	movw	r10, r20
    241e:	3c 83       	std	Y+4, r19	; 0x04
    2420:	2b 83       	std	Y+3, r18	; 0x03
    2422:	f9 01       	movw	r30, r18
    2424:	11 82       	std	Z+1, r1	; 0x01
    2426:	10 82       	st	Z, r1
    2428:	be 01       	movw	r22, r28
    242a:	6f 5f       	subi	r22, 0xFF	; 255
    242c:	7f 4f       	sbci	r23, 0xFF	; 255
    242e:	0e 94 9b 03 	call	0x736	; 0x736 <validate>
    2432:	81 11       	cpse	r24, r1
    2434:	14 c1       	rjmp	.+552    	; 0x265e <f_read+0x272>
    2436:	f7 01       	movw	r30, r14
    2438:	87 85       	ldd	r24, Z+15	; 0x0f
    243a:	81 11       	cpse	r24, r1
    243c:	10 c1       	rjmp	.+544    	; 0x265e <f_read+0x272>
    243e:	86 85       	ldd	r24, Z+14	; 0x0e
    2440:	80 ff       	sbrs	r24, 0
    2442:	0c c1       	rjmp	.+536    	; 0x265c <f_read+0x270>
    2444:	82 85       	ldd	r24, Z+10	; 0x0a
    2446:	93 85       	ldd	r25, Z+11	; 0x0b
    2448:	a4 85       	ldd	r26, Z+12	; 0x0c
    244a:	b5 85       	ldd	r27, Z+13	; 0x0d
    244c:	40 89       	ldd	r20, Z+16	; 0x10
    244e:	51 89       	ldd	r21, Z+17	; 0x11
    2450:	62 89       	ldd	r22, Z+18	; 0x12
    2452:	73 89       	ldd	r23, Z+19	; 0x13
    2454:	84 1b       	sub	r24, r20
    2456:	95 0b       	sbc	r25, r21
    2458:	a6 0b       	sbc	r26, r22
    245a:	b7 0b       	sbc	r27, r23
    245c:	a5 01       	movw	r20, r10
    245e:	60 e0       	ldi	r22, 0x00	; 0
    2460:	70 e0       	ldi	r23, 0x00	; 0
    2462:	84 17       	cp	r24, r20
    2464:	95 07       	cpc	r25, r21
    2466:	a6 07       	cpc	r26, r22
    2468:	b7 07       	cpc	r27, r23
    246a:	08 f0       	brcs	.+2      	; 0x246e <f_read+0x82>
    246c:	7b c0       	rjmp	.+246    	; 0x2564 <f_read+0x178>
    246e:	5c 01       	movw	r10, r24
    2470:	79 c0       	rjmp	.+242    	; 0x2564 <f_read+0x178>
    2472:	f7 01       	movw	r30, r14
    2474:	80 89       	ldd	r24, Z+16	; 0x10
    2476:	91 89       	ldd	r25, Z+17	; 0x11
    2478:	a2 89       	ldd	r26, Z+18	; 0x12
    247a:	b3 89       	ldd	r27, Z+19	; 0x13
    247c:	ac 01       	movw	r20, r24
    247e:	bd 01       	movw	r22, r26
    2480:	51 70       	andi	r21, 0x01	; 1
    2482:	66 27       	eor	r22, r22
    2484:	77 27       	eor	r23, r23
    2486:	45 2b       	or	r20, r21
    2488:	46 2b       	or	r20, r22
    248a:	47 2b       	or	r20, r23
    248c:	09 f0       	breq	.+2      	; 0x2490 <f_read+0xa4>
    248e:	bd c0       	rjmp	.+378    	; 0x260a <f_read+0x21e>
    2490:	e9 81       	ldd	r30, Y+1	; 0x01
    2492:	fa 81       	ldd	r31, Y+2	; 0x02
    2494:	01 85       	ldd	r16, Z+9	; 0x09
    2496:	12 85       	ldd	r17, Z+10	; 0x0a
    2498:	01 50       	subi	r16, 0x01	; 1
    249a:	11 09       	sbc	r17, r1
    249c:	ac 01       	movw	r20, r24
    249e:	bd 01       	movw	r22, r26
    24a0:	39 e0       	ldi	r19, 0x09	; 9
    24a2:	76 95       	lsr	r23
    24a4:	67 95       	ror	r22
    24a6:	57 95       	ror	r21
    24a8:	47 95       	ror	r20
    24aa:	3a 95       	dec	r19
    24ac:	d1 f7       	brne	.-12     	; 0x24a2 <f_read+0xb6>
    24ae:	04 23       	and	r16, r20
    24b0:	15 23       	and	r17, r21
    24b2:	01 15       	cp	r16, r1
    24b4:	11 05       	cpc	r17, r1
    24b6:	09 f4       	brne	.+2      	; 0x24ba <f_read+0xce>
    24b8:	5a c0       	rjmp	.+180    	; 0x256e <f_read+0x182>
    24ba:	29 80       	ldd	r2, Y+1	; 0x01
    24bc:	3a 80       	ldd	r3, Y+2	; 0x02
    24be:	f7 01       	movw	r30, r14
    24c0:	44 89       	ldd	r20, Z+20	; 0x14
    24c2:	55 89       	ldd	r21, Z+21	; 0x15
    24c4:	66 89       	ldd	r22, Z+22	; 0x16
    24c6:	77 89       	ldd	r23, Z+23	; 0x17
    24c8:	c1 01       	movw	r24, r2
    24ca:	0e 94 48 03 	call	0x690	; 0x690 <clst2sect>
    24ce:	61 15       	cp	r22, r1
    24d0:	71 05       	cpc	r23, r1
    24d2:	81 05       	cpc	r24, r1
    24d4:	91 05       	cpc	r25, r1
    24d6:	09 f4       	brne	.+2      	; 0x24da <f_read+0xee>
    24d8:	61 c0       	rjmp	.+194    	; 0x259c <f_read+0x1b0>
    24da:	2b 01       	movw	r4, r22
    24dc:	3c 01       	movw	r6, r24
    24de:	40 0e       	add	r4, r16
    24e0:	51 1e       	adc	r5, r17
    24e2:	61 1c       	adc	r6, r1
    24e4:	71 1c       	adc	r7, r1
    24e6:	65 01       	movw	r12, r10
    24e8:	cd 2c       	mov	r12, r13
    24ea:	dd 24       	eor	r13, r13
    24ec:	c6 94       	lsr	r12
    24ee:	c1 14       	cp	r12, r1
    24f0:	d1 04       	cpc	r13, r1
    24f2:	09 f4       	brne	.+2      	; 0x24f6 <f_read+0x10a>
    24f4:	85 c0       	rjmp	.+266    	; 0x2600 <f_read+0x214>
    24f6:	f1 01       	movw	r30, r2
    24f8:	81 85       	ldd	r24, Z+9	; 0x09
    24fa:	92 85       	ldd	r25, Z+10	; 0x0a
    24fc:	98 01       	movw	r18, r16
    24fe:	2c 0d       	add	r18, r12
    2500:	3d 1d       	adc	r19, r13
    2502:	82 17       	cp	r24, r18
    2504:	93 07       	cpc	r25, r19
    2506:	18 f4       	brcc	.+6      	; 0x250e <f_read+0x122>
    2508:	6c 01       	movw	r12, r24
    250a:	c0 1a       	sub	r12, r16
    250c:	d1 0a       	sbc	r13, r17
    250e:	86 01       	movw	r16, r12
    2510:	a3 01       	movw	r20, r6
    2512:	92 01       	movw	r18, r4
    2514:	b4 01       	movw	r22, r8
    2516:	f1 01       	movw	r30, r2
    2518:	81 81       	ldd	r24, Z+1	; 0x01
    251a:	0e 94 ee 02 	call	0x5dc	; 0x5dc <disk_read>
    251e:	81 11       	cpse	r24, r1
    2520:	45 c0       	rjmp	.+138    	; 0x25ac <f_read+0x1c0>
    2522:	e9 81       	ldd	r30, Y+1	; 0x01
    2524:	fa 81       	ldd	r31, Y+2	; 0x02
    2526:	83 81       	ldd	r24, Z+3	; 0x03
    2528:	81 11       	cpse	r24, r1
    252a:	4a c0       	rjmp	.+148    	; 0x25c0 <f_read+0x1d4>
    252c:	dc 2c       	mov	r13, r12
    252e:	cc 24       	eor	r12, r12
    2530:	dd 0c       	add	r13, r13
    2532:	ac 18       	sub	r10, r12
    2534:	bd 08       	sbc	r11, r13
    2536:	eb 81       	ldd	r30, Y+3	; 0x03
    2538:	fc 81       	ldd	r31, Y+4	; 0x04
    253a:	80 81       	ld	r24, Z
    253c:	91 81       	ldd	r25, Z+1	; 0x01
    253e:	8c 0d       	add	r24, r12
    2540:	9d 1d       	adc	r25, r13
    2542:	91 83       	std	Z+1, r25	; 0x01
    2544:	80 83       	st	Z, r24
    2546:	8c 0c       	add	r8, r12
    2548:	9d 1c       	adc	r9, r13
    254a:	f7 01       	movw	r30, r14
    254c:	80 89       	ldd	r24, Z+16	; 0x10
    254e:	91 89       	ldd	r25, Z+17	; 0x11
    2550:	a2 89       	ldd	r26, Z+18	; 0x12
    2552:	b3 89       	ldd	r27, Z+19	; 0x13
    2554:	8c 0d       	add	r24, r12
    2556:	9d 1d       	adc	r25, r13
    2558:	a1 1d       	adc	r26, r1
    255a:	b1 1d       	adc	r27, r1
    255c:	80 8b       	std	Z+16, r24	; 0x10
    255e:	91 8b       	std	Z+17, r25	; 0x11
    2560:	a2 8b       	std	Z+18, r26	; 0x12
    2562:	b3 8b       	std	Z+19, r27	; 0x13
    2564:	a1 14       	cp	r10, r1
    2566:	b1 04       	cpc	r11, r1
    2568:	09 f0       	breq	.+2      	; 0x256c <f_read+0x180>
    256a:	83 cf       	rjmp	.-250    	; 0x2472 <f_read+0x86>
    256c:	75 c0       	rjmp	.+234    	; 0x2658 <f_read+0x26c>
    256e:	f7 01       	movw	r30, r14
    2570:	89 2b       	or	r24, r25
    2572:	8a 2b       	or	r24, r26
    2574:	8b 2b       	or	r24, r27
    2576:	29 f4       	brne	.+10     	; 0x2582 <f_read+0x196>
    2578:	66 81       	ldd	r22, Z+6	; 0x06
    257a:	77 81       	ldd	r23, Z+7	; 0x07
    257c:	80 85       	ldd	r24, Z+8	; 0x08
    257e:	91 85       	ldd	r25, Z+9	; 0x09
    2580:	08 c0       	rjmp	.+16     	; 0x2592 <f_read+0x1a6>
    2582:	44 89       	ldd	r20, Z+20	; 0x14
    2584:	55 89       	ldd	r21, Z+21	; 0x15
    2586:	66 89       	ldd	r22, Z+22	; 0x16
    2588:	77 89       	ldd	r23, Z+23	; 0x17
    258a:	80 81       	ld	r24, Z
    258c:	91 81       	ldd	r25, Z+1	; 0x01
    258e:	0e 94 75 06 	call	0xcea	; 0xcea <get_fat.isra.7>
    2592:	62 30       	cpi	r22, 0x02	; 2
    2594:	71 05       	cpc	r23, r1
    2596:	81 05       	cpc	r24, r1
    2598:	91 05       	cpc	r25, r1
    259a:	10 f4       	brcc	.+4      	; 0x25a0 <f_read+0x1b4>
    259c:	82 e0       	ldi	r24, 0x02	; 2
    259e:	07 c0       	rjmp	.+14     	; 0x25ae <f_read+0x1c2>
    25a0:	6f 3f       	cpi	r22, 0xFF	; 255
    25a2:	ff ef       	ldi	r31, 0xFF	; 255
    25a4:	7f 07       	cpc	r23, r31
    25a6:	8f 07       	cpc	r24, r31
    25a8:	9f 07       	cpc	r25, r31
    25aa:	21 f4       	brne	.+8      	; 0x25b4 <f_read+0x1c8>
    25ac:	81 e0       	ldi	r24, 0x01	; 1
    25ae:	f7 01       	movw	r30, r14
    25b0:	87 87       	std	Z+15, r24	; 0x0f
    25b2:	55 c0       	rjmp	.+170    	; 0x265e <f_read+0x272>
    25b4:	f7 01       	movw	r30, r14
    25b6:	64 8b       	std	Z+20, r22	; 0x14
    25b8:	75 8b       	std	Z+21, r23	; 0x15
    25ba:	86 8b       	std	Z+22, r24	; 0x16
    25bc:	97 8b       	std	Z+23, r25	; 0x17
    25be:	7d cf       	rjmp	.-262    	; 0x24ba <f_read+0xce>
    25c0:	87 a5       	ldd	r24, Z+47	; 0x2f
    25c2:	90 a9       	ldd	r25, Z+48	; 0x30
    25c4:	a1 a9       	ldd	r26, Z+49	; 0x31
    25c6:	b2 a9       	ldd	r27, Z+50	; 0x32
    25c8:	84 19       	sub	r24, r4
    25ca:	95 09       	sbc	r25, r5
    25cc:	a6 09       	sbc	r26, r6
    25ce:	b7 09       	sbc	r27, r7
    25d0:	a6 01       	movw	r20, r12
    25d2:	60 e0       	ldi	r22, 0x00	; 0
    25d4:	70 e0       	ldi	r23, 0x00	; 0
    25d6:	84 17       	cp	r24, r20
    25d8:	95 07       	cpc	r25, r21
    25da:	a6 07       	cpc	r26, r22
    25dc:	b7 07       	cpc	r27, r23
    25de:	08 f0       	brcs	.+2      	; 0x25e2 <f_read+0x1f6>
    25e0:	a5 cf       	rjmp	.-182    	; 0x252c <f_read+0x140>
    25e2:	dc 01       	movw	r26, r24
    25e4:	ba 2f       	mov	r27, r26
    25e6:	aa 27       	eor	r26, r26
    25e8:	bb 0f       	add	r27, r27
    25ea:	a8 0d       	add	r26, r8
    25ec:	b9 1d       	adc	r27, r9
    25ee:	f3 96       	adiw	r30, 0x33	; 51
    25f0:	20 e0       	ldi	r18, 0x00	; 0
    25f2:	32 e0       	ldi	r19, 0x02	; 2
    25f4:	01 90       	ld	r0, Z+
    25f6:	0d 92       	st	X+, r0
    25f8:	21 50       	subi	r18, 0x01	; 1
    25fa:	30 40       	sbci	r19, 0x00	; 0
    25fc:	d9 f7       	brne	.-10     	; 0x25f4 <f_read+0x208>
    25fe:	96 cf       	rjmp	.-212    	; 0x252c <f_read+0x140>
    2600:	f7 01       	movw	r30, r14
    2602:	40 8e       	std	Z+24, r4	; 0x18
    2604:	51 8e       	std	Z+25, r5	; 0x19
    2606:	62 8e       	std	Z+26, r6	; 0x1a
    2608:	73 8e       	std	Z+27, r7	; 0x1b
    260a:	f7 01       	movw	r30, r14
    260c:	80 89       	ldd	r24, Z+16	; 0x10
    260e:	91 89       	ldd	r25, Z+17	; 0x11
    2610:	91 70       	andi	r25, 0x01	; 1
    2612:	20 e0       	ldi	r18, 0x00	; 0
    2614:	32 e0       	ldi	r19, 0x02	; 2
    2616:	28 1b       	sub	r18, r24
    2618:	39 0b       	sbc	r19, r25
    261a:	65 01       	movw	r12, r10
    261c:	2a 15       	cp	r18, r10
    261e:	3b 05       	cpc	r19, r11
    2620:	08 f4       	brcc	.+2      	; 0x2624 <f_read+0x238>
    2622:	69 01       	movw	r12, r18
    2624:	f7 01       	movw	r30, r14
    2626:	40 8d       	ldd	r20, Z+24	; 0x18
    2628:	51 8d       	ldd	r21, Z+25	; 0x19
    262a:	62 8d       	ldd	r22, Z+26	; 0x1a
    262c:	73 8d       	ldd	r23, Z+27	; 0x1b
    262e:	89 81       	ldd	r24, Y+1	; 0x01
    2630:	9a 81       	ldd	r25, Y+2	; 0x02
    2632:	0e 94 d4 04 	call	0x9a8	; 0x9a8 <move_window>
    2636:	81 11       	cpse	r24, r1
    2638:	b9 cf       	rjmp	.-142    	; 0x25ac <f_read+0x1c0>
    263a:	69 81       	ldd	r22, Y+1	; 0x01
    263c:	7a 81       	ldd	r23, Y+2	; 0x02
    263e:	6d 5c       	subi	r22, 0xCD	; 205
    2640:	7f 4f       	sbci	r23, 0xFF	; 255
    2642:	f7 01       	movw	r30, r14
    2644:	80 89       	ldd	r24, Z+16	; 0x10
    2646:	91 89       	ldd	r25, Z+17	; 0x11
    2648:	91 70       	andi	r25, 0x01	; 1
    264a:	68 0f       	add	r22, r24
    264c:	79 1f       	adc	r23, r25
    264e:	a6 01       	movw	r20, r12
    2650:	c4 01       	movw	r24, r8
    2652:	0e 94 7e 2c 	call	0x58fc	; 0x58fc <memcpy>
    2656:	6d cf       	rjmp	.-294    	; 0x2532 <f_read+0x146>
    2658:	80 e0       	ldi	r24, 0x00	; 0
    265a:	01 c0       	rjmp	.+2      	; 0x265e <f_read+0x272>
    265c:	87 e0       	ldi	r24, 0x07	; 7
    265e:	0f 90       	pop	r0
    2660:	0f 90       	pop	r0
    2662:	0f 90       	pop	r0
    2664:	0f 90       	pop	r0
    2666:	df 91       	pop	r29
    2668:	cf 91       	pop	r28
    266a:	1f 91       	pop	r17
    266c:	0f 91       	pop	r16
    266e:	ff 90       	pop	r15
    2670:	ef 90       	pop	r14
    2672:	df 90       	pop	r13
    2674:	cf 90       	pop	r12
    2676:	bf 90       	pop	r11
    2678:	af 90       	pop	r10
    267a:	9f 90       	pop	r9
    267c:	8f 90       	pop	r8
    267e:	7f 90       	pop	r7
    2680:	6f 90       	pop	r6
    2682:	5f 90       	pop	r5
    2684:	4f 90       	pop	r4
    2686:	3f 90       	pop	r3
    2688:	2f 90       	pop	r2
    268a:	08 95       	ret

0000268c <f_write>:
    268c:	2f 92       	push	r2
    268e:	3f 92       	push	r3
    2690:	4f 92       	push	r4
    2692:	5f 92       	push	r5
    2694:	6f 92       	push	r6
    2696:	7f 92       	push	r7
    2698:	8f 92       	push	r8
    269a:	9f 92       	push	r9
    269c:	af 92       	push	r10
    269e:	bf 92       	push	r11
    26a0:	cf 92       	push	r12
    26a2:	df 92       	push	r13
    26a4:	ef 92       	push	r14
    26a6:	ff 92       	push	r15
    26a8:	0f 93       	push	r16
    26aa:	1f 93       	push	r17
    26ac:	cf 93       	push	r28
    26ae:	df 93       	push	r29
    26b0:	00 d0       	rcall	.+0      	; 0x26b2 <f_write+0x26>
    26b2:	00 d0       	rcall	.+0      	; 0x26b4 <f_write+0x28>
    26b4:	cd b7       	in	r28, 0x3d	; 61
    26b6:	de b7       	in	r29, 0x3e	; 62
    26b8:	7c 01       	movw	r14, r24
    26ba:	4b 01       	movw	r8, r22
    26bc:	5a 01       	movw	r10, r20
    26be:	3c 83       	std	Y+4, r19	; 0x04
    26c0:	2b 83       	std	Y+3, r18	; 0x03
    26c2:	f9 01       	movw	r30, r18
    26c4:	11 82       	std	Z+1, r1	; 0x01
    26c6:	10 82       	st	Z, r1
    26c8:	be 01       	movw	r22, r28
    26ca:	6f 5f       	subi	r22, 0xFF	; 255
    26cc:	7f 4f       	sbci	r23, 0xFF	; 255
    26ce:	0e 94 9b 03 	call	0x736	; 0x736 <validate>
    26d2:	81 11       	cpse	r24, r1
    26d4:	72 c1       	rjmp	.+740    	; 0x29ba <f_write+0x32e>
    26d6:	f7 01       	movw	r30, r14
    26d8:	87 85       	ldd	r24, Z+15	; 0x0f
    26da:	81 11       	cpse	r24, r1
    26dc:	6e c1       	rjmp	.+732    	; 0x29ba <f_write+0x32e>
    26de:	86 85       	ldd	r24, Z+14	; 0x0e
    26e0:	81 ff       	sbrs	r24, 1
    26e2:	6a c1       	rjmp	.+724    	; 0x29b8 <f_write+0x32c>
    26e4:	80 89       	ldd	r24, Z+16	; 0x10
    26e6:	91 89       	ldd	r25, Z+17	; 0x11
    26e8:	a2 89       	ldd	r26, Z+18	; 0x12
    26ea:	b3 89       	ldd	r27, Z+19	; 0x13
    26ec:	ac 01       	movw	r20, r24
    26ee:	bd 01       	movw	r22, r26
    26f0:	4a 0d       	add	r20, r10
    26f2:	5b 1d       	adc	r21, r11
    26f4:	61 1d       	adc	r22, r1
    26f6:	71 1d       	adc	r23, r1
    26f8:	48 17       	cp	r20, r24
    26fa:	59 07       	cpc	r21, r25
    26fc:	6a 07       	cpc	r22, r26
    26fe:	7b 07       	cpc	r23, r27
    2700:	08 f0       	brcs	.+2      	; 0x2704 <f_write+0x78>
    2702:	be c0       	rjmp	.+380    	; 0x2880 <f_write+0x1f4>
    2704:	5c 01       	movw	r10, r24
    2706:	a0 94       	com	r10
    2708:	b0 94       	com	r11
    270a:	ba c0       	rjmp	.+372    	; 0x2880 <f_write+0x1f4>
    270c:	f7 01       	movw	r30, r14
    270e:	80 89       	ldd	r24, Z+16	; 0x10
    2710:	91 89       	ldd	r25, Z+17	; 0x11
    2712:	a2 89       	ldd	r26, Z+18	; 0x12
    2714:	b3 89       	ldd	r27, Z+19	; 0x13
    2716:	ac 01       	movw	r20, r24
    2718:	bd 01       	movw	r22, r26
    271a:	51 70       	andi	r21, 0x01	; 1
    271c:	66 27       	eor	r22, r22
    271e:	77 27       	eor	r23, r23
    2720:	45 2b       	or	r20, r21
    2722:	46 2b       	or	r20, r22
    2724:	47 2b       	or	r20, r23
    2726:	09 f0       	breq	.+2      	; 0x272a <f_write+0x9e>
    2728:	1c c1       	rjmp	.+568    	; 0x2962 <f_write+0x2d6>
    272a:	e9 81       	ldd	r30, Y+1	; 0x01
    272c:	fa 81       	ldd	r31, Y+2	; 0x02
    272e:	01 85       	ldd	r16, Z+9	; 0x09
    2730:	12 85       	ldd	r17, Z+10	; 0x0a
    2732:	01 50       	subi	r16, 0x01	; 1
    2734:	11 09       	sbc	r17, r1
    2736:	ac 01       	movw	r20, r24
    2738:	bd 01       	movw	r22, r26
    273a:	e9 e0       	ldi	r30, 0x09	; 9
    273c:	76 95       	lsr	r23
    273e:	67 95       	ror	r22
    2740:	57 95       	ror	r21
    2742:	47 95       	ror	r20
    2744:	ea 95       	dec	r30
    2746:	d1 f7       	brne	.-12     	; 0x273c <f_write+0xb0>
    2748:	04 23       	and	r16, r20
    274a:	15 23       	and	r17, r21
    274c:	01 15       	cp	r16, r1
    274e:	11 05       	cpc	r17, r1
    2750:	09 f4       	brne	.+2      	; 0x2754 <f_write+0xc8>
    2752:	9b c0       	rjmp	.+310    	; 0x288a <f_write+0x1fe>
    2754:	89 81       	ldd	r24, Y+1	; 0x01
    2756:	9a 81       	ldd	r25, Y+2	; 0x02
    2758:	fc 01       	movw	r30, r24
    275a:	47 a4       	ldd	r4, Z+47	; 0x2f
    275c:	50 a8       	ldd	r5, Z+48	; 0x30
    275e:	61 a8       	ldd	r6, Z+49	; 0x31
    2760:	72 a8       	ldd	r7, Z+50	; 0x32
    2762:	f7 01       	movw	r30, r14
    2764:	40 8d       	ldd	r20, Z+24	; 0x18
    2766:	51 8d       	ldd	r21, Z+25	; 0x19
    2768:	62 8d       	ldd	r22, Z+26	; 0x1a
    276a:	73 8d       	ldd	r23, Z+27	; 0x1b
    276c:	44 16       	cp	r4, r20
    276e:	55 06       	cpc	r5, r21
    2770:	66 06       	cpc	r6, r22
    2772:	77 06       	cpc	r7, r23
    2774:	09 f4       	brne	.+2      	; 0x2778 <f_write+0xec>
    2776:	d1 c0       	rjmp	.+418    	; 0x291a <f_write+0x28e>
    2778:	69 80       	ldd	r6, Y+1	; 0x01
    277a:	7a 80       	ldd	r7, Y+2	; 0x02
    277c:	f7 01       	movw	r30, r14
    277e:	44 89       	ldd	r20, Z+20	; 0x14
    2780:	55 89       	ldd	r21, Z+21	; 0x15
    2782:	66 89       	ldd	r22, Z+22	; 0x16
    2784:	77 89       	ldd	r23, Z+23	; 0x17
    2786:	c3 01       	movw	r24, r6
    2788:	0e 94 48 03 	call	0x690	; 0x690 <clst2sect>
    278c:	61 15       	cp	r22, r1
    278e:	71 05       	cpc	r23, r1
    2790:	81 05       	cpc	r24, r1
    2792:	91 05       	cpc	r25, r1
    2794:	09 f4       	brne	.+2      	; 0x2798 <f_write+0x10c>
    2796:	a2 c0       	rjmp	.+324    	; 0x28dc <f_write+0x250>
    2798:	1b 01       	movw	r2, r22
    279a:	2c 01       	movw	r4, r24
    279c:	20 0e       	add	r2, r16
    279e:	31 1e       	adc	r3, r17
    27a0:	41 1c       	adc	r4, r1
    27a2:	51 1c       	adc	r5, r1
    27a4:	65 01       	movw	r12, r10
    27a6:	cd 2c       	mov	r12, r13
    27a8:	dd 24       	eor	r13, r13
    27aa:	c6 94       	lsr	r12
    27ac:	c1 14       	cp	r12, r1
    27ae:	d1 04       	cpc	r13, r1
    27b0:	09 f4       	brne	.+2      	; 0x27b4 <f_write+0x128>
    27b2:	b9 c0       	rjmp	.+370    	; 0x2926 <f_write+0x29a>
    27b4:	f3 01       	movw	r30, r6
    27b6:	81 85       	ldd	r24, Z+9	; 0x09
    27b8:	92 85       	ldd	r25, Z+10	; 0x0a
    27ba:	98 01       	movw	r18, r16
    27bc:	2c 0d       	add	r18, r12
    27be:	3d 1d       	adc	r19, r13
    27c0:	82 17       	cp	r24, r18
    27c2:	93 07       	cpc	r25, r19
    27c4:	18 f4       	brcc	.+6      	; 0x27cc <f_write+0x140>
    27c6:	6c 01       	movw	r12, r24
    27c8:	c0 1a       	sub	r12, r16
    27ca:	d1 0a       	sbc	r13, r17
    27cc:	86 01       	movw	r16, r12
    27ce:	a2 01       	movw	r20, r4
    27d0:	91 01       	movw	r18, r2
    27d2:	b4 01       	movw	r22, r8
    27d4:	f3 01       	movw	r30, r6
    27d6:	81 81       	ldd	r24, Z+1	; 0x01
    27d8:	0e 94 ff 02 	call	0x5fe	; 0x5fe <disk_write>
    27dc:	81 11       	cpse	r24, r1
    27de:	86 c0       	rjmp	.+268    	; 0x28ec <f_write+0x260>
    27e0:	89 81       	ldd	r24, Y+1	; 0x01
    27e2:	9a 81       	ldd	r25, Y+2	; 0x02
    27e4:	fc 01       	movw	r30, r24
    27e6:	47 a5       	ldd	r20, Z+47	; 0x2f
    27e8:	50 a9       	ldd	r21, Z+48	; 0x30
    27ea:	61 a9       	ldd	r22, Z+49	; 0x31
    27ec:	72 a9       	ldd	r23, Z+50	; 0x32
    27ee:	42 19       	sub	r20, r2
    27f0:	53 09       	sbc	r21, r3
    27f2:	64 09       	sbc	r22, r4
    27f4:	75 09       	sbc	r23, r5
    27f6:	86 01       	movw	r16, r12
    27f8:	20 e0       	ldi	r18, 0x00	; 0
    27fa:	30 e0       	ldi	r19, 0x00	; 0
    27fc:	40 17       	cp	r20, r16
    27fe:	51 07       	cpc	r21, r17
    2800:	62 07       	cpc	r22, r18
    2802:	73 07       	cpc	r23, r19
    2804:	88 f4       	brcc	.+34     	; 0x2828 <f_write+0x19c>
    2806:	dc 01       	movw	r26, r24
    2808:	d3 96       	adiw	r26, 0x33	; 51
    280a:	fa 01       	movw	r30, r20
    280c:	fe 2f       	mov	r31, r30
    280e:	ee 27       	eor	r30, r30
    2810:	ff 0f       	add	r31, r31
    2812:	e8 0d       	add	r30, r8
    2814:	f9 1d       	adc	r31, r9
    2816:	20 e0       	ldi	r18, 0x00	; 0
    2818:	32 e0       	ldi	r19, 0x02	; 2
    281a:	01 90       	ld	r0, Z+
    281c:	0d 92       	st	X+, r0
    281e:	21 50       	subi	r18, 0x01	; 1
    2820:	30 40       	sbci	r19, 0x00	; 0
    2822:	d9 f7       	brne	.-10     	; 0x281a <f_write+0x18e>
    2824:	fc 01       	movw	r30, r24
    2826:	13 82       	std	Z+3, r1	; 0x03
    2828:	dc 2c       	mov	r13, r12
    282a:	cc 24       	eor	r12, r12
    282c:	dd 0c       	add	r13, r13
    282e:	ac 18       	sub	r10, r12
    2830:	bd 08       	sbc	r11, r13
    2832:	eb 81       	ldd	r30, Y+3	; 0x03
    2834:	fc 81       	ldd	r31, Y+4	; 0x04
    2836:	80 81       	ld	r24, Z
    2838:	91 81       	ldd	r25, Z+1	; 0x01
    283a:	8c 0d       	add	r24, r12
    283c:	9d 1d       	adc	r25, r13
    283e:	91 83       	std	Z+1, r25	; 0x01
    2840:	80 83       	st	Z, r24
    2842:	8c 0c       	add	r8, r12
    2844:	9d 1c       	adc	r9, r13
    2846:	f7 01       	movw	r30, r14
    2848:	80 89       	ldd	r24, Z+16	; 0x10
    284a:	91 89       	ldd	r25, Z+17	; 0x11
    284c:	a2 89       	ldd	r26, Z+18	; 0x12
    284e:	b3 89       	ldd	r27, Z+19	; 0x13
    2850:	8c 0d       	add	r24, r12
    2852:	9d 1d       	adc	r25, r13
    2854:	a1 1d       	adc	r26, r1
    2856:	b1 1d       	adc	r27, r1
    2858:	80 8b       	std	Z+16, r24	; 0x10
    285a:	91 8b       	std	Z+17, r25	; 0x11
    285c:	a2 8b       	std	Z+18, r26	; 0x12
    285e:	b3 8b       	std	Z+19, r27	; 0x13
    2860:	42 85       	ldd	r20, Z+10	; 0x0a
    2862:	53 85       	ldd	r21, Z+11	; 0x0b
    2864:	64 85       	ldd	r22, Z+12	; 0x0c
    2866:	75 85       	ldd	r23, Z+13	; 0x0d
    2868:	48 17       	cp	r20, r24
    286a:	59 07       	cpc	r21, r25
    286c:	6a 07       	cpc	r22, r26
    286e:	7b 07       	cpc	r23, r27
    2870:	10 f4       	brcc	.+4      	; 0x2876 <f_write+0x1ea>
    2872:	ac 01       	movw	r20, r24
    2874:	bd 01       	movw	r22, r26
    2876:	f7 01       	movw	r30, r14
    2878:	42 87       	std	Z+10, r20	; 0x0a
    287a:	53 87       	std	Z+11, r21	; 0x0b
    287c:	64 87       	std	Z+12, r22	; 0x0c
    287e:	75 87       	std	Z+13, r23	; 0x0d
    2880:	a1 14       	cp	r10, r1
    2882:	b1 04       	cpc	r11, r1
    2884:	09 f0       	breq	.+2      	; 0x2888 <f_write+0x1fc>
    2886:	42 cf       	rjmp	.-380    	; 0x270c <f_write+0x80>
    2888:	1e c0       	rjmp	.+60     	; 0x28c6 <f_write+0x23a>
    288a:	f7 01       	movw	r30, r14
    288c:	89 2b       	or	r24, r25
    288e:	8a 2b       	or	r24, r26
    2890:	8b 2b       	or	r24, r27
    2892:	69 f4       	brne	.+26     	; 0x28ae <f_write+0x222>
    2894:	66 81       	ldd	r22, Z+6	; 0x06
    2896:	77 81       	ldd	r23, Z+7	; 0x07
    2898:	80 85       	ldd	r24, Z+8	; 0x08
    289a:	91 85       	ldd	r25, Z+9	; 0x09
    289c:	61 15       	cp	r22, r1
    289e:	71 05       	cpc	r23, r1
    28a0:	81 05       	cpc	r24, r1
    28a2:	91 05       	cpc	r25, r1
    28a4:	b1 f4       	brne	.+44     	; 0x28d2 <f_write+0x246>
    28a6:	40 e0       	ldi	r20, 0x00	; 0
    28a8:	50 e0       	ldi	r21, 0x00	; 0
    28aa:	ba 01       	movw	r22, r20
    28ac:	04 c0       	rjmp	.+8      	; 0x28b6 <f_write+0x22a>
    28ae:	44 89       	ldd	r20, Z+20	; 0x14
    28b0:	55 89       	ldd	r21, Z+21	; 0x15
    28b2:	66 89       	ldd	r22, Z+22	; 0x16
    28b4:	77 89       	ldd	r23, Z+23	; 0x17
    28b6:	c7 01       	movw	r24, r14
    28b8:	0e 94 03 08 	call	0x1006	; 0x1006 <create_chain>
    28bc:	61 15       	cp	r22, r1
    28be:	71 05       	cpc	r23, r1
    28c0:	81 05       	cpc	r24, r1
    28c2:	91 05       	cpc	r25, r1
    28c4:	31 f4       	brne	.+12     	; 0x28d2 <f_write+0x246>
    28c6:	f7 01       	movw	r30, r14
    28c8:	86 85       	ldd	r24, Z+14	; 0x0e
    28ca:	80 64       	ori	r24, 0x40	; 64
    28cc:	86 87       	std	Z+14, r24	; 0x0e
    28ce:	80 e0       	ldi	r24, 0x00	; 0
    28d0:	74 c0       	rjmp	.+232    	; 0x29ba <f_write+0x32e>
    28d2:	61 30       	cpi	r22, 0x01	; 1
    28d4:	71 05       	cpc	r23, r1
    28d6:	81 05       	cpc	r24, r1
    28d8:	91 05       	cpc	r25, r1
    28da:	11 f4       	brne	.+4      	; 0x28e0 <f_write+0x254>
    28dc:	82 e0       	ldi	r24, 0x02	; 2
    28de:	07 c0       	rjmp	.+14     	; 0x28ee <f_write+0x262>
    28e0:	6f 3f       	cpi	r22, 0xFF	; 255
    28e2:	ff ef       	ldi	r31, 0xFF	; 255
    28e4:	7f 07       	cpc	r23, r31
    28e6:	8f 07       	cpc	r24, r31
    28e8:	9f 07       	cpc	r25, r31
    28ea:	21 f4       	brne	.+8      	; 0x28f4 <f_write+0x268>
    28ec:	81 e0       	ldi	r24, 0x01	; 1
    28ee:	f7 01       	movw	r30, r14
    28f0:	87 87       	std	Z+15, r24	; 0x0f
    28f2:	63 c0       	rjmp	.+198    	; 0x29ba <f_write+0x32e>
    28f4:	f7 01       	movw	r30, r14
    28f6:	64 8b       	std	Z+20, r22	; 0x14
    28f8:	75 8b       	std	Z+21, r23	; 0x15
    28fa:	86 8b       	std	Z+22, r24	; 0x16
    28fc:	97 8b       	std	Z+23, r25	; 0x17
    28fe:	46 80       	ldd	r4, Z+6	; 0x06
    2900:	57 80       	ldd	r5, Z+7	; 0x07
    2902:	60 84       	ldd	r6, Z+8	; 0x08
    2904:	71 84       	ldd	r7, Z+9	; 0x09
    2906:	45 28       	or	r4, r5
    2908:	46 28       	or	r4, r6
    290a:	47 28       	or	r4, r7
    290c:	09 f0       	breq	.+2      	; 0x2910 <f_write+0x284>
    290e:	22 cf       	rjmp	.-444    	; 0x2754 <f_write+0xc8>
    2910:	66 83       	std	Z+6, r22	; 0x06
    2912:	77 83       	std	Z+7, r23	; 0x07
    2914:	80 87       	std	Z+8, r24	; 0x08
    2916:	91 87       	std	Z+9, r25	; 0x09
    2918:	1d cf       	rjmp	.-454    	; 0x2754 <f_write+0xc8>
    291a:	0e 94 e6 03 	call	0x7cc	; 0x7cc <sync_window>
    291e:	88 23       	and	r24, r24
    2920:	09 f4       	brne	.+2      	; 0x2924 <f_write+0x298>
    2922:	2a cf       	rjmp	.-428    	; 0x2778 <f_write+0xec>
    2924:	e3 cf       	rjmp	.-58     	; 0x28ec <f_write+0x260>
    2926:	f7 01       	movw	r30, r14
    2928:	40 89       	ldd	r20, Z+16	; 0x10
    292a:	51 89       	ldd	r21, Z+17	; 0x11
    292c:	62 89       	ldd	r22, Z+18	; 0x12
    292e:	73 89       	ldd	r23, Z+19	; 0x13
    2930:	82 85       	ldd	r24, Z+10	; 0x0a
    2932:	93 85       	ldd	r25, Z+11	; 0x0b
    2934:	a4 85       	ldd	r26, Z+12	; 0x0c
    2936:	b5 85       	ldd	r27, Z+13	; 0x0d
    2938:	48 17       	cp	r20, r24
    293a:	59 07       	cpc	r21, r25
    293c:	6a 07       	cpc	r22, r26
    293e:	7b 07       	cpc	r23, r27
    2940:	58 f0       	brcs	.+22     	; 0x2958 <f_write+0x2cc>
    2942:	c3 01       	movw	r24, r6
    2944:	0e 94 e6 03 	call	0x7cc	; 0x7cc <sync_window>
    2948:	81 11       	cpse	r24, r1
    294a:	d0 cf       	rjmp	.-96     	; 0x28ec <f_write+0x260>
    294c:	e9 81       	ldd	r30, Y+1	; 0x01
    294e:	fa 81       	ldd	r31, Y+2	; 0x02
    2950:	27 a6       	std	Z+47, r2	; 0x2f
    2952:	30 aa       	std	Z+48, r3	; 0x30
    2954:	41 aa       	std	Z+49, r4	; 0x31
    2956:	52 aa       	std	Z+50, r5	; 0x32
    2958:	f7 01       	movw	r30, r14
    295a:	20 8e       	std	Z+24, r2	; 0x18
    295c:	31 8e       	std	Z+25, r3	; 0x19
    295e:	42 8e       	std	Z+26, r4	; 0x1a
    2960:	53 8e       	std	Z+27, r5	; 0x1b
    2962:	f7 01       	movw	r30, r14
    2964:	80 89       	ldd	r24, Z+16	; 0x10
    2966:	91 89       	ldd	r25, Z+17	; 0x11
    2968:	91 70       	andi	r25, 0x01	; 1
    296a:	20 e0       	ldi	r18, 0x00	; 0
    296c:	32 e0       	ldi	r19, 0x02	; 2
    296e:	28 1b       	sub	r18, r24
    2970:	39 0b       	sbc	r19, r25
    2972:	65 01       	movw	r12, r10
    2974:	2a 15       	cp	r18, r10
    2976:	3b 05       	cpc	r19, r11
    2978:	08 f4       	brcc	.+2      	; 0x297c <f_write+0x2f0>
    297a:	69 01       	movw	r12, r18
    297c:	f7 01       	movw	r30, r14
    297e:	40 8d       	ldd	r20, Z+24	; 0x18
    2980:	51 8d       	ldd	r21, Z+25	; 0x19
    2982:	62 8d       	ldd	r22, Z+26	; 0x1a
    2984:	73 8d       	ldd	r23, Z+27	; 0x1b
    2986:	89 81       	ldd	r24, Y+1	; 0x01
    2988:	9a 81       	ldd	r25, Y+2	; 0x02
    298a:	0e 94 d4 04 	call	0x9a8	; 0x9a8 <move_window>
    298e:	81 11       	cpse	r24, r1
    2990:	ad cf       	rjmp	.-166    	; 0x28ec <f_write+0x260>
    2992:	29 81       	ldd	r18, Y+1	; 0x01
    2994:	3a 81       	ldd	r19, Y+2	; 0x02
    2996:	2d 5c       	subi	r18, 0xCD	; 205
    2998:	3f 4f       	sbci	r19, 0xFF	; 255
    299a:	f7 01       	movw	r30, r14
    299c:	80 89       	ldd	r24, Z+16	; 0x10
    299e:	91 89       	ldd	r25, Z+17	; 0x11
    29a0:	91 70       	andi	r25, 0x01	; 1
    29a2:	a6 01       	movw	r20, r12
    29a4:	b4 01       	movw	r22, r8
    29a6:	82 0f       	add	r24, r18
    29a8:	93 1f       	adc	r25, r19
    29aa:	0e 94 7e 2c 	call	0x58fc	; 0x58fc <memcpy>
    29ae:	e9 81       	ldd	r30, Y+1	; 0x01
    29b0:	fa 81       	ldd	r31, Y+2	; 0x02
    29b2:	21 e0       	ldi	r18, 0x01	; 1
    29b4:	23 83       	std	Z+3, r18	; 0x03
    29b6:	3b cf       	rjmp	.-394    	; 0x282e <f_write+0x1a2>
    29b8:	87 e0       	ldi	r24, 0x07	; 7
    29ba:	0f 90       	pop	r0
    29bc:	0f 90       	pop	r0
    29be:	0f 90       	pop	r0
    29c0:	0f 90       	pop	r0
    29c2:	df 91       	pop	r29
    29c4:	cf 91       	pop	r28
    29c6:	1f 91       	pop	r17
    29c8:	0f 91       	pop	r16
    29ca:	ff 90       	pop	r15
    29cc:	ef 90       	pop	r14
    29ce:	df 90       	pop	r13
    29d0:	cf 90       	pop	r12
    29d2:	bf 90       	pop	r11
    29d4:	af 90       	pop	r10
    29d6:	9f 90       	pop	r9
    29d8:	8f 90       	pop	r8
    29da:	7f 90       	pop	r7
    29dc:	6f 90       	pop	r6
    29de:	5f 90       	pop	r5
    29e0:	4f 90       	pop	r4
    29e2:	3f 90       	pop	r3
    29e4:	2f 90       	pop	r2
    29e6:	08 95       	ret

000029e8 <f_sync>:
    29e8:	8f 92       	push	r8
    29ea:	9f 92       	push	r9
    29ec:	af 92       	push	r10
    29ee:	bf 92       	push	r11
    29f0:	ef 92       	push	r14
    29f2:	ff 92       	push	r15
    29f4:	0f 93       	push	r16
    29f6:	1f 93       	push	r17
    29f8:	cf 93       	push	r28
    29fa:	df 93       	push	r29
    29fc:	00 d0       	rcall	.+0      	; 0x29fe <f_sync+0x16>
    29fe:	cd b7       	in	r28, 0x3d	; 61
    2a00:	de b7       	in	r29, 0x3e	; 62
    2a02:	8c 01       	movw	r16, r24
    2a04:	be 01       	movw	r22, r28
    2a06:	6f 5f       	subi	r22, 0xFF	; 255
    2a08:	7f 4f       	sbci	r23, 0xFF	; 255
    2a0a:	0e 94 9b 03 	call	0x736	; 0x736 <validate>
    2a0e:	81 11       	cpse	r24, r1
    2a10:	41 c0       	rjmp	.+130    	; 0x2a94 <f_sync+0xac>
    2a12:	f8 01       	movw	r30, r16
    2a14:	96 85       	ldd	r25, Z+14	; 0x0e
    2a16:	96 ff       	sbrs	r25, 6
    2a18:	3d c0       	rjmp	.+122    	; 0x2a94 <f_sync+0xac>
    2a1a:	0e 94 64 1f 	call	0x3ec8	; 0x3ec8 <get_fattime>
    2a1e:	4b 01       	movw	r8, r22
    2a20:	5c 01       	movw	r10, r24
    2a22:	f8 01       	movw	r30, r16
    2a24:	44 8d       	ldd	r20, Z+28	; 0x1c
    2a26:	55 8d       	ldd	r21, Z+29	; 0x1d
    2a28:	66 8d       	ldd	r22, Z+30	; 0x1e
    2a2a:	77 8d       	ldd	r23, Z+31	; 0x1f
    2a2c:	89 81       	ldd	r24, Y+1	; 0x01
    2a2e:	9a 81       	ldd	r25, Y+2	; 0x02
    2a30:	0e 94 d4 04 	call	0x9a8	; 0x9a8 <move_window>
    2a34:	81 11       	cpse	r24, r1
    2a36:	2e c0       	rjmp	.+92     	; 0x2a94 <f_sync+0xac>
    2a38:	f8 01       	movw	r30, r16
    2a3a:	e0 a0       	ldd	r14, Z+32	; 0x20
    2a3c:	f1 a0       	ldd	r15, Z+33	; 0x21
    2a3e:	f7 01       	movw	r30, r14
    2a40:	83 85       	ldd	r24, Z+11	; 0x0b
    2a42:	80 62       	ori	r24, 0x20	; 32
    2a44:	83 87       	std	Z+11, r24	; 0x0b
    2a46:	f8 01       	movw	r30, r16
    2a48:	26 81       	ldd	r18, Z+6	; 0x06
    2a4a:	37 81       	ldd	r19, Z+7	; 0x07
    2a4c:	40 85       	ldd	r20, Z+8	; 0x08
    2a4e:	51 85       	ldd	r21, Z+9	; 0x09
    2a50:	b7 01       	movw	r22, r14
    2a52:	80 81       	ld	r24, Z
    2a54:	91 81       	ldd	r25, Z+1	; 0x01
    2a56:	0e 94 d9 03 	call	0x7b2	; 0x7b2 <st_clust.isra.1>
    2a5a:	f8 01       	movw	r30, r16
    2a5c:	42 85       	ldd	r20, Z+10	; 0x0a
    2a5e:	53 85       	ldd	r21, Z+11	; 0x0b
    2a60:	64 85       	ldd	r22, Z+12	; 0x0c
    2a62:	75 85       	ldd	r23, Z+13	; 0x0d
    2a64:	c7 01       	movw	r24, r14
    2a66:	4c 96       	adiw	r24, 0x1c	; 28
    2a68:	0e 94 30 03 	call	0x660	; 0x660 <st_dword>
    2a6c:	b5 01       	movw	r22, r10
    2a6e:	a4 01       	movw	r20, r8
    2a70:	c7 01       	movw	r24, r14
    2a72:	46 96       	adiw	r24, 0x16	; 22
    2a74:	0e 94 30 03 	call	0x660	; 0x660 <st_dword>
    2a78:	f7 01       	movw	r30, r14
    2a7a:	12 8a       	std	Z+18, r1	; 0x12
    2a7c:	13 8a       	std	Z+19, r1	; 0x13
    2a7e:	89 81       	ldd	r24, Y+1	; 0x01
    2a80:	9a 81       	ldd	r25, Y+2	; 0x02
    2a82:	21 e0       	ldi	r18, 0x01	; 1
    2a84:	fc 01       	movw	r30, r24
    2a86:	23 83       	std	Z+3, r18	; 0x03
    2a88:	0e 94 38 04 	call	0x870	; 0x870 <sync_fs>
    2a8c:	f8 01       	movw	r30, r16
    2a8e:	96 85       	ldd	r25, Z+14	; 0x0e
    2a90:	9f 7b       	andi	r25, 0xBF	; 191
    2a92:	96 87       	std	Z+14, r25	; 0x0e
    2a94:	0f 90       	pop	r0
    2a96:	0f 90       	pop	r0
    2a98:	df 91       	pop	r29
    2a9a:	cf 91       	pop	r28
    2a9c:	1f 91       	pop	r17
    2a9e:	0f 91       	pop	r16
    2aa0:	ff 90       	pop	r15
    2aa2:	ef 90       	pop	r14
    2aa4:	bf 90       	pop	r11
    2aa6:	af 90       	pop	r10
    2aa8:	9f 90       	pop	r9
    2aaa:	8f 90       	pop	r8
    2aac:	08 95       	ret

00002aae <f_close>:
    2aae:	0f 93       	push	r16
    2ab0:	1f 93       	push	r17
    2ab2:	cf 93       	push	r28
    2ab4:	df 93       	push	r29
    2ab6:	00 d0       	rcall	.+0      	; 0x2ab8 <f_close+0xa>
    2ab8:	cd b7       	in	r28, 0x3d	; 61
    2aba:	de b7       	in	r29, 0x3e	; 62
    2abc:	8c 01       	movw	r16, r24
    2abe:	94 df       	rcall	.-216    	; 0x29e8 <f_sync>
    2ac0:	81 11       	cpse	r24, r1
    2ac2:	0b c0       	rjmp	.+22     	; 0x2ada <f_close+0x2c>
    2ac4:	be 01       	movw	r22, r28
    2ac6:	6f 5f       	subi	r22, 0xFF	; 255
    2ac8:	7f 4f       	sbci	r23, 0xFF	; 255
    2aca:	c8 01       	movw	r24, r16
    2acc:	0e 94 9b 03 	call	0x736	; 0x736 <validate>
    2ad0:	81 11       	cpse	r24, r1
    2ad2:	03 c0       	rjmp	.+6      	; 0x2ada <f_close+0x2c>
    2ad4:	f8 01       	movw	r30, r16
    2ad6:	11 82       	std	Z+1, r1	; 0x01
    2ad8:	10 82       	st	Z, r1
    2ada:	0f 90       	pop	r0
    2adc:	0f 90       	pop	r0
    2ade:	df 91       	pop	r29
    2ae0:	cf 91       	pop	r28
    2ae2:	1f 91       	pop	r17
    2ae4:	0f 91       	pop	r16
    2ae6:	08 95       	ret

00002ae8 <f_unlink>:
    2ae8:	bf 92       	push	r11
    2aea:	cf 92       	push	r12
    2aec:	df 92       	push	r13
    2aee:	ef 92       	push	r14
    2af0:	ff 92       	push	r15
    2af2:	0f 93       	push	r16
    2af4:	1f 93       	push	r17
    2af6:	cf 93       	push	r28
    2af8:	df 93       	push	r29
    2afa:	cd b7       	in	r28, 0x3d	; 61
    2afc:	de b7       	in	r29, 0x3e	; 62
    2afe:	c4 55       	subi	r28, 0x54	; 84
    2b00:	d1 09       	sbc	r29, r1
    2b02:	0f b6       	in	r0, 0x3f	; 63
    2b04:	f8 94       	cli
    2b06:	de bf       	out	0x3e, r29	; 62
    2b08:	0f be       	out	0x3f, r0	; 63
    2b0a:	cd bf       	out	0x3d, r28	; 61
    2b0c:	65 96       	adiw	r28, 0x15	; 21
    2b0e:	9f af       	std	Y+63, r25	; 0x3f
    2b10:	8e af       	std	Y+62, r24	; 0x3e
    2b12:	65 97       	sbiw	r28, 0x15	; 21
    2b14:	42 e0       	ldi	r20, 0x02	; 2
    2b16:	be 01       	movw	r22, r28
    2b18:	6f 5a       	subi	r22, 0xAF	; 175
    2b1a:	7f 4f       	sbci	r23, 0xFF	; 255
    2b1c:	ce 01       	movw	r24, r28
    2b1e:	8d 5a       	subi	r24, 0xAD	; 173
    2b20:	9f 4f       	sbci	r25, 0xFF	; 255
    2b22:	0e 94 61 0d 	call	0x1ac2	; 0x1ac2 <mount_volume>
    2b26:	81 11       	cpse	r24, r1
    2b28:	80 c0       	rjmp	.+256    	; 0x2c2a <f_unlink+0x142>
    2b2a:	63 96       	adiw	r28, 0x13	; 19
    2b2c:	8e ad       	ldd	r24, Y+62	; 0x3e
    2b2e:	9f ad       	ldd	r25, Y+63	; 0x3f
    2b30:	63 97       	sbiw	r28, 0x13	; 19
    2b32:	9a a7       	std	Y+42, r25	; 0x2a
    2b34:	89 a7       	std	Y+41, r24	; 0x29
    2b36:	65 96       	adiw	r28, 0x15	; 21
    2b38:	6e ad       	ldd	r22, Y+62	; 0x3e
    2b3a:	7f ad       	ldd	r23, Y+63	; 0x3f
    2b3c:	65 97       	sbiw	r28, 0x15	; 21
    2b3e:	ce 01       	movw	r24, r28
    2b40:	89 96       	adiw	r24, 0x29	; 41
    2b42:	0e 94 02 0b 	call	0x1604	; 0x1604 <follow_path>
    2b46:	81 11       	cpse	r24, r1
    2b48:	70 c0       	rjmp	.+224    	; 0x2c2a <f_unlink+0x142>
    2b4a:	61 96       	adiw	r28, 0x11	; 17
    2b4c:	8f ad       	ldd	r24, Y+63	; 0x3f
    2b4e:	61 97       	sbiw	r28, 0x11	; 17
    2b50:	85 fd       	sbrc	r24, 5
    2b52:	06 c0       	rjmp	.+12     	; 0x2b60 <f_unlink+0x78>
    2b54:	87 fd       	sbrc	r24, 7
    2b56:	04 c0       	rjmp	.+8      	; 0x2b60 <f_unlink+0x78>
    2b58:	bd a4       	ldd	r11, Y+45	; 0x2d
    2b5a:	b0 fc       	sbrc	r11, 0
    2b5c:	37 c0       	rjmp	.+110    	; 0x2bcc <f_unlink+0xe4>
    2b5e:	02 c0       	rjmp	.+4      	; 0x2b64 <f_unlink+0x7c>
    2b60:	86 e0       	ldi	r24, 0x06	; 6
    2b62:	63 c0       	rjmp	.+198    	; 0x2c2a <f_unlink+0x142>
    2b64:	63 96       	adiw	r28, 0x13	; 19
    2b66:	0e ad       	ldd	r16, Y+62	; 0x3e
    2b68:	1f ad       	ldd	r17, Y+63	; 0x3f
    2b6a:	63 97       	sbiw	r28, 0x13	; 19
    2b6c:	25 96       	adiw	r28, 0x05	; 5
    2b6e:	6e ad       	ldd	r22, Y+62	; 0x3e
    2b70:	7f ad       	ldd	r23, Y+63	; 0x3f
    2b72:	25 97       	sbiw	r28, 0x05	; 5
    2b74:	f8 01       	movw	r30, r16
    2b76:	80 81       	ld	r24, Z
    2b78:	0e 94 c4 03 	call	0x788	; 0x788 <ld_clust.isra.0>
    2b7c:	6b 01       	movw	r12, r22
    2b7e:	7c 01       	movw	r14, r24
    2b80:	b4 fe       	sbrs	r11, 4
    2b82:	26 c0       	rjmp	.+76     	; 0x2bd0 <f_unlink+0xe8>
    2b84:	f8 01       	movw	r30, r16
    2b86:	83 89       	ldd	r24, Z+19	; 0x13
    2b88:	94 89       	ldd	r25, Z+20	; 0x14
    2b8a:	a5 89       	ldd	r26, Z+21	; 0x15
    2b8c:	b6 89       	ldd	r27, Z+22	; 0x16
    2b8e:	c8 16       	cp	r12, r24
    2b90:	d9 06       	cpc	r13, r25
    2b92:	ea 06       	cpc	r14, r26
    2b94:	fb 06       	cpc	r15, r27
    2b96:	d1 f0       	breq	.+52     	; 0x2bcc <f_unlink+0xe4>
    2b98:	1a 83       	std	Y+2, r17	; 0x02
    2b9a:	09 83       	std	Y+1, r16	; 0x01
    2b9c:	cf 82       	std	Y+7, r12	; 0x07
    2b9e:	d8 86       	std	Y+8, r13	; 0x08
    2ba0:	e9 86       	std	Y+9, r14	; 0x09
    2ba2:	fa 86       	std	Y+10, r15	; 0x0a
    2ba4:	40 e0       	ldi	r20, 0x00	; 0
    2ba6:	50 e0       	ldi	r21, 0x00	; 0
    2ba8:	ba 01       	movw	r22, r20
    2baa:	ce 01       	movw	r24, r28
    2bac:	01 96       	adiw	r24, 0x01	; 1
    2bae:	0e 94 30 07 	call	0xe60	; 0xe60 <dir_sdi>
    2bb2:	81 11       	cpse	r24, r1
    2bb4:	3a c0       	rjmp	.+116    	; 0x2c2a <f_unlink+0x142>
    2bb6:	60 e0       	ldi	r22, 0x00	; 0
    2bb8:	70 e0       	ldi	r23, 0x00	; 0
    2bba:	ce 01       	movw	r24, r28
    2bbc:	01 96       	adiw	r24, 0x01	; 1
    2bbe:	0e 94 c2 0c 	call	0x1984	; 0x1984 <dir_read>
    2bc2:	88 23       	and	r24, r24
    2bc4:	19 f0       	breq	.+6      	; 0x2bcc <f_unlink+0xe4>
    2bc6:	84 30       	cpi	r24, 0x04	; 4
    2bc8:	19 f0       	breq	.+6      	; 0x2bd0 <f_unlink+0xe8>
    2bca:	2f c0       	rjmp	.+94     	; 0x2c2a <f_unlink+0x142>
    2bcc:	87 e0       	ldi	r24, 0x07	; 7
    2bce:	2d c0       	rjmp	.+90     	; 0x2c2a <f_unlink+0x142>
    2bd0:	09 a5       	ldd	r16, Y+41	; 0x29
    2bd2:	1a a5       	ldd	r17, Y+42	; 0x2a
    2bd4:	23 96       	adiw	r28, 0x03	; 3
    2bd6:	4c ad       	ldd	r20, Y+60	; 0x3c
    2bd8:	5d ad       	ldd	r21, Y+61	; 0x3d
    2bda:	6e ad       	ldd	r22, Y+62	; 0x3e
    2bdc:	7f ad       	ldd	r23, Y+63	; 0x3f
    2bde:	23 97       	sbiw	r28, 0x03	; 3
    2be0:	c8 01       	movw	r24, r16
    2be2:	0e 94 d4 04 	call	0x9a8	; 0x9a8 <move_window>
    2be6:	81 11       	cpse	r24, r1
    2be8:	20 c0       	rjmp	.+64     	; 0x2c2a <f_unlink+0x142>
    2bea:	25 96       	adiw	r28, 0x05	; 5
    2bec:	ee ad       	ldd	r30, Y+62	; 0x3e
    2bee:	ff ad       	ldd	r31, Y+63	; 0x3f
    2bf0:	25 97       	sbiw	r28, 0x05	; 5
    2bf2:	85 ee       	ldi	r24, 0xE5	; 229
    2bf4:	80 83       	st	Z, r24
    2bf6:	81 e0       	ldi	r24, 0x01	; 1
    2bf8:	f8 01       	movw	r30, r16
    2bfa:	83 83       	std	Z+3, r24	; 0x03
    2bfc:	c1 14       	cp	r12, r1
    2bfe:	d1 04       	cpc	r13, r1
    2c00:	e1 04       	cpc	r14, r1
    2c02:	f1 04       	cpc	r15, r1
    2c04:	39 f4       	brne	.+14     	; 0x2c14 <f_unlink+0x12c>
    2c06:	63 96       	adiw	r28, 0x13	; 19
    2c08:	8e ad       	ldd	r24, Y+62	; 0x3e
    2c0a:	9f ad       	ldd	r25, Y+63	; 0x3f
    2c0c:	63 97       	sbiw	r28, 0x13	; 19
    2c0e:	0e 94 38 04 	call	0x870	; 0x870 <sync_fs>
    2c12:	0b c0       	rjmp	.+22     	; 0x2c2a <f_unlink+0x142>
    2c14:	00 e0       	ldi	r16, 0x00	; 0
    2c16:	10 e0       	ldi	r17, 0x00	; 0
    2c18:	98 01       	movw	r18, r16
    2c1a:	b7 01       	movw	r22, r14
    2c1c:	a6 01       	movw	r20, r12
    2c1e:	ce 01       	movw	r24, r28
    2c20:	89 96       	adiw	r24, 0x29	; 41
    2c22:	0e 94 3f 09 	call	0x127e	; 0x127e <remove_chain>
    2c26:	88 23       	and	r24, r24
    2c28:	71 f3       	breq	.-36     	; 0x2c06 <f_unlink+0x11e>
    2c2a:	cc 5a       	subi	r28, 0xAC	; 172
    2c2c:	df 4f       	sbci	r29, 0xFF	; 255
    2c2e:	0f b6       	in	r0, 0x3f	; 63
    2c30:	f8 94       	cli
    2c32:	de bf       	out	0x3e, r29	; 62
    2c34:	0f be       	out	0x3f, r0	; 63
    2c36:	cd bf       	out	0x3d, r28	; 61
    2c38:	df 91       	pop	r29
    2c3a:	cf 91       	pop	r28
    2c3c:	1f 91       	pop	r17
    2c3e:	0f 91       	pop	r16
    2c40:	ff 90       	pop	r15
    2c42:	ef 90       	pop	r14
    2c44:	df 90       	pop	r13
    2c46:	cf 90       	pop	r12
    2c48:	bf 90       	pop	r11
    2c4a:	08 95       	ret

00002c4c <LEDs_SetAllLEDs>:
    2c4c:	9b b1       	in	r25, 0x0b	; 11
    2c4e:	9f 73       	andi	r25, 0x3F	; 63
    2c50:	89 2b       	or	r24, r25
    2c52:	8b b9       	out	0x0b, r24	; 11
    2c54:	08 95       	ret

00002c56 <myrand>:
    2c56:	80 91 73 0c 	lds	r24, 0x0C73	; 0x800c73 <__bss_end>
    2c5a:	90 91 74 0c 	lds	r25, 0x0C74	; 0x800c74 <__bss_end+0x1>
    2c5e:	a0 91 75 0c 	lds	r26, 0x0C75	; 0x800c75 <__bss_end+0x2>
    2c62:	b0 91 76 0c 	lds	r27, 0x0C76	; 0x800c76 <__bss_end+0x3>
    2c66:	88 0f       	add	r24, r24
    2c68:	99 1f       	adc	r25, r25
    2c6a:	aa 1f       	adc	r26, r26
    2c6c:	bb 1f       	adc	r27, r27
    2c6e:	18 16       	cp	r1, r24
    2c70:	19 06       	cpc	r1, r25
    2c72:	1a 06       	cpc	r1, r26
    2c74:	1b 06       	cpc	r1, r27
    2c76:	44 f0       	brlt	.+16     	; 0x2c88 <myrand+0x32>
    2c78:	25 eb       	ldi	r18, 0xB5	; 181
    2c7a:	82 27       	eor	r24, r18
    2c7c:	25 e9       	ldi	r18, 0x95	; 149
    2c7e:	92 27       	eor	r25, r18
    2c80:	2a ea       	ldi	r18, 0xAA	; 170
    2c82:	a2 27       	eor	r26, r18
    2c84:	20 e2       	ldi	r18, 0x20	; 32
    2c86:	b2 27       	eor	r27, r18
    2c88:	80 93 73 0c 	sts	0x0C73, r24	; 0x800c73 <__bss_end>
    2c8c:	90 93 74 0c 	sts	0x0C74, r25	; 0x800c74 <__bss_end+0x1>
    2c90:	a0 93 75 0c 	sts	0x0C75, r26	; 0x800c75 <__bss_end+0x2>
    2c94:	b0 93 76 0c 	sts	0x0C76, r27	; 0x800c76 <__bss_end+0x3>
    2c98:	20 91 e7 05 	lds	r18, 0x05E7	; 0x8005e7 <cur.4720>
    2c9c:	31 e0       	ldi	r19, 0x01	; 1
    2c9e:	32 0f       	add	r19, r18
    2ca0:	30 93 e7 05 	sts	0x05E7, r19	; 0x8005e7 <cur.4720>
    2ca4:	82 0f       	add	r24, r18
    2ca6:	08 95       	ret

00002ca8 <lufa_hook_usb_serialnumber_randomize>:
    2ca8:	df 92       	push	r13
    2caa:	ef 92       	push	r14
    2cac:	ff 92       	push	r15
    2cae:	0f 93       	push	r16
    2cb0:	1f 93       	push	r17
    2cb2:	cf 93       	push	r28
    2cb4:	df 93       	push	r29
    2cb6:	f8 2e       	mov	r15, r24
    2cb8:	e9 2e       	mov	r14, r25
    2cba:	eb 01       	movw	r28, r22
    2cbc:	80 91 e6 05 	lds	r24, 0x05E6	; 0x8005e6 <init.4727>
    2cc0:	88 23       	and	r24, r24
    2cc2:	29 f0       	breq	.+10     	; 0x2cce <lufa_hook_usb_serialnumber_randomize+0x26>
    2cc4:	ef 2d       	mov	r30, r15
    2cc6:	fe 2d       	mov	r31, r14
    2cc8:	80 e0       	ldi	r24, 0x00	; 0
    2cca:	90 e0       	ldi	r25, 0x00	; 0
    2ccc:	14 c0       	rjmp	.+40     	; 0x2cf6 <lufa_hook_usb_serialnumber_randomize+0x4e>
    2cce:	81 e0       	ldi	r24, 0x01	; 1
    2cd0:	80 93 e6 05 	sts	0x05E6, r24	; 0x8005e6 <init.4727>
    2cd4:	06 ed       	ldi	r16, 0xD6	; 214
    2cd6:	15 e0       	ldi	r17, 0x05	; 5
    2cd8:	89 e0       	ldi	r24, 0x09	; 9
    2cda:	d8 2e       	mov	r13, r24
    2cdc:	bc df       	rcall	.-136    	; 0x2c56 <myrand>
    2cde:	6d 2d       	mov	r22, r13
    2ce0:	0e 94 0e 2c 	call	0x581c	; 0x581c <__udivmodqi4>
    2ce4:	9f 5c       	subi	r25, 0xCF	; 207
    2ce6:	f8 01       	movw	r30, r16
    2ce8:	91 93       	st	Z+, r25
    2cea:	8f 01       	movw	r16, r30
    2cec:	f5 e0       	ldi	r31, 0x05	; 5
    2cee:	06 3e       	cpi	r16, 0xE6	; 230
    2cf0:	1f 07       	cpc	r17, r31
    2cf2:	a1 f7       	brne	.-24     	; 0x2cdc <lufa_hook_usb_serialnumber_randomize+0x34>
    2cf4:	e7 cf       	rjmp	.-50     	; 0x2cc4 <lufa_hook_usb_serialnumber_randomize+0x1c>
    2cf6:	8c 17       	cp	r24, r28
    2cf8:	9d 07       	cpc	r25, r29
    2cfa:	59 f0       	breq	.+22     	; 0x2d12 <lufa_hook_usb_serialnumber_randomize+0x6a>
    2cfc:	dc 01       	movw	r26, r24
    2cfe:	af 70       	andi	r26, 0x0F	; 15
    2d00:	bb 27       	eor	r27, r27
    2d02:	aa 52       	subi	r26, 0x2A	; 42
    2d04:	ba 4f       	sbci	r27, 0xFA	; 250
    2d06:	2c 91       	ld	r18, X
    2d08:	30 e0       	ldi	r19, 0x00	; 0
    2d0a:	21 93       	st	Z+, r18
    2d0c:	31 93       	st	Z+, r19
    2d0e:	01 96       	adiw	r24, 0x01	; 1
    2d10:	f2 cf       	rjmp	.-28     	; 0x2cf6 <lufa_hook_usb_serialnumber_randomize+0x4e>
    2d12:	df 91       	pop	r29
    2d14:	cf 91       	pop	r28
    2d16:	1f 91       	pop	r17
    2d18:	0f 91       	pop	r16
    2d1a:	ff 90       	pop	r15
    2d1c:	ef 90       	pop	r14
    2d1e:	df 90       	pop	r13
    2d20:	08 95       	ret

00002d22 <__vector_32>:
    2d22:	1f 92       	push	r1
    2d24:	0f 92       	push	r0
    2d26:	0f b6       	in	r0, 0x3f	; 63
    2d28:	0f 92       	push	r0
    2d2a:	11 24       	eor	r1, r1
    2d2c:	0b b6       	in	r0, 0x3b	; 59
    2d2e:	0f 92       	push	r0
    2d30:	2f 93       	push	r18
    2d32:	3f 93       	push	r19
    2d34:	4f 93       	push	r20
    2d36:	5f 93       	push	r21
    2d38:	6f 93       	push	r22
    2d3a:	7f 93       	push	r23
    2d3c:	8f 93       	push	r24
    2d3e:	9f 93       	push	r25
    2d40:	af 93       	push	r26
    2d42:	bf 93       	push	r27
    2d44:	ef 93       	push	r30
    2d46:	ff 93       	push	r31
    2d48:	80 91 fa 09 	lds	r24, 0x09FA	; 0x8009fa <Timer>
    2d4c:	90 91 fb 09 	lds	r25, 0x09FB	; 0x8009fb <Timer+0x1>
    2d50:	01 96       	adiw	r24, 0x01	; 1
    2d52:	90 93 fb 09 	sts	0x09FB, r25	; 0x8009fb <Timer+0x1>
    2d56:	80 93 fa 09 	sts	0x09FA, r24	; 0x8009fa <Timer>
    2d5a:	0e 94 19 03 	call	0x632	; 0x632 <disk_timerproc>
    2d5e:	ff 91       	pop	r31
    2d60:	ef 91       	pop	r30
    2d62:	bf 91       	pop	r27
    2d64:	af 91       	pop	r26
    2d66:	9f 91       	pop	r25
    2d68:	8f 91       	pop	r24
    2d6a:	7f 91       	pop	r23
    2d6c:	6f 91       	pop	r22
    2d6e:	5f 91       	pop	r21
    2d70:	4f 91       	pop	r20
    2d72:	3f 91       	pop	r19
    2d74:	2f 91       	pop	r18
    2d76:	0f 90       	pop	r0
    2d78:	0b be       	out	0x3b, r0	; 59
    2d7a:	0f 90       	pop	r0
    2d7c:	0f be       	out	0x3f, r0	; 63
    2d7e:	0f 90       	pop	r0
    2d80:	1f 90       	pop	r1
    2d82:	18 95       	reti

00002d84 <SetupHardware>:
    2d84:	84 b7       	in	r24, 0x34	; 52
    2d86:	87 7f       	andi	r24, 0xF7	; 247
    2d88:	84 bf       	out	0x34, r24	; 52
    2d8a:	0f b6       	in	r0, 0x3f	; 63
    2d8c:	f8 94       	cli
    2d8e:	a8 95       	wdr
    2d90:	80 91 60 00 	lds	r24, 0x0060	; 0x800060 <__TEXT_REGION_LENGTH__+0x7e0060>
    2d94:	88 61       	ori	r24, 0x18	; 24
    2d96:	80 93 60 00 	sts	0x0060, r24	; 0x800060 <__TEXT_REGION_LENGTH__+0x7e0060>
    2d9a:	10 92 60 00 	sts	0x0060, r1	; 0x800060 <__TEXT_REGION_LENGTH__+0x7e0060>
    2d9e:	0f be       	out	0x3f, r0	; 63
    2da0:	90 e0       	ldi	r25, 0x00	; 0
    2da2:	80 e8       	ldi	r24, 0x80	; 128
    2da4:	0f b6       	in	r0, 0x3f	; 63
    2da6:	f8 94       	cli
    2da8:	80 93 61 00 	sts	0x0061, r24	; 0x800061 <__TEXT_REGION_LENGTH__+0x7e0061>
    2dac:	90 93 61 00 	sts	0x0061, r25	; 0x800061 <__TEXT_REGION_LENGTH__+0x7e0061>
    2db0:	0f be       	out	0x3f, r0	; 63
    2db2:	8f ef       	ldi	r24, 0xFF	; 255
    2db4:	82 b9       	out	0x02, r24	; 2
    2db6:	85 b9       	out	0x05, r24	; 5
    2db8:	88 b9       	out	0x08, r24	; 8
    2dba:	8b b9       	out	0x0b, r24	; 11
    2dbc:	81 bb       	out	0x11, r24	; 17
    2dbe:	10 92 90 00 	sts	0x0090, r1	; 0x800090 <__TEXT_REGION_LENGTH__+0x7e0090>
    2dc2:	e1 e9       	ldi	r30, 0x91	; 145
    2dc4:	f0 e0       	ldi	r31, 0x00	; 0
    2dc6:	10 82       	st	Z, r1
    2dc8:	80 81       	ld	r24, Z
    2dca:	88 60       	ori	r24, 0x08	; 8
    2dcc:	80 83       	st	Z, r24
    2dce:	a1 e7       	ldi	r26, 0x71	; 113
    2dd0:	b0 e0       	ldi	r27, 0x00	; 0
    2dd2:	8c 91       	ld	r24, X
    2dd4:	82 60       	ori	r24, 0x02	; 2
    2dd6:	8c 93       	st	X, r24
    2dd8:	80 e2       	ldi	r24, 0x20	; 32
    2dda:	9e e4       	ldi	r25, 0x4E	; 78
    2ddc:	90 93 99 00 	sts	0x0099, r25	; 0x800099 <__TEXT_REGION_LENGTH__+0x7e0099>
    2de0:	80 93 98 00 	sts	0x0098, r24	; 0x800098 <__TEXT_REGION_LENGTH__+0x7e0098>
    2de4:	80 81       	ld	r24, Z
    2de6:	82 60       	ori	r24, 0x02	; 2
    2de8:	80 83       	st	Z, r24
    2dea:	78 94       	sei
    2dec:	87 e6       	ldi	r24, 0x67	; 103
    2dee:	90 e0       	ldi	r25, 0x00	; 0
    2df0:	90 93 cd 00 	sts	0x00CD, r25	; 0x8000cd <__TEXT_REGION_LENGTH__+0x7e00cd>
    2df4:	80 93 cc 00 	sts	0x00CC, r24	; 0x8000cc <__TEXT_REGION_LENGTH__+0x7e00cc>
    2df8:	86 e0       	ldi	r24, 0x06	; 6
    2dfa:	80 93 ca 00 	sts	0x00CA, r24	; 0x8000ca <__TEXT_REGION_LENGTH__+0x7e00ca>
    2dfe:	10 92 c8 00 	sts	0x00C8, r1	; 0x8000c8 <__TEXT_REGION_LENGTH__+0x7e00c8>
    2e02:	88 e1       	ldi	r24, 0x18	; 24
    2e04:	80 93 c9 00 	sts	0x00C9, r24	; 0x8000c9 <__TEXT_REGION_LENGTH__+0x7e00c9>
    2e08:	53 9a       	sbi	0x0a, 3	; 10
    2e0a:	5a 9a       	sbi	0x0b, 2	; 11
    2e0c:	8b e7       	ldi	r24, 0x7B	; 123
    2e0e:	93 e0       	ldi	r25, 0x03	; 3
    2e10:	0e 94 eb 22 	call	0x45d6	; 0x45d6 <Serial_SendString>
    2e14:	80 e0       	ldi	r24, 0x00	; 0
    2e16:	90 e0       	ldi	r25, 0x00	; 0
    2e18:	0e 94 f7 22 	call	0x45ee	; 0x45ee <Serial_CreateStream>
    2e1c:	89 e0       	ldi	r24, 0x09	; 9
    2e1e:	94 e0       	ldi	r25, 0x04	; 4
    2e20:	0e 94 d3 2c 	call	0x59a6	; 0x59a6 <puts>
    2e24:	87 eb       	ldi	r24, 0xB7	; 183
    2e26:	90 e0       	ldi	r25, 0x00	; 0
    2e28:	9f 93       	push	r25
    2e2a:	8f 93       	push	r24
    2e2c:	0e 94 ac 2c 	call	0x5958	; 0x5958 <printf_P>
    2e30:	0e 94 01 01 	call	0x202	; 0x202 <on_sd>
    2e34:	0e 94 2b 21 	call	0x4256	; 0x4256 <sdcard_Init>
    2e38:	8a b1       	in	r24, 0x0a	; 10
    2e3a:	80 6c       	ori	r24, 0xC0	; 192
    2e3c:	8a b9       	out	0x0a, r24	; 10
    2e3e:	8b b1       	in	r24, 0x0b	; 11
    2e40:	8f 73       	andi	r24, 0x3F	; 63
    2e42:	8b b9       	out	0x0b, r24	; 11
    2e44:	55 98       	cbi	0x0a, 5	; 10
    2e46:	5d 9a       	sbi	0x0b, 5	; 11
    2e48:	6a 98       	cbi	0x0d, 2	; 13
    2e4a:	72 9a       	sbi	0x0e, 2	; 14
    2e4c:	0f 90       	pop	r0
    2e4e:	0f 90       	pop	r0
    2e50:	0c 94 50 29 	jmp	0x52a0	; 0x52a0 <USB_Init>

00002e54 <main>:
    2e54:	97 df       	rcall	.-210    	; 0x2d84 <SetupHardware>
    2e56:	80 e4       	ldi	r24, 0x40	; 64
    2e58:	f9 de       	rcall	.-526    	; 0x2c4c <LEDs_SetAllLEDs>
    2e5a:	78 94       	sei
    2e5c:	8f e3       	ldi	r24, 0x3F	; 63
    2e5e:	91 e0       	ldi	r25, 0x01	; 1
    2e60:	0e 94 77 25 	call	0x4aee	; 0x4aee <MS_Device_USBTask>
    2e64:	8f e2       	ldi	r24, 0x2F	; 47
    2e66:	91 e0       	ldi	r25, 0x01	; 1
    2e68:	0e 94 5f 24 	call	0x48be	; 0x48be <HID_Device_USBTask>
    2e6c:	0e 94 f4 2b 	call	0x57e8	; 0x57e8 <USB_USBTask>
    2e70:	f5 cf       	rjmp	.-22     	; 0x2e5c <main+0x8>

00002e72 <EVENT_USB_Device_Connect>:
    2e72:	8d ea       	ldi	r24, 0xAD	; 173
    2e74:	90 e0       	ldi	r25, 0x00	; 0
    2e76:	9f 93       	push	r25
    2e78:	8f 93       	push	r24
    2e7a:	0e 94 ac 2c 	call	0x5958	; 0x5958 <printf_P>
    2e7e:	0f 90       	pop	r0
    2e80:	0f 90       	pop	r0
    2e82:	80 e8       	ldi	r24, 0x80	; 128
    2e84:	e3 ce       	rjmp	.-570    	; 0x2c4c <LEDs_SetAllLEDs>

00002e86 <EVENT_USB_Device_Disconnect>:
    2e86:	80 ea       	ldi	r24, 0xA0	; 160
    2e88:	90 e0       	ldi	r25, 0x00	; 0
    2e8a:	9f 93       	push	r25
    2e8c:	8f 93       	push	r24
    2e8e:	0e 94 ac 2c 	call	0x5958	; 0x5958 <printf_P>
    2e92:	0f 90       	pop	r0
    2e94:	0f 90       	pop	r0
    2e96:	80 e4       	ldi	r24, 0x40	; 64
    2e98:	d9 ce       	rjmp	.-590    	; 0x2c4c <LEDs_SetAllLEDs>

00002e9a <EVENT_USB_Device_ConfigurationChanged>:
    2e9a:	cf 93       	push	r28
    2e9c:	88 e9       	ldi	r24, 0x98	; 152
    2e9e:	90 e0       	ldi	r25, 0x00	; 0
    2ea0:	9f 93       	push	r25
    2ea2:	8f 93       	push	r24
    2ea4:	0e 94 ac 2c 	call	0x5958	; 0x5958 <printf_P>
    2ea8:	8f e2       	ldi	r24, 0x2F	; 47
    2eaa:	91 e0       	ldi	r25, 0x01	; 1
    2eac:	0e 94 4c 24 	call	0x4898	; 0x4898 <HID_Device_ConfigureEndpoints>
    2eb0:	c8 2f       	mov	r28, r24
    2eb2:	8f e3       	ldi	r24, 0x3F	; 63
    2eb4:	91 e0       	ldi	r25, 0x01	; 1
    2eb6:	0e 94 5a 25 	call	0x4ab4	; 0x4ab4 <MS_Device_ConfigureEndpoints>
    2eba:	90 91 e2 00 	lds	r25, 0x00E2	; 0x8000e2 <__TEXT_REGION_LENGTH__+0x7e00e2>
    2ebe:	94 60       	ori	r25, 0x04	; 4
    2ec0:	90 93 e2 00 	sts	0x00E2, r25	; 0x8000e2 <__TEXT_REGION_LENGTH__+0x7e00e2>
    2ec4:	0f 90       	pop	r0
    2ec6:	0f 90       	pop	r0
    2ec8:	cc 23       	and	r28, r28
    2eca:	11 f0       	breq	.+4      	; 0x2ed0 <EVENT_USB_Device_ConfigurationChanged+0x36>
    2ecc:	81 11       	cpse	r24, r1
    2ece:	02 c0       	rjmp	.+4      	; 0x2ed4 <EVENT_USB_Device_ConfigurationChanged+0x3a>
    2ed0:	80 e4       	ldi	r24, 0x40	; 64
    2ed2:	01 c0       	rjmp	.+2      	; 0x2ed6 <EVENT_USB_Device_ConfigurationChanged+0x3c>
    2ed4:	80 ec       	ldi	r24, 0xC0	; 192
    2ed6:	cf 91       	pop	r28
    2ed8:	b9 ce       	rjmp	.-654    	; 0x2c4c <LEDs_SetAllLEDs>

00002eda <EVENT_USB_Device_ControlRequest>:
    2eda:	8f e3       	ldi	r24, 0x3F	; 63
    2edc:	91 e0       	ldi	r25, 0x01	; 1
    2ede:	0e 94 19 25 	call	0x4a32	; 0x4a32 <MS_Device_ProcessControlRequest>
    2ee2:	8f e2       	ldi	r24, 0x2F	; 47
    2ee4:	91 e0       	ldi	r25, 0x01	; 1
    2ee6:	0c 94 15 23 	jmp	0x462a	; 0x462a <HID_Device_ProcessControlRequest>

00002eea <CALLBACK_MS_Device_SCSICommandReceived>:
    2eea:	cf 93       	push	r28
    2eec:	df 93       	push	r29
    2eee:	ec 01       	movw	r28, r24
    2ef0:	80 91 d5 05 	lds	r24, 0x05D5	; 0x8005d5 <show_os.5014>
    2ef4:	81 11       	cpse	r24, r1
    2ef6:	11 c0       	rjmp	.+34     	; 0x2f1a <CALLBACK_MS_Device_SCSICommandReceived+0x30>
    2ef8:	81 e0       	ldi	r24, 0x01	; 1
    2efa:	80 93 d5 05 	sts	0x05D5, r24	; 0x8005d5 <show_os.5014>
    2efe:	0e 94 d4 02 	call	0x5a8	; 0x5a8 <guess_host_os_string>
    2f02:	9f 93       	push	r25
    2f04:	8f 93       	push	r24
    2f06:	81 e2       	ldi	r24, 0x21	; 33
    2f08:	94 e0       	ldi	r25, 0x04	; 4
    2f0a:	9f 93       	push	r25
    2f0c:	8f 93       	push	r24
    2f0e:	0e 94 99 2c 	call	0x5932	; 0x5932 <printf>
    2f12:	0f 90       	pop	r0
    2f14:	0f 90       	pop	r0
    2f16:	0f 90       	pop	r0
    2f18:	0f 90       	pop	r0
    2f1a:	80 91 f0 05 	lds	r24, 0x05F0	; 0x8005f0 <last_led>
    2f1e:	81 11       	cpse	r24, r1
    2f20:	02 c0       	rjmp	.+4      	; 0x2f26 <CALLBACK_MS_Device_SCSICommandReceived+0x3c>
    2f22:	80 e8       	ldi	r24, 0x80	; 128
    2f24:	93 de       	rcall	.-730    	; 0x2c4c <LEDs_SetAllLEDs>
    2f26:	ce 01       	movw	r24, r28
    2f28:	ab d6       	rcall	.+3414   	; 0x3c80 <SCSI_DecodeSCSICommand>
    2f2a:	c8 2f       	mov	r28, r24
    2f2c:	80 91 f0 05 	lds	r24, 0x05F0	; 0x8005f0 <last_led>
    2f30:	81 11       	cpse	r24, r1
    2f32:	02 c0       	rjmp	.+4      	; 0x2f38 <CALLBACK_MS_Device_SCSICommandReceived+0x4e>
    2f34:	80 ec       	ldi	r24, 0xC0	; 192
    2f36:	8a de       	rcall	.-748    	; 0x2c4c <LEDs_SetAllLEDs>
    2f38:	8c 2f       	mov	r24, r28
    2f3a:	df 91       	pop	r29
    2f3c:	cf 91       	pop	r28
    2f3e:	08 95       	ret

00002f40 <EVENT_USB_Device_StartOfFrame>:
    2f40:	80 91 3d 01 	lds	r24, 0x013D	; 0x80013d <Keyboard_HID_Interface+0xe>
    2f44:	90 91 3e 01 	lds	r25, 0x013E	; 0x80013e <Keyboard_HID_Interface+0xf>
    2f48:	00 97       	sbiw	r24, 0x00	; 0
    2f4a:	29 f0       	breq	.+10     	; 0x2f56 <EVENT_USB_Device_StartOfFrame+0x16>
    2f4c:	01 97       	sbiw	r24, 0x01	; 1
    2f4e:	90 93 3e 01 	sts	0x013E, r25	; 0x80013e <Keyboard_HID_Interface+0xf>
    2f52:	80 93 3d 01 	sts	0x013D, r24	; 0x80013d <Keyboard_HID_Interface+0xe>
    2f56:	08 95       	ret

00002f58 <CALLBACK_HID_Device_CreateHIDReport>:
    2f58:	0f 93       	push	r16
    2f5a:	1f 93       	push	r17
    2f5c:	cf 93       	push	r28
    2f5e:	df 93       	push	r29
    2f60:	e9 01       	movw	r28, r18
    2f62:	29 b1       	in	r18, 0x09	; 9
    2f64:	8c b1       	in	r24, 0x0c	; 12
    2f66:	20 95       	com	r18
    2f68:	20 72       	andi	r18, 0x20	; 32
    2f6a:	80 95       	com	r24
    2f6c:	84 70       	andi	r24, 0x04	; 4
    2f6e:	28 2b       	or	r18, r24
    2f70:	e0 91 d3 05 	lds	r30, 0x05D3	; 0x8005d3 <i.5031>
    2f74:	f0 91 d4 05 	lds	r31, 0x05D4	; 0x8005d4 <i.5031+0x1>
    2f78:	31 96       	adiw	r30, 0x01	; 1
    2f7a:	cf 01       	movw	r24, r30
    2f7c:	6f e8       	ldi	r22, 0x8F	; 143
    2f7e:	70 e0       	ldi	r23, 0x00	; 0
    2f80:	0e 94 1a 2c 	call	0x5834	; 0x5834 <__udivmodhi4>
    2f84:	89 2b       	or	r24, r25
    2f86:	29 f0       	breq	.+10     	; 0x2f92 <CALLBACK_HID_Device_CreateHIDReport+0x3a>
    2f88:	f0 93 d4 05 	sts	0x05D4, r31	; 0x8005d4 <i.5031+0x1>
    2f8c:	e0 93 d3 05 	sts	0x05D3, r30	; 0x8005d3 <i.5031>
    2f90:	04 c0       	rjmp	.+8      	; 0x2f9a <CALLBACK_HID_Device_CreateHIDReport+0x42>
    2f92:	10 92 d4 05 	sts	0x05D4, r1	; 0x8005d4 <i.5031+0x1>
    2f96:	10 92 d3 05 	sts	0x05D3, r1	; 0x8005d3 <i.5031>
    2f9a:	80 91 d2 05 	lds	r24, 0x05D2	; 0x8005d2 <last_shift.5026>
    2f9e:	88 23       	and	r24, r24
    2fa0:	19 f0       	breq	.+6      	; 0x2fa8 <CALLBACK_HID_Device_CreateHIDReport+0x50>
    2fa2:	18 82       	st	Y, r1
    2fa4:	10 92 d2 05 	sts	0x05D2, r1	; 0x8005d2 <last_shift.5026>
    2fa8:	82 2f       	mov	r24, r18
    2faa:	84 70       	andi	r24, 0x04	; 4
    2fac:	24 32       	cpi	r18, 0x24	; 36
    2fae:	f9 f4       	brne	.+62     	; 0x2fee <CALLBACK_HID_Device_CreateHIDReport+0x96>
    2fb0:	82 e0       	ldi	r24, 0x02	; 2
    2fb2:	88 83       	st	Y, r24
    2fb4:	87 e0       	ldi	r24, 0x07	; 7
    2fb6:	8a 83       	std	Y+2, r24	; 0x02
    2fb8:	c1 e0       	ldi	r28, 0x01	; 1
    2fba:	c0 93 d2 05 	sts	0x05D2, r28	; 0x8005d2 <last_shift.5026>
    2fbe:	80 ec       	ldi	r24, 0xC0	; 192
    2fc0:	45 de       	rcall	.-886    	; 0x2c4c <LEDs_SetAllLEDs>
    2fc2:	c0 93 f0 05 	sts	0x05F0, r28	; 0x8005f0 <last_led>
    2fc6:	0e 94 c2 02 	call	0x584	; 0x584 <guess_host_os>
    2fca:	81 30       	cpi	r24, 0x01	; 1
    2fcc:	31 f0       	breq	.+12     	; 0x2fda <CALLBACK_HID_Device_CreateHIDReport+0x82>
    2fce:	40 f0       	brcs	.+16     	; 0x2fe0 <CALLBACK_HID_Device_CreateHIDReport+0x88>
    2fd0:	82 30       	cpi	r24, 0x02	; 2
    2fd2:	31 f4       	brne	.+12     	; 0x2fe0 <CALLBACK_HID_Device_CreateHIDReport+0x88>
    2fd4:	80 e0       	ldi	r24, 0x00	; 0
    2fd6:	91 e0       	ldi	r25, 0x01	; 1
    2fd8:	05 c0       	rjmp	.+10     	; 0x2fe4 <CALLBACK_HID_Device_CreateHIDReport+0x8c>
    2fda:	8d e0       	ldi	r24, 0x0D	; 13
    2fdc:	91 e0       	ldi	r25, 0x01	; 1
    2fde:	02 c0       	rjmp	.+4      	; 0x2fe4 <CALLBACK_HID_Device_CreateHIDReport+0x8c>
    2fe0:	8c e1       	ldi	r24, 0x1C	; 28
    2fe2:	91 e0       	ldi	r25, 0x01	; 1
    2fe4:	90 93 d1 05 	sts	0x05D1, r25	; 0x8005d1 <str_to_print.5027+0x1>
    2fe8:	80 93 d0 05 	sts	0x05D0, r24	; 0x8005d0 <str_to_print.5027>
    2fec:	30 c0       	rjmp	.+96     	; 0x304e <CALLBACK_HID_Device_CreateHIDReport+0xf6>
    2fee:	88 23       	and	r24, r24
    2ff0:	21 f0       	breq	.+8      	; 0x2ffa <CALLBACK_HID_Device_CreateHIDReport+0xa2>
    2ff2:	85 e1       	ldi	r24, 0x15	; 21
    2ff4:	8a 83       	std	Y+2, r24	; 0x02
    2ff6:	80 e4       	ldi	r24, 0x40	; 64
    2ff8:	05 c0       	rjmp	.+10     	; 0x3004 <CALLBACK_HID_Device_CreateHIDReport+0xac>
    2ffa:	20 72       	andi	r18, 0x20	; 32
    2ffc:	41 f0       	breq	.+16     	; 0x300e <CALLBACK_HID_Device_CreateHIDReport+0xb6>
    2ffe:	8a e0       	ldi	r24, 0x0A	; 10
    3000:	8a 83       	std	Y+2, r24	; 0x02
    3002:	80 e8       	ldi	r24, 0x80	; 128
    3004:	23 de       	rcall	.-954    	; 0x2c4c <LEDs_SetAllLEDs>
    3006:	81 e0       	ldi	r24, 0x01	; 1
    3008:	80 93 f0 05 	sts	0x05F0, r24	; 0x8005f0 <last_led>
    300c:	20 c0       	rjmp	.+64     	; 0x304e <CALLBACK_HID_Device_CreateHIDReport+0xf6>
    300e:	80 91 f0 05 	lds	r24, 0x05F0	; 0x8005f0 <last_led>
    3012:	88 23       	and	r24, r24
    3014:	21 f0       	breq	.+8      	; 0x301e <CALLBACK_HID_Device_CreateHIDReport+0xc6>
    3016:	10 92 f0 05 	sts	0x05F0, r1	; 0x8005f0 <last_led>
    301a:	80 e0       	ldi	r24, 0x00	; 0
    301c:	17 de       	rcall	.-978    	; 0x2c4c <LEDs_SetAllLEDs>
    301e:	e0 91 d0 05 	lds	r30, 0x05D0	; 0x8005d0 <str_to_print.5027>
    3022:	f0 91 d1 05 	lds	r31, 0x05D1	; 0x8005d1 <str_to_print.5027+0x1>
    3026:	80 81       	ld	r24, Z
    3028:	81 11       	cpse	r24, r1
    302a:	05 c0       	rjmp	.+10     	; 0x3036 <CALLBACK_HID_Device_CreateHIDReport+0xde>
    302c:	10 92 d1 05 	sts	0x05D1, r1	; 0x8005d1 <str_to_print.5027+0x1>
    3030:	10 92 d0 05 	sts	0x05D0, r1	; 0x8005d0 <str_to_print.5027>
    3034:	0c c0       	rjmp	.+24     	; 0x304e <CALLBACK_HID_Device_CreateHIDReport+0xf6>
    3036:	20 91 d3 05 	lds	r18, 0x05D3	; 0x8005d3 <i.5031>
    303a:	30 91 d4 05 	lds	r19, 0x05D4	; 0x8005d4 <i.5031+0x1>
    303e:	23 2b       	or	r18, r19
    3040:	31 f4       	brne	.+12     	; 0x304e <CALLBACK_HID_Device_CreateHIDReport+0xf6>
    3042:	8a 83       	std	Y+2, r24	; 0x02
    3044:	31 96       	adiw	r30, 0x01	; 1
    3046:	f0 93 d1 05 	sts	0x05D1, r31	; 0x8005d1 <str_to_print.5027+0x1>
    304a:	e0 93 d0 05 	sts	0x05D0, r30	; 0x8005d0 <str_to_print.5027>
    304e:	88 e0       	ldi	r24, 0x08	; 8
    3050:	90 e0       	ldi	r25, 0x00	; 0
    3052:	f8 01       	movw	r30, r16
    3054:	91 83       	std	Z+1, r25	; 0x01
    3056:	80 83       	st	Z, r24
    3058:	80 e0       	ldi	r24, 0x00	; 0
    305a:	df 91       	pop	r29
    305c:	cf 91       	pop	r28
    305e:	1f 91       	pop	r17
    3060:	0f 91       	pop	r16
    3062:	08 95       	ret

00003064 <CALLBACK_HID_Device_ProcessHIDReport>:
    3064:	80 91 f0 05 	lds	r24, 0x05F0	; 0x8005f0 <last_led>
    3068:	81 11       	cpse	r24, r1
    306a:	0c c0       	rjmp	.+24     	; 0x3084 <CALLBACK_HID_Device_ProcessHIDReport+0x20>
    306c:	f9 01       	movw	r30, r18
    306e:	90 81       	ld	r25, Z
    3070:	90 ff       	sbrs	r25, 0
    3072:	02 c0       	rjmp	.+4      	; 0x3078 <CALLBACK_HID_Device_ProcessHIDReport+0x14>
    3074:	80 e4       	ldi	r24, 0x40	; 64
    3076:	01 c0       	rjmp	.+2      	; 0x307a <CALLBACK_HID_Device_ProcessHIDReport+0x16>
    3078:	80 e0       	ldi	r24, 0x00	; 0
    307a:	91 fd       	sbrc	r25, 1
    307c:	80 68       	ori	r24, 0x80	; 128
    307e:	92 fd       	sbrc	r25, 2
    3080:	80 ec       	ldi	r24, 0xC0	; 192
    3082:	e4 cd       	rjmp	.-1080   	; 0x2c4c <LEDs_SetAllLEDs>
    3084:	08 95       	ret

00003086 <power_off>:
    3086:	1c bc       	out	0x2c, r1	; 44
    3088:	22 98       	cbi	0x04, 2	; 4
    308a:	2a 98       	cbi	0x05, 2	; 5
    308c:	08 95       	ret

0000308e <xchg_spi>:
    308e:	8e bd       	out	0x2e, r24	; 46
    3090:	0d b4       	in	r0, 0x2d	; 45
    3092:	07 fe       	sbrs	r0, 7
    3094:	fd cf       	rjmp	.-6      	; 0x3090 <xchg_spi+0x2>
    3096:	8e b5       	in	r24, 0x2e	; 46
    3098:	08 95       	ret

0000309a <deselect>:
    309a:	28 9a       	sbi	0x05, 0	; 5
    309c:	8f ef       	ldi	r24, 0xFF	; 255
    309e:	f7 cf       	rjmp	.-18     	; 0x308e <xchg_spi>

000030a0 <rcvr_datablock>:
    30a0:	0f 93       	push	r16
    30a2:	1f 93       	push	r17
    30a4:	cf 93       	push	r28
    30a6:	df 93       	push	r29
    30a8:	8c 01       	movw	r16, r24
    30aa:	eb 01       	movw	r28, r22
    30ac:	84 e1       	ldi	r24, 0x14	; 20
    30ae:	80 93 f4 05 	sts	0x05F4, r24	; 0x8005f4 <Timer1>
    30b2:	8f ef       	ldi	r24, 0xFF	; 255
    30b4:	ec df       	rcall	.-40     	; 0x308e <xchg_spi>
    30b6:	8f 3f       	cpi	r24, 0xFF	; 255
    30b8:	29 f4       	brne	.+10     	; 0x30c4 <rcvr_datablock+0x24>
    30ba:	80 91 f4 05 	lds	r24, 0x05F4	; 0x8005f4 <Timer1>
    30be:	81 11       	cpse	r24, r1
    30c0:	f8 cf       	rjmp	.-16     	; 0x30b2 <rcvr_datablock+0x12>
    30c2:	1b c0       	rjmp	.+54     	; 0x30fa <rcvr_datablock+0x5a>
    30c4:	8e 3f       	cpi	r24, 0xFE	; 254
    30c6:	c9 f4       	brne	.+50     	; 0x30fa <rcvr_datablock+0x5a>
    30c8:	f8 01       	movw	r30, r16
    30ca:	8f ef       	ldi	r24, 0xFF	; 255
    30cc:	8e bd       	out	0x2e, r24	; 46
    30ce:	0d b4       	in	r0, 0x2d	; 45
    30d0:	07 fe       	sbrs	r0, 7
    30d2:	fd cf       	rjmp	.-6      	; 0x30ce <rcvr_datablock+0x2e>
    30d4:	9e b5       	in	r25, 0x2e	; 46
    30d6:	90 83       	st	Z, r25
    30d8:	8e bd       	out	0x2e, r24	; 46
    30da:	0d b4       	in	r0, 0x2d	; 45
    30dc:	07 fe       	sbrs	r0, 7
    30de:	fd cf       	rjmp	.-6      	; 0x30da <rcvr_datablock+0x3a>
    30e0:	9e b5       	in	r25, 0x2e	; 46
    30e2:	91 83       	std	Z+1, r25	; 0x01
    30e4:	22 97       	sbiw	r28, 0x02	; 2
    30e6:	32 96       	adiw	r30, 0x02	; 2
    30e8:	20 97       	sbiw	r28, 0x00	; 0
    30ea:	81 f7       	brne	.-32     	; 0x30cc <rcvr_datablock+0x2c>
    30ec:	8f ef       	ldi	r24, 0xFF	; 255
    30ee:	cf df       	rcall	.-98     	; 0x308e <xchg_spi>
    30f0:	8f ef       	ldi	r24, 0xFF	; 255
    30f2:	cd df       	rcall	.-102    	; 0x308e <xchg_spi>
    30f4:	81 e0       	ldi	r24, 0x01	; 1
    30f6:	90 e0       	ldi	r25, 0x00	; 0
    30f8:	02 c0       	rjmp	.+4      	; 0x30fe <rcvr_datablock+0x5e>
    30fa:	80 e0       	ldi	r24, 0x00	; 0
    30fc:	90 e0       	ldi	r25, 0x00	; 0
    30fe:	df 91       	pop	r29
    3100:	cf 91       	pop	r28
    3102:	1f 91       	pop	r17
    3104:	0f 91       	pop	r16
    3106:	08 95       	ret

00003108 <wait_ready.constprop.2>:
    3108:	f8 94       	cli
    310a:	82 e3       	ldi	r24, 0x32	; 50
    310c:	90 e0       	ldi	r25, 0x00	; 0
    310e:	90 93 f3 05 	sts	0x05F3, r25	; 0x8005f3 <Timer2+0x1>
    3112:	80 93 f2 05 	sts	0x05F2, r24	; 0x8005f2 <Timer2>
    3116:	78 94       	sei
    3118:	8f ef       	ldi	r24, 0xFF	; 255
    311a:	b9 df       	rcall	.-142    	; 0x308e <xchg_spi>
    311c:	28 2f       	mov	r18, r24
    311e:	f8 94       	cli
    3120:	80 91 f2 05 	lds	r24, 0x05F2	; 0x8005f2 <Timer2>
    3124:	90 91 f3 05 	lds	r25, 0x05F3	; 0x8005f3 <Timer2+0x1>
    3128:	78 94       	sei
    312a:	2f 3f       	cpi	r18, 0xFF	; 255
    312c:	11 f0       	breq	.+4      	; 0x3132 <wait_ready.constprop.2+0x2a>
    312e:	89 2b       	or	r24, r25
    3130:	99 f7       	brne	.-26     	; 0x3118 <wait_ready.constprop.2+0x10>
    3132:	81 e0       	ldi	r24, 0x01	; 1
    3134:	90 e0       	ldi	r25, 0x00	; 0
    3136:	2f 3f       	cpi	r18, 0xFF	; 255
    3138:	11 f0       	breq	.+4      	; 0x313e <wait_ready.constprop.2+0x36>
    313a:	80 e0       	ldi	r24, 0x00	; 0
    313c:	90 e0       	ldi	r25, 0x00	; 0
    313e:	08 95       	ret

00003140 <select>:
    3140:	cf 93       	push	r28
    3142:	df 93       	push	r29
    3144:	28 98       	cbi	0x05, 0	; 5
    3146:	8f ef       	ldi	r24, 0xFF	; 255
    3148:	a2 df       	rcall	.-188    	; 0x308e <xchg_spi>
    314a:	de df       	rcall	.-68     	; 0x3108 <wait_ready.constprop.2>
    314c:	ec 01       	movw	r28, r24
    314e:	89 2b       	or	r24, r25
    3150:	11 f4       	brne	.+4      	; 0x3156 <select+0x16>
    3152:	a3 df       	rcall	.-186    	; 0x309a <deselect>
    3154:	02 c0       	rjmp	.+4      	; 0x315a <select+0x1a>
    3156:	c1 e0       	ldi	r28, 0x01	; 1
    3158:	d0 e0       	ldi	r29, 0x00	; 0
    315a:	ce 01       	movw	r24, r28
    315c:	df 91       	pop	r29
    315e:	cf 91       	pop	r28
    3160:	08 95       	ret

00003162 <send_cmd>:
    3162:	ff 92       	push	r15
    3164:	0f 93       	push	r16
    3166:	1f 93       	push	r17
    3168:	cf 93       	push	r28
    316a:	df 93       	push	r29
    316c:	c8 2f       	mov	r28, r24
    316e:	d4 2f       	mov	r29, r20
    3170:	15 2f       	mov	r17, r21
    3172:	06 2f       	mov	r16, r22
    3174:	f7 2e       	mov	r15, r23
    3176:	87 ff       	sbrs	r24, 7
    3178:	08 c0       	rjmp	.+16     	; 0x318a <send_cmd+0x28>
    317a:	40 e0       	ldi	r20, 0x00	; 0
    317c:	50 e0       	ldi	r21, 0x00	; 0
    317e:	ba 01       	movw	r22, r20
    3180:	87 e3       	ldi	r24, 0x37	; 55
    3182:	ef df       	rcall	.-34     	; 0x3162 <send_cmd>
    3184:	82 30       	cpi	r24, 0x02	; 2
    3186:	58 f5       	brcc	.+86     	; 0x31de <send_cmd+0x7c>
    3188:	cf 77       	andi	r28, 0x7F	; 127
    318a:	cc 30       	cpi	r28, 0x0C	; 12
    318c:	71 f4       	brne	.+28     	; 0x31aa <send_cmd+0x48>
    318e:	8c 2f       	mov	r24, r28
    3190:	80 64       	ori	r24, 0x40	; 64
    3192:	7d df       	rcall	.-262    	; 0x308e <xchg_spi>
    3194:	8f 2d       	mov	r24, r15
    3196:	7b df       	rcall	.-266    	; 0x308e <xchg_spi>
    3198:	80 2f       	mov	r24, r16
    319a:	79 df       	rcall	.-270    	; 0x308e <xchg_spi>
    319c:	81 2f       	mov	r24, r17
    319e:	77 df       	rcall	.-274    	; 0x308e <xchg_spi>
    31a0:	8d 2f       	mov	r24, r29
    31a2:	75 df       	rcall	.-278    	; 0x308e <xchg_spi>
    31a4:	cc 23       	and	r28, r28
    31a6:	c9 f0       	breq	.+50     	; 0x31da <send_cmd+0x78>
    31a8:	06 c0       	rjmp	.+12     	; 0x31b6 <send_cmd+0x54>
    31aa:	77 df       	rcall	.-274    	; 0x309a <deselect>
    31ac:	c9 df       	rcall	.-110    	; 0x3140 <select>
    31ae:	89 2b       	or	r24, r25
    31b0:	71 f7       	brne	.-36     	; 0x318e <send_cmd+0x2c>
    31b2:	8f ef       	ldi	r24, 0xFF	; 255
    31b4:	14 c0       	rjmp	.+40     	; 0x31de <send_cmd+0x7c>
    31b6:	c8 30       	cpi	r28, 0x08	; 8
    31b8:	11 f4       	brne	.+4      	; 0x31be <send_cmd+0x5c>
    31ba:	87 e8       	ldi	r24, 0x87	; 135
    31bc:	01 c0       	rjmp	.+2      	; 0x31c0 <send_cmd+0x5e>
    31be:	81 e0       	ldi	r24, 0x01	; 1
    31c0:	66 df       	rcall	.-308    	; 0x308e <xchg_spi>
    31c2:	cc 30       	cpi	r28, 0x0C	; 12
    31c4:	11 f4       	brne	.+4      	; 0x31ca <send_cmd+0x68>
    31c6:	8f ef       	ldi	r24, 0xFF	; 255
    31c8:	62 df       	rcall	.-316    	; 0x308e <xchg_spi>
    31ca:	ca e0       	ldi	r28, 0x0A	; 10
    31cc:	8f ef       	ldi	r24, 0xFF	; 255
    31ce:	5f df       	rcall	.-322    	; 0x308e <xchg_spi>
    31d0:	87 ff       	sbrs	r24, 7
    31d2:	05 c0       	rjmp	.+10     	; 0x31de <send_cmd+0x7c>
    31d4:	c1 50       	subi	r28, 0x01	; 1
    31d6:	d1 f7       	brne	.-12     	; 0x31cc <send_cmd+0x6a>
    31d8:	02 c0       	rjmp	.+4      	; 0x31de <send_cmd+0x7c>
    31da:	85 e9       	ldi	r24, 0x95	; 149
    31dc:	f5 cf       	rjmp	.-22     	; 0x31c8 <send_cmd+0x66>
    31de:	df 91       	pop	r29
    31e0:	cf 91       	pop	r28
    31e2:	1f 91       	pop	r17
    31e4:	0f 91       	pop	r16
    31e6:	ff 90       	pop	r15
    31e8:	08 95       	ret

000031ea <xmit_datablock.part.1>:
    31ea:	9c 01       	movw	r18, r24
    31ec:	3e 5f       	subi	r19, 0xFE	; 254
    31ee:	fc 01       	movw	r30, r24
    31f0:	40 81       	ld	r20, Z
    31f2:	4e bd       	out	0x2e, r20	; 46
    31f4:	0d b4       	in	r0, 0x2d	; 45
    31f6:	07 fe       	sbrs	r0, 7
    31f8:	fd cf       	rjmp	.-6      	; 0x31f4 <xmit_datablock.part.1+0xa>
    31fa:	fc 01       	movw	r30, r24
    31fc:	41 81       	ldd	r20, Z+1	; 0x01
    31fe:	4e bd       	out	0x2e, r20	; 46
    3200:	0d b4       	in	r0, 0x2d	; 45
    3202:	07 fe       	sbrs	r0, 7
    3204:	fd cf       	rjmp	.-6      	; 0x3200 <xmit_datablock.part.1+0x16>
    3206:	02 96       	adiw	r24, 0x02	; 2
    3208:	82 17       	cp	r24, r18
    320a:	93 07       	cpc	r25, r19
    320c:	81 f7       	brne	.-32     	; 0x31ee <xmit_datablock.part.1+0x4>
    320e:	8f ef       	ldi	r24, 0xFF	; 255
    3210:	3e df       	rcall	.-388    	; 0x308e <xchg_spi>
    3212:	8f ef       	ldi	r24, 0xFF	; 255
    3214:	3c df       	rcall	.-392    	; 0x308e <xchg_spi>
    3216:	8f ef       	ldi	r24, 0xFF	; 255
    3218:	3a df       	rcall	.-396    	; 0x308e <xchg_spi>
    321a:	28 2f       	mov	r18, r24
    321c:	2f 71       	andi	r18, 0x1F	; 31
    321e:	81 e0       	ldi	r24, 0x01	; 1
    3220:	90 e0       	ldi	r25, 0x00	; 0
    3222:	25 30       	cpi	r18, 0x05	; 5
    3224:	11 f0       	breq	.+4      	; 0x322a <xmit_datablock.part.1+0x40>
    3226:	80 e0       	ldi	r24, 0x00	; 0
    3228:	90 e0       	ldi	r25, 0x00	; 0
    322a:	08 95       	ret

0000322c <mmc_disk_initialize>:
    322c:	cf 92       	push	r12
    322e:	df 92       	push	r13
    3230:	ef 92       	push	r14
    3232:	ff 92       	push	r15
    3234:	0f 93       	push	r16
    3236:	1f 93       	push	r17
    3238:	cf 93       	push	r28
    323a:	df 93       	push	r29
    323c:	00 d0       	rcall	.+0      	; 0x323e <mmc_disk_initialize+0x12>
    323e:	00 d0       	rcall	.+0      	; 0x3240 <mmc_disk_initialize+0x14>
    3240:	cd b7       	in	r28, 0x3d	; 61
    3242:	de b7       	in	r29, 0x3e	; 62
    3244:	20 df       	rcall	.-448    	; 0x3086 <power_off>
    3246:	8a e0       	ldi	r24, 0x0A	; 10
    3248:	80 93 f4 05 	sts	0x05F4, r24	; 0x8005f4 <Timer1>
    324c:	80 91 f4 05 	lds	r24, 0x05F4	; 0x8005f4 <Timer1>
    3250:	81 11       	cpse	r24, r1
    3252:	fc cf       	rjmp	.-8      	; 0x324c <mmc_disk_initialize+0x20>
    3254:	80 91 78 01 	lds	r24, 0x0178	; 0x800178 <Stat>
    3258:	81 fd       	sbrc	r24, 1
    325a:	97 c0       	rjmp	.+302    	; 0x338a <mmc_disk_initialize+0x15e>
    325c:	87 e0       	ldi	r24, 0x07	; 7
    325e:	85 b9       	out	0x05, r24	; 5
    3260:	84 b1       	in	r24, 0x04	; 4
    3262:	87 60       	ori	r24, 0x07	; 7
    3264:	84 b9       	out	0x04, r24	; 4
    3266:	83 e5       	ldi	r24, 0x53	; 83
    3268:	8c bd       	out	0x2c, r24	; 44
    326a:	82 e5       	ldi	r24, 0x52	; 82
    326c:	8c bd       	out	0x2c, r24	; 44
    326e:	1a e0       	ldi	r17, 0x0A	; 10
    3270:	8f ef       	ldi	r24, 0xFF	; 255
    3272:	0d df       	rcall	.-486    	; 0x308e <xchg_spi>
    3274:	11 50       	subi	r17, 0x01	; 1
    3276:	e1 f7       	brne	.-8      	; 0x3270 <mmc_disk_initialize+0x44>
    3278:	40 e0       	ldi	r20, 0x00	; 0
    327a:	50 e0       	ldi	r21, 0x00	; 0
    327c:	ba 01       	movw	r22, r20
    327e:	80 e0       	ldi	r24, 0x00	; 0
    3280:	70 df       	rcall	.-288    	; 0x3162 <send_cmd>
    3282:	81 30       	cpi	r24, 0x01	; 1
    3284:	09 f0       	breq	.+2      	; 0x3288 <mmc_disk_initialize+0x5c>
    3286:	70 c0       	rjmp	.+224    	; 0x3368 <mmc_disk_initialize+0x13c>
    3288:	84 e6       	ldi	r24, 0x64	; 100
    328a:	80 93 f4 05 	sts	0x05F4, r24	; 0x8005f4 <Timer1>
    328e:	4a ea       	ldi	r20, 0xAA	; 170
    3290:	51 e0       	ldi	r21, 0x01	; 1
    3292:	60 e0       	ldi	r22, 0x00	; 0
    3294:	70 e0       	ldi	r23, 0x00	; 0
    3296:	88 e0       	ldi	r24, 0x08	; 8
    3298:	64 df       	rcall	.-312    	; 0x3162 <send_cmd>
    329a:	81 30       	cpi	r24, 0x01	; 1
    329c:	09 f0       	breq	.+2      	; 0x32a0 <mmc_disk_initialize+0x74>
    329e:	3f c0       	rjmp	.+126    	; 0x331e <mmc_disk_initialize+0xf2>
    32a0:	8e 01       	movw	r16, r28
    32a2:	0f 5f       	subi	r16, 0xFF	; 255
    32a4:	1f 4f       	sbci	r17, 0xFF	; 255
    32a6:	6e 01       	movw	r12, r28
    32a8:	85 e0       	ldi	r24, 0x05	; 5
    32aa:	c8 0e       	add	r12, r24
    32ac:	d1 1c       	adc	r13, r1
    32ae:	78 01       	movw	r14, r16
    32b0:	8f ef       	ldi	r24, 0xFF	; 255
    32b2:	ed de       	rcall	.-550    	; 0x308e <xchg_spi>
    32b4:	f7 01       	movw	r30, r14
    32b6:	81 93       	st	Z+, r24
    32b8:	7f 01       	movw	r14, r30
    32ba:	ce 16       	cp	r12, r30
    32bc:	df 06       	cpc	r13, r31
    32be:	c1 f7       	brne	.-16     	; 0x32b0 <mmc_disk_initialize+0x84>
    32c0:	8b 81       	ldd	r24, Y+3	; 0x03
    32c2:	81 30       	cpi	r24, 0x01	; 1
    32c4:	09 f0       	breq	.+2      	; 0x32c8 <mmc_disk_initialize+0x9c>
    32c6:	50 c0       	rjmp	.+160    	; 0x3368 <mmc_disk_initialize+0x13c>
    32c8:	8c 81       	ldd	r24, Y+4	; 0x04
    32ca:	8a 3a       	cpi	r24, 0xAA	; 170
    32cc:	09 f0       	breq	.+2      	; 0x32d0 <mmc_disk_initialize+0xa4>
    32ce:	4c c0       	rjmp	.+152    	; 0x3368 <mmc_disk_initialize+0x13c>
    32d0:	80 91 f4 05 	lds	r24, 0x05F4	; 0x8005f4 <Timer1>
    32d4:	81 11       	cpse	r24, r1
    32d6:	06 c0       	rjmp	.+12     	; 0x32e4 <mmc_disk_initialize+0xb8>
    32d8:	80 91 f4 05 	lds	r24, 0x05F4	; 0x8005f4 <Timer1>
    32dc:	88 23       	and	r24, r24
    32de:	09 f4       	brne	.+2      	; 0x32e2 <mmc_disk_initialize+0xb6>
    32e0:	43 c0       	rjmp	.+134    	; 0x3368 <mmc_disk_initialize+0x13c>
    32e2:	09 c0       	rjmp	.+18     	; 0x32f6 <mmc_disk_initialize+0xca>
    32e4:	40 e0       	ldi	r20, 0x00	; 0
    32e6:	50 e0       	ldi	r21, 0x00	; 0
    32e8:	60 e0       	ldi	r22, 0x00	; 0
    32ea:	70 e4       	ldi	r23, 0x40	; 64
    32ec:	89 ea       	ldi	r24, 0xA9	; 169
    32ee:	39 df       	rcall	.-398    	; 0x3162 <send_cmd>
    32f0:	81 11       	cpse	r24, r1
    32f2:	ee cf       	rjmp	.-36     	; 0x32d0 <mmc_disk_initialize+0xa4>
    32f4:	f1 cf       	rjmp	.-30     	; 0x32d8 <mmc_disk_initialize+0xac>
    32f6:	40 e0       	ldi	r20, 0x00	; 0
    32f8:	50 e0       	ldi	r21, 0x00	; 0
    32fa:	ba 01       	movw	r22, r20
    32fc:	8a e3       	ldi	r24, 0x3A	; 58
    32fe:	31 df       	rcall	.-414    	; 0x3162 <send_cmd>
    3300:	81 11       	cpse	r24, r1
    3302:	32 c0       	rjmp	.+100    	; 0x3368 <mmc_disk_initialize+0x13c>
    3304:	8f ef       	ldi	r24, 0xFF	; 255
    3306:	c3 de       	rcall	.-634    	; 0x308e <xchg_spi>
    3308:	f8 01       	movw	r30, r16
    330a:	81 93       	st	Z+, r24
    330c:	8f 01       	movw	r16, r30
    330e:	ce 16       	cp	r12, r30
    3310:	df 06       	cpc	r13, r31
    3312:	c1 f7       	brne	.-16     	; 0x3304 <mmc_disk_initialize+0xd8>
    3314:	89 81       	ldd	r24, Y+1	; 0x01
    3316:	86 fd       	sbrc	r24, 6
    3318:	29 c0       	rjmp	.+82     	; 0x336c <mmc_disk_initialize+0x140>
    331a:	18 e0       	ldi	r17, 0x08	; 8
    331c:	28 c0       	rjmp	.+80     	; 0x336e <mmc_disk_initialize+0x142>
    331e:	40 e0       	ldi	r20, 0x00	; 0
    3320:	50 e0       	ldi	r21, 0x00	; 0
    3322:	ba 01       	movw	r22, r20
    3324:	89 ea       	ldi	r24, 0xA9	; 169
    3326:	1d df       	rcall	.-454    	; 0x3162 <send_cmd>
    3328:	82 30       	cpi	r24, 0x02	; 2
    332a:	18 f0       	brcs	.+6      	; 0x3332 <mmc_disk_initialize+0x106>
    332c:	11 e0       	ldi	r17, 0x01	; 1
    332e:	01 e0       	ldi	r16, 0x01	; 1
    3330:	02 c0       	rjmp	.+4      	; 0x3336 <mmc_disk_initialize+0x10a>
    3332:	14 e0       	ldi	r17, 0x04	; 4
    3334:	09 ea       	ldi	r16, 0xA9	; 169
    3336:	80 91 f4 05 	lds	r24, 0x05F4	; 0x8005f4 <Timer1>
    333a:	81 11       	cpse	r24, r1
    333c:	05 c0       	rjmp	.+10     	; 0x3348 <mmc_disk_initialize+0x11c>
    333e:	80 91 f4 05 	lds	r24, 0x05F4	; 0x8005f4 <Timer1>
    3342:	88 23       	and	r24, r24
    3344:	89 f0       	breq	.+34     	; 0x3368 <mmc_disk_initialize+0x13c>
    3346:	08 c0       	rjmp	.+16     	; 0x3358 <mmc_disk_initialize+0x12c>
    3348:	40 e0       	ldi	r20, 0x00	; 0
    334a:	50 e0       	ldi	r21, 0x00	; 0
    334c:	ba 01       	movw	r22, r20
    334e:	80 2f       	mov	r24, r16
    3350:	08 df       	rcall	.-496    	; 0x3162 <send_cmd>
    3352:	81 11       	cpse	r24, r1
    3354:	f0 cf       	rjmp	.-32     	; 0x3336 <mmc_disk_initialize+0x10a>
    3356:	f3 cf       	rjmp	.-26     	; 0x333e <mmc_disk_initialize+0x112>
    3358:	40 e0       	ldi	r20, 0x00	; 0
    335a:	52 e0       	ldi	r21, 0x02	; 2
    335c:	60 e0       	ldi	r22, 0x00	; 0
    335e:	70 e0       	ldi	r23, 0x00	; 0
    3360:	80 e1       	ldi	r24, 0x10	; 16
    3362:	ff de       	rcall	.-514    	; 0x3162 <send_cmd>
    3364:	88 23       	and	r24, r24
    3366:	19 f0       	breq	.+6      	; 0x336e <mmc_disk_initialize+0x142>
    3368:	10 e0       	ldi	r17, 0x00	; 0
    336a:	01 c0       	rjmp	.+2      	; 0x336e <mmc_disk_initialize+0x142>
    336c:	18 e1       	ldi	r17, 0x18	; 24
    336e:	10 93 f1 05 	sts	0x05F1, r17	; 0x8005f1 <CardType>
    3372:	93 de       	rcall	.-730    	; 0x309a <deselect>
    3374:	11 23       	and	r17, r17
    3376:	41 f0       	breq	.+16     	; 0x3388 <mmc_disk_initialize+0x15c>
    3378:	80 91 78 01 	lds	r24, 0x0178	; 0x800178 <Stat>
    337c:	8e 7f       	andi	r24, 0xFE	; 254
    337e:	80 93 78 01 	sts	0x0178, r24	; 0x800178 <Stat>
    3382:	80 e5       	ldi	r24, 0x50	; 80
    3384:	8c bd       	out	0x2c, r24	; 44
    3386:	01 c0       	rjmp	.+2      	; 0x338a <mmc_disk_initialize+0x15e>
    3388:	7e de       	rcall	.-772    	; 0x3086 <power_off>
    338a:	80 91 78 01 	lds	r24, 0x0178	; 0x800178 <Stat>
    338e:	0f 90       	pop	r0
    3390:	0f 90       	pop	r0
    3392:	0f 90       	pop	r0
    3394:	0f 90       	pop	r0
    3396:	df 91       	pop	r29
    3398:	cf 91       	pop	r28
    339a:	1f 91       	pop	r17
    339c:	0f 91       	pop	r16
    339e:	ff 90       	pop	r15
    33a0:	ef 90       	pop	r14
    33a2:	df 90       	pop	r13
    33a4:	cf 90       	pop	r12
    33a6:	08 95       	ret

000033a8 <mmc_disk_status>:
    33a8:	80 91 78 01 	lds	r24, 0x0178	; 0x800178 <Stat>
    33ac:	08 95       	ret

000033ae <mmc_disk_read>:
    33ae:	ef 92       	push	r14
    33b0:	ff 92       	push	r15
    33b2:	1f 93       	push	r17
    33b4:	cf 93       	push	r28
    33b6:	df 93       	push	r29
    33b8:	7c 01       	movw	r14, r24
    33ba:	e9 01       	movw	r28, r18
    33bc:	20 97       	sbiw	r28, 0x00	; 0
    33be:	81 f1       	breq	.+96     	; 0x3420 <mmc_disk_read+0x72>
    33c0:	80 91 78 01 	lds	r24, 0x0178	; 0x800178 <Stat>
    33c4:	80 fd       	sbrc	r24, 0
    33c6:	2e c0       	rjmp	.+92     	; 0x3424 <mmc_disk_read+0x76>
    33c8:	80 91 f1 05 	lds	r24, 0x05F1	; 0x8005f1 <CardType>
    33cc:	84 fd       	sbrc	r24, 4
    33ce:	07 c0       	rjmp	.+14     	; 0x33de <mmc_disk_read+0x30>
    33d0:	89 e0       	ldi	r24, 0x09	; 9
    33d2:	44 0f       	add	r20, r20
    33d4:	55 1f       	adc	r21, r21
    33d6:	66 1f       	adc	r22, r22
    33d8:	77 1f       	adc	r23, r23
    33da:	8a 95       	dec	r24
    33dc:	d1 f7       	brne	.-12     	; 0x33d2 <mmc_disk_read+0x24>
    33de:	c2 30       	cpi	r28, 0x02	; 2
    33e0:	d1 05       	cpc	r29, r1
    33e2:	10 f4       	brcc	.+4      	; 0x33e8 <mmc_disk_read+0x3a>
    33e4:	11 e1       	ldi	r17, 0x11	; 17
    33e6:	01 c0       	rjmp	.+2      	; 0x33ea <mmc_disk_read+0x3c>
    33e8:	12 e1       	ldi	r17, 0x12	; 18
    33ea:	81 2f       	mov	r24, r17
    33ec:	ba de       	rcall	.-652    	; 0x3162 <send_cmd>
    33ee:	81 11       	cpse	r24, r1
    33f0:	11 c0       	rjmp	.+34     	; 0x3414 <mmc_disk_read+0x66>
    33f2:	60 e0       	ldi	r22, 0x00	; 0
    33f4:	72 e0       	ldi	r23, 0x02	; 2
    33f6:	c7 01       	movw	r24, r14
    33f8:	53 de       	rcall	.-858    	; 0x30a0 <rcvr_datablock>
    33fa:	89 2b       	or	r24, r25
    33fc:	21 f0       	breq	.+8      	; 0x3406 <mmc_disk_read+0x58>
    33fe:	8e ef       	ldi	r24, 0xFE	; 254
    3400:	f8 1a       	sub	r15, r24
    3402:	21 97       	sbiw	r28, 0x01	; 1
    3404:	b1 f7       	brne	.-20     	; 0x33f2 <mmc_disk_read+0x44>
    3406:	12 31       	cpi	r17, 0x12	; 18
    3408:	29 f4       	brne	.+10     	; 0x3414 <mmc_disk_read+0x66>
    340a:	40 e0       	ldi	r20, 0x00	; 0
    340c:	50 e0       	ldi	r21, 0x00	; 0
    340e:	ba 01       	movw	r22, r20
    3410:	8c e0       	ldi	r24, 0x0C	; 12
    3412:	a7 de       	rcall	.-690    	; 0x3162 <send_cmd>
    3414:	42 de       	rcall	.-892    	; 0x309a <deselect>
    3416:	81 e0       	ldi	r24, 0x01	; 1
    3418:	cd 2b       	or	r28, r29
    341a:	29 f4       	brne	.+10     	; 0x3426 <mmc_disk_read+0x78>
    341c:	80 e0       	ldi	r24, 0x00	; 0
    341e:	03 c0       	rjmp	.+6      	; 0x3426 <mmc_disk_read+0x78>
    3420:	84 e0       	ldi	r24, 0x04	; 4
    3422:	01 c0       	rjmp	.+2      	; 0x3426 <mmc_disk_read+0x78>
    3424:	83 e0       	ldi	r24, 0x03	; 3
    3426:	df 91       	pop	r29
    3428:	cf 91       	pop	r28
    342a:	1f 91       	pop	r17
    342c:	ff 90       	pop	r15
    342e:	ef 90       	pop	r14
    3430:	08 95       	ret

00003432 <mmc_disk_write>:
    3432:	cf 92       	push	r12
    3434:	df 92       	push	r13
    3436:	ef 92       	push	r14
    3438:	ff 92       	push	r15
    343a:	0f 93       	push	r16
    343c:	1f 93       	push	r17
    343e:	cf 93       	push	r28
    3440:	df 93       	push	r29
    3442:	8c 01       	movw	r16, r24
    3444:	6a 01       	movw	r12, r20
    3446:	7b 01       	movw	r14, r22
    3448:	e9 01       	movw	r28, r18
    344a:	20 97       	sbiw	r28, 0x00	; 0
    344c:	09 f4       	brne	.+2      	; 0x3450 <mmc_disk_write+0x1e>
    344e:	52 c0       	rjmp	.+164    	; 0x34f4 <mmc_disk_write+0xc2>
    3450:	80 91 78 01 	lds	r24, 0x0178	; 0x800178 <Stat>
    3454:	80 fd       	sbrc	r24, 0
    3456:	50 c0       	rjmp	.+160    	; 0x34f8 <mmc_disk_write+0xc6>
    3458:	80 91 78 01 	lds	r24, 0x0178	; 0x800178 <Stat>
    345c:	82 fd       	sbrc	r24, 2
    345e:	4e c0       	rjmp	.+156    	; 0x34fc <mmc_disk_write+0xca>
    3460:	80 91 f1 05 	lds	r24, 0x05F1	; 0x8005f1 <CardType>
    3464:	84 fd       	sbrc	r24, 4
    3466:	07 c0       	rjmp	.+14     	; 0x3476 <mmc_disk_write+0x44>
    3468:	99 e0       	ldi	r25, 0x09	; 9
    346a:	cc 0c       	add	r12, r12
    346c:	dd 1c       	adc	r13, r13
    346e:	ee 1c       	adc	r14, r14
    3470:	ff 1c       	adc	r15, r15
    3472:	9a 95       	dec	r25
    3474:	d1 f7       	brne	.-12     	; 0x346a <mmc_disk_write+0x38>
    3476:	c1 30       	cpi	r28, 0x01	; 1
    3478:	d1 05       	cpc	r29, r1
    347a:	c1 f4       	brne	.+48     	; 0x34ac <mmc_disk_write+0x7a>
    347c:	b7 01       	movw	r22, r14
    347e:	a6 01       	movw	r20, r12
    3480:	88 e1       	ldi	r24, 0x18	; 24
    3482:	6f de       	rcall	.-802    	; 0x3162 <send_cmd>
    3484:	88 23       	and	r24, r24
    3486:	19 f0       	breq	.+6      	; 0x348e <mmc_disk_write+0x5c>
    3488:	c1 e0       	ldi	r28, 0x01	; 1
    348a:	d0 e0       	ldi	r29, 0x00	; 0
    348c:	2d c0       	rjmp	.+90     	; 0x34e8 <mmc_disk_write+0xb6>
    348e:	3c de       	rcall	.-904    	; 0x3108 <wait_ready.constprop.2>
    3490:	89 2b       	or	r24, r25
    3492:	d1 f3       	breq	.-12     	; 0x3488 <mmc_disk_write+0x56>
    3494:	8e ef       	ldi	r24, 0xFE	; 254
    3496:	fb dd       	rcall	.-1034   	; 0x308e <xchg_spi>
    3498:	c8 01       	movw	r24, r16
    349a:	a7 de       	rcall	.-690    	; 0x31ea <xmit_datablock.part.1>
    349c:	31 e0       	ldi	r19, 0x01	; 1
    349e:	20 e0       	ldi	r18, 0x00	; 0
    34a0:	89 2b       	or	r24, r25
    34a2:	09 f0       	breq	.+2      	; 0x34a6 <mmc_disk_write+0x74>
    34a4:	30 e0       	ldi	r19, 0x00	; 0
    34a6:	c3 2f       	mov	r28, r19
    34a8:	d2 2f       	mov	r29, r18
    34aa:	1e c0       	rjmp	.+60     	; 0x34e8 <mmc_disk_write+0xb6>
    34ac:	8c 70       	andi	r24, 0x0C	; 12
    34ae:	29 f0       	breq	.+10     	; 0x34ba <mmc_disk_write+0x88>
    34b0:	ae 01       	movw	r20, r28
    34b2:	60 e0       	ldi	r22, 0x00	; 0
    34b4:	70 e0       	ldi	r23, 0x00	; 0
    34b6:	87 e9       	ldi	r24, 0x97	; 151
    34b8:	54 de       	rcall	.-856    	; 0x3162 <send_cmd>
    34ba:	b7 01       	movw	r22, r14
    34bc:	a6 01       	movw	r20, r12
    34be:	89 e1       	ldi	r24, 0x19	; 25
    34c0:	50 de       	rcall	.-864    	; 0x3162 <send_cmd>
    34c2:	81 11       	cpse	r24, r1
    34c4:	11 c0       	rjmp	.+34     	; 0x34e8 <mmc_disk_write+0xb6>
    34c6:	20 de       	rcall	.-960    	; 0x3108 <wait_ready.constprop.2>
    34c8:	89 2b       	or	r24, r25
    34ca:	49 f0       	breq	.+18     	; 0x34de <mmc_disk_write+0xac>
    34cc:	8c ef       	ldi	r24, 0xFC	; 252
    34ce:	df dd       	rcall	.-1090   	; 0x308e <xchg_spi>
    34d0:	c8 01       	movw	r24, r16
    34d2:	8b de       	rcall	.-746    	; 0x31ea <xmit_datablock.part.1>
    34d4:	89 2b       	or	r24, r25
    34d6:	19 f0       	breq	.+6      	; 0x34de <mmc_disk_write+0xac>
    34d8:	1e 5f       	subi	r17, 0xFE	; 254
    34da:	21 97       	sbiw	r28, 0x01	; 1
    34dc:	a1 f7       	brne	.-24     	; 0x34c6 <mmc_disk_write+0x94>
    34de:	14 de       	rcall	.-984    	; 0x3108 <wait_ready.constprop.2>
    34e0:	89 2b       	or	r24, r25
    34e2:	91 f2       	breq	.-92     	; 0x3488 <mmc_disk_write+0x56>
    34e4:	8d ef       	ldi	r24, 0xFD	; 253
    34e6:	d3 dd       	rcall	.-1114   	; 0x308e <xchg_spi>
    34e8:	d8 dd       	rcall	.-1104   	; 0x309a <deselect>
    34ea:	81 e0       	ldi	r24, 0x01	; 1
    34ec:	cd 2b       	or	r28, r29
    34ee:	39 f4       	brne	.+14     	; 0x34fe <mmc_disk_write+0xcc>
    34f0:	80 e0       	ldi	r24, 0x00	; 0
    34f2:	05 c0       	rjmp	.+10     	; 0x34fe <mmc_disk_write+0xcc>
    34f4:	84 e0       	ldi	r24, 0x04	; 4
    34f6:	03 c0       	rjmp	.+6      	; 0x34fe <mmc_disk_write+0xcc>
    34f8:	83 e0       	ldi	r24, 0x03	; 3
    34fa:	01 c0       	rjmp	.+2      	; 0x34fe <mmc_disk_write+0xcc>
    34fc:	82 e0       	ldi	r24, 0x02	; 2
    34fe:	df 91       	pop	r29
    3500:	cf 91       	pop	r28
    3502:	1f 91       	pop	r17
    3504:	0f 91       	pop	r16
    3506:	ff 90       	pop	r15
    3508:	ef 90       	pop	r14
    350a:	df 90       	pop	r13
    350c:	cf 90       	pop	r12
    350e:	08 95       	ret

00003510 <mmc_disk_ioctl>:
    3510:	cf 92       	push	r12
    3512:	df 92       	push	r13
    3514:	ef 92       	push	r14
    3516:	ff 92       	push	r15
    3518:	0f 93       	push	r16
    351a:	1f 93       	push	r17
    351c:	cf 93       	push	r28
    351e:	df 93       	push	r29
    3520:	cd b7       	in	r28, 0x3d	; 61
    3522:	de b7       	in	r29, 0x3e	; 62
    3524:	60 97       	sbiw	r28, 0x10	; 16
    3526:	0f b6       	in	r0, 0x3f	; 63
    3528:	f8 94       	cli
    352a:	de bf       	out	0x3e, r29	; 62
    352c:	0f be       	out	0x3f, r0	; 63
    352e:	cd bf       	out	0x3d, r28	; 61
    3530:	90 91 78 01 	lds	r25, 0x0178	; 0x800178 <Stat>
    3534:	90 fd       	sbrc	r25, 0
    3536:	26 c2       	rjmp	.+1100   	; 0x3984 <mmc_disk_ioctl+0x474>
    3538:	8b 01       	movw	r16, r22
    353a:	83 33       	cpi	r24, 0x33	; 51
    353c:	09 f4       	brne	.+2      	; 0x3540 <mmc_disk_ioctl+0x30>
    353e:	ff c0       	rjmp	.+510    	; 0x373e <mmc_disk_ioctl+0x22e>
    3540:	a0 f4       	brcc	.+40     	; 0x356a <mmc_disk_ioctl+0x5a>
    3542:	83 30       	cpi	r24, 0x03	; 3
    3544:	09 f4       	brne	.+2      	; 0x3548 <mmc_disk_ioctl+0x38>
    3546:	85 c0       	rjmp	.+266    	; 0x3652 <mmc_disk_ioctl+0x142>
    3548:	28 f4       	brcc	.+10     	; 0x3554 <mmc_disk_ioctl+0x44>
    354a:	88 23       	and	r24, r24
    354c:	11 f1       	breq	.+68     	; 0x3592 <mmc_disk_ioctl+0x82>
    354e:	81 30       	cpi	r24, 0x01	; 1
    3550:	11 f1       	breq	.+68     	; 0x3596 <mmc_disk_ioctl+0x86>
    3552:	1a c2       	rjmp	.+1076   	; 0x3988 <mmc_disk_ioctl+0x478>
    3554:	87 30       	cpi	r24, 0x07	; 7
    3556:	09 f4       	brne	.+2      	; 0x355a <mmc_disk_ioctl+0x4a>
    3558:	27 c1       	rjmp	.+590    	; 0x37a8 <mmc_disk_ioctl+0x298>
    355a:	82 33       	cpi	r24, 0x32	; 50
    355c:	09 f0       	breq	.+2      	; 0x3560 <mmc_disk_ioctl+0x50>
    355e:	14 c2       	rjmp	.+1064   	; 0x3988 <mmc_disk_ioctl+0x478>
    3560:	80 91 f1 05 	lds	r24, 0x05F1	; 0x8005f1 <CardType>
    3564:	fb 01       	movw	r30, r22
    3566:	80 83       	st	Z, r24
    3568:	25 c1       	rjmp	.+586    	; 0x37b4 <mmc_disk_ioctl+0x2a4>
    356a:	86 33       	cpi	r24, 0x36	; 54
    356c:	09 f4       	brne	.+2      	; 0x3570 <mmc_disk_ioctl+0x60>
    356e:	0a c1       	rjmp	.+532    	; 0x3784 <mmc_disk_ioctl+0x274>
    3570:	38 f4       	brcc	.+14     	; 0x3580 <mmc_disk_ioctl+0x70>
    3572:	84 33       	cpi	r24, 0x34	; 52
    3574:	09 f4       	brne	.+2      	; 0x3578 <mmc_disk_ioctl+0x68>
    3576:	e8 c0       	rjmp	.+464    	; 0x3748 <mmc_disk_ioctl+0x238>
    3578:	85 33       	cpi	r24, 0x35	; 53
    357a:	09 f4       	brne	.+2      	; 0x357e <mmc_disk_ioctl+0x6e>
    357c:	ef c0       	rjmp	.+478    	; 0x375c <mmc_disk_ioctl+0x24c>
    357e:	04 c2       	rjmp	.+1032   	; 0x3988 <mmc_disk_ioctl+0x478>
    3580:	88 33       	cpi	r24, 0x38	; 56
    3582:	09 f4       	brne	.+2      	; 0x3586 <mmc_disk_ioctl+0x76>
    3584:	72 c1       	rjmp	.+740    	; 0x386a <mmc_disk_ioctl+0x35a>
    3586:	08 f4       	brcc	.+2      	; 0x358a <mmc_disk_ioctl+0x7a>
    3588:	17 c1       	rjmp	.+558    	; 0x37b8 <mmc_disk_ioctl+0x2a8>
    358a:	89 33       	cpi	r24, 0x39	; 57
    358c:	09 f4       	brne	.+2      	; 0x3590 <mmc_disk_ioctl+0x80>
    358e:	ba c1       	rjmp	.+884    	; 0x3904 <mmc_disk_ioctl+0x3f4>
    3590:	fb c1       	rjmp	.+1014   	; 0x3988 <mmc_disk_ioctl+0x478>
    3592:	d6 dd       	rcall	.-1108   	; 0x3140 <select>
    3594:	04 c1       	rjmp	.+520    	; 0x379e <mmc_disk_ioctl+0x28e>
    3596:	40 e0       	ldi	r20, 0x00	; 0
    3598:	50 e0       	ldi	r21, 0x00	; 0
    359a:	ba 01       	movw	r22, r20
    359c:	89 e0       	ldi	r24, 0x09	; 9
    359e:	e1 dd       	rcall	.-1086   	; 0x3162 <send_cmd>
    35a0:	81 11       	cpse	r24, r1
    35a2:	ed c1       	rjmp	.+986    	; 0x397e <mmc_disk_ioctl+0x46e>
    35a4:	60 e1       	ldi	r22, 0x10	; 16
    35a6:	70 e0       	ldi	r23, 0x00	; 0
    35a8:	ce 01       	movw	r24, r28
    35aa:	01 96       	adiw	r24, 0x01	; 1
    35ac:	79 dd       	rcall	.-1294   	; 0x30a0 <rcvr_datablock>
    35ae:	89 2b       	or	r24, r25
    35b0:	09 f4       	brne	.+2      	; 0x35b4 <mmc_disk_ioctl+0xa4>
    35b2:	e5 c1       	rjmp	.+970    	; 0x397e <mmc_disk_ioctl+0x46e>
    35b4:	99 81       	ldd	r25, Y+1	; 0x01
    35b6:	92 95       	swap	r25
    35b8:	96 95       	lsr	r25
    35ba:	96 95       	lsr	r25
    35bc:	93 70       	andi	r25, 0x03	; 3
    35be:	29 85       	ldd	r18, Y+9	; 0x09
    35c0:	4a 85       	ldd	r20, Y+10	; 0x0a
    35c2:	88 85       	ldd	r24, Y+8	; 0x08
    35c4:	91 30       	cpi	r25, 0x01	; 1
    35c6:	d9 f4       	brne	.+54     	; 0x35fe <mmc_disk_ioctl+0xee>
    35c8:	30 e0       	ldi	r19, 0x00	; 0
    35ca:	32 2f       	mov	r19, r18
    35cc:	22 27       	eor	r18, r18
    35ce:	24 0f       	add	r18, r20
    35d0:	31 1d       	adc	r19, r1
    35d2:	8f 73       	andi	r24, 0x3F	; 63
    35d4:	90 e0       	ldi	r25, 0x00	; 0
    35d6:	a0 e0       	ldi	r26, 0x00	; 0
    35d8:	b0 e0       	ldi	r27, 0x00	; 0
    35da:	dc 01       	movw	r26, r24
    35dc:	99 27       	eor	r25, r25
    35de:	88 27       	eor	r24, r24
    35e0:	01 96       	adiw	r24, 0x01	; 1
    35e2:	a1 1d       	adc	r26, r1
    35e4:	b1 1d       	adc	r27, r1
    35e6:	82 0f       	add	r24, r18
    35e8:	93 1f       	adc	r25, r19
    35ea:	a1 1d       	adc	r26, r1
    35ec:	b1 1d       	adc	r27, r1
    35ee:	fa e0       	ldi	r31, 0x0A	; 10
    35f0:	88 0f       	add	r24, r24
    35f2:	99 1f       	adc	r25, r25
    35f4:	aa 1f       	adc	r26, r26
    35f6:	bb 1f       	adc	r27, r27
    35f8:	fa 95       	dec	r31
    35fa:	d1 f7       	brne	.-12     	; 0x35f0 <mmc_disk_ioctl+0xe0>
    35fc:	99 c0       	rjmp	.+306    	; 0x3730 <mmc_disk_ioctl+0x220>
    35fe:	22 95       	swap	r18
    3600:	26 95       	lsr	r18
    3602:	26 95       	lsr	r18
    3604:	23 70       	andi	r18, 0x03	; 3
    3606:	f4 e0       	ldi	r31, 0x04	; 4
    3608:	8f 9f       	mul	r24, r31
    360a:	c0 01       	movw	r24, r0
    360c:	11 24       	eor	r1, r1
    360e:	82 0f       	add	r24, r18
    3610:	91 1d       	adc	r25, r1
    3612:	01 96       	adiw	r24, 0x01	; 1
    3614:	2f 81       	ldd	r18, Y+7	; 0x07
    3616:	23 70       	andi	r18, 0x03	; 3
    3618:	30 e0       	ldi	r19, 0x00	; 0
    361a:	32 2f       	mov	r19, r18
    361c:	22 27       	eor	r18, r18
    361e:	33 0f       	add	r19, r19
    3620:	33 0f       	add	r19, r19
    3622:	82 0f       	add	r24, r18
    3624:	93 1f       	adc	r25, r19
    3626:	a0 e0       	ldi	r26, 0x00	; 0
    3628:	b0 e0       	ldi	r27, 0x00	; 0
    362a:	2e 81       	ldd	r18, Y+6	; 0x06
    362c:	32 2f       	mov	r19, r18
    362e:	3f 70       	andi	r19, 0x0F	; 15
    3630:	2b 85       	ldd	r18, Y+11	; 0x0b
    3632:	22 1f       	adc	r18, r18
    3634:	22 27       	eor	r18, r18
    3636:	22 1f       	adc	r18, r18
    3638:	23 0f       	add	r18, r19
    363a:	43 70       	andi	r20, 0x03	; 3
    363c:	44 0f       	add	r20, r20
    363e:	42 0f       	add	r20, r18
    3640:	47 50       	subi	r20, 0x07	; 7
    3642:	04 c0       	rjmp	.+8      	; 0x364c <mmc_disk_ioctl+0x13c>
    3644:	88 0f       	add	r24, r24
    3646:	99 1f       	adc	r25, r25
    3648:	aa 1f       	adc	r26, r26
    364a:	bb 1f       	adc	r27, r27
    364c:	4a 95       	dec	r20
    364e:	d2 f7       	brpl	.-12     	; 0x3644 <mmc_disk_ioctl+0x134>
    3650:	6f c0       	rjmp	.+222    	; 0x3730 <mmc_disk_ioctl+0x220>
    3652:	f0 90 f1 05 	lds	r15, 0x05F1	; 0x8005f1 <CardType>
    3656:	40 e0       	ldi	r20, 0x00	; 0
    3658:	50 e0       	ldi	r21, 0x00	; 0
    365a:	ba 01       	movw	r22, r20
    365c:	f3 fe       	sbrs	r15, 3
    365e:	24 c0       	rjmp	.+72     	; 0x36a8 <mmc_disk_ioctl+0x198>
    3660:	8d e8       	ldi	r24, 0x8D	; 141
    3662:	7f dd       	rcall	.-1282   	; 0x3162 <send_cmd>
    3664:	81 11       	cpse	r24, r1
    3666:	8b c1       	rjmp	.+790    	; 0x397e <mmc_disk_ioctl+0x46e>
    3668:	8f ef       	ldi	r24, 0xFF	; 255
    366a:	11 dd       	rcall	.-1502   	; 0x308e <xchg_spi>
    366c:	60 e1       	ldi	r22, 0x10	; 16
    366e:	70 e0       	ldi	r23, 0x00	; 0
    3670:	ce 01       	movw	r24, r28
    3672:	01 96       	adiw	r24, 0x01	; 1
    3674:	15 dd       	rcall	.-1494   	; 0x30a0 <rcvr_datablock>
    3676:	89 2b       	or	r24, r25
    3678:	09 f4       	brne	.+2      	; 0x367c <mmc_disk_ioctl+0x16c>
    367a:	81 c1       	rjmp	.+770    	; 0x397e <mmc_disk_ioctl+0x46e>
    367c:	50 e3       	ldi	r21, 0x30	; 48
    367e:	f5 2e       	mov	r15, r21
    3680:	8f ef       	ldi	r24, 0xFF	; 255
    3682:	05 dd       	rcall	.-1526   	; 0x308e <xchg_spi>
    3684:	fa 94       	dec	r15
    3686:	f1 10       	cpse	r15, r1
    3688:	fb cf       	rjmp	.-10     	; 0x3680 <mmc_disk_ioctl+0x170>
    368a:	2b 85       	ldd	r18, Y+11	; 0x0b
    368c:	22 95       	swap	r18
    368e:	2f 70       	andi	r18, 0x0F	; 15
    3690:	80 e1       	ldi	r24, 0x10	; 16
    3692:	90 e0       	ldi	r25, 0x00	; 0
    3694:	a0 e0       	ldi	r26, 0x00	; 0
    3696:	b0 e0       	ldi	r27, 0x00	; 0
    3698:	04 c0       	rjmp	.+8      	; 0x36a2 <mmc_disk_ioctl+0x192>
    369a:	88 0f       	add	r24, r24
    369c:	99 1f       	adc	r25, r25
    369e:	aa 1f       	adc	r26, r26
    36a0:	bb 1f       	adc	r27, r27
    36a2:	2a 95       	dec	r18
    36a4:	d2 f7       	brpl	.-12     	; 0x369a <mmc_disk_ioctl+0x18a>
    36a6:	44 c0       	rjmp	.+136    	; 0x3730 <mmc_disk_ioctl+0x220>
    36a8:	89 e0       	ldi	r24, 0x09	; 9
    36aa:	5b dd       	rcall	.-1354   	; 0x3162 <send_cmd>
    36ac:	81 11       	cpse	r24, r1
    36ae:	67 c1       	rjmp	.+718    	; 0x397e <mmc_disk_ioctl+0x46e>
    36b0:	60 e1       	ldi	r22, 0x10	; 16
    36b2:	70 e0       	ldi	r23, 0x00	; 0
    36b4:	ce 01       	movw	r24, r28
    36b6:	01 96       	adiw	r24, 0x01	; 1
    36b8:	f3 dc       	rcall	.-1562   	; 0x30a0 <rcvr_datablock>
    36ba:	89 2b       	or	r24, r25
    36bc:	09 f4       	brne	.+2      	; 0x36c0 <mmc_disk_ioctl+0x1b0>
    36be:	5f c1       	rjmp	.+702    	; 0x397e <mmc_disk_ioctl+0x46e>
    36c0:	2b 85       	ldd	r18, Y+11	; 0x0b
    36c2:	8c 85       	ldd	r24, Y+12	; 0x0c
    36c4:	f2 fe       	sbrs	r15, 2
    36c6:	16 c0       	rjmp	.+44     	; 0x36f4 <mmc_disk_ioctl+0x1e4>
    36c8:	2f 73       	andi	r18, 0x3F	; 63
    36ca:	88 1f       	adc	r24, r24
    36cc:	88 27       	eor	r24, r24
    36ce:	88 1f       	adc	r24, r24
    36d0:	90 e0       	ldi	r25, 0x00	; 0
    36d2:	01 96       	adiw	r24, 0x01	; 1
    36d4:	82 0f       	add	r24, r18
    36d6:	91 1d       	adc	r25, r1
    36d8:	82 0f       	add	r24, r18
    36da:	91 1d       	adc	r25, r1
    36dc:	2e 85       	ldd	r18, Y+14	; 0x0e
    36de:	22 95       	swap	r18
    36e0:	26 95       	lsr	r18
    36e2:	26 95       	lsr	r18
    36e4:	23 70       	andi	r18, 0x03	; 3
    36e6:	21 50       	subi	r18, 0x01	; 1
    36e8:	02 c0       	rjmp	.+4      	; 0x36ee <mmc_disk_ioctl+0x1de>
    36ea:	88 0f       	add	r24, r24
    36ec:	99 1f       	adc	r25, r25
    36ee:	2a 95       	dec	r18
    36f0:	e2 f7       	brpl	.-8      	; 0x36ea <mmc_disk_ioctl+0x1da>
    36f2:	1c c0       	rjmp	.+56     	; 0x372c <mmc_disk_ioctl+0x21c>
    36f4:	38 2f       	mov	r19, r24
    36f6:	33 70       	andi	r19, 0x03	; 3
    36f8:	82 95       	swap	r24
    36fa:	86 95       	lsr	r24
    36fc:	87 70       	andi	r24, 0x07	; 7
    36fe:	90 e0       	ldi	r25, 0x00	; 0
    3700:	f8 e0       	ldi	r31, 0x08	; 8
    3702:	3f 9f       	mul	r19, r31
    3704:	80 0d       	add	r24, r0
    3706:	91 1d       	adc	r25, r1
    3708:	11 24       	eor	r1, r1
    370a:	01 96       	adiw	r24, 0x01	; 1
    370c:	2c 77       	andi	r18, 0x7C	; 124
    370e:	30 e0       	ldi	r19, 0x00	; 0
    3710:	35 95       	asr	r19
    3712:	27 95       	ror	r18
    3714:	35 95       	asr	r19
    3716:	27 95       	ror	r18
    3718:	2f 5f       	subi	r18, 0xFF	; 255
    371a:	3f 4f       	sbci	r19, 0xFF	; 255
    371c:	82 9f       	mul	r24, r18
    371e:	a0 01       	movw	r20, r0
    3720:	83 9f       	mul	r24, r19
    3722:	50 0d       	add	r21, r0
    3724:	92 9f       	mul	r25, r18
    3726:	50 0d       	add	r21, r0
    3728:	11 24       	eor	r1, r1
    372a:	ca 01       	movw	r24, r20
    372c:	a0 e0       	ldi	r26, 0x00	; 0
    372e:	b0 e0       	ldi	r27, 0x00	; 0
    3730:	f8 01       	movw	r30, r16
    3732:	80 83       	st	Z, r24
    3734:	91 83       	std	Z+1, r25	; 0x01
    3736:	a2 83       	std	Z+2, r26	; 0x02
    3738:	b3 83       	std	Z+3, r27	; 0x03
    373a:	10 e0       	ldi	r17, 0x00	; 0
    373c:	21 c1       	rjmp	.+578    	; 0x3980 <mmc_disk_ioctl+0x470>
    373e:	40 e0       	ldi	r20, 0x00	; 0
    3740:	50 e0       	ldi	r21, 0x00	; 0
    3742:	ba 01       	movw	r22, r20
    3744:	89 e0       	ldi	r24, 0x09	; 9
    3746:	04 c0       	rjmp	.+8      	; 0x3750 <mmc_disk_ioctl+0x240>
    3748:	40 e0       	ldi	r20, 0x00	; 0
    374a:	50 e0       	ldi	r21, 0x00	; 0
    374c:	ba 01       	movw	r22, r20
    374e:	8a e0       	ldi	r24, 0x0A	; 10
    3750:	08 dd       	rcall	.-1520   	; 0x3162 <send_cmd>
    3752:	81 11       	cpse	r24, r1
    3754:	14 c1       	rjmp	.+552    	; 0x397e <mmc_disk_ioctl+0x46e>
    3756:	60 e1       	ldi	r22, 0x10	; 16
    3758:	70 e0       	ldi	r23, 0x00	; 0
    375a:	1f c0       	rjmp	.+62     	; 0x379a <mmc_disk_ioctl+0x28a>
    375c:	40 e0       	ldi	r20, 0x00	; 0
    375e:	50 e0       	ldi	r21, 0x00	; 0
    3760:	ba 01       	movw	r22, r20
    3762:	8a e3       	ldi	r24, 0x3A	; 58
    3764:	fe dc       	rcall	.-1540   	; 0x3162 <send_cmd>
    3766:	81 11       	cpse	r24, r1
    3768:	0a c1       	rjmp	.+532    	; 0x397e <mmc_disk_ioctl+0x46e>
    376a:	78 01       	movw	r14, r16
    376c:	f4 e0       	ldi	r31, 0x04	; 4
    376e:	ef 0e       	add	r14, r31
    3770:	f1 1c       	adc	r15, r1
    3772:	8f ef       	ldi	r24, 0xFF	; 255
    3774:	8c dc       	rcall	.-1768   	; 0x308e <xchg_spi>
    3776:	f8 01       	movw	r30, r16
    3778:	81 93       	st	Z+, r24
    377a:	8f 01       	movw	r16, r30
    377c:	ee 15       	cp	r30, r14
    377e:	ff 05       	cpc	r31, r15
    3780:	c1 f7       	brne	.-16     	; 0x3772 <mmc_disk_ioctl+0x262>
    3782:	db cf       	rjmp	.-74     	; 0x373a <mmc_disk_ioctl+0x22a>
    3784:	40 e0       	ldi	r20, 0x00	; 0
    3786:	50 e0       	ldi	r21, 0x00	; 0
    3788:	ba 01       	movw	r22, r20
    378a:	8d e8       	ldi	r24, 0x8D	; 141
    378c:	ea dc       	rcall	.-1580   	; 0x3162 <send_cmd>
    378e:	81 11       	cpse	r24, r1
    3790:	f6 c0       	rjmp	.+492    	; 0x397e <mmc_disk_ioctl+0x46e>
    3792:	8f ef       	ldi	r24, 0xFF	; 255
    3794:	7c dc       	rcall	.-1800   	; 0x308e <xchg_spi>
    3796:	60 e4       	ldi	r22, 0x40	; 64
    3798:	70 e0       	ldi	r23, 0x00	; 0
    379a:	c8 01       	movw	r24, r16
    379c:	81 dc       	rcall	.-1790   	; 0x30a0 <rcvr_datablock>
    379e:	11 e0       	ldi	r17, 0x01	; 1
    37a0:	89 2b       	or	r24, r25
    37a2:	09 f4       	brne	.+2      	; 0x37a6 <mmc_disk_ioctl+0x296>
    37a4:	ed c0       	rjmp	.+474    	; 0x3980 <mmc_disk_ioctl+0x470>
    37a6:	c9 cf       	rjmp	.-110    	; 0x373a <mmc_disk_ioctl+0x22a>
    37a8:	6e dc       	rcall	.-1828   	; 0x3086 <power_off>
    37aa:	80 91 78 01 	lds	r24, 0x0178	; 0x800178 <Stat>
    37ae:	81 60       	ori	r24, 0x01	; 1
    37b0:	80 93 78 01 	sts	0x0178, r24	; 0x800178 <Stat>
    37b4:	10 e0       	ldi	r17, 0x00	; 0
    37b6:	e9 c0       	rjmp	.+466    	; 0x398a <mmc_disk_ioctl+0x47a>
    37b8:	fb 01       	movw	r30, r22
    37ba:	43 81       	ldd	r20, Z+3	; 0x03
    37bc:	54 81       	ldd	r21, Z+4	; 0x04
    37be:	65 81       	ldd	r22, Z+5	; 0x05
    37c0:	76 81       	ldd	r23, Z+6	; 0x06
    37c2:	39 e0       	ldi	r19, 0x09	; 9
    37c4:	44 0f       	add	r20, r20
    37c6:	55 1f       	adc	r21, r21
    37c8:	66 1f       	adc	r22, r22
    37ca:	77 1f       	adc	r23, r23
    37cc:	3a 95       	dec	r19
    37ce:	d1 f7       	brne	.-12     	; 0x37c4 <mmc_disk_ioctl+0x2b4>
    37d0:	70 68       	ori	r23, 0x80	; 128
    37d2:	80 81       	ld	r24, Z
    37d4:	90 e0       	ldi	r25, 0x00	; 0
    37d6:	a0 e0       	ldi	r26, 0x00	; 0
    37d8:	b0 e0       	ldi	r27, 0x00	; 0
    37da:	2c e1       	ldi	r18, 0x1C	; 28
    37dc:	88 0f       	add	r24, r24
    37de:	99 1f       	adc	r25, r25
    37e0:	aa 1f       	adc	r26, r26
    37e2:	bb 1f       	adc	r27, r27
    37e4:	2a 95       	dec	r18
    37e6:	d1 f7       	brne	.-12     	; 0x37dc <mmc_disk_ioctl+0x2cc>
    37e8:	48 2b       	or	r20, r24
    37ea:	59 2b       	or	r21, r25
    37ec:	6a 2b       	or	r22, r26
    37ee:	7b 2b       	or	r23, r27
    37f0:	81 81       	ldd	r24, Z+1	; 0x01
    37f2:	92 81       	ldd	r25, Z+2	; 0x02
    37f4:	01 97       	sbiw	r24, 0x01	; 1
    37f6:	91 70       	andi	r25, 0x01	; 1
    37f8:	a0 e0       	ldi	r26, 0x00	; 0
    37fa:	b0 e0       	ldi	r27, 0x00	; 0
    37fc:	48 2b       	or	r20, r24
    37fe:	59 2b       	or	r21, r25
    3800:	6a 2b       	or	r22, r26
    3802:	7b 2b       	or	r23, r27
    3804:	80 e3       	ldi	r24, 0x30	; 48
    3806:	ad dc       	rcall	.-1702   	; 0x3162 <send_cmd>
    3808:	81 11       	cpse	r24, r1
    380a:	b9 c0       	rjmp	.+370    	; 0x397e <mmc_disk_ioctl+0x46e>
    380c:	84 e6       	ldi	r24, 0x64	; 100
    380e:	80 93 f4 05 	sts	0x05F4, r24	; 0x8005f4 <Timer1>
    3812:	8f ef       	ldi	r24, 0xFF	; 255
    3814:	3c dc       	rcall	.-1928   	; 0x308e <xchg_spi>
    3816:	8f 3f       	cpi	r24, 0xFF	; 255
    3818:	29 f4       	brne	.+10     	; 0x3824 <mmc_disk_ioctl+0x314>
    381a:	80 91 f4 05 	lds	r24, 0x05F4	; 0x8005f4 <Timer1>
    381e:	81 11       	cpse	r24, r1
    3820:	f8 cf       	rjmp	.-16     	; 0x3812 <mmc_disk_ioctl+0x302>
    3822:	ad c0       	rjmp	.+346    	; 0x397e <mmc_disk_ioctl+0x46e>
    3824:	8e 3f       	cpi	r24, 0xFE	; 254
    3826:	09 f0       	breq	.+2      	; 0x382a <mmc_disk_ioctl+0x31a>
    3828:	aa c0       	rjmp	.+340    	; 0x397e <mmc_disk_ioctl+0x46e>
    382a:	f8 01       	movw	r30, r16
    382c:	e7 80       	ldd	r14, Z+7	; 0x07
    382e:	f0 84       	ldd	r15, Z+8	; 0x08
    3830:	c1 80       	ldd	r12, Z+1	; 0x01
    3832:	d2 80       	ldd	r13, Z+2	; 0x02
    3834:	ce 0c       	add	r12, r14
    3836:	df 1c       	adc	r13, r15
    3838:	ce 14       	cp	r12, r14
    383a:	df 04       	cpc	r13, r15
    383c:	31 f0       	breq	.+12     	; 0x384a <mmc_disk_ioctl+0x33a>
    383e:	8f ef       	ldi	r24, 0xFF	; 255
    3840:	26 dc       	rcall	.-1972   	; 0x308e <xchg_spi>
    3842:	f7 01       	movw	r30, r14
    3844:	81 93       	st	Z+, r24
    3846:	7f 01       	movw	r14, r30
    3848:	f7 cf       	rjmp	.-18     	; 0x3838 <mmc_disk_ioctl+0x328>
    384a:	f8 01       	movw	r30, r16
    384c:	81 81       	ldd	r24, Z+1	; 0x01
    384e:	92 81       	ldd	r25, Z+2	; 0x02
    3850:	02 e0       	ldi	r16, 0x02	; 2
    3852:	12 e0       	ldi	r17, 0x02	; 2
    3854:	08 1b       	sub	r16, r24
    3856:	19 0b       	sbc	r17, r25
    3858:	01 15       	cp	r16, r1
    385a:	11 05       	cpc	r17, r1
    385c:	09 f4       	brne	.+2      	; 0x3860 <mmc_disk_ioctl+0x350>
    385e:	6d cf       	rjmp	.-294    	; 0x373a <mmc_disk_ioctl+0x22a>
    3860:	8f ef       	ldi	r24, 0xFF	; 255
    3862:	15 dc       	rcall	.-2006   	; 0x308e <xchg_spi>
    3864:	01 50       	subi	r16, 0x01	; 1
    3866:	11 09       	sbc	r17, r1
    3868:	f7 cf       	rjmp	.-18     	; 0x3858 <mmc_disk_ioctl+0x348>
    386a:	fb 01       	movw	r30, r22
    386c:	43 81       	ldd	r20, Z+3	; 0x03
    386e:	54 81       	ldd	r21, Z+4	; 0x04
    3870:	65 81       	ldd	r22, Z+5	; 0x05
    3872:	76 81       	ldd	r23, Z+6	; 0x06
    3874:	39 e0       	ldi	r19, 0x09	; 9
    3876:	44 0f       	add	r20, r20
    3878:	55 1f       	adc	r21, r21
    387a:	66 1f       	adc	r22, r22
    387c:	77 1f       	adc	r23, r23
    387e:	3a 95       	dec	r19
    3880:	d1 f7       	brne	.-12     	; 0x3876 <mmc_disk_ioctl+0x366>
    3882:	70 68       	ori	r23, 0x80	; 128
    3884:	80 81       	ld	r24, Z
    3886:	90 e0       	ldi	r25, 0x00	; 0
    3888:	a0 e0       	ldi	r26, 0x00	; 0
    388a:	b0 e0       	ldi	r27, 0x00	; 0
    388c:	2c e1       	ldi	r18, 0x1C	; 28
    388e:	88 0f       	add	r24, r24
    3890:	99 1f       	adc	r25, r25
    3892:	aa 1f       	adc	r26, r26
    3894:	bb 1f       	adc	r27, r27
    3896:	2a 95       	dec	r18
    3898:	d1 f7       	brne	.-12     	; 0x388e <mmc_disk_ioctl+0x37e>
    389a:	48 2b       	or	r20, r24
    389c:	59 2b       	or	r21, r25
    389e:	6a 2b       	or	r22, r26
    38a0:	7b 2b       	or	r23, r27
    38a2:	81 81       	ldd	r24, Z+1	; 0x01
    38a4:	92 81       	ldd	r25, Z+2	; 0x02
    38a6:	01 97       	sbiw	r24, 0x01	; 1
    38a8:	91 70       	andi	r25, 0x01	; 1
    38aa:	a0 e0       	ldi	r26, 0x00	; 0
    38ac:	b0 e0       	ldi	r27, 0x00	; 0
    38ae:	48 2b       	or	r20, r24
    38b0:	59 2b       	or	r21, r25
    38b2:	6a 2b       	or	r22, r26
    38b4:	7b 2b       	or	r23, r27
    38b6:	81 e3       	ldi	r24, 0x31	; 49
    38b8:	54 dc       	rcall	.-1880   	; 0x3162 <send_cmd>
    38ba:	81 11       	cpse	r24, r1
    38bc:	60 c0       	rjmp	.+192    	; 0x397e <mmc_disk_ioctl+0x46e>
    38be:	8f ef       	ldi	r24, 0xFF	; 255
    38c0:	e6 db       	rcall	.-2100   	; 0x308e <xchg_spi>
    38c2:	8e ef       	ldi	r24, 0xFE	; 254
    38c4:	e4 db       	rcall	.-2104   	; 0x308e <xchg_spi>
    38c6:	f8 01       	movw	r30, r16
    38c8:	e7 80       	ldd	r14, Z+7	; 0x07
    38ca:	f0 84       	ldd	r15, Z+8	; 0x08
    38cc:	c1 80       	ldd	r12, Z+1	; 0x01
    38ce:	d2 80       	ldd	r13, Z+2	; 0x02
    38d0:	ce 0c       	add	r12, r14
    38d2:	df 1c       	adc	r13, r15
    38d4:	ec 14       	cp	r14, r12
    38d6:	fd 04       	cpc	r15, r13
    38d8:	29 f0       	breq	.+10     	; 0x38e4 <mmc_disk_ioctl+0x3d4>
    38da:	f7 01       	movw	r30, r14
    38dc:	81 91       	ld	r24, Z+
    38de:	7f 01       	movw	r14, r30
    38e0:	d6 db       	rcall	.-2132   	; 0x308e <xchg_spi>
    38e2:	f8 cf       	rjmp	.-16     	; 0x38d4 <mmc_disk_ioctl+0x3c4>
    38e4:	f8 01       	movw	r30, r16
    38e6:	81 81       	ldd	r24, Z+1	; 0x01
    38e8:	92 81       	ldd	r25, Z+2	; 0x02
    38ea:	02 e0       	ldi	r16, 0x02	; 2
    38ec:	12 e0       	ldi	r17, 0x02	; 2
    38ee:	08 1b       	sub	r16, r24
    38f0:	19 0b       	sbc	r17, r25
    38f2:	8f ef       	ldi	r24, 0xFF	; 255
    38f4:	01 15       	cp	r16, r1
    38f6:	11 05       	cpc	r17, r1
    38f8:	09 f4       	brne	.+2      	; 0x38fc <mmc_disk_ioctl+0x3ec>
    38fa:	3b c0       	rjmp	.+118    	; 0x3972 <mmc_disk_ioctl+0x462>
    38fc:	c8 db       	rcall	.-2160   	; 0x308e <xchg_spi>
    38fe:	01 50       	subi	r16, 0x01	; 1
    3900:	11 09       	sbc	r17, r1
    3902:	f7 cf       	rjmp	.-18     	; 0x38f2 <mmc_disk_ioctl+0x3e2>
    3904:	fb 01       	movw	r30, r22
    3906:	43 81       	ldd	r20, Z+3	; 0x03
    3908:	54 81       	ldd	r21, Z+4	; 0x04
    390a:	65 81       	ldd	r22, Z+5	; 0x05
    390c:	76 81       	ldd	r23, Z+6	; 0x06
    390e:	89 e0       	ldi	r24, 0x09	; 9
    3910:	44 0f       	add	r20, r20
    3912:	55 1f       	adc	r21, r21
    3914:	66 1f       	adc	r22, r22
    3916:	77 1f       	adc	r23, r23
    3918:	8a 95       	dec	r24
    391a:	d1 f7       	brne	.-12     	; 0x3910 <mmc_disk_ioctl+0x400>
    391c:	74 68       	ori	r23, 0x84	; 132
    391e:	80 81       	ld	r24, Z
    3920:	90 e0       	ldi	r25, 0x00	; 0
    3922:	a0 e0       	ldi	r26, 0x00	; 0
    3924:	b0 e0       	ldi	r27, 0x00	; 0
    3926:	2c e1       	ldi	r18, 0x1C	; 28
    3928:	88 0f       	add	r24, r24
    392a:	99 1f       	adc	r25, r25
    392c:	aa 1f       	adc	r26, r26
    392e:	bb 1f       	adc	r27, r27
    3930:	2a 95       	dec	r18
    3932:	d1 f7       	brne	.-12     	; 0x3928 <mmc_disk_ioctl+0x418>
    3934:	48 2b       	or	r20, r24
    3936:	59 2b       	or	r21, r25
    3938:	6a 2b       	or	r22, r26
    393a:	7b 2b       	or	r23, r27
    393c:	82 81       	ldd	r24, Z+2	; 0x02
    393e:	90 e0       	ldi	r25, 0x00	; 0
    3940:	a0 e0       	ldi	r26, 0x00	; 0
    3942:	b0 e0       	ldi	r27, 0x00	; 0
    3944:	48 2b       	or	r20, r24
    3946:	59 2b       	or	r21, r25
    3948:	6a 2b       	or	r22, r26
    394a:	7b 2b       	or	r23, r27
    394c:	81 e3       	ldi	r24, 0x31	; 49
    394e:	09 dc       	rcall	.-2030   	; 0x3162 <send_cmd>
    3950:	81 11       	cpse	r24, r1
    3952:	15 c0       	rjmp	.+42     	; 0x397e <mmc_disk_ioctl+0x46e>
    3954:	8f ef       	ldi	r24, 0xFF	; 255
    3956:	9b db       	rcall	.-2250   	; 0x308e <xchg_spi>
    3958:	8e ef       	ldi	r24, 0xFE	; 254
    395a:	99 db       	rcall	.-2254   	; 0x308e <xchg_spi>
    395c:	f8 01       	movw	r30, r16
    395e:	81 81       	ldd	r24, Z+1	; 0x01
    3960:	96 db       	rcall	.-2260   	; 0x308e <xchg_spi>
    3962:	01 e0       	ldi	r16, 0x01	; 1
    3964:	12 e0       	ldi	r17, 0x02	; 2
    3966:	8f ef       	ldi	r24, 0xFF	; 255
    3968:	92 db       	rcall	.-2268   	; 0x308e <xchg_spi>
    396a:	01 50       	subi	r16, 0x01	; 1
    396c:	11 09       	sbc	r17, r1
    396e:	d9 f7       	brne	.-10     	; 0x3966 <mmc_disk_ioctl+0x456>
    3970:	8f ef       	ldi	r24, 0xFF	; 255
    3972:	8d db       	rcall	.-2278   	; 0x308e <xchg_spi>
    3974:	8f 71       	andi	r24, 0x1F	; 31
    3976:	11 e0       	ldi	r17, 0x01	; 1
    3978:	85 30       	cpi	r24, 0x05	; 5
    397a:	11 f4       	brne	.+4      	; 0x3980 <mmc_disk_ioctl+0x470>
    397c:	de ce       	rjmp	.-580    	; 0x373a <mmc_disk_ioctl+0x22a>
    397e:	11 e0       	ldi	r17, 0x01	; 1
    3980:	8c db       	rcall	.-2280   	; 0x309a <deselect>
    3982:	03 c0       	rjmp	.+6      	; 0x398a <mmc_disk_ioctl+0x47a>
    3984:	13 e0       	ldi	r17, 0x03	; 3
    3986:	01 c0       	rjmp	.+2      	; 0x398a <mmc_disk_ioctl+0x47a>
    3988:	14 e0       	ldi	r17, 0x04	; 4
    398a:	81 2f       	mov	r24, r17
    398c:	60 96       	adiw	r28, 0x10	; 16
    398e:	0f b6       	in	r0, 0x3f	; 63
    3990:	f8 94       	cli
    3992:	de bf       	out	0x3e, r29	; 62
    3994:	0f be       	out	0x3f, r0	; 63
    3996:	cd bf       	out	0x3d, r28	; 61
    3998:	df 91       	pop	r29
    399a:	cf 91       	pop	r28
    399c:	1f 91       	pop	r17
    399e:	0f 91       	pop	r16
    39a0:	ff 90       	pop	r15
    39a2:	ef 90       	pop	r14
    39a4:	df 90       	pop	r13
    39a6:	cf 90       	pop	r12
    39a8:	08 95       	ret

000039aa <mmc_disk_timerproc>:
    39aa:	80 91 f4 05 	lds	r24, 0x05F4	; 0x8005f4 <Timer1>
    39ae:	88 23       	and	r24, r24
    39b0:	19 f0       	breq	.+6      	; 0x39b8 <mmc_disk_timerproc+0xe>
    39b2:	81 50       	subi	r24, 0x01	; 1
    39b4:	80 93 f4 05 	sts	0x05F4, r24	; 0x8005f4 <Timer1>
    39b8:	80 91 f2 05 	lds	r24, 0x05F2	; 0x8005f2 <Timer2>
    39bc:	90 91 f3 05 	lds	r25, 0x05F3	; 0x8005f3 <Timer2+0x1>
    39c0:	88 23       	and	r24, r24
    39c2:	31 f0       	breq	.+12     	; 0x39d0 <mmc_disk_timerproc+0x26>
    39c4:	81 50       	subi	r24, 0x01	; 1
    39c6:	90 e0       	ldi	r25, 0x00	; 0
    39c8:	90 93 f3 05 	sts	0x05F3, r25	; 0x8005f3 <Timer2+0x1>
    39cc:	80 93 f2 05 	sts	0x05F2, r24	; 0x8005f2 <Timer2>
    39d0:	08 95       	ret

000039d2 <iic_delay>:
    39d2:	83 b1       	in	r24, 0x03	; 3
    39d4:	83 b1       	in	r24, 0x03	; 3
    39d6:	83 b1       	in	r24, 0x03	; 3
    39d8:	83 b1       	in	r24, 0x03	; 3
    39da:	08 95       	ret

000039dc <iic_start>:
    39dc:	20 98       	cbi	0x04, 0	; 4
    39de:	f9 df       	rcall	.-14     	; 0x39d2 <iic_delay>
    39e0:	21 98       	cbi	0x04, 1	; 4
    39e2:	f7 df       	rcall	.-18     	; 0x39d2 <iic_delay>
    39e4:	20 9a       	sbi	0x04, 0	; 4
    39e6:	f5 df       	rcall	.-22     	; 0x39d2 <iic_delay>
    39e8:	21 9a       	sbi	0x04, 1	; 4
    39ea:	f3 cf       	rjmp	.-26     	; 0x39d2 <iic_delay>

000039ec <iic_stop>:
    39ec:	20 9a       	sbi	0x04, 0	; 4
    39ee:	f1 df       	rcall	.-30     	; 0x39d2 <iic_delay>
    39f0:	21 98       	cbi	0x04, 1	; 4
    39f2:	ef df       	rcall	.-34     	; 0x39d2 <iic_delay>
    39f4:	20 98       	cbi	0x04, 0	; 4
    39f6:	ed cf       	rjmp	.-38     	; 0x39d2 <iic_delay>

000039f8 <iic_send>:
    39f8:	0f 93       	push	r16
    39fa:	1f 93       	push	r17
    39fc:	cf 93       	push	r28
    39fe:	df 93       	push	r29
    3a00:	08 2f       	mov	r16, r24
    3a02:	c8 e0       	ldi	r28, 0x08	; 8
    3a04:	d0 e0       	ldi	r29, 0x00	; 0
    3a06:	10 e8       	ldi	r17, 0x80	; 128
    3a08:	81 2f       	mov	r24, r17
    3a0a:	80 23       	and	r24, r16
    3a0c:	11 f0       	breq	.+4      	; 0x3a12 <iic_send+0x1a>
    3a0e:	20 98       	cbi	0x04, 0	; 4
    3a10:	01 c0       	rjmp	.+2      	; 0x3a14 <iic_send+0x1c>
    3a12:	20 9a       	sbi	0x04, 0	; 4
    3a14:	de df       	rcall	.-68     	; 0x39d2 <iic_delay>
    3a16:	21 98       	cbi	0x04, 1	; 4
    3a18:	dc df       	rcall	.-72     	; 0x39d2 <iic_delay>
    3a1a:	21 9a       	sbi	0x04, 1	; 4
    3a1c:	da df       	rcall	.-76     	; 0x39d2 <iic_delay>
    3a1e:	16 95       	lsr	r17
    3a20:	21 97       	sbiw	r28, 0x01	; 1
    3a22:	91 f7       	brne	.-28     	; 0x3a08 <iic_send+0x10>
    3a24:	20 98       	cbi	0x04, 0	; 4
    3a26:	d5 df       	rcall	.-86     	; 0x39d2 <iic_delay>
    3a28:	21 98       	cbi	0x04, 1	; 4
    3a2a:	c3 b1       	in	r28, 0x03	; 3
    3a2c:	d2 df       	rcall	.-92     	; 0x39d2 <iic_delay>
    3a2e:	21 9a       	sbi	0x04, 1	; 4
    3a30:	d0 df       	rcall	.-96     	; 0x39d2 <iic_delay>
    3a32:	8c 2f       	mov	r24, r28
    3a34:	80 95       	com	r24
    3a36:	81 70       	andi	r24, 0x01	; 1
    3a38:	90 e0       	ldi	r25, 0x00	; 0
    3a3a:	df 91       	pop	r29
    3a3c:	cf 91       	pop	r28
    3a3e:	1f 91       	pop	r17
    3a40:	0f 91       	pop	r16
    3a42:	08 95       	ret

00003a44 <iic_read.part.0>:
    3a44:	cf 92       	push	r12
    3a46:	df 92       	push	r13
    3a48:	ef 92       	push	r14
    3a4a:	ff 92       	push	r15
    3a4c:	0f 93       	push	r16
    3a4e:	1f 93       	push	r17
    3a50:	cf 93       	push	r28
    3a52:	df 93       	push	r29
    3a54:	f8 2e       	mov	r15, r24
    3a56:	e6 2e       	mov	r14, r22
    3a58:	8a 01       	movw	r16, r20
    3a5a:	d2 2e       	mov	r13, r18
    3a5c:	c3 2e       	mov	r12, r19
    3a5e:	ca e0       	ldi	r28, 0x0A	; 10
    3a60:	d0 e0       	ldi	r29, 0x00	; 0
    3a62:	bc df       	rcall	.-136    	; 0x39dc <iic_start>
    3a64:	8f 2d       	mov	r24, r15
    3a66:	c8 df       	rcall	.-112    	; 0x39f8 <iic_send>
    3a68:	89 2b       	or	r24, r25
    3a6a:	19 f4       	brne	.+6      	; 0x3a72 <iic_read.part.0+0x2e>
    3a6c:	21 97       	sbiw	r28, 0x01	; 1
    3a6e:	c9 f7       	brne	.-14     	; 0x3a62 <iic_read.part.0+0x1e>
    3a70:	2c c0       	rjmp	.+88     	; 0x3aca <iic_read.part.0+0x86>
    3a72:	8e 2d       	mov	r24, r14
    3a74:	c1 df       	rcall	.-126    	; 0x39f8 <iic_send>
    3a76:	89 2b       	or	r24, r25
    3a78:	41 f1       	breq	.+80     	; 0x3aca <iic_read.part.0+0x86>
    3a7a:	b0 df       	rcall	.-160    	; 0x39dc <iic_start>
    3a7c:	8f 2d       	mov	r24, r15
    3a7e:	81 60       	ori	r24, 0x01	; 1
    3a80:	bb df       	rcall	.-138    	; 0x39f8 <iic_send>
    3a82:	89 2b       	or	r24, r25
    3a84:	11 f1       	breq	.+68     	; 0x3aca <iic_read.part.0+0x86>
    3a86:	ed 2c       	mov	r14, r13
    3a88:	fc 2c       	mov	r15, r12
    3a8a:	01 50       	subi	r16, 0x01	; 1
    3a8c:	11 09       	sbc	r17, r1
    3a8e:	c1 e0       	ldi	r28, 0x01	; 1
    3a90:	d0 e0       	ldi	r29, 0x00	; 0
    3a92:	cc 0f       	add	r28, r28
    3a94:	dd 1f       	adc	r29, r29
    3a96:	21 98       	cbi	0x04, 1	; 4
    3a98:	18 99       	sbic	0x03, 0	; 3
    3a9a:	21 96       	adiw	r28, 0x01	; 1
    3a9c:	9a df       	rcall	.-204    	; 0x39d2 <iic_delay>
    3a9e:	21 9a       	sbi	0x04, 1	; 4
    3aa0:	98 df       	rcall	.-208    	; 0x39d2 <iic_delay>
    3aa2:	cf 3f       	cpi	r28, 0xFF	; 255
    3aa4:	d1 05       	cpc	r29, r1
    3aa6:	a9 f3       	breq	.-22     	; 0x3a92 <iic_read.part.0+0x4e>
    3aa8:	a0 f3       	brcs	.-24     	; 0x3a92 <iic_read.part.0+0x4e>
    3aaa:	01 15       	cp	r16, r1
    3aac:	11 05       	cpc	r17, r1
    3aae:	a9 f0       	breq	.+42     	; 0x3ada <iic_read.part.0+0x96>
    3ab0:	20 9a       	sbi	0x04, 0	; 4
    3ab2:	8f df       	rcall	.-226    	; 0x39d2 <iic_delay>
    3ab4:	21 98       	cbi	0x04, 1	; 4
    3ab6:	8d df       	rcall	.-230    	; 0x39d2 <iic_delay>
    3ab8:	21 9a       	sbi	0x04, 1	; 4
    3aba:	20 98       	cbi	0x04, 0	; 4
    3abc:	8a df       	rcall	.-236    	; 0x39d2 <iic_delay>
    3abe:	f7 01       	movw	r30, r14
    3ac0:	c1 93       	st	Z+, r28
    3ac2:	7f 01       	movw	r14, r30
    3ac4:	01 15       	cp	r16, r1
    3ac6:	11 05       	cpc	r17, r1
    3ac8:	01 f7       	brne	.-64     	; 0x3a8a <iic_read.part.0+0x46>
    3aca:	90 df       	rcall	.-224    	; 0x39ec <iic_stop>
    3acc:	81 e0       	ldi	r24, 0x01	; 1
    3ace:	90 e0       	ldi	r25, 0x00	; 0
    3ad0:	01 2b       	or	r16, r17
    3ad2:	29 f0       	breq	.+10     	; 0x3ade <iic_read.part.0+0x9a>
    3ad4:	80 e0       	ldi	r24, 0x00	; 0
    3ad6:	90 e0       	ldi	r25, 0x00	; 0
    3ad8:	02 c0       	rjmp	.+4      	; 0x3ade <iic_read.part.0+0x9a>
    3ada:	20 98       	cbi	0x04, 0	; 4
    3adc:	ea cf       	rjmp	.-44     	; 0x3ab2 <iic_read.part.0+0x6e>
    3ade:	df 91       	pop	r29
    3ae0:	cf 91       	pop	r28
    3ae2:	1f 91       	pop	r17
    3ae4:	0f 91       	pop	r16
    3ae6:	ff 90       	pop	r15
    3ae8:	ef 90       	pop	r14
    3aea:	df 90       	pop	r13
    3aec:	cf 90       	pop	r12
    3aee:	08 95       	ret

00003af0 <rtc_gettime>:
    3af0:	0f 93       	push	r16
    3af2:	1f 93       	push	r17
    3af4:	cf 93       	push	r28
    3af6:	df 93       	push	r29
    3af8:	cd b7       	in	r28, 0x3d	; 61
    3afa:	de b7       	in	r29, 0x3e	; 62
    3afc:	28 97       	sbiw	r28, 0x08	; 8
    3afe:	0f b6       	in	r0, 0x3f	; 63
    3b00:	f8 94       	cli
    3b02:	de bf       	out	0x3e, r29	; 62
    3b04:	0f be       	out	0x3f, r0	; 63
    3b06:	cd bf       	out	0x3d, r28	; 61
    3b08:	8c 01       	movw	r16, r24
    3b0a:	9e 01       	movw	r18, r28
    3b0c:	2f 5f       	subi	r18, 0xFF	; 255
    3b0e:	3f 4f       	sbci	r19, 0xFF	; 255
    3b10:	47 e0       	ldi	r20, 0x07	; 7
    3b12:	50 e0       	ldi	r21, 0x00	; 0
    3b14:	60 e0       	ldi	r22, 0x00	; 0
    3b16:	70 e0       	ldi	r23, 0x00	; 0
    3b18:	80 ed       	ldi	r24, 0xD0	; 208
    3b1a:	94 df       	rcall	.-216    	; 0x3a44 <iic_read.part.0>
    3b1c:	00 97       	sbiw	r24, 0x00	; 0
    3b1e:	09 f4       	brne	.+2      	; 0x3b22 <rtc_gettime+0x32>
    3b20:	54 c0       	rjmp	.+168    	; 0x3bca <rtc_gettime+0xda>
    3b22:	89 81       	ldd	r24, Y+1	; 0x01
    3b24:	98 2f       	mov	r25, r24
    3b26:	96 95       	lsr	r25
    3b28:	96 95       	lsr	r25
    3b2a:	96 95       	lsr	r25
    3b2c:	9e 70       	andi	r25, 0x0E	; 14
    3b2e:	29 2f       	mov	r18, r25
    3b30:	22 0f       	add	r18, r18
    3b32:	22 0f       	add	r18, r18
    3b34:	92 0f       	add	r25, r18
    3b36:	8f 70       	andi	r24, 0x0F	; 15
    3b38:	89 0f       	add	r24, r25
    3b3a:	f8 01       	movw	r30, r16
    3b3c:	87 83       	std	Z+7, r24	; 0x07
    3b3e:	8a 81       	ldd	r24, Y+2	; 0x02
    3b40:	98 2f       	mov	r25, r24
    3b42:	92 95       	swap	r25
    3b44:	9f 70       	andi	r25, 0x0F	; 15
    3b46:	8f 70       	andi	r24, 0x0F	; 15
    3b48:	fa e0       	ldi	r31, 0x0A	; 10
    3b4a:	9f 9f       	mul	r25, r31
    3b4c:	80 0d       	add	r24, r0
    3b4e:	11 24       	eor	r1, r1
    3b50:	f8 01       	movw	r30, r16
    3b52:	86 83       	std	Z+6, r24	; 0x06
    3b54:	8b 81       	ldd	r24, Y+3	; 0x03
    3b56:	98 2f       	mov	r25, r24
    3b58:	96 95       	lsr	r25
    3b5a:	96 95       	lsr	r25
    3b5c:	96 95       	lsr	r25
    3b5e:	96 70       	andi	r25, 0x06	; 6
    3b60:	29 2f       	mov	r18, r25
    3b62:	22 0f       	add	r18, r18
    3b64:	22 0f       	add	r18, r18
    3b66:	92 0f       	add	r25, r18
    3b68:	28 2f       	mov	r18, r24
    3b6a:	2f 70       	andi	r18, 0x0F	; 15
    3b6c:	92 0f       	add	r25, r18
    3b6e:	95 83       	std	Z+5, r25	; 0x05
    3b70:	87 70       	andi	r24, 0x07	; 7
    3b72:	84 83       	std	Z+4, r24	; 0x04
    3b74:	8d 81       	ldd	r24, Y+5	; 0x05
    3b76:	98 2f       	mov	r25, r24
    3b78:	96 95       	lsr	r25
    3b7a:	96 95       	lsr	r25
    3b7c:	96 95       	lsr	r25
    3b7e:	96 70       	andi	r25, 0x06	; 6
    3b80:	29 2f       	mov	r18, r25
    3b82:	22 0f       	add	r18, r18
    3b84:	22 0f       	add	r18, r18
    3b86:	92 0f       	add	r25, r18
    3b88:	8f 70       	andi	r24, 0x0F	; 15
    3b8a:	89 0f       	add	r24, r25
    3b8c:	83 83       	std	Z+3, r24	; 0x03
    3b8e:	8e 81       	ldd	r24, Y+6	; 0x06
    3b90:	84 fb       	bst	r24, 4
    3b92:	99 27       	eor	r25, r25
    3b94:	90 f9       	bld	r25, 0
    3b96:	99 0f       	add	r25, r25
    3b98:	29 2f       	mov	r18, r25
    3b9a:	22 0f       	add	r18, r18
    3b9c:	22 0f       	add	r18, r18
    3b9e:	92 0f       	add	r25, r18
    3ba0:	8f 70       	andi	r24, 0x0F	; 15
    3ba2:	89 0f       	add	r24, r25
    3ba4:	82 83       	std	Z+2, r24	; 0x02
    3ba6:	8f 81       	ldd	r24, Y+7	; 0x07
    3ba8:	28 2f       	mov	r18, r24
    3baa:	22 95       	swap	r18
    3bac:	2f 70       	andi	r18, 0x0F	; 15
    3bae:	8f 70       	andi	r24, 0x0F	; 15
    3bb0:	90 e0       	ldi	r25, 0x00	; 0
    3bb2:	80 53       	subi	r24, 0x30	; 48
    3bb4:	98 4f       	sbci	r25, 0xF8	; 248
    3bb6:	fa e0       	ldi	r31, 0x0A	; 10
    3bb8:	2f 9f       	mul	r18, r31
    3bba:	80 0d       	add	r24, r0
    3bbc:	91 1d       	adc	r25, r1
    3bbe:	11 24       	eor	r1, r1
    3bc0:	f8 01       	movw	r30, r16
    3bc2:	91 83       	std	Z+1, r25	; 0x01
    3bc4:	80 83       	st	Z, r24
    3bc6:	81 e0       	ldi	r24, 0x01	; 1
    3bc8:	90 e0       	ldi	r25, 0x00	; 0
    3bca:	28 96       	adiw	r28, 0x08	; 8
    3bcc:	0f b6       	in	r0, 0x3f	; 63
    3bce:	f8 94       	cli
    3bd0:	de bf       	out	0x3e, r29	; 62
    3bd2:	0f be       	out	0x3f, r0	; 63
    3bd4:	cd bf       	out	0x3d, r28	; 61
    3bd6:	df 91       	pop	r29
    3bd8:	cf 91       	pop	r28
    3bda:	1f 91       	pop	r17
    3bdc:	0f 91       	pop	r16
    3bde:	08 95       	ret

00003be0 <SCSI_Command_ReadWrite_10>:
    3be0:	bf 92       	push	r11
    3be2:	cf 92       	push	r12
    3be4:	df 92       	push	r13
    3be6:	ef 92       	push	r14
    3be8:	ff 92       	push	r15
    3bea:	0f 93       	push	r16
    3bec:	1f 93       	push	r17
    3bee:	cf 93       	push	r28
    3bf0:	df 93       	push	r29
    3bf2:	ec 01       	movw	r28, r24
    3bf4:	b6 2e       	mov	r11, r22
    3bf6:	c8 a0       	ldd	r12, Y+32	; 0x20
    3bf8:	df 8c       	ldd	r13, Y+31	; 0x1f
    3bfa:	ee 8c       	ldd	r14, Y+30	; 0x1e
    3bfc:	fd 8c       	ldd	r15, Y+29	; 0x1d
    3bfe:	0b a1       	ldd	r16, Y+35	; 0x23
    3c00:	1a a1       	ldd	r17, Y+34	; 0x22
    3c02:	e0 d2       	rcall	.+1472   	; 0x41c4 <sdcard_GetNbBlocks>
    3c04:	c6 16       	cp	r12, r22
    3c06:	d7 06       	cpc	r13, r23
    3c08:	e8 06       	cpc	r14, r24
    3c0a:	f9 06       	cpc	r15, r25
    3c0c:	68 f0       	brcs	.+26     	; 0x3c28 <SCSI_Command_ReadWrite_10+0x48>
    3c0e:	80 91 7b 01 	lds	r24, 0x017B	; 0x80017b <SenseData+0x2>
    3c12:	80 7f       	andi	r24, 0xF0	; 240
    3c14:	85 60       	ori	r24, 0x05	; 5
    3c16:	80 93 7b 01 	sts	0x017B, r24	; 0x80017b <SenseData+0x2>
    3c1a:	81 e2       	ldi	r24, 0x21	; 33
    3c1c:	80 93 85 01 	sts	0x0185, r24	; 0x800185 <SenseData+0xc>
    3c20:	10 92 86 01 	sts	0x0186, r1	; 0x800186 <SenseData+0xd>
    3c24:	80 e0       	ldi	r24, 0x00	; 0
    3c26:	22 c0       	rjmp	.+68     	; 0x3c6c <SCSI_Command_ReadWrite_10+0x8c>
    3c28:	98 01       	movw	r18, r16
    3c2a:	b7 01       	movw	r22, r14
    3c2c:	a6 01       	movw	r20, r12
    3c2e:	ce 01       	movw	r24, r28
    3c30:	bb 20       	and	r11, r11
    3c32:	11 f0       	breq	.+4      	; 0x3c38 <SCSI_Command_ReadWrite_10+0x58>
    3c34:	18 d4       	rcall	.+2096   	; 0x4466 <sdcard_ReadBlocks>
    3c36:	01 c0       	rjmp	.+2      	; 0x3c3a <SCSI_Command_ReadWrite_10+0x5a>
    3c38:	b2 d3       	rcall	.+1892   	; 0x439e <sdcard_WriteBlocks>
    3c3a:	c8 01       	movw	r24, r16
    3c3c:	a0 e0       	ldi	r26, 0x00	; 0
    3c3e:	b0 e0       	ldi	r27, 0x00	; 0
    3c40:	29 e0       	ldi	r18, 0x09	; 9
    3c42:	88 0f       	add	r24, r24
    3c44:	99 1f       	adc	r25, r25
    3c46:	aa 1f       	adc	r26, r26
    3c48:	bb 1f       	adc	r27, r27
    3c4a:	2a 95       	dec	r18
    3c4c:	d1 f7       	brne	.-12     	; 0x3c42 <SCSI_Command_ReadWrite_10+0x62>
    3c4e:	4c 89       	ldd	r20, Y+20	; 0x14
    3c50:	5d 89       	ldd	r21, Y+21	; 0x15
    3c52:	6e 89       	ldd	r22, Y+22	; 0x16
    3c54:	7f 89       	ldd	r23, Y+23	; 0x17
    3c56:	8a 01       	movw	r16, r20
    3c58:	9b 01       	movw	r18, r22
    3c5a:	08 1b       	sub	r16, r24
    3c5c:	19 0b       	sbc	r17, r25
    3c5e:	2a 0b       	sbc	r18, r26
    3c60:	3b 0b       	sbc	r19, r27
    3c62:	0c 8b       	std	Y+20, r16	; 0x14
    3c64:	1d 8b       	std	Y+21, r17	; 0x15
    3c66:	2e 8b       	std	Y+22, r18	; 0x16
    3c68:	3f 8b       	std	Y+23, r19	; 0x17
    3c6a:	81 e0       	ldi	r24, 0x01	; 1
    3c6c:	df 91       	pop	r29
    3c6e:	cf 91       	pop	r28
    3c70:	1f 91       	pop	r17
    3c72:	0f 91       	pop	r16
    3c74:	ff 90       	pop	r15
    3c76:	ef 90       	pop	r14
    3c78:	df 90       	pop	r13
    3c7a:	cf 90       	pop	r12
    3c7c:	bf 90       	pop	r11
    3c7e:	08 95       	ret

00003c80 <SCSI_DecodeSCSICommand>:
    3c80:	cf 92       	push	r12
    3c82:	df 92       	push	r13
    3c84:	ef 92       	push	r14
    3c86:	ff 92       	push	r15
    3c88:	0f 93       	push	r16
    3c8a:	1f 93       	push	r17
    3c8c:	cf 93       	push	r28
    3c8e:	df 93       	push	r29
    3c90:	cd b7       	in	r28, 0x3d	; 61
    3c92:	de b7       	in	r29, 0x3e	; 62
    3c94:	28 97       	sbiw	r28, 0x08	; 8
    3c96:	0f b6       	in	r0, 0x3f	; 63
    3c98:	f8 94       	cli
    3c9a:	de bf       	out	0x3e, r29	; 62
    3c9c:	0f be       	out	0x3f, r0	; 63
    3c9e:	cd bf       	out	0x3d, r28	; 61
    3ca0:	8c 01       	movw	r16, r24
    3ca2:	fc 01       	movw	r30, r24
    3ca4:	83 8d       	ldd	r24, Z+27	; 0x1b
    3ca6:	8d 31       	cpi	r24, 0x1D	; 29
    3ca8:	09 f4       	brne	.+2      	; 0x3cac <SCSI_DecodeSCSICommand+0x2c>
    3caa:	af c0       	rjmp	.+350    	; 0x3e0a <SCSI_DecodeSCSICommand+0x18a>
    3cac:	90 f4       	brcc	.+36     	; 0x3cd2 <SCSI_DecodeSCSICommand+0x52>
    3cae:	82 31       	cpi	r24, 0x12	; 18
    3cb0:	09 f4       	brne	.+2      	; 0x3cb4 <SCSI_DecodeSCSICommand+0x34>
    3cb2:	50 c0       	rjmp	.+160    	; 0x3d54 <SCSI_DecodeSCSICommand+0xd4>
    3cb4:	38 f4       	brcc	.+14     	; 0x3cc4 <SCSI_DecodeSCSICommand+0x44>
    3cb6:	88 23       	and	r24, r24
    3cb8:	09 f4       	brne	.+2      	; 0x3cbc <SCSI_DecodeSCSICommand+0x3c>
    3cba:	db c0       	rjmp	.+438    	; 0x3e72 <SCSI_DecodeSCSICommand+0x1f2>
    3cbc:	83 30       	cpi	r24, 0x03	; 3
    3cbe:	09 f4       	brne	.+2      	; 0x3cc2 <SCSI_DecodeSCSICommand+0x42>
    3cc0:	7e c0       	rjmp	.+252    	; 0x3dbe <SCSI_DecodeSCSICommand+0x13e>
    3cc2:	dd c0       	rjmp	.+442    	; 0x3e7e <SCSI_DecodeSCSICommand+0x1fe>
    3cc4:	8a 31       	cpi	r24, 0x1A	; 26
    3cc6:	09 f4       	brne	.+2      	; 0x3cca <SCSI_DecodeSCSICommand+0x4a>
    3cc8:	ba c0       	rjmp	.+372    	; 0x3e3e <SCSI_DecodeSCSICommand+0x1be>
    3cca:	8b 31       	cpi	r24, 0x1B	; 27
    3ccc:	09 f4       	brne	.+2      	; 0x3cd0 <SCSI_DecodeSCSICommand+0x50>
    3cce:	d1 c0       	rjmp	.+418    	; 0x3e72 <SCSI_DecodeSCSICommand+0x1f2>
    3cd0:	d6 c0       	rjmp	.+428    	; 0x3e7e <SCSI_DecodeSCSICommand+0x1fe>
    3cd2:	88 32       	cpi	r24, 0x28	; 40
    3cd4:	09 f4       	brne	.+2      	; 0x3cd8 <SCSI_DecodeSCSICommand+0x58>
    3cd6:	ad c0       	rjmp	.+346    	; 0x3e32 <SCSI_DecodeSCSICommand+0x1b2>
    3cd8:	b0 f5       	brcc	.+108    	; 0x3d46 <SCSI_DecodeSCSICommand+0xc6>
    3cda:	8e 31       	cpi	r24, 0x1E	; 30
    3cdc:	09 f4       	brne	.+2      	; 0x3ce0 <SCSI_DecodeSCSICommand+0x60>
    3cde:	c9 c0       	rjmp	.+402    	; 0x3e72 <SCSI_DecodeSCSICommand+0x1f2>
    3ce0:	85 32       	cpi	r24, 0x25	; 37
    3ce2:	09 f0       	breq	.+2      	; 0x3ce6 <SCSI_DecodeSCSICommand+0x66>
    3ce4:	cc c0       	rjmp	.+408    	; 0x3e7e <SCSI_DecodeSCSICommand+0x1fe>
    3ce6:	6e d2       	rcall	.+1244   	; 0x41c4 <sdcard_GetNbBlocks>
    3ce8:	dc 01       	movw	r26, r24
    3cea:	cb 01       	movw	r24, r22
    3cec:	01 97       	sbiw	r24, 0x01	; 1
    3cee:	a1 09       	sbc	r26, r1
    3cf0:	b1 09       	sbc	r27, r1
    3cf2:	8d 83       	std	Y+5, r24	; 0x05
    3cf4:	9e 83       	std	Y+6, r25	; 0x06
    3cf6:	af 83       	std	Y+7, r26	; 0x07
    3cf8:	b8 87       	std	Y+8, r27	; 0x08
    3cfa:	80 e0       	ldi	r24, 0x00	; 0
    3cfc:	92 e0       	ldi	r25, 0x02	; 2
    3cfe:	a0 e0       	ldi	r26, 0x00	; 0
    3d00:	b0 e0       	ldi	r27, 0x00	; 0
    3d02:	89 83       	std	Y+1, r24	; 0x01
    3d04:	9a 83       	std	Y+2, r25	; 0x02
    3d06:	ab 83       	std	Y+3, r26	; 0x03
    3d08:	bc 83       	std	Y+4, r27	; 0x04
    3d0a:	40 e0       	ldi	r20, 0x00	; 0
    3d0c:	50 e0       	ldi	r21, 0x00	; 0
    3d0e:	64 e0       	ldi	r22, 0x04	; 4
    3d10:	70 e0       	ldi	r23, 0x00	; 0
    3d12:	ce 01       	movw	r24, r28
    3d14:	05 96       	adiw	r24, 0x05	; 5
    3d16:	0e 94 16 27 	call	0x4e2c	; 0x4e2c <Endpoint_Write_Stream_BE>
    3d1a:	40 e0       	ldi	r20, 0x00	; 0
    3d1c:	50 e0       	ldi	r21, 0x00	; 0
    3d1e:	64 e0       	ldi	r22, 0x04	; 4
    3d20:	70 e0       	ldi	r23, 0x00	; 0
    3d22:	ce 01       	movw	r24, r28
    3d24:	01 96       	adiw	r24, 0x01	; 1
    3d26:	0e 94 16 27 	call	0x4e2c	; 0x4e2c <Endpoint_Write_Stream_BE>
    3d2a:	80 91 e8 00 	lds	r24, 0x00E8	; 0x8000e8 <__TEXT_REGION_LENGTH__+0x7e00e8>
    3d2e:	8e 77       	andi	r24, 0x7E	; 126
    3d30:	80 93 e8 00 	sts	0x00E8, r24	; 0x8000e8 <__TEXT_REGION_LENGTH__+0x7e00e8>
    3d34:	f8 01       	movw	r30, r16
    3d36:	84 89       	ldd	r24, Z+20	; 0x14
    3d38:	95 89       	ldd	r25, Z+21	; 0x15
    3d3a:	a6 89       	ldd	r26, Z+22	; 0x16
    3d3c:	b7 89       	ldd	r27, Z+23	; 0x17
    3d3e:	08 97       	sbiw	r24, 0x08	; 8
    3d40:	a1 09       	sbc	r26, r1
    3d42:	b1 09       	sbc	r27, r1
    3d44:	91 c0       	rjmp	.+290    	; 0x3e68 <SCSI_DecodeSCSICommand+0x1e8>
    3d46:	8a 32       	cpi	r24, 0x2A	; 42
    3d48:	09 f4       	brne	.+2      	; 0x3d4c <SCSI_DecodeSCSICommand+0xcc>
    3d4a:	71 c0       	rjmp	.+226    	; 0x3e2e <SCSI_DecodeSCSICommand+0x1ae>
    3d4c:	8f 32       	cpi	r24, 0x2F	; 47
    3d4e:	09 f4       	brne	.+2      	; 0x3d52 <SCSI_DecodeSCSICommand+0xd2>
    3d50:	90 c0       	rjmp	.+288    	; 0x3e72 <SCSI_DecodeSCSICommand+0x1f2>
    3d52:	95 c0       	rjmp	.+298    	; 0x3e7e <SCSI_DecodeSCSICommand+0x1fe>
    3d54:	f8 01       	movw	r30, r16
    3d56:	e7 8c       	ldd	r14, Z+31	; 0x1f
    3d58:	f6 8c       	ldd	r15, Z+30	; 0x1e
    3d5a:	84 8d       	ldd	r24, Z+28	; 0x1c
    3d5c:	83 70       	andi	r24, 0x03	; 3
    3d5e:	19 f4       	brne	.+6      	; 0x3d66 <SCSI_DecodeSCSICommand+0xe6>
    3d60:	85 8d       	ldd	r24, Z+29	; 0x1d
    3d62:	88 23       	and	r24, r24
    3d64:	41 f0       	breq	.+16     	; 0x3d76 <SCSI_DecodeSCSICommand+0xf6>
    3d66:	80 91 7b 01 	lds	r24, 0x017B	; 0x80017b <SenseData+0x2>
    3d6a:	80 7f       	andi	r24, 0xF0	; 240
    3d6c:	85 60       	ori	r24, 0x05	; 5
    3d6e:	80 93 7b 01 	sts	0x017B, r24	; 0x80017b <SenseData+0x2>
    3d72:	84 e2       	ldi	r24, 0x24	; 36
    3d74:	8b c0       	rjmp	.+278    	; 0x3e8c <SCSI_DecodeSCSICommand+0x20c>
    3d76:	67 01       	movw	r12, r14
    3d78:	f5 e2       	ldi	r31, 0x25	; 37
    3d7a:	ef 16       	cp	r14, r31
    3d7c:	f1 04       	cpc	r15, r1
    3d7e:	18 f0       	brcs	.+6      	; 0x3d86 <SCSI_DecodeSCSICommand+0x106>
    3d80:	94 e2       	ldi	r25, 0x24	; 36
    3d82:	c9 2e       	mov	r12, r25
    3d84:	d1 2c       	mov	r13, r1
    3d86:	40 e0       	ldi	r20, 0x00	; 0
    3d88:	50 e0       	ldi	r21, 0x00	; 0
    3d8a:	b6 01       	movw	r22, r12
    3d8c:	87 e3       	ldi	r24, 0x37	; 55
    3d8e:	94 e0       	ldi	r25, 0x04	; 4
    3d90:	0e 94 cd 26 	call	0x4d9a	; 0x4d9a <Endpoint_Write_Stream_LE>
    3d94:	60 e0       	ldi	r22, 0x00	; 0
    3d96:	70 e0       	ldi	r23, 0x00	; 0
    3d98:	c7 01       	movw	r24, r14
    3d9a:	8c 19       	sub	r24, r12
    3d9c:	9d 09       	sbc	r25, r13
    3d9e:	be d7       	rcall	.+3964   	; 0x4d1c <Endpoint_Null_Stream>
    3da0:	80 91 e8 00 	lds	r24, 0x00E8	; 0x8000e8 <__TEXT_REGION_LENGTH__+0x7e00e8>
    3da4:	8e 77       	andi	r24, 0x7E	; 126
    3da6:	80 93 e8 00 	sts	0x00E8, r24	; 0x8000e8 <__TEXT_REGION_LENGTH__+0x7e00e8>
    3daa:	f8 01       	movw	r30, r16
    3dac:	84 89       	ldd	r24, Z+20	; 0x14
    3dae:	95 89       	ldd	r25, Z+21	; 0x15
    3db0:	a6 89       	ldd	r26, Z+22	; 0x16
    3db2:	b7 89       	ldd	r27, Z+23	; 0x17
    3db4:	8c 19       	sub	r24, r12
    3db6:	9d 09       	sbc	r25, r13
    3db8:	a1 09       	sbc	r26, r1
    3dba:	b1 09       	sbc	r27, r1
    3dbc:	55 c0       	rjmp	.+170    	; 0x3e68 <SCSI_DecodeSCSICommand+0x1e8>
    3dbe:	f8 01       	movw	r30, r16
    3dc0:	f7 8c       	ldd	r15, Z+31	; 0x1f
    3dc2:	ef 2c       	mov	r14, r15
    3dc4:	f2 e1       	ldi	r31, 0x12	; 18
    3dc6:	ff 15       	cp	r31, r15
    3dc8:	10 f4       	brcc	.+4      	; 0x3dce <SCSI_DecodeSCSICommand+0x14e>
    3dca:	82 e1       	ldi	r24, 0x12	; 18
    3dcc:	e8 2e       	mov	r14, r24
    3dce:	ce 2c       	mov	r12, r14
    3dd0:	d1 2c       	mov	r13, r1
    3dd2:	40 e0       	ldi	r20, 0x00	; 0
    3dd4:	50 e0       	ldi	r21, 0x00	; 0
    3dd6:	b6 01       	movw	r22, r12
    3dd8:	89 e7       	ldi	r24, 0x79	; 121
    3dda:	91 e0       	ldi	r25, 0x01	; 1
    3ddc:	de d7       	rcall	.+4028   	; 0x4d9a <Endpoint_Write_Stream_LE>
    3dde:	8f 2d       	mov	r24, r15
    3de0:	90 e0       	ldi	r25, 0x00	; 0
    3de2:	60 e0       	ldi	r22, 0x00	; 0
    3de4:	70 e0       	ldi	r23, 0x00	; 0
    3de6:	8c 19       	sub	r24, r12
    3de8:	9d 09       	sbc	r25, r13
    3dea:	98 d7       	rcall	.+3888   	; 0x4d1c <Endpoint_Null_Stream>
    3dec:	80 91 e8 00 	lds	r24, 0x00E8	; 0x8000e8 <__TEXT_REGION_LENGTH__+0x7e00e8>
    3df0:	8e 77       	andi	r24, 0x7E	; 126
    3df2:	80 93 e8 00 	sts	0x00E8, r24	; 0x8000e8 <__TEXT_REGION_LENGTH__+0x7e00e8>
    3df6:	f8 01       	movw	r30, r16
    3df8:	84 89       	ldd	r24, Z+20	; 0x14
    3dfa:	95 89       	ldd	r25, Z+21	; 0x15
    3dfc:	a6 89       	ldd	r26, Z+22	; 0x16
    3dfe:	b7 89       	ldd	r27, Z+23	; 0x17
    3e00:	8e 19       	sub	r24, r14
    3e02:	91 09       	sbc	r25, r1
    3e04:	a1 09       	sbc	r26, r1
    3e06:	b1 09       	sbc	r27, r1
    3e08:	2f c0       	rjmp	.+94     	; 0x3e68 <SCSI_DecodeSCSICommand+0x1e8>
    3e0a:	f8 01       	movw	r30, r16
    3e0c:	84 8d       	ldd	r24, Z+28	; 0x1c
    3e0e:	82 ff       	sbrs	r24, 2
    3e10:	aa cf       	rjmp	.-172    	; 0x3d66 <SCSI_DecodeSCSICommand+0xe6>
    3e12:	c4 d3       	rcall	.+1928   	; 0x459c <sdcard_CheckDataflashOperation>
    3e14:	81 11       	cpse	r24, r1
    3e16:	2d c0       	rjmp	.+90     	; 0x3e72 <SCSI_DecodeSCSICommand+0x1f2>
    3e18:	80 91 7b 01 	lds	r24, 0x017B	; 0x80017b <SenseData+0x2>
    3e1c:	80 7f       	andi	r24, 0xF0	; 240
    3e1e:	84 60       	ori	r24, 0x04	; 4
    3e20:	80 93 7b 01 	sts	0x017B, r24	; 0x80017b <SenseData+0x2>
    3e24:	10 92 85 01 	sts	0x0185, r1	; 0x800185 <SenseData+0xc>
    3e28:	10 92 86 01 	sts	0x0186, r1	; 0x800186 <SenseData+0xd>
    3e2c:	3d c0       	rjmp	.+122    	; 0x3ea8 <SCSI_DecodeSCSICommand+0x228>
    3e2e:	60 e0       	ldi	r22, 0x00	; 0
    3e30:	01 c0       	rjmp	.+2      	; 0x3e34 <SCSI_DecodeSCSICommand+0x1b4>
    3e32:	61 e0       	ldi	r22, 0x01	; 1
    3e34:	c8 01       	movw	r24, r16
    3e36:	d4 de       	rcall	.-600    	; 0x3be0 <SCSI_Command_ReadWrite_10>
    3e38:	81 11       	cpse	r24, r1
    3e3a:	2b c0       	rjmp	.+86     	; 0x3e92 <SCSI_DecodeSCSICommand+0x212>
    3e3c:	35 c0       	rjmp	.+106    	; 0x3ea8 <SCSI_DecodeSCSICommand+0x228>
    3e3e:	10 92 f1 00 	sts	0x00F1, r1	; 0x8000f1 <__TEXT_REGION_LENGTH__+0x7e00f1>
    3e42:	10 92 f1 00 	sts	0x00F1, r1	; 0x8000f1 <__TEXT_REGION_LENGTH__+0x7e00f1>
    3e46:	10 92 f1 00 	sts	0x00F1, r1	; 0x8000f1 <__TEXT_REGION_LENGTH__+0x7e00f1>
    3e4a:	10 92 f1 00 	sts	0x00F1, r1	; 0x8000f1 <__TEXT_REGION_LENGTH__+0x7e00f1>
    3e4e:	80 91 e8 00 	lds	r24, 0x00E8	; 0x8000e8 <__TEXT_REGION_LENGTH__+0x7e00e8>
    3e52:	8e 77       	andi	r24, 0x7E	; 126
    3e54:	80 93 e8 00 	sts	0x00E8, r24	; 0x8000e8 <__TEXT_REGION_LENGTH__+0x7e00e8>
    3e58:	f8 01       	movw	r30, r16
    3e5a:	84 89       	ldd	r24, Z+20	; 0x14
    3e5c:	95 89       	ldd	r25, Z+21	; 0x15
    3e5e:	a6 89       	ldd	r26, Z+22	; 0x16
    3e60:	b7 89       	ldd	r27, Z+23	; 0x17
    3e62:	04 97       	sbiw	r24, 0x04	; 4
    3e64:	a1 09       	sbc	r26, r1
    3e66:	b1 09       	sbc	r27, r1
    3e68:	84 8b       	std	Z+20, r24	; 0x14
    3e6a:	95 8b       	std	Z+21, r25	; 0x15
    3e6c:	a6 8b       	std	Z+22, r26	; 0x16
    3e6e:	b7 8b       	std	Z+23, r27	; 0x17
    3e70:	10 c0       	rjmp	.+32     	; 0x3e92 <SCSI_DecodeSCSICommand+0x212>
    3e72:	f8 01       	movw	r30, r16
    3e74:	14 8a       	std	Z+20, r1	; 0x14
    3e76:	15 8a       	std	Z+21, r1	; 0x15
    3e78:	16 8a       	std	Z+22, r1	; 0x16
    3e7a:	17 8a       	std	Z+23, r1	; 0x17
    3e7c:	0a c0       	rjmp	.+20     	; 0x3e92 <SCSI_DecodeSCSICommand+0x212>
    3e7e:	80 91 7b 01 	lds	r24, 0x017B	; 0x80017b <SenseData+0x2>
    3e82:	80 7f       	andi	r24, 0xF0	; 240
    3e84:	85 60       	ori	r24, 0x05	; 5
    3e86:	80 93 7b 01 	sts	0x017B, r24	; 0x80017b <SenseData+0x2>
    3e8a:	80 e2       	ldi	r24, 0x20	; 32
    3e8c:	80 93 85 01 	sts	0x0185, r24	; 0x800185 <SenseData+0xc>
    3e90:	cb cf       	rjmp	.-106    	; 0x3e28 <SCSI_DecodeSCSICommand+0x1a8>
    3e92:	80 91 7b 01 	lds	r24, 0x017B	; 0x80017b <SenseData+0x2>
    3e96:	80 7f       	andi	r24, 0xF0	; 240
    3e98:	80 93 7b 01 	sts	0x017B, r24	; 0x80017b <SenseData+0x2>
    3e9c:	10 92 85 01 	sts	0x0185, r1	; 0x800185 <SenseData+0xc>
    3ea0:	10 92 86 01 	sts	0x0186, r1	; 0x800186 <SenseData+0xd>
    3ea4:	81 e0       	ldi	r24, 0x01	; 1
    3ea6:	01 c0       	rjmp	.+2      	; 0x3eaa <SCSI_DecodeSCSICommand+0x22a>
    3ea8:	80 e0       	ldi	r24, 0x00	; 0
    3eaa:	28 96       	adiw	r28, 0x08	; 8
    3eac:	0f b6       	in	r0, 0x3f	; 63
    3eae:	f8 94       	cli
    3eb0:	de bf       	out	0x3e, r29	; 62
    3eb2:	0f be       	out	0x3f, r0	; 63
    3eb4:	cd bf       	out	0x3d, r28	; 61
    3eb6:	df 91       	pop	r29
    3eb8:	cf 91       	pop	r28
    3eba:	1f 91       	pop	r17
    3ebc:	0f 91       	pop	r16
    3ebe:	ff 90       	pop	r15
    3ec0:	ef 90       	pop	r14
    3ec2:	df 90       	pop	r13
    3ec4:	cf 90       	pop	r12
    3ec6:	08 95       	ret

00003ec8 <get_fattime>:
    3ec8:	0f 93       	push	r16
    3eca:	1f 93       	push	r17
    3ecc:	cf 93       	push	r28
    3ece:	df 93       	push	r29
    3ed0:	cd b7       	in	r28, 0x3d	; 61
    3ed2:	de b7       	in	r29, 0x3e	; 62
    3ed4:	28 97       	sbiw	r28, 0x08	; 8
    3ed6:	0f b6       	in	r0, 0x3f	; 63
    3ed8:	f8 94       	cli
    3eda:	de bf       	out	0x3e, r29	; 62
    3edc:	0f be       	out	0x3f, r0	; 63
    3ede:	cd bf       	out	0x3d, r28	; 61
    3ee0:	80 91 51 0c 	lds	r24, 0x0C51	; 0x800c51 <RtcOk>
    3ee4:	88 23       	and	r24, r24
    3ee6:	09 f4       	brne	.+2      	; 0x3eea <get_fattime+0x22>
    3ee8:	49 c0       	rjmp	.+146    	; 0x3f7c <get_fattime+0xb4>
    3eea:	ce 01       	movw	r24, r28
    3eec:	01 96       	adiw	r24, 0x01	; 1
    3eee:	00 de       	rcall	.-1024   	; 0x3af0 <rtc_gettime>
    3ef0:	4b 81       	ldd	r20, Y+3	; 0x03
    3ef2:	50 e0       	ldi	r21, 0x00	; 0
    3ef4:	60 e0       	ldi	r22, 0x00	; 0
    3ef6:	70 e0       	ldi	r23, 0x00	; 0
    3ef8:	85 e1       	ldi	r24, 0x15	; 21
    3efa:	44 0f       	add	r20, r20
    3efc:	55 1f       	adc	r21, r21
    3efe:	66 1f       	adc	r22, r22
    3f00:	77 1f       	adc	r23, r23
    3f02:	8a 95       	dec	r24
    3f04:	d1 f7       	brne	.-12     	; 0x3efa <get_fattime+0x32>
    3f06:	8c 81       	ldd	r24, Y+4	; 0x04
    3f08:	68 2b       	or	r22, r24
    3f0a:	8e 81       	ldd	r24, Y+6	; 0x06
    3f0c:	90 e0       	ldi	r25, 0x00	; 0
    3f0e:	a0 e0       	ldi	r26, 0x00	; 0
    3f10:	b0 e0       	ldi	r27, 0x00	; 0
    3f12:	2b e0       	ldi	r18, 0x0B	; 11
    3f14:	88 0f       	add	r24, r24
    3f16:	99 1f       	adc	r25, r25
    3f18:	aa 1f       	adc	r26, r26
    3f1a:	bb 1f       	adc	r27, r27
    3f1c:	2a 95       	dec	r18
    3f1e:	d1 f7       	brne	.-12     	; 0x3f14 <get_fattime+0x4c>
    3f20:	48 2b       	or	r20, r24
    3f22:	59 2b       	or	r21, r25
    3f24:	6a 2b       	or	r22, r26
    3f26:	7b 2b       	or	r23, r27
    3f28:	8f 81       	ldd	r24, Y+7	; 0x07
    3f2a:	90 e0       	ldi	r25, 0x00	; 0
    3f2c:	a0 e0       	ldi	r26, 0x00	; 0
    3f2e:	b0 e0       	ldi	r27, 0x00	; 0
    3f30:	35 e0       	ldi	r19, 0x05	; 5
    3f32:	88 0f       	add	r24, r24
    3f34:	99 1f       	adc	r25, r25
    3f36:	aa 1f       	adc	r26, r26
    3f38:	bb 1f       	adc	r27, r27
    3f3a:	3a 95       	dec	r19
    3f3c:	d1 f7       	brne	.-12     	; 0x3f32 <get_fattime+0x6a>
    3f3e:	84 2b       	or	r24, r20
    3f40:	95 2b       	or	r25, r21
    3f42:	a6 2b       	or	r26, r22
    3f44:	b7 2b       	or	r27, r23
    3f46:	28 85       	ldd	r18, Y+8	; 0x08
    3f48:	26 95       	lsr	r18
    3f4a:	ac 01       	movw	r20, r24
    3f4c:	bd 01       	movw	r22, r26
    3f4e:	42 2b       	or	r20, r18
    3f50:	89 81       	ldd	r24, Y+1	; 0x01
    3f52:	9a 81       	ldd	r25, Y+2	; 0x02
    3f54:	8c 5b       	subi	r24, 0xBC	; 188
    3f56:	97 40       	sbci	r25, 0x07	; 7
    3f58:	a0 e0       	ldi	r26, 0x00	; 0
    3f5a:	b0 e0       	ldi	r27, 0x00	; 0
    3f5c:	e9 e1       	ldi	r30, 0x19	; 25
    3f5e:	88 0f       	add	r24, r24
    3f60:	99 1f       	adc	r25, r25
    3f62:	aa 1f       	adc	r26, r26
    3f64:	bb 1f       	adc	r27, r27
    3f66:	ea 95       	dec	r30
    3f68:	d1 f7       	brne	.-12     	; 0x3f5e <get_fattime+0x96>
    3f6a:	8a 01       	movw	r16, r20
    3f6c:	9b 01       	movw	r18, r22
    3f6e:	08 2b       	or	r16, r24
    3f70:	19 2b       	or	r17, r25
    3f72:	2a 2b       	or	r18, r26
    3f74:	3b 2b       	or	r19, r27
    3f76:	c9 01       	movw	r24, r18
    3f78:	b8 01       	movw	r22, r16
    3f7a:	03 c0       	rjmp	.+6      	; 0x3f82 <get_fattime+0xba>
    3f7c:	60 e0       	ldi	r22, 0x00	; 0
    3f7e:	70 e0       	ldi	r23, 0x00	; 0
    3f80:	cb 01       	movw	r24, r22
    3f82:	28 96       	adiw	r28, 0x08	; 8
    3f84:	0f b6       	in	r0, 0x3f	; 63
    3f86:	f8 94       	cli
    3f88:	de bf       	out	0x3e, r29	; 62
    3f8a:	0f be       	out	0x3f, r0	; 63
    3f8c:	cd bf       	out	0x3d, r28	; 61
    3f8e:	df 91       	pop	r29
    3f90:	cf 91       	pop	r28
    3f92:	1f 91       	pop	r17
    3f94:	0f 91       	pop	r16
    3f96:	08 95       	ret

00003f98 <sdcard_create_sdload_times_file>:
    3f98:	af 92       	push	r10
    3f9a:	bf 92       	push	r11
    3f9c:	cf 92       	push	r12
    3f9e:	df 92       	push	r13
    3fa0:	ef 92       	push	r14
    3fa2:	ff 92       	push	r15
    3fa4:	0f 93       	push	r16
    3fa6:	1f 93       	push	r17
    3fa8:	cf 93       	push	r28
    3faa:	df 93       	push	r29
    3fac:	cd b7       	in	r28, 0x3d	; 61
    3fae:	de b7       	in	r29, 0x3e	; 62
    3fb0:	c7 54       	subi	r28, 0x47	; 71
    3fb2:	d3 40       	sbci	r29, 0x03	; 3
    3fb4:	0f b6       	in	r0, 0x3f	; 63
    3fb6:	f8 94       	cli
    3fb8:	de bf       	out	0x3e, r29	; 62
    3fba:	0f be       	out	0x3f, r0	; 63
    3fbc:	cd bf       	out	0x3d, r28	; 61
    3fbe:	7e 01       	movw	r14, r28
    3fc0:	24 e5       	ldi	r18, 0x54	; 84
    3fc2:	e2 1a       	sub	r14, r18
    3fc4:	2d ef       	ldi	r18, 0xFD	; 253
    3fc6:	f2 0a       	sbc	r15, r18
    3fc8:	28 e7       	ldi	r18, 0x78	; 120
    3fca:	a2 2e       	mov	r10, r18
    3fcc:	f7 01       	movw	r30, r14
    3fce:	2a 2d       	mov	r18, r10
    3fd0:	11 92       	st	Z+, r1
    3fd2:	2a 95       	dec	r18
    3fd4:	e9 f7       	brne	.-6      	; 0x3fd0 <sdcard_create_sdload_times_file+0x38>
    3fd6:	8e 01       	movw	r16, r28
    3fd8:	0c 5c       	subi	r16, 0xCC	; 204
    3fda:	1d 4f       	sbci	r17, 0xFD	; 253
    3fdc:	f8 01       	movw	r30, r16
    3fde:	2a 2d       	mov	r18, r10
    3fe0:	11 92       	st	Z+, r1
    3fe2:	2a 95       	dec	r18
    3fe4:	e9 f7       	brne	.-6      	; 0x3fe0 <sdcard_create_sdload_times_file+0x48>
    3fe6:	8b e5       	ldi	r24, 0x5B	; 91
    3fe8:	94 e0       	ldi	r25, 0x04	; 4
    3fea:	0e 94 d3 2c 	call	0x59a6	; 0x59a6 <puts>
    3fee:	40 e0       	ldi	r20, 0x00	; 0
    3ff0:	61 e4       	ldi	r22, 0x41	; 65
    3ff2:	72 e0       	ldi	r23, 0x02	; 2
    3ff4:	ce 01       	movw	r24, r28
    3ff6:	01 96       	adiw	r24, 0x01	; 1
    3ff8:	0e 94 13 10 	call	0x2026	; 0x2026 <f_mount>
    3ffc:	81 11       	cpse	r24, r1
    3ffe:	ca c0       	rjmp	.+404    	; 0x4194 <sdcard_create_sdload_times_file+0x1fc>
    4000:	88 e6       	ldi	r24, 0x68	; 104
    4002:	94 e0       	ldi	r25, 0x04	; 4
    4004:	0e 94 d3 2c 	call	0x59a6	; 0x59a6 <puts>
    4008:	89 e6       	ldi	r24, 0x69	; 105
    400a:	90 e0       	ldi	r25, 0x00	; 0
    400c:	0e 94 e1 2f 	call	0x5fc2	; 0x5fc2 <eeprom_read_byte>
    4010:	1f 92       	push	r1
    4012:	8f 93       	push	r24
    4014:	8b e7       	ldi	r24, 0x7B	; 123
    4016:	c8 2e       	mov	r12, r24
    4018:	84 e0       	ldi	r24, 0x04	; 4
    401a:	d8 2e       	mov	r13, r24
    401c:	df 92       	push	r13
    401e:	cf 92       	push	r12
    4020:	ff 92       	push	r15
    4022:	ef 92       	push	r14
    4024:	0e 94 03 2d 	call	0x5a06	; 0x5a06 <sprintf>
    4028:	ff 92       	push	r15
    402a:	ef 92       	push	r14
    402c:	89 e8       	ldi	r24, 0x89	; 137
    402e:	94 e0       	ldi	r25, 0x04	; 4
    4030:	9f 93       	push	r25
    4032:	8f 93       	push	r24
    4034:	0e 94 99 2c 	call	0x5932	; 0x5932 <printf>
    4038:	c7 01       	movw	r24, r14
    403a:	0e 94 74 15 	call	0x2ae8	; 0x2ae8 <f_unlink>
    403e:	89 e6       	ldi	r24, 0x69	; 105
    4040:	90 e0       	ldi	r25, 0x00	; 0
    4042:	0e 94 e1 2f 	call	0x5fc2	; 0x5fc2 <eeprom_read_byte>
    4046:	93 e0       	ldi	r25, 0x03	; 3
    4048:	b9 2e       	mov	r11, r25
    404a:	b8 0e       	add	r11, r24
    404c:	f7 01       	movw	r30, r14
    404e:	11 92       	st	Z+, r1
    4050:	aa 94       	dec	r10
    4052:	e9 f7       	brne	.-6      	; 0x404e <sdcard_create_sdload_times_file+0xb6>
    4054:	1f 92       	push	r1
    4056:	bf 92       	push	r11
    4058:	df 92       	push	r13
    405a:	cf 92       	push	r12
    405c:	ff 92       	push	r15
    405e:	ef 92       	push	r14
    4060:	0e 94 03 2d 	call	0x5a06	; 0x5a06 <sprintf>
    4064:	1f 92       	push	r1
    4066:	bf 92       	push	r11
    4068:	87 ea       	ldi	r24, 0xA7	; 167
    406a:	94 e0       	ldi	r25, 0x04	; 4
    406c:	9f 93       	push	r25
    406e:	8f 93       	push	r24
    4070:	1f 93       	push	r17
    4072:	0f 93       	push	r16
    4074:	0e 94 03 2d 	call	0x5a06	; 0x5a06 <sprintf>
    4078:	6b 2d       	mov	r22, r11
    407a:	89 e6       	ldi	r24, 0x69	; 105
    407c:	90 e0       	ldi	r25, 0x00	; 0
    407e:	0e 94 e9 2f 	call	0x5fd2	; 0x5fd2 <eeprom_write_byte>
    4082:	ff 92       	push	r15
    4084:	ef 92       	push	r14
    4086:	82 ec       	ldi	r24, 0xC2	; 194
    4088:	94 e0       	ldi	r25, 0x04	; 4
    408a:	9f 93       	push	r25
    408c:	8f 93       	push	r24
    408e:	0e 94 99 2c 	call	0x5932	; 0x5932 <printf>
    4092:	4b e0       	ldi	r20, 0x0B	; 11
    4094:	b7 01       	movw	r22, r14
    4096:	ce 01       	movw	r24, r28
    4098:	8c 5d       	subi	r24, 0xDC	; 220
    409a:	9c 4f       	sbci	r25, 0xFC	; 252
    409c:	0e 94 56 10 	call	0x20ac	; 0x20ac <f_open>
    40a0:	0f b6       	in	r0, 0x3f	; 63
    40a2:	f8 94       	cli
    40a4:	de bf       	out	0x3e, r29	; 62
    40a6:	0f be       	out	0x3f, r0	; 63
    40a8:	cd bf       	out	0x3d, r28	; 61
    40aa:	81 11       	cpse	r24, r1
    40ac:	70 c0       	rjmp	.+224    	; 0x418e <sdcard_create_sdload_times_file+0x1f6>
    40ae:	80 ed       	ldi	r24, 0xD0	; 208
    40b0:	94 e0       	ldi	r25, 0x04	; 4
    40b2:	0e 94 d3 2c 	call	0x59a6	; 0x59a6 <puts>
    40b6:	84 ee       	ldi	r24, 0xE4	; 228
    40b8:	94 e0       	ldi	r25, 0x04	; 4
    40ba:	0e 94 d3 2c 	call	0x59a6	; 0x59a6 <puts>
    40be:	1f 93       	push	r17
    40c0:	0f 93       	push	r16
    40c2:	83 e0       	ldi	r24, 0x03	; 3
    40c4:	95 e0       	ldi	r25, 0x05	; 5
    40c6:	9f 93       	push	r25
    40c8:	8f 93       	push	r24
    40ca:	0e 94 99 2c 	call	0x5932	; 0x5932 <printf>
    40ce:	f8 01       	movw	r30, r16
    40d0:	01 90       	ld	r0, Z+
    40d2:	00 20       	and	r0, r0
    40d4:	e9 f7       	brne	.-6      	; 0x40d0 <sdcard_create_sdload_times_file+0x138>
    40d6:	31 97       	sbiw	r30, 0x01	; 1
    40d8:	af 01       	movw	r20, r30
    40da:	40 1b       	sub	r20, r16
    40dc:	51 0b       	sbc	r21, r17
    40de:	9e 01       	movw	r18, r28
    40e0:	2a 5b       	subi	r18, 0xBA	; 186
    40e2:	3c 4f       	sbci	r19, 0xFC	; 252
    40e4:	b8 01       	movw	r22, r16
    40e6:	ce 01       	movw	r24, r28
    40e8:	8c 5d       	subi	r24, 0xDC	; 220
    40ea:	9c 4f       	sbci	r25, 0xFC	; 252
    40ec:	0e 94 46 13 	call	0x268c	; 0x268c <f_write>
    40f0:	81 e1       	ldi	r24, 0x11	; 17
    40f2:	95 e0       	ldi	r25, 0x05	; 5
    40f4:	0e 94 d3 2c 	call	0x59a6	; 0x59a6 <puts>
    40f8:	ce 01       	movw	r24, r28
    40fa:	8c 5d       	subi	r24, 0xDC	; 220
    40fc:	9c 4f       	sbci	r25, 0xFC	; 252
    40fe:	0e 94 57 15 	call	0x2aae	; 0x2aae <f_close>
    4102:	86 e2       	ldi	r24, 0x26	; 38
    4104:	95 e0       	ldi	r25, 0x05	; 5
    4106:	0e 94 d3 2c 	call	0x59a6	; 0x59a6 <puts>
    410a:	41 e0       	ldi	r20, 0x01	; 1
    410c:	b7 01       	movw	r22, r14
    410e:	ce 01       	movw	r24, r28
    4110:	8c 5d       	subi	r24, 0xDC	; 220
    4112:	9c 4f       	sbci	r25, 0xFC	; 252
    4114:	0e 94 56 10 	call	0x20ac	; 0x20ac <f_open>
    4118:	0f 90       	pop	r0
    411a:	0f 90       	pop	r0
    411c:	0f 90       	pop	r0
    411e:	0f 90       	pop	r0
    4120:	88 23       	and	r24, r24
    4122:	19 f0       	breq	.+6      	; 0x412a <sdcard_create_sdload_times_file+0x192>
    4124:	8e e4       	ldi	r24, 0x4E	; 78
    4126:	95 e0       	ldi	r25, 0x05	; 5
    4128:	37 c0       	rjmp	.+110    	; 0x4198 <sdcard_create_sdload_times_file+0x200>
    412a:	89 e5       	ldi	r24, 0x59	; 89
    412c:	95 e0       	ldi	r25, 0x05	; 5
    412e:	0e 94 d3 2c 	call	0x59a6	; 0x59a6 <puts>
    4132:	f8 01       	movw	r30, r16
    4134:	01 90       	ld	r0, Z+
    4136:	00 20       	and	r0, r0
    4138:	e9 f7       	brne	.-6      	; 0x4134 <sdcard_create_sdload_times_file+0x19c>
    413a:	31 97       	sbiw	r30, 0x01	; 1
    413c:	af 01       	movw	r20, r30
    413e:	40 1b       	sub	r20, r16
    4140:	51 0b       	sbc	r21, r17
    4142:	9e 01       	movw	r18, r28
    4144:	2a 5b       	subi	r18, 0xBA	; 186
    4146:	3c 4f       	sbci	r19, 0xFC	; 252
    4148:	b8 01       	movw	r22, r16
    414a:	ce 01       	movw	r24, r28
    414c:	8c 5d       	subi	r24, 0xDC	; 220
    414e:	9c 4f       	sbci	r25, 0xFC	; 252
    4150:	0e 94 f6 11 	call	0x23ec	; 0x23ec <f_read>
    4154:	81 11       	cpse	r24, r1
    4156:	12 c0       	rjmp	.+36     	; 0x417c <sdcard_create_sdload_times_file+0x1e4>
    4158:	1f 93       	push	r17
    415a:	0f 93       	push	r16
    415c:	86 e7       	ldi	r24, 0x76	; 118
    415e:	95 e0       	ldi	r25, 0x05	; 5
    4160:	9f 93       	push	r25
    4162:	8f 93       	push	r24
    4164:	0e 94 99 2c 	call	0x5932	; 0x5932 <printf>
    4168:	85 e8       	ldi	r24, 0x85	; 133
    416a:	95 e0       	ldi	r25, 0x05	; 5
    416c:	0e 94 d3 2c 	call	0x59a6	; 0x59a6 <puts>
    4170:	0f 90       	pop	r0
    4172:	0f 90       	pop	r0
    4174:	0f 90       	pop	r0
    4176:	0f 90       	pop	r0
    4178:	11 e0       	ldi	r17, 0x01	; 1
    417a:	01 c0       	rjmp	.+2      	; 0x417e <sdcard_create_sdload_times_file+0x1e6>
    417c:	10 e0       	ldi	r17, 0x00	; 0
    417e:	ce 01       	movw	r24, r28
    4180:	8c 5d       	subi	r24, 0xDC	; 220
    4182:	9c 4f       	sbci	r25, 0xFC	; 252
    4184:	0e 94 57 15 	call	0x2aae	; 0x2aae <f_close>
    4188:	11 11       	cpse	r17, r1
    418a:	09 c0       	rjmp	.+18     	; 0x419e <sdcard_create_sdload_times_file+0x206>
    418c:	cb cf       	rjmp	.-106    	; 0x4124 <sdcard_create_sdload_times_file+0x18c>
    418e:	88 ea       	ldi	r24, 0xA8	; 168
    4190:	95 e0       	ldi	r25, 0x05	; 5
    4192:	02 c0       	rjmp	.+4      	; 0x4198 <sdcard_create_sdload_times_file+0x200>
    4194:	8a eb       	ldi	r24, 0xBA	; 186
    4196:	95 e0       	ldi	r25, 0x05	; 5
    4198:	0e 94 d3 2c 	call	0x59a6	; 0x59a6 <puts>
    419c:	10 e0       	ldi	r17, 0x00	; 0
    419e:	81 2f       	mov	r24, r17
    41a0:	c9 5b       	subi	r28, 0xB9	; 185
    41a2:	dc 4f       	sbci	r29, 0xFC	; 252
    41a4:	0f b6       	in	r0, 0x3f	; 63
    41a6:	f8 94       	cli
    41a8:	de bf       	out	0x3e, r29	; 62
    41aa:	0f be       	out	0x3f, r0	; 63
    41ac:	cd bf       	out	0x3d, r28	; 61
    41ae:	df 91       	pop	r29
    41b0:	cf 91       	pop	r28
    41b2:	1f 91       	pop	r17
    41b4:	0f 91       	pop	r16
    41b6:	ff 90       	pop	r15
    41b8:	ef 90       	pop	r14
    41ba:	df 90       	pop	r13
    41bc:	cf 90       	pop	r12
    41be:	bf 90       	pop	r11
    41c0:	af 90       	pop	r10
    41c2:	08 95       	ret

000041c4 <sdcard_GetNbBlocks>:
    41c4:	cf 93       	push	r28
    41c6:	df 93       	push	r29
    41c8:	00 d0       	rcall	.+0      	; 0x41ca <sdcard_GetNbBlocks+0x6>
    41ca:	00 d0       	rcall	.+0      	; 0x41cc <sdcard_GetNbBlocks+0x8>
    41cc:	cd b7       	in	r28, 0x3d	; 61
    41ce:	de b7       	in	r29, 0x3e	; 62
    41d0:	19 82       	std	Y+1, r1	; 0x01
    41d2:	1a 82       	std	Y+2, r1	; 0x02
    41d4:	1b 82       	std	Y+3, r1	; 0x03
    41d6:	1c 82       	std	Y+4, r1	; 0x04
    41d8:	60 91 f5 09 	lds	r22, 0x09F5	; 0x8009f5 <CachedTotalBlocks.4959>
    41dc:	70 91 f6 09 	lds	r23, 0x09F6	; 0x8009f6 <CachedTotalBlocks.4959+0x1>
    41e0:	80 91 f7 09 	lds	r24, 0x09F7	; 0x8009f7 <CachedTotalBlocks.4959+0x2>
    41e4:	90 91 f8 09 	lds	r25, 0x09F8	; 0x8009f8 <CachedTotalBlocks.4959+0x3>
    41e8:	61 15       	cp	r22, r1
    41ea:	71 05       	cpc	r23, r1
    41ec:	81 05       	cpc	r24, r1
    41ee:	91 05       	cpc	r25, r1
    41f0:	59 f5       	brne	.+86     	; 0x4248 <sdcard_GetNbBlocks+0x84>
    41f2:	ae 01       	movw	r20, r28
    41f4:	4f 5f       	subi	r20, 0xFF	; 255
    41f6:	5f 4f       	sbci	r21, 0xFF	; 255
    41f8:	61 e0       	ldi	r22, 0x01	; 1
    41fa:	80 e0       	ldi	r24, 0x00	; 0
    41fc:	0e 94 10 03 	call	0x620	; 0x620 <disk_ioctl>
    4200:	89 81       	ldd	r24, Y+1	; 0x01
    4202:	9a 81       	ldd	r25, Y+2	; 0x02
    4204:	2b 81       	ldd	r18, Y+3	; 0x03
    4206:	3c 81       	ldd	r19, Y+4	; 0x04
    4208:	80 93 f5 09 	sts	0x09F5, r24	; 0x8009f5 <CachedTotalBlocks.4959>
    420c:	90 93 f6 09 	sts	0x09F6, r25	; 0x8009f6 <CachedTotalBlocks.4959+0x1>
    4210:	20 93 f7 09 	sts	0x09F7, r18	; 0x8009f7 <CachedTotalBlocks.4959+0x2>
    4214:	30 93 f8 09 	sts	0x09F8, r19	; 0x8009f8 <CachedTotalBlocks.4959+0x3>
    4218:	3f 93       	push	r19
    421a:	2f 93       	push	r18
    421c:	9f 93       	push	r25
    421e:	8f 93       	push	r24
    4220:	8c e5       	ldi	r24, 0x5C	; 92
    4222:	91 e0       	ldi	r25, 0x01	; 1
    4224:	9f 93       	push	r25
    4226:	8f 93       	push	r24
    4228:	0e 94 ac 2c 	call	0x5958	; 0x5958 <printf_P>
    422c:	60 91 f5 09 	lds	r22, 0x09F5	; 0x8009f5 <CachedTotalBlocks.4959>
    4230:	70 91 f6 09 	lds	r23, 0x09F6	; 0x8009f6 <CachedTotalBlocks.4959+0x1>
    4234:	80 91 f7 09 	lds	r24, 0x09F7	; 0x8009f7 <CachedTotalBlocks.4959+0x2>
    4238:	90 91 f8 09 	lds	r25, 0x09F8	; 0x8009f8 <CachedTotalBlocks.4959+0x3>
    423c:	0f 90       	pop	r0
    423e:	0f 90       	pop	r0
    4240:	0f 90       	pop	r0
    4242:	0f 90       	pop	r0
    4244:	0f 90       	pop	r0
    4246:	0f 90       	pop	r0
    4248:	0f 90       	pop	r0
    424a:	0f 90       	pop	r0
    424c:	0f 90       	pop	r0
    424e:	0f 90       	pop	r0
    4250:	df 91       	pop	r29
    4252:	cf 91       	pop	r28
    4254:	08 95       	ret

00004256 <sdcard_Init>:
    4256:	0f 93       	push	r16
    4258:	1f 93       	push	r17
    425a:	cf 93       	push	r28
    425c:	df 93       	push	r29
    425e:	cd b7       	in	r28, 0x3d	; 61
    4260:	de b7       	in	r29, 0x3e	; 62
    4262:	d2 50       	subi	r29, 0x02	; 2
    4264:	0f b6       	in	r0, 0x3f	; 63
    4266:	f8 94       	cli
    4268:	de bf       	out	0x3e, r29	; 62
    426a:	0f be       	out	0x3f, r0	; 63
    426c:	cd bf       	out	0x3d, r28	; 61
    426e:	8c eb       	ldi	r24, 0xBC	; 188
    4270:	91 e0       	ldi	r25, 0x01	; 1
    4272:	9f 93       	push	r25
    4274:	8f 93       	push	r24
    4276:	0e 94 ac 2c 	call	0x5958	; 0x5958 <printf_P>
    427a:	0f 90       	pop	r0
    427c:	0f 90       	pop	r0
    427e:	0f e9       	ldi	r16, 0x9F	; 159
    4280:	11 e0       	ldi	r17, 0x01	; 1
    4282:	1f 93       	push	r17
    4284:	0f 93       	push	r16
    4286:	0e 94 ac 2c 	call	0x5958	; 0x5958 <printf_P>
    428a:	80 e0       	ldi	r24, 0x00	; 0
    428c:	0e 94 e8 02 	call	0x5d0	; 0x5d0 <disk_initialize>
    4290:	0f 90       	pop	r0
    4292:	0f 90       	pop	r0
    4294:	81 11       	cpse	r24, r1
    4296:	f5 cf       	rjmp	.-22     	; 0x4282 <sdcard_Init+0x2c>
    4298:	85 e8       	ldi	r24, 0x85	; 133
    429a:	91 e0       	ldi	r25, 0x01	; 1
    429c:	9f 93       	push	r25
    429e:	8f 93       	push	r24
    42a0:	0e 94 ac 2c 	call	0x5958	; 0x5958 <printf_P>
    42a4:	8f df       	rcall	.-226    	; 0x41c4 <sdcard_GetNbBlocks>
    42a6:	8e 01       	movw	r16, r28
    42a8:	0f 5f       	subi	r16, 0xFF	; 255
    42aa:	1f 4f       	sbci	r17, 0xFF	; 255
    42ac:	80 e0       	ldi	r24, 0x00	; 0
    42ae:	92 e0       	ldi	r25, 0x02	; 2
    42b0:	f8 01       	movw	r30, r16
    42b2:	9c 01       	movw	r18, r24
    42b4:	11 92       	st	Z+, r1
    42b6:	21 50       	subi	r18, 0x01	; 1
    42b8:	30 40       	sbci	r19, 0x00	; 0
    42ba:	e1 f7       	brne	.-8      	; 0x42b4 <sdcard_Init+0x5e>
    42bc:	a8 01       	movw	r20, r16
    42be:	60 e0       	ldi	r22, 0x00	; 0
    42c0:	70 e0       	ldi	r23, 0x00	; 0
    42c2:	cb 01       	movw	r24, r22
    42c4:	0e 94 17 02 	call	0x42e	; 0x42e <SD_read_sector>
    42c8:	82 e7       	ldi	r24, 0x72	; 114
    42ca:	91 e0       	ldi	r25, 0x01	; 1
    42cc:	9f 93       	push	r25
    42ce:	8f 93       	push	r24
    42d0:	0e 94 ac 2c 	call	0x5958	; 0x5958 <printf_P>
    42d4:	60 e0       	ldi	r22, 0x00	; 0
    42d6:	72 e0       	ldi	r23, 0x02	; 2
    42d8:	c8 01       	movw	r24, r16
    42da:	0e 94 58 01 	call	0x2b0	; 0x2b0 <uart_printhexdump>
    42de:	8d e6       	ldi	r24, 0x6D	; 109
    42e0:	91 e0       	ldi	r25, 0x01	; 1
    42e2:	9f 93       	push	r25
    42e4:	8f 93       	push	r24
    42e6:	0e 94 ac 2c 	call	0x5958	; 0x5958 <printf_P>
    42ea:	56 de       	rcall	.-852    	; 0x3f98 <sdcard_create_sdload_times_file>
    42ec:	0f 90       	pop	r0
    42ee:	0f 90       	pop	r0
    42f0:	0f 90       	pop	r0
    42f2:	0f 90       	pop	r0
    42f4:	0f 90       	pop	r0
    42f6:	0f 90       	pop	r0
    42f8:	81 e0       	ldi	r24, 0x01	; 1
    42fa:	de 5f       	subi	r29, 0xFE	; 254
    42fc:	0f b6       	in	r0, 0x3f	; 63
    42fe:	f8 94       	cli
    4300:	de bf       	out	0x3e, r29	; 62
    4302:	0f be       	out	0x3f, r0	; 63
    4304:	cd bf       	out	0x3d, r28	; 61
    4306:	df 91       	pop	r29
    4308:	cf 91       	pop	r28
    430a:	1f 91       	pop	r17
    430c:	0f 91       	pop	r16
    430e:	08 95       	ret

00004310 <sdcard_WriteBlockHandler>:
    4310:	cf 93       	push	r28
    4312:	df 93       	push	r29
    4314:	ec 01       	movw	r28, r24
    4316:	80 91 e8 00 	lds	r24, 0x00E8	; 0x8000e8 <__TEXT_REGION_LENGTH__+0x7e00e8>
    431a:	85 ff       	sbrs	r24, 5
    431c:	33 c0       	rjmp	.+102    	; 0x4384 <sdcard_WriteBlockHandler+0x74>
    431e:	80 91 f1 00 	lds	r24, 0x00F1	; 0x8000f1 <__TEXT_REGION_LENGTH__+0x7e00f1>
    4322:	88 83       	st	Y, r24
    4324:	80 91 f1 00 	lds	r24, 0x00F1	; 0x8000f1 <__TEXT_REGION_LENGTH__+0x7e00f1>
    4328:	89 83       	std	Y+1, r24	; 0x01
    432a:	80 91 f1 00 	lds	r24, 0x00F1	; 0x8000f1 <__TEXT_REGION_LENGTH__+0x7e00f1>
    432e:	8a 83       	std	Y+2, r24	; 0x02
    4330:	80 91 f1 00 	lds	r24, 0x00F1	; 0x8000f1 <__TEXT_REGION_LENGTH__+0x7e00f1>
    4334:	8b 83       	std	Y+3, r24	; 0x03
    4336:	80 91 f1 00 	lds	r24, 0x00F1	; 0x8000f1 <__TEXT_REGION_LENGTH__+0x7e00f1>
    433a:	8c 83       	std	Y+4, r24	; 0x04
    433c:	80 91 f1 00 	lds	r24, 0x00F1	; 0x8000f1 <__TEXT_REGION_LENGTH__+0x7e00f1>
    4340:	8d 83       	std	Y+5, r24	; 0x05
    4342:	80 91 f1 00 	lds	r24, 0x00F1	; 0x8000f1 <__TEXT_REGION_LENGTH__+0x7e00f1>
    4346:	8e 83       	std	Y+6, r24	; 0x06
    4348:	80 91 f1 00 	lds	r24, 0x00F1	; 0x8000f1 <__TEXT_REGION_LENGTH__+0x7e00f1>
    434c:	8f 83       	std	Y+7, r24	; 0x07
    434e:	80 91 f1 00 	lds	r24, 0x00F1	; 0x8000f1 <__TEXT_REGION_LENGTH__+0x7e00f1>
    4352:	88 87       	std	Y+8, r24	; 0x08
    4354:	80 91 f1 00 	lds	r24, 0x00F1	; 0x8000f1 <__TEXT_REGION_LENGTH__+0x7e00f1>
    4358:	89 87       	std	Y+9, r24	; 0x09
    435a:	80 91 f1 00 	lds	r24, 0x00F1	; 0x8000f1 <__TEXT_REGION_LENGTH__+0x7e00f1>
    435e:	8a 87       	std	Y+10, r24	; 0x0a
    4360:	80 91 f1 00 	lds	r24, 0x00F1	; 0x8000f1 <__TEXT_REGION_LENGTH__+0x7e00f1>
    4364:	8b 87       	std	Y+11, r24	; 0x0b
    4366:	80 91 f1 00 	lds	r24, 0x00F1	; 0x8000f1 <__TEXT_REGION_LENGTH__+0x7e00f1>
    436a:	8c 87       	std	Y+12, r24	; 0x0c
    436c:	80 91 f1 00 	lds	r24, 0x00F1	; 0x8000f1 <__TEXT_REGION_LENGTH__+0x7e00f1>
    4370:	8d 87       	std	Y+13, r24	; 0x0d
    4372:	80 91 f1 00 	lds	r24, 0x00F1	; 0x8000f1 <__TEXT_REGION_LENGTH__+0x7e00f1>
    4376:	8e 87       	std	Y+14, r24	; 0x0e
    4378:	80 91 f1 00 	lds	r24, 0x00F1	; 0x8000f1 <__TEXT_REGION_LENGTH__+0x7e00f1>
    437c:	8f 87       	std	Y+15, r24	; 0x0f
    437e:	80 e1       	ldi	r24, 0x10	; 16
    4380:	90 e0       	ldi	r25, 0x00	; 0
    4382:	0a c0       	rjmp	.+20     	; 0x4398 <sdcard_WriteBlockHandler+0x88>
    4384:	80 91 e8 00 	lds	r24, 0x00E8	; 0x8000e8 <__TEXT_REGION_LENGTH__+0x7e00e8>
    4388:	8b 77       	andi	r24, 0x7B	; 123
    438a:	80 93 e8 00 	sts	0x00E8, r24	; 0x8000e8 <__TEXT_REGION_LENGTH__+0x7e00e8>
    438e:	10 d7       	rcall	.+3616   	; 0x51b0 <Endpoint_WaitUntilReady>
    4390:	88 23       	and	r24, r24
    4392:	29 f2       	breq	.-118    	; 0x431e <sdcard_WriteBlockHandler+0xe>
    4394:	80 e0       	ldi	r24, 0x00	; 0
    4396:	90 e0       	ldi	r25, 0x00	; 0
    4398:	df 91       	pop	r29
    439a:	cf 91       	pop	r28
    439c:	08 95       	ret

0000439e <sdcard_WriteBlocks>:
    439e:	8f 92       	push	r8
    43a0:	9f 92       	push	r9
    43a2:	af 92       	push	r10
    43a4:	bf 92       	push	r11
    43a6:	cf 92       	push	r12
    43a8:	df 92       	push	r13
    43aa:	ef 92       	push	r14
    43ac:	ff 92       	push	r15
    43ae:	0f 93       	push	r16
    43b0:	1f 93       	push	r17
    43b2:	cf 93       	push	r28
    43b4:	df 93       	push	r29
    43b6:	7c 01       	movw	r14, r24
    43b8:	4a 01       	movw	r8, r20
    43ba:	5b 01       	movw	r10, r22
    43bc:	e9 01       	movw	r28, r18
    43be:	df 93       	push	r29
    43c0:	cf 93       	push	r28
    43c2:	bf 92       	push	r11
    43c4:	af 92       	push	r10
    43c6:	9f 92       	push	r9
    43c8:	4f 93       	push	r20
    43ca:	81 e5       	ldi	r24, 0x51	; 81
    43cc:	91 e0       	ldi	r25, 0x01	; 1
    43ce:	9f 93       	push	r25
    43d0:	8f 93       	push	r24
    43d2:	0e 94 ac 2c 	call	0x5958	; 0x5958 <printf_P>
    43d6:	ec d6       	rcall	.+3544   	; 0x51b0 <Endpoint_WaitUntilReady>
    43d8:	ed b7       	in	r30, 0x3d	; 61
    43da:	fe b7       	in	r31, 0x3e	; 62
    43dc:	38 96       	adiw	r30, 0x08	; 8
    43de:	0f b6       	in	r0, 0x3f	; 63
    43e0:	f8 94       	cli
    43e2:	fe bf       	out	0x3e, r31	; 62
    43e4:	0f be       	out	0x3f, r0	; 63
    43e6:	ed bf       	out	0x3d, r30	; 61
    43e8:	81 11       	cpse	r24, r1
    43ea:	30 c0       	rjmp	.+96     	; 0x444c <sdcard_WriteBlocks+0xae>
    43ec:	85 ef       	ldi	r24, 0xF5	; 245
    43ee:	c8 2e       	mov	r12, r24
    43f0:	89 e0       	ldi	r24, 0x09	; 9
    43f2:	d8 2e       	mov	r13, r24
    43f4:	20 97       	sbiw	r28, 0x00	; 0
    43f6:	09 f1       	breq	.+66     	; 0x443a <sdcard_WriteBlocks+0x9c>
    43f8:	05 ef       	ldi	r16, 0xF5	; 245
    43fa:	17 e0       	ldi	r17, 0x07	; 7
    43fc:	40 e0       	ldi	r20, 0x00	; 0
    43fe:	50 e0       	ldi	r21, 0x00	; 0
    4400:	60 e0       	ldi	r22, 0x00	; 0
    4402:	70 e0       	ldi	r23, 0x00	; 0
    4404:	c8 01       	movw	r24, r16
    4406:	84 df       	rcall	.-248    	; 0x4310 <sdcard_WriteBlockHandler>
    4408:	00 5f       	subi	r16, 0xF0	; 240
    440a:	1f 4f       	sbci	r17, 0xFF	; 255
    440c:	c0 16       	cp	r12, r16
    440e:	d1 06       	cpc	r13, r17
    4410:	a9 f7       	brne	.-22     	; 0x43fc <sdcard_WriteBlocks+0x5e>
    4412:	01 e0       	ldi	r16, 0x01	; 1
    4414:	10 e0       	ldi	r17, 0x00	; 0
    4416:	a5 01       	movw	r20, r10
    4418:	94 01       	movw	r18, r8
    441a:	65 ef       	ldi	r22, 0xF5	; 245
    441c:	77 e0       	ldi	r23, 0x07	; 7
    441e:	80 e0       	ldi	r24, 0x00	; 0
    4420:	0e 94 ff 02 	call	0x5fe	; 0x5fe <disk_write>
    4424:	f7 01       	movw	r30, r14
    4426:	80 ad       	ldd	r24, Z+56	; 0x38
    4428:	81 11       	cpse	r24, r1
    442a:	10 c0       	rjmp	.+32     	; 0x444c <sdcard_WriteBlocks+0xae>
    442c:	ff ef       	ldi	r31, 0xFF	; 255
    442e:	8f 1a       	sub	r8, r31
    4430:	9f 0a       	sbc	r9, r31
    4432:	af 0a       	sbc	r10, r31
    4434:	bf 0a       	sbc	r11, r31
    4436:	21 97       	sbiw	r28, 0x01	; 1
    4438:	dd cf       	rjmp	.-70     	; 0x43f4 <sdcard_WriteBlocks+0x56>
    443a:	80 91 e8 00 	lds	r24, 0x00E8	; 0x8000e8 <__TEXT_REGION_LENGTH__+0x7e00e8>
    443e:	85 fd       	sbrc	r24, 5
    4440:	05 c0       	rjmp	.+10     	; 0x444c <sdcard_WriteBlocks+0xae>
    4442:	80 91 e8 00 	lds	r24, 0x00E8	; 0x8000e8 <__TEXT_REGION_LENGTH__+0x7e00e8>
    4446:	8b 77       	andi	r24, 0x7B	; 123
    4448:	80 93 e8 00 	sts	0x00E8, r24	; 0x8000e8 <__TEXT_REGION_LENGTH__+0x7e00e8>
    444c:	df 91       	pop	r29
    444e:	cf 91       	pop	r28
    4450:	1f 91       	pop	r17
    4452:	0f 91       	pop	r16
    4454:	ff 90       	pop	r15
    4456:	ef 90       	pop	r14
    4458:	df 90       	pop	r13
    445a:	cf 90       	pop	r12
    445c:	bf 90       	pop	r11
    445e:	af 90       	pop	r10
    4460:	9f 90       	pop	r9
    4462:	8f 90       	pop	r8
    4464:	08 95       	ret

00004466 <sdcard_ReadBlocks>:
    4466:	8f 92       	push	r8
    4468:	9f 92       	push	r9
    446a:	af 92       	push	r10
    446c:	bf 92       	push	r11
    446e:	cf 92       	push	r12
    4470:	df 92       	push	r13
    4472:	ef 92       	push	r14
    4474:	ff 92       	push	r15
    4476:	0f 93       	push	r16
    4478:	1f 93       	push	r17
    447a:	cf 93       	push	r28
    447c:	df 93       	push	r29
    447e:	4a 01       	movw	r8, r20
    4480:	5b 01       	movw	r10, r22
    4482:	79 01       	movw	r14, r18
    4484:	ff 92       	push	r15
    4486:	2f 93       	push	r18
    4488:	bf 92       	push	r11
    448a:	af 92       	push	r10
    448c:	9f 92       	push	r9
    448e:	4f 93       	push	r20
    4490:	86 e4       	ldi	r24, 0x46	; 70
    4492:	91 e0       	ldi	r25, 0x01	; 1
    4494:	9f 93       	push	r25
    4496:	8f 93       	push	r24
    4498:	0e 94 ac 2c 	call	0x5958	; 0x5958 <printf_P>
    449c:	89 d6       	rcall	.+3346   	; 0x51b0 <Endpoint_WaitUntilReady>
    449e:	2d b7       	in	r18, 0x3d	; 61
    44a0:	3e b7       	in	r19, 0x3e	; 62
    44a2:	28 5f       	subi	r18, 0xF8	; 248
    44a4:	3f 4f       	sbci	r19, 0xFF	; 255
    44a6:	0f b6       	in	r0, 0x3f	; 63
    44a8:	f8 94       	cli
    44aa:	3e bf       	out	0x3e, r19	; 62
    44ac:	0f be       	out	0x3f, r0	; 63
    44ae:	2d bf       	out	0x3d, r18	; 61
    44b0:	81 11       	cpse	r24, r1
    44b2:	67 c0       	rjmp	.+206    	; 0x4582 <sdcard_ReadBlocks+0x11c>
    44b4:	85 ef       	ldi	r24, 0xF5	; 245
    44b6:	c8 2e       	mov	r12, r24
    44b8:	87 e0       	ldi	r24, 0x07	; 7
    44ba:	d8 2e       	mov	r13, r24
    44bc:	e1 14       	cp	r14, r1
    44be:	f1 04       	cpc	r15, r1
    44c0:	09 f4       	brne	.+2      	; 0x44c4 <sdcard_ReadBlocks+0x5e>
    44c2:	56 c0       	rjmp	.+172    	; 0x4570 <sdcard_ReadBlocks+0x10a>
    44c4:	01 e0       	ldi	r16, 0x01	; 1
    44c6:	10 e0       	ldi	r17, 0x00	; 0
    44c8:	a5 01       	movw	r20, r10
    44ca:	94 01       	movw	r18, r8
    44cc:	65 ef       	ldi	r22, 0xF5	; 245
    44ce:	75 e0       	ldi	r23, 0x05	; 5
    44d0:	80 e0       	ldi	r24, 0x00	; 0
    44d2:	0e 94 ee 02 	call	0x5dc	; 0x5dc <disk_read>
    44d6:	c5 ef       	ldi	r28, 0xF5	; 245
    44d8:	d5 e0       	ldi	r29, 0x05	; 5
    44da:	80 91 e8 00 	lds	r24, 0x00E8	; 0x8000e8 <__TEXT_REGION_LENGTH__+0x7e00e8>
    44de:	85 ff       	sbrs	r24, 5
    44e0:	31 c0       	rjmp	.+98     	; 0x4544 <sdcard_ReadBlocks+0xde>
    44e2:	88 81       	ld	r24, Y
    44e4:	80 93 f1 00 	sts	0x00F1, r24	; 0x8000f1 <__TEXT_REGION_LENGTH__+0x7e00f1>
    44e8:	89 81       	ldd	r24, Y+1	; 0x01
    44ea:	80 93 f1 00 	sts	0x00F1, r24	; 0x8000f1 <__TEXT_REGION_LENGTH__+0x7e00f1>
    44ee:	8a 81       	ldd	r24, Y+2	; 0x02
    44f0:	80 93 f1 00 	sts	0x00F1, r24	; 0x8000f1 <__TEXT_REGION_LENGTH__+0x7e00f1>
    44f4:	8b 81       	ldd	r24, Y+3	; 0x03
    44f6:	80 93 f1 00 	sts	0x00F1, r24	; 0x8000f1 <__TEXT_REGION_LENGTH__+0x7e00f1>
    44fa:	8c 81       	ldd	r24, Y+4	; 0x04
    44fc:	80 93 f1 00 	sts	0x00F1, r24	; 0x8000f1 <__TEXT_REGION_LENGTH__+0x7e00f1>
    4500:	8d 81       	ldd	r24, Y+5	; 0x05
    4502:	80 93 f1 00 	sts	0x00F1, r24	; 0x8000f1 <__TEXT_REGION_LENGTH__+0x7e00f1>
    4506:	8e 81       	ldd	r24, Y+6	; 0x06
    4508:	80 93 f1 00 	sts	0x00F1, r24	; 0x8000f1 <__TEXT_REGION_LENGTH__+0x7e00f1>
    450c:	8f 81       	ldd	r24, Y+7	; 0x07
    450e:	80 93 f1 00 	sts	0x00F1, r24	; 0x8000f1 <__TEXT_REGION_LENGTH__+0x7e00f1>
    4512:	88 85       	ldd	r24, Y+8	; 0x08
    4514:	80 93 f1 00 	sts	0x00F1, r24	; 0x8000f1 <__TEXT_REGION_LENGTH__+0x7e00f1>
    4518:	89 85       	ldd	r24, Y+9	; 0x09
    451a:	80 93 f1 00 	sts	0x00F1, r24	; 0x8000f1 <__TEXT_REGION_LENGTH__+0x7e00f1>
    451e:	8a 85       	ldd	r24, Y+10	; 0x0a
    4520:	80 93 f1 00 	sts	0x00F1, r24	; 0x8000f1 <__TEXT_REGION_LENGTH__+0x7e00f1>
    4524:	8b 85       	ldd	r24, Y+11	; 0x0b
    4526:	80 93 f1 00 	sts	0x00F1, r24	; 0x8000f1 <__TEXT_REGION_LENGTH__+0x7e00f1>
    452a:	8c 85       	ldd	r24, Y+12	; 0x0c
    452c:	80 93 f1 00 	sts	0x00F1, r24	; 0x8000f1 <__TEXT_REGION_LENGTH__+0x7e00f1>
    4530:	8d 85       	ldd	r24, Y+13	; 0x0d
    4532:	80 93 f1 00 	sts	0x00F1, r24	; 0x8000f1 <__TEXT_REGION_LENGTH__+0x7e00f1>
    4536:	8e 85       	ldd	r24, Y+14	; 0x0e
    4538:	80 93 f1 00 	sts	0x00F1, r24	; 0x8000f1 <__TEXT_REGION_LENGTH__+0x7e00f1>
    453c:	8f 85       	ldd	r24, Y+15	; 0x0f
    453e:	80 93 f1 00 	sts	0x00F1, r24	; 0x8000f1 <__TEXT_REGION_LENGTH__+0x7e00f1>
    4542:	08 c0       	rjmp	.+16     	; 0x4554 <sdcard_ReadBlocks+0xee>
    4544:	80 91 e8 00 	lds	r24, 0x00E8	; 0x8000e8 <__TEXT_REGION_LENGTH__+0x7e00e8>
    4548:	8e 77       	andi	r24, 0x7E	; 126
    454a:	80 93 e8 00 	sts	0x00E8, r24	; 0x8000e8 <__TEXT_REGION_LENGTH__+0x7e00e8>
    454e:	30 d6       	rcall	.+3168   	; 0x51b0 <Endpoint_WaitUntilReady>
    4550:	88 23       	and	r24, r24
    4552:	39 f2       	breq	.-114    	; 0x44e2 <sdcard_ReadBlocks+0x7c>
    4554:	60 96       	adiw	r28, 0x10	; 16
    4556:	cc 16       	cp	r12, r28
    4558:	dd 06       	cpc	r13, r29
    455a:	09 f0       	breq	.+2      	; 0x455e <sdcard_ReadBlocks+0xf8>
    455c:	be cf       	rjmp	.-132    	; 0x44da <sdcard_ReadBlocks+0x74>
    455e:	3f ef       	ldi	r19, 0xFF	; 255
    4560:	83 1a       	sub	r8, r19
    4562:	93 0a       	sbc	r9, r19
    4564:	a3 0a       	sbc	r10, r19
    4566:	b3 0a       	sbc	r11, r19
    4568:	81 e0       	ldi	r24, 0x01	; 1
    456a:	e8 1a       	sub	r14, r24
    456c:	f1 08       	sbc	r15, r1
    456e:	a6 cf       	rjmp	.-180    	; 0x44bc <sdcard_ReadBlocks+0x56>
    4570:	80 91 e8 00 	lds	r24, 0x00E8	; 0x8000e8 <__TEXT_REGION_LENGTH__+0x7e00e8>
    4574:	85 fd       	sbrc	r24, 5
    4576:	05 c0       	rjmp	.+10     	; 0x4582 <sdcard_ReadBlocks+0x11c>
    4578:	80 91 e8 00 	lds	r24, 0x00E8	; 0x8000e8 <__TEXT_REGION_LENGTH__+0x7e00e8>
    457c:	8e 77       	andi	r24, 0x7E	; 126
    457e:	80 93 e8 00 	sts	0x00E8, r24	; 0x8000e8 <__TEXT_REGION_LENGTH__+0x7e00e8>
    4582:	df 91       	pop	r29
    4584:	cf 91       	pop	r28
    4586:	1f 91       	pop	r17
    4588:	0f 91       	pop	r16
    458a:	ff 90       	pop	r15
    458c:	ef 90       	pop	r14
    458e:	df 90       	pop	r13
    4590:	cf 90       	pop	r12
    4592:	bf 90       	pop	r11
    4594:	af 90       	pop	r10
    4596:	9f 90       	pop	r9
    4598:	8f 90       	pop	r8
    459a:	08 95       	ret

0000459c <sdcard_CheckDataflashOperation>:
    459c:	81 e0       	ldi	r24, 0x01	; 1
    459e:	08 95       	ret

000045a0 <Serial_putchar>:
    45a0:	90 91 c8 00 	lds	r25, 0x00C8	; 0x8000c8 <__TEXT_REGION_LENGTH__+0x7e00c8>
    45a4:	95 ff       	sbrs	r25, 5
    45a6:	fc cf       	rjmp	.-8      	; 0x45a0 <Serial_putchar>
    45a8:	80 93 ce 00 	sts	0x00CE, r24	; 0x8000ce <__TEXT_REGION_LENGTH__+0x7e00ce>
    45ac:	80 e0       	ldi	r24, 0x00	; 0
    45ae:	90 e0       	ldi	r25, 0x00	; 0
    45b0:	08 95       	ret

000045b2 <Serial_getchar>:
    45b2:	80 91 c8 00 	lds	r24, 0x00C8	; 0x8000c8 <__TEXT_REGION_LENGTH__+0x7e00c8>
    45b6:	87 ff       	sbrs	r24, 7
    45b8:	08 c0       	rjmp	.+16     	; 0x45ca <Serial_getchar+0x18>
    45ba:	80 91 c8 00 	lds	r24, 0x00C8	; 0x8000c8 <__TEXT_REGION_LENGTH__+0x7e00c8>
    45be:	87 ff       	sbrs	r24, 7
    45c0:	07 c0       	rjmp	.+14     	; 0x45d0 <Serial_getchar+0x1e>
    45c2:	80 91 ce 00 	lds	r24, 0x00CE	; 0x8000ce <__TEXT_REGION_LENGTH__+0x7e00ce>
    45c6:	90 e0       	ldi	r25, 0x00	; 0
    45c8:	08 95       	ret
    45ca:	8e ef       	ldi	r24, 0xFE	; 254
    45cc:	9f ef       	ldi	r25, 0xFF	; 255
    45ce:	08 95       	ret
    45d0:	8f ef       	ldi	r24, 0xFF	; 255
    45d2:	9f ef       	ldi	r25, 0xFF	; 255
    45d4:	08 95       	ret

000045d6 <Serial_SendString>:
    45d6:	fc 01       	movw	r30, r24
    45d8:	91 91       	ld	r25, Z+
    45da:	99 23       	and	r25, r25
    45dc:	39 f0       	breq	.+14     	; 0x45ec <Serial_SendString+0x16>
    45de:	80 91 c8 00 	lds	r24, 0x00C8	; 0x8000c8 <__TEXT_REGION_LENGTH__+0x7e00c8>
    45e2:	85 ff       	sbrs	r24, 5
    45e4:	fc cf       	rjmp	.-8      	; 0x45de <Serial_SendString+0x8>
    45e6:	90 93 ce 00 	sts	0x00CE, r25	; 0x8000ce <__TEXT_REGION_LENGTH__+0x7e00ce>
    45ea:	f6 cf       	rjmp	.-20     	; 0x45d8 <Serial_SendString+0x2>
    45ec:	08 95       	ret

000045ee <Serial_CreateStream>:
    45ee:	fc 01       	movw	r30, r24
    45f0:	89 2b       	or	r24, r25
    45f2:	59 f4       	brne	.+22     	; 0x460a <Serial_CreateStream+0x1c>
    45f4:	82 e5       	ldi	r24, 0x52	; 82
    45f6:	9c e0       	ldi	r25, 0x0C	; 12
    45f8:	90 93 6e 0c 	sts	0x0C6E, r25	; 0x800c6e <__iob+0x1>
    45fc:	80 93 6d 0c 	sts	0x0C6D, r24	; 0x800c6d <__iob>
    4600:	90 93 70 0c 	sts	0x0C70, r25	; 0x800c70 <__iob+0x3>
    4604:	80 93 6f 0c 	sts	0x0C6F, r24	; 0x800c6f <__iob+0x2>
    4608:	fc 01       	movw	r30, r24
    460a:	8e e0       	ldi	r24, 0x0E	; 14
    460c:	df 01       	movw	r26, r30
    460e:	1d 92       	st	X+, r1
    4610:	8a 95       	dec	r24
    4612:	e9 f7       	brne	.-6      	; 0x460e <Serial_CreateStream+0x20>
    4614:	83 e0       	ldi	r24, 0x03	; 3
    4616:	83 83       	std	Z+3, r24	; 0x03
    4618:	80 ed       	ldi	r24, 0xD0	; 208
    461a:	92 e2       	ldi	r25, 0x22	; 34
    461c:	91 87       	std	Z+9, r25	; 0x09
    461e:	80 87       	std	Z+8, r24	; 0x08
    4620:	89 ed       	ldi	r24, 0xD9	; 217
    4622:	92 e2       	ldi	r25, 0x22	; 34
    4624:	93 87       	std	Z+11, r25	; 0x0b
    4626:	82 87       	std	Z+10, r24	; 0x0a
    4628:	08 95       	ret

0000462a <HID_Device_ProcessControlRequest>:
    462a:	6f 92       	push	r6
    462c:	7f 92       	push	r7
    462e:	8f 92       	push	r8
    4630:	9f 92       	push	r9
    4632:	af 92       	push	r10
    4634:	bf 92       	push	r11
    4636:	cf 92       	push	r12
    4638:	df 92       	push	r13
    463a:	ef 92       	push	r14
    463c:	ff 92       	push	r15
    463e:	0f 93       	push	r16
    4640:	1f 93       	push	r17
    4642:	cf 93       	push	r28
    4644:	df 93       	push	r29
    4646:	00 d0       	rcall	.+0      	; 0x4648 <HID_Device_ProcessControlRequest+0x1e>
    4648:	1f 92       	push	r1
    464a:	cd b7       	in	r28, 0x3d	; 61
    464c:	de b7       	in	r29, 0x3e	; 62
    464e:	7c 01       	movw	r14, r24
    4650:	ad b6       	in	r10, 0x3d	; 61
    4652:	be b6       	in	r11, 0x3e	; 62
    4654:	80 91 e8 00 	lds	r24, 0x00E8	; 0x8000e8 <__TEXT_REGION_LENGTH__+0x7e00e8>
    4658:	83 ff       	sbrs	r24, 3
    465a:	07 c1       	rjmp	.+526    	; 0x486a <HID_Device_ProcessControlRequest+0x240>
    465c:	f7 01       	movw	r30, r14
    465e:	80 81       	ld	r24, Z
    4660:	90 e0       	ldi	r25, 0x00	; 0
    4662:	20 91 69 0c 	lds	r18, 0x0C69	; 0x800c69 <USB_ControlRequest+0x4>
    4666:	30 91 6a 0c 	lds	r19, 0x0C6A	; 0x800c6a <USB_ControlRequest+0x5>
    466a:	28 17       	cp	r18, r24
    466c:	39 07       	cpc	r19, r25
    466e:	09 f0       	breq	.+2      	; 0x4672 <HID_Device_ProcessControlRequest+0x48>
    4670:	fc c0       	rjmp	.+504    	; 0x486a <HID_Device_ProcessControlRequest+0x240>
    4672:	80 91 66 0c 	lds	r24, 0x0C66	; 0x800c66 <USB_ControlRequest+0x1>
    4676:	83 30       	cpi	r24, 0x03	; 3
    4678:	09 f4       	brne	.+2      	; 0x467c <HID_Device_ProcessControlRequest+0x52>
    467a:	9e c0       	rjmp	.+316    	; 0x47b8 <HID_Device_ProcessControlRequest+0x18e>
    467c:	30 f4       	brcc	.+12     	; 0x468a <HID_Device_ProcessControlRequest+0x60>
    467e:	81 30       	cpi	r24, 0x01	; 1
    4680:	71 f0       	breq	.+28     	; 0x469e <HID_Device_ProcessControlRequest+0x74>
    4682:	82 30       	cpi	r24, 0x02	; 2
    4684:	09 f4       	brne	.+2      	; 0x4688 <HID_Device_ProcessControlRequest+0x5e>
    4686:	d5 c0       	rjmp	.+426    	; 0x4832 <HID_Device_ProcessControlRequest+0x208>
    4688:	f0 c0       	rjmp	.+480    	; 0x486a <HID_Device_ProcessControlRequest+0x240>
    468a:	8a 30       	cpi	r24, 0x0A	; 10
    468c:	09 f4       	brne	.+2      	; 0x4690 <HID_Device_ProcessControlRequest+0x66>
    468e:	b9 c0       	rjmp	.+370    	; 0x4802 <HID_Device_ProcessControlRequest+0x1d8>
    4690:	8b 30       	cpi	r24, 0x0B	; 11
    4692:	09 f4       	brne	.+2      	; 0x4696 <HID_Device_ProcessControlRequest+0x6c>
    4694:	a2 c0       	rjmp	.+324    	; 0x47da <HID_Device_ProcessControlRequest+0x1b0>
    4696:	89 30       	cpi	r24, 0x09	; 9
    4698:	09 f0       	breq	.+2      	; 0x469c <HID_Device_ProcessControlRequest+0x72>
    469a:	e7 c0       	rjmp	.+462    	; 0x486a <HID_Device_ProcessControlRequest+0x240>
    469c:	4f c0       	rjmp	.+158    	; 0x473c <HID_Device_ProcessControlRequest+0x112>
    469e:	80 91 65 0c 	lds	r24, 0x0C65	; 0x800c65 <USB_ControlRequest>
    46a2:	81 3a       	cpi	r24, 0xA1	; 161
    46a4:	09 f0       	breq	.+2      	; 0x46a8 <HID_Device_ProcessControlRequest+0x7e>
    46a6:	e1 c0       	rjmp	.+450    	; 0x486a <HID_Device_ProcessControlRequest+0x240>
    46a8:	8d b6       	in	r8, 0x3d	; 61
    46aa:	9e b6       	in	r9, 0x3e	; 62
    46ac:	1a 82       	std	Y+2, r1	; 0x02
    46ae:	19 82       	std	Y+1, r1	; 0x01
    46b0:	80 91 67 0c 	lds	r24, 0x0C67	; 0x800c67 <USB_ControlRequest+0x2>
    46b4:	10 91 68 0c 	lds	r17, 0x0C68	; 0x800c68 <USB_ControlRequest+0x3>
    46b8:	8b 83       	std	Y+3, r24	; 0x03
    46ba:	f7 01       	movw	r30, r14
    46bc:	80 85       	ldd	r24, Z+8	; 0x08
    46be:	48 2f       	mov	r20, r24
    46c0:	50 e0       	ldi	r21, 0x00	; 0
    46c2:	8d b7       	in	r24, 0x3d	; 61
    46c4:	9e b7       	in	r25, 0x3e	; 62
    46c6:	84 1b       	sub	r24, r20
    46c8:	95 0b       	sbc	r25, r21
    46ca:	0f b6       	in	r0, 0x3f	; 63
    46cc:	f8 94       	cli
    46ce:	9e bf       	out	0x3e, r25	; 62
    46d0:	0f be       	out	0x3f, r0	; 63
    46d2:	8d bf       	out	0x3d, r24	; 61
    46d4:	ed b7       	in	r30, 0x3d	; 61
    46d6:	fe b7       	in	r31, 0x3e	; 62
    46d8:	31 96       	adiw	r30, 0x01	; 1
    46da:	6f 01       	movw	r12, r30
    46dc:	60 e0       	ldi	r22, 0x00	; 0
    46de:	70 e0       	ldi	r23, 0x00	; 0
    46e0:	cf 01       	movw	r24, r30
    46e2:	0e 94 87 2c 	call	0x590e	; 0x590e <memset>
    46e6:	4f ef       	ldi	r20, 0xFF	; 255
    46e8:	41 0f       	add	r20, r17
    46ea:	8e 01       	movw	r16, r28
    46ec:	0f 5f       	subi	r16, 0xFF	; 255
    46ee:	1f 4f       	sbci	r17, 0xFF	; 255
    46f0:	96 01       	movw	r18, r12
    46f2:	be 01       	movw	r22, r28
    46f4:	6d 5f       	subi	r22, 0xFD	; 253
    46f6:	7f 4f       	sbci	r23, 0xFF	; 255
    46f8:	c7 01       	movw	r24, r14
    46fa:	0e 94 ac 17 	call	0x2f58	; 0x2f58 <CALLBACK_HID_Device_CreateHIDReport>
    46fe:	f7 01       	movw	r30, r14
    4700:	86 81       	ldd	r24, Z+6	; 0x06
    4702:	97 81       	ldd	r25, Z+7	; 0x07
    4704:	00 97       	sbiw	r24, 0x00	; 0
    4706:	29 f0       	breq	.+10     	; 0x4712 <HID_Device_ProcessControlRequest+0xe8>
    4708:	40 85       	ldd	r20, Z+8	; 0x08
    470a:	50 e0       	ldi	r21, 0x00	; 0
    470c:	b6 01       	movw	r22, r12
    470e:	0e 94 7e 2c 	call	0x58fc	; 0x58fc <memcpy>
    4712:	10 92 e9 00 	sts	0x00E9, r1	; 0x8000e9 <__TEXT_REGION_LENGTH__+0x7e00e9>
    4716:	80 91 e8 00 	lds	r24, 0x00E8	; 0x8000e8 <__TEXT_REGION_LENGTH__+0x7e00e8>
    471a:	87 7f       	andi	r24, 0xF7	; 247
    471c:	80 93 e8 00 	sts	0x00E8, r24	; 0x8000e8 <__TEXT_REGION_LENGTH__+0x7e00e8>
    4720:	8b 81       	ldd	r24, Y+3	; 0x03
    4722:	81 11       	cpse	r24, r1
    4724:	80 93 f1 00 	sts	0x00F1, r24	; 0x8000f1 <__TEXT_REGION_LENGTH__+0x7e00f1>
    4728:	69 81       	ldd	r22, Y+1	; 0x01
    472a:	7a 81       	ldd	r23, Y+2	; 0x02
    472c:	c6 01       	movw	r24, r12
    472e:	15 d4       	rcall	.+2090   	; 0x4f5a <Endpoint_Write_Control_Stream_LE>
    4730:	80 91 e8 00 	lds	r24, 0x00E8	; 0x8000e8 <__TEXT_REGION_LENGTH__+0x7e00e8>
    4734:	8b 77       	andi	r24, 0x7B	; 123
    4736:	80 93 e8 00 	sts	0x00E8, r24	; 0x8000e8 <__TEXT_REGION_LENGTH__+0x7e00e8>
    473a:	38 c0       	rjmp	.+112    	; 0x47ac <HID_Device_ProcessControlRequest+0x182>
    473c:	80 91 65 0c 	lds	r24, 0x0C65	; 0x800c65 <USB_ControlRequest>
    4740:	81 32       	cpi	r24, 0x21	; 33
    4742:	09 f0       	breq	.+2      	; 0x4746 <HID_Device_ProcessControlRequest+0x11c>
    4744:	92 c0       	rjmp	.+292    	; 0x486a <HID_Device_ProcessControlRequest+0x240>
    4746:	8d b6       	in	r8, 0x3d	; 61
    4748:	9e b6       	in	r9, 0x3e	; 62
    474a:	00 91 6b 0c 	lds	r16, 0x0C6B	; 0x800c6b <USB_ControlRequest+0x6>
    474e:	10 91 6c 0c 	lds	r17, 0x0C6C	; 0x800c6c <USB_ControlRequest+0x7>
    4752:	70 90 67 0c 	lds	r7, 0x0C67	; 0x800c67 <USB_ControlRequest+0x2>
    4756:	60 90 68 0c 	lds	r6, 0x0C68	; 0x800c68 <USB_ControlRequest+0x3>
    475a:	8d b7       	in	r24, 0x3d	; 61
    475c:	9e b7       	in	r25, 0x3e	; 62
    475e:	80 1b       	sub	r24, r16
    4760:	91 0b       	sbc	r25, r17
    4762:	0f b6       	in	r0, 0x3f	; 63
    4764:	f8 94       	cli
    4766:	9e bf       	out	0x3e, r25	; 62
    4768:	0f be       	out	0x3f, r0	; 63
    476a:	8d bf       	out	0x3d, r24	; 61
    476c:	ed b7       	in	r30, 0x3d	; 61
    476e:	fe b7       	in	r31, 0x3e	; 62
    4770:	31 96       	adiw	r30, 0x01	; 1
    4772:	6f 01       	movw	r12, r30
    4774:	80 91 e8 00 	lds	r24, 0x00E8	; 0x8000e8 <__TEXT_REGION_LENGTH__+0x7e00e8>
    4778:	87 7f       	andi	r24, 0xF7	; 247
    477a:	80 93 e8 00 	sts	0x00E8, r24	; 0x8000e8 <__TEXT_REGION_LENGTH__+0x7e00e8>
    477e:	b8 01       	movw	r22, r16
    4780:	cf 01       	movw	r24, r30
    4782:	47 d4       	rcall	.+2190   	; 0x5012 <Endpoint_Read_Control_Stream_LE>
    4784:	80 91 e8 00 	lds	r24, 0x00E8	; 0x8000e8 <__TEXT_REGION_LENGTH__+0x7e00e8>
    4788:	8e 77       	andi	r24, 0x7E	; 126
    478a:	80 93 e8 00 	sts	0x00E8, r24	; 0x8000e8 <__TEXT_REGION_LENGTH__+0x7e00e8>
    478e:	21 e0       	ldi	r18, 0x01	; 1
    4790:	71 10       	cpse	r7, r1
    4792:	01 c0       	rjmp	.+2      	; 0x4796 <HID_Device_ProcessControlRequest+0x16c>
    4794:	20 e0       	ldi	r18, 0x00	; 0
    4796:	30 e0       	ldi	r19, 0x00	; 0
    4798:	02 1b       	sub	r16, r18
    479a:	13 0b       	sbc	r17, r19
    479c:	2c 0d       	add	r18, r12
    479e:	3d 1d       	adc	r19, r13
    47a0:	4f ef       	ldi	r20, 0xFF	; 255
    47a2:	46 0d       	add	r20, r6
    47a4:	67 2d       	mov	r22, r7
    47a6:	c7 01       	movw	r24, r14
    47a8:	0e 94 32 18 	call	0x3064	; 0x3064 <CALLBACK_HID_Device_ProcessHIDReport>
    47ac:	0f b6       	in	r0, 0x3f	; 63
    47ae:	f8 94       	cli
    47b0:	9e be       	out	0x3e, r9	; 62
    47b2:	0f be       	out	0x3f, r0	; 63
    47b4:	8d be       	out	0x3d, r8	; 61
    47b6:	59 c0       	rjmp	.+178    	; 0x486a <HID_Device_ProcessControlRequest+0x240>
    47b8:	80 91 65 0c 	lds	r24, 0x0C65	; 0x800c65 <USB_ControlRequest>
    47bc:	81 3a       	cpi	r24, 0xA1	; 161
    47be:	09 f0       	breq	.+2      	; 0x47c2 <HID_Device_ProcessControlRequest+0x198>
    47c0:	54 c0       	rjmp	.+168    	; 0x486a <HID_Device_ProcessControlRequest+0x240>
    47c2:	80 91 e8 00 	lds	r24, 0x00E8	; 0x8000e8 <__TEXT_REGION_LENGTH__+0x7e00e8>
    47c6:	87 7f       	andi	r24, 0xF7	; 247
    47c8:	80 93 e8 00 	sts	0x00E8, r24	; 0x8000e8 <__TEXT_REGION_LENGTH__+0x7e00e8>
    47cc:	80 91 e8 00 	lds	r24, 0x00E8	; 0x8000e8 <__TEXT_REGION_LENGTH__+0x7e00e8>
    47d0:	80 ff       	sbrs	r24, 0
    47d2:	fc cf       	rjmp	.-8      	; 0x47cc <HID_Device_ProcessControlRequest+0x1a2>
    47d4:	f7 01       	movw	r30, r14
    47d6:	81 85       	ldd	r24, Z+9	; 0x09
    47d8:	40 c0       	rjmp	.+128    	; 0x485a <HID_Device_ProcessControlRequest+0x230>
    47da:	80 91 65 0c 	lds	r24, 0x0C65	; 0x800c65 <USB_ControlRequest>
    47de:	81 32       	cpi	r24, 0x21	; 33
    47e0:	09 f0       	breq	.+2      	; 0x47e4 <HID_Device_ProcessControlRequest+0x1ba>
    47e2:	43 c0       	rjmp	.+134    	; 0x486a <HID_Device_ProcessControlRequest+0x240>
    47e4:	80 91 e8 00 	lds	r24, 0x00E8	; 0x8000e8 <__TEXT_REGION_LENGTH__+0x7e00e8>
    47e8:	87 7f       	andi	r24, 0xF7	; 247
    47ea:	80 93 e8 00 	sts	0x00E8, r24	; 0x8000e8 <__TEXT_REGION_LENGTH__+0x7e00e8>
    47ee:	c1 d4       	rcall	.+2434   	; 0x5172 <Endpoint_ClearStatusStage>
    47f0:	90 91 67 0c 	lds	r25, 0x0C67	; 0x800c67 <USB_ControlRequest+0x2>
    47f4:	81 e0       	ldi	r24, 0x01	; 1
    47f6:	91 11       	cpse	r25, r1
    47f8:	01 c0       	rjmp	.+2      	; 0x47fc <HID_Device_ProcessControlRequest+0x1d2>
    47fa:	80 e0       	ldi	r24, 0x00	; 0
    47fc:	f7 01       	movw	r30, r14
    47fe:	81 87       	std	Z+9, r24	; 0x09
    4800:	34 c0       	rjmp	.+104    	; 0x486a <HID_Device_ProcessControlRequest+0x240>
    4802:	80 91 65 0c 	lds	r24, 0x0C65	; 0x800c65 <USB_ControlRequest>
    4806:	81 32       	cpi	r24, 0x21	; 33
    4808:	81 f5       	brne	.+96     	; 0x486a <HID_Device_ProcessControlRequest+0x240>
    480a:	80 91 e8 00 	lds	r24, 0x00E8	; 0x8000e8 <__TEXT_REGION_LENGTH__+0x7e00e8>
    480e:	87 7f       	andi	r24, 0xF7	; 247
    4810:	80 93 e8 00 	sts	0x00E8, r24	; 0x8000e8 <__TEXT_REGION_LENGTH__+0x7e00e8>
    4814:	ae d4       	rcall	.+2396   	; 0x5172 <Endpoint_ClearStatusStage>
    4816:	80 91 67 0c 	lds	r24, 0x0C67	; 0x800c67 <USB_ControlRequest+0x2>
    481a:	90 91 68 0c 	lds	r25, 0x0C68	; 0x800c68 <USB_ControlRequest+0x3>
    481e:	88 27       	eor	r24, r24
    4820:	36 e0       	ldi	r19, 0x06	; 6
    4822:	96 95       	lsr	r25
    4824:	87 95       	ror	r24
    4826:	3a 95       	dec	r19
    4828:	e1 f7       	brne	.-8      	; 0x4822 <HID_Device_ProcessControlRequest+0x1f8>
    482a:	f7 01       	movw	r30, r14
    482c:	95 87       	std	Z+13, r25	; 0x0d
    482e:	84 87       	std	Z+12, r24	; 0x0c
    4830:	1c c0       	rjmp	.+56     	; 0x486a <HID_Device_ProcessControlRequest+0x240>
    4832:	80 91 65 0c 	lds	r24, 0x0C65	; 0x800c65 <USB_ControlRequest>
    4836:	81 3a       	cpi	r24, 0xA1	; 161
    4838:	c1 f4       	brne	.+48     	; 0x486a <HID_Device_ProcessControlRequest+0x240>
    483a:	80 91 e8 00 	lds	r24, 0x00E8	; 0x8000e8 <__TEXT_REGION_LENGTH__+0x7e00e8>
    483e:	87 7f       	andi	r24, 0xF7	; 247
    4840:	80 93 e8 00 	sts	0x00E8, r24	; 0x8000e8 <__TEXT_REGION_LENGTH__+0x7e00e8>
    4844:	80 91 e8 00 	lds	r24, 0x00E8	; 0x8000e8 <__TEXT_REGION_LENGTH__+0x7e00e8>
    4848:	80 ff       	sbrs	r24, 0
    484a:	fc cf       	rjmp	.-8      	; 0x4844 <HID_Device_ProcessControlRequest+0x21a>
    484c:	f7 01       	movw	r30, r14
    484e:	84 85       	ldd	r24, Z+12	; 0x0c
    4850:	95 85       	ldd	r25, Z+13	; 0x0d
    4852:	96 95       	lsr	r25
    4854:	87 95       	ror	r24
    4856:	96 95       	lsr	r25
    4858:	87 95       	ror	r24
    485a:	80 93 f1 00 	sts	0x00F1, r24	; 0x8000f1 <__TEXT_REGION_LENGTH__+0x7e00f1>
    485e:	80 91 e8 00 	lds	r24, 0x00E8	; 0x8000e8 <__TEXT_REGION_LENGTH__+0x7e00e8>
    4862:	8e 77       	andi	r24, 0x7E	; 126
    4864:	80 93 e8 00 	sts	0x00E8, r24	; 0x8000e8 <__TEXT_REGION_LENGTH__+0x7e00e8>
    4868:	84 d4       	rcall	.+2312   	; 0x5172 <Endpoint_ClearStatusStage>
    486a:	0f b6       	in	r0, 0x3f	; 63
    486c:	f8 94       	cli
    486e:	be be       	out	0x3e, r11	; 62
    4870:	0f be       	out	0x3f, r0	; 63
    4872:	ad be       	out	0x3d, r10	; 61
    4874:	0f 90       	pop	r0
    4876:	0f 90       	pop	r0
    4878:	0f 90       	pop	r0
    487a:	df 91       	pop	r29
    487c:	cf 91       	pop	r28
    487e:	1f 91       	pop	r17
    4880:	0f 91       	pop	r16
    4882:	ff 90       	pop	r15
    4884:	ef 90       	pop	r14
    4886:	df 90       	pop	r13
    4888:	cf 90       	pop	r12
    488a:	bf 90       	pop	r11
    488c:	af 90       	pop	r10
    488e:	9f 90       	pop	r9
    4890:	8f 90       	pop	r8
    4892:	7f 90       	pop	r7
    4894:	6f 90       	pop	r6
    4896:	08 95       	ret

00004898 <HID_Device_ConfigureEndpoints>:
    4898:	fc 01       	movw	r30, r24
    489a:	39 96       	adiw	r30, 0x09	; 9
    489c:	27 e0       	ldi	r18, 0x07	; 7
    489e:	df 01       	movw	r26, r30
    48a0:	1d 92       	st	X+, r1
    48a2:	2a 95       	dec	r18
    48a4:	e9 f7       	brne	.-6      	; 0x48a0 <HID_Device_ConfigureEndpoints+0x8>
    48a6:	21 e0       	ldi	r18, 0x01	; 1
    48a8:	fc 01       	movw	r30, r24
    48aa:	21 87       	std	Z+9, r18	; 0x09
    48ac:	24 ef       	ldi	r18, 0xF4	; 244
    48ae:	31 e0       	ldi	r19, 0x01	; 1
    48b0:	35 87       	std	Z+13, r19	; 0x0d
    48b2:	24 87       	std	Z+12, r18	; 0x0c
    48b4:	23 e0       	ldi	r18, 0x03	; 3
    48b6:	24 83       	std	Z+4, r18	; 0x04
    48b8:	61 e0       	ldi	r22, 0x01	; 1
    48ba:	01 96       	adiw	r24, 0x01	; 1
    48bc:	1d c4       	rjmp	.+2106   	; 0x50f8 <Endpoint_ConfigureEndpointTable>

000048be <HID_Device_USBTask>:
    48be:	5f 92       	push	r5
    48c0:	6f 92       	push	r6
    48c2:	7f 92       	push	r7
    48c4:	8f 92       	push	r8
    48c6:	9f 92       	push	r9
    48c8:	af 92       	push	r10
    48ca:	bf 92       	push	r11
    48cc:	cf 92       	push	r12
    48ce:	df 92       	push	r13
    48d0:	ef 92       	push	r14
    48d2:	ff 92       	push	r15
    48d4:	0f 93       	push	r16
    48d6:	1f 93       	push	r17
    48d8:	cf 93       	push	r28
    48da:	df 93       	push	r29
    48dc:	00 d0       	rcall	.+0      	; 0x48de <HID_Device_USBTask+0x20>
    48de:	1f 92       	push	r1
    48e0:	cd b7       	in	r28, 0x3d	; 61
    48e2:	de b7       	in	r29, 0x3e	; 62
    48e4:	7c 01       	movw	r14, r24
    48e6:	ad b6       	in	r10, 0x3d	; 61
    48e8:	be b6       	in	r11, 0x3e	; 62
    48ea:	80 91 64 0c 	lds	r24, 0x0C64	; 0x800c64 <USB_DeviceState>
    48ee:	84 30       	cpi	r24, 0x04	; 4
    48f0:	09 f0       	breq	.+2      	; 0x48f4 <HID_Device_USBTask+0x36>
    48f2:	87 c0       	rjmp	.+270    	; 0x4a02 <HID_Device_USBTask+0x144>
    48f4:	80 91 e4 00 	lds	r24, 0x00E4	; 0x8000e4 <__TEXT_REGION_LENGTH__+0x7e00e4>
    48f8:	90 91 e5 00 	lds	r25, 0x00E5	; 0x8000e5 <__TEXT_REGION_LENGTH__+0x7e00e5>
    48fc:	f7 01       	movw	r30, r14
    48fe:	22 85       	ldd	r18, Z+10	; 0x0a
    4900:	33 85       	ldd	r19, Z+11	; 0x0b
    4902:	28 17       	cp	r18, r24
    4904:	39 07       	cpc	r19, r25
    4906:	09 f4       	brne	.+2      	; 0x490a <HID_Device_USBTask+0x4c>
    4908:	7c c0       	rjmp	.+248    	; 0x4a02 <HID_Device_USBTask+0x144>
    490a:	81 81       	ldd	r24, Z+1	; 0x01
    490c:	8f 70       	andi	r24, 0x0F	; 15
    490e:	80 93 e9 00 	sts	0x00E9, r24	; 0x8000e9 <__TEXT_REGION_LENGTH__+0x7e00e9>
    4912:	80 91 e8 00 	lds	r24, 0x00E8	; 0x8000e8 <__TEXT_REGION_LENGTH__+0x7e00e8>
    4916:	85 ff       	sbrs	r24, 5
    4918:	74 c0       	rjmp	.+232    	; 0x4a02 <HID_Device_USBTask+0x144>
    491a:	8d b6       	in	r8, 0x3d	; 61
    491c:	9e b6       	in	r9, 0x3e	; 62
    491e:	40 85       	ldd	r20, Z+8	; 0x08
    4920:	50 e0       	ldi	r21, 0x00	; 0
    4922:	8d b7       	in	r24, 0x3d	; 61
    4924:	9e b7       	in	r25, 0x3e	; 62
    4926:	84 1b       	sub	r24, r20
    4928:	95 0b       	sbc	r25, r21
    492a:	0f b6       	in	r0, 0x3f	; 63
    492c:	f8 94       	cli
    492e:	9e bf       	out	0x3e, r25	; 62
    4930:	0f be       	out	0x3f, r0	; 63
    4932:	8d bf       	out	0x3d, r24	; 61
    4934:	ed b7       	in	r30, 0x3d	; 61
    4936:	fe b7       	in	r31, 0x3e	; 62
    4938:	31 96       	adiw	r30, 0x01	; 1
    493a:	6f 01       	movw	r12, r30
    493c:	1b 82       	std	Y+3, r1	; 0x03
    493e:	1a 82       	std	Y+2, r1	; 0x02
    4940:	19 82       	std	Y+1, r1	; 0x01
    4942:	60 e0       	ldi	r22, 0x00	; 0
    4944:	70 e0       	ldi	r23, 0x00	; 0
    4946:	cf 01       	movw	r24, r30
    4948:	e2 d7       	rcall	.+4036   	; 0x590e <memset>
    494a:	8e 01       	movw	r16, r28
    494c:	0f 5f       	subi	r16, 0xFF	; 255
    494e:	1f 4f       	sbci	r17, 0xFF	; 255
    4950:	96 01       	movw	r18, r12
    4952:	40 e0       	ldi	r20, 0x00	; 0
    4954:	be 01       	movw	r22, r28
    4956:	6d 5f       	subi	r22, 0xFD	; 253
    4958:	7f 4f       	sbci	r23, 0xFF	; 255
    495a:	c7 01       	movw	r24, r14
    495c:	0e 94 ac 17 	call	0x2f58	; 0x2f58 <CALLBACK_HID_Device_CreateHIDReport>
    4960:	58 2e       	mov	r5, r24
    4962:	f7 01       	movw	r30, r14
    4964:	84 85       	ldd	r24, Z+12	; 0x0c
    4966:	95 85       	ldd	r25, Z+13	; 0x0d
    4968:	89 2b       	or	r24, r25
    496a:	29 f0       	breq	.+10     	; 0x4976 <HID_Device_USBTask+0xb8>
    496c:	11 e0       	ldi	r17, 0x01	; 1
    496e:	86 85       	ldd	r24, Z+14	; 0x0e
    4970:	97 85       	ldd	r25, Z+15	; 0x0f
    4972:	89 2b       	or	r24, r25
    4974:	09 f0       	breq	.+2      	; 0x4978 <HID_Device_USBTask+0xba>
    4976:	10 e0       	ldi	r17, 0x00	; 0
    4978:	f7 01       	movw	r30, r14
    497a:	66 80       	ldd	r6, Z+6	; 0x06
    497c:	77 80       	ldd	r7, Z+7	; 0x07
    497e:	61 14       	cp	r6, r1
    4980:	71 04       	cpc	r7, r1
    4982:	81 f0       	breq	.+32     	; 0x49a4 <HID_Device_USBTask+0xe6>
    4984:	49 81       	ldd	r20, Y+1	; 0x01
    4986:	5a 81       	ldd	r21, Y+2	; 0x02
    4988:	b3 01       	movw	r22, r6
    498a:	c6 01       	movw	r24, r12
    498c:	aa d7       	rcall	.+3924   	; 0x58e2 <memcmp>
    498e:	01 e0       	ldi	r16, 0x01	; 1
    4990:	89 2b       	or	r24, r25
    4992:	09 f4       	brne	.+2      	; 0x4996 <HID_Device_USBTask+0xd8>
    4994:	00 e0       	ldi	r16, 0x00	; 0
    4996:	f7 01       	movw	r30, r14
    4998:	40 85       	ldd	r20, Z+8	; 0x08
    499a:	50 e0       	ldi	r21, 0x00	; 0
    499c:	b6 01       	movw	r22, r12
    499e:	c3 01       	movw	r24, r6
    49a0:	ad d7       	rcall	.+3930   	; 0x58fc <memcpy>
    49a2:	01 c0       	rjmp	.+2      	; 0x49a6 <HID_Device_USBTask+0xe8>
    49a4:	00 e0       	ldi	r16, 0x00	; 0
    49a6:	89 81       	ldd	r24, Y+1	; 0x01
    49a8:	9a 81       	ldd	r25, Y+2	; 0x02
    49aa:	89 2b       	or	r24, r25
    49ac:	f1 f0       	breq	.+60     	; 0x49ea <HID_Device_USBTask+0x12c>
    49ae:	51 10       	cpse	r5, r1
    49b0:	04 c0       	rjmp	.+8      	; 0x49ba <HID_Device_USBTask+0xfc>
    49b2:	01 11       	cpse	r16, r1
    49b4:	02 c0       	rjmp	.+4      	; 0x49ba <HID_Device_USBTask+0xfc>
    49b6:	10 ff       	sbrs	r17, 0
    49b8:	18 c0       	rjmp	.+48     	; 0x49ea <HID_Device_USBTask+0x12c>
    49ba:	f7 01       	movw	r30, r14
    49bc:	84 85       	ldd	r24, Z+12	; 0x0c
    49be:	95 85       	ldd	r25, Z+13	; 0x0d
    49c0:	97 87       	std	Z+15, r25	; 0x0f
    49c2:	86 87       	std	Z+14, r24	; 0x0e
    49c4:	81 81       	ldd	r24, Z+1	; 0x01
    49c6:	8f 70       	andi	r24, 0x0F	; 15
    49c8:	80 93 e9 00 	sts	0x00E9, r24	; 0x8000e9 <__TEXT_REGION_LENGTH__+0x7e00e9>
    49cc:	8b 81       	ldd	r24, Y+3	; 0x03
    49ce:	81 11       	cpse	r24, r1
    49d0:	80 93 f1 00 	sts	0x00F1, r24	; 0x8000f1 <__TEXT_REGION_LENGTH__+0x7e00f1>
    49d4:	69 81       	ldd	r22, Y+1	; 0x01
    49d6:	7a 81       	ldd	r23, Y+2	; 0x02
    49d8:	40 e0       	ldi	r20, 0x00	; 0
    49da:	50 e0       	ldi	r21, 0x00	; 0
    49dc:	c6 01       	movw	r24, r12
    49de:	dd d1       	rcall	.+954    	; 0x4d9a <Endpoint_Write_Stream_LE>
    49e0:	80 91 e8 00 	lds	r24, 0x00E8	; 0x8000e8 <__TEXT_REGION_LENGTH__+0x7e00e8>
    49e4:	8e 77       	andi	r24, 0x7E	; 126
    49e6:	80 93 e8 00 	sts	0x00E8, r24	; 0x8000e8 <__TEXT_REGION_LENGTH__+0x7e00e8>
    49ea:	80 91 e4 00 	lds	r24, 0x00E4	; 0x8000e4 <__TEXT_REGION_LENGTH__+0x7e00e4>
    49ee:	90 91 e5 00 	lds	r25, 0x00E5	; 0x8000e5 <__TEXT_REGION_LENGTH__+0x7e00e5>
    49f2:	f7 01       	movw	r30, r14
    49f4:	93 87       	std	Z+11, r25	; 0x0b
    49f6:	82 87       	std	Z+10, r24	; 0x0a
    49f8:	0f b6       	in	r0, 0x3f	; 63
    49fa:	f8 94       	cli
    49fc:	9e be       	out	0x3e, r9	; 62
    49fe:	0f be       	out	0x3f, r0	; 63
    4a00:	8d be       	out	0x3d, r8	; 61
    4a02:	0f b6       	in	r0, 0x3f	; 63
    4a04:	f8 94       	cli
    4a06:	be be       	out	0x3e, r11	; 62
    4a08:	0f be       	out	0x3f, r0	; 63
    4a0a:	ad be       	out	0x3d, r10	; 61
    4a0c:	0f 90       	pop	r0
    4a0e:	0f 90       	pop	r0
    4a10:	0f 90       	pop	r0
    4a12:	df 91       	pop	r29
    4a14:	cf 91       	pop	r28
    4a16:	1f 91       	pop	r17
    4a18:	0f 91       	pop	r16
    4a1a:	ff 90       	pop	r15
    4a1c:	ef 90       	pop	r14
    4a1e:	df 90       	pop	r13
    4a20:	cf 90       	pop	r12
    4a22:	bf 90       	pop	r11
    4a24:	af 90       	pop	r10
    4a26:	9f 90       	pop	r9
    4a28:	8f 90       	pop	r8
    4a2a:	7f 90       	pop	r7
    4a2c:	6f 90       	pop	r6
    4a2e:	5f 90       	pop	r5
    4a30:	08 95       	ret

00004a32 <MS_Device_ProcessControlRequest>:
    4a32:	cf 93       	push	r28
    4a34:	df 93       	push	r29
    4a36:	20 91 e8 00 	lds	r18, 0x00E8	; 0x8000e8 <__TEXT_REGION_LENGTH__+0x7e00e8>
    4a3a:	23 ff       	sbrs	r18, 3
    4a3c:	38 c0       	rjmp	.+112    	; 0x4aae <MS_Device_ProcessControlRequest+0x7c>
    4a3e:	fc 01       	movw	r30, r24
    4a40:	20 81       	ld	r18, Z
    4a42:	30 e0       	ldi	r19, 0x00	; 0
    4a44:	40 91 69 0c 	lds	r20, 0x0C69	; 0x800c69 <USB_ControlRequest+0x4>
    4a48:	50 91 6a 0c 	lds	r21, 0x0C6A	; 0x800c6a <USB_ControlRequest+0x5>
    4a4c:	42 17       	cp	r20, r18
    4a4e:	53 07       	cpc	r21, r19
    4a50:	71 f5       	brne	.+92     	; 0x4aae <MS_Device_ProcessControlRequest+0x7c>
    4a52:	20 91 66 0c 	lds	r18, 0x0C66	; 0x800c66 <USB_ControlRequest+0x1>
    4a56:	2e 3f       	cpi	r18, 0xFE	; 254
    4a58:	81 f0       	breq	.+32     	; 0x4a7a <MS_Device_ProcessControlRequest+0x48>
    4a5a:	2f 3f       	cpi	r18, 0xFF	; 255
    4a5c:	41 f5       	brne	.+80     	; 0x4aae <MS_Device_ProcessControlRequest+0x7c>
    4a5e:	20 91 65 0c 	lds	r18, 0x0C65	; 0x800c65 <USB_ControlRequest>
    4a62:	21 32       	cpi	r18, 0x21	; 33
    4a64:	21 f5       	brne	.+72     	; 0x4aae <MS_Device_ProcessControlRequest+0x7c>
    4a66:	ec 01       	movw	r28, r24
    4a68:	80 91 e8 00 	lds	r24, 0x00E8	; 0x8000e8 <__TEXT_REGION_LENGTH__+0x7e00e8>
    4a6c:	87 7f       	andi	r24, 0xF7	; 247
    4a6e:	80 93 e8 00 	sts	0x00E8, r24	; 0x8000e8 <__TEXT_REGION_LENGTH__+0x7e00e8>
    4a72:	7f d3       	rcall	.+1790   	; 0x5172 <Endpoint_ClearStatusStage>
    4a74:	81 e0       	ldi	r24, 0x01	; 1
    4a76:	88 af       	std	Y+56, r24	; 0x38
    4a78:	1a c0       	rjmp	.+52     	; 0x4aae <MS_Device_ProcessControlRequest+0x7c>
    4a7a:	20 91 65 0c 	lds	r18, 0x0C65	; 0x800c65 <USB_ControlRequest>
    4a7e:	21 3a       	cpi	r18, 0xA1	; 161
    4a80:	b1 f4       	brne	.+44     	; 0x4aae <MS_Device_ProcessControlRequest+0x7c>
    4a82:	20 91 e8 00 	lds	r18, 0x00E8	; 0x8000e8 <__TEXT_REGION_LENGTH__+0x7e00e8>
    4a86:	27 7f       	andi	r18, 0xF7	; 247
    4a88:	20 93 e8 00 	sts	0x00E8, r18	; 0x8000e8 <__TEXT_REGION_LENGTH__+0x7e00e8>
    4a8c:	20 91 e8 00 	lds	r18, 0x00E8	; 0x8000e8 <__TEXT_REGION_LENGTH__+0x7e00e8>
    4a90:	20 ff       	sbrs	r18, 0
    4a92:	fc cf       	rjmp	.-8      	; 0x4a8c <MS_Device_ProcessControlRequest+0x5a>
    4a94:	fc 01       	movw	r30, r24
    4a96:	83 85       	ldd	r24, Z+11	; 0x0b
    4a98:	81 50       	subi	r24, 0x01	; 1
    4a9a:	80 93 f1 00 	sts	0x00F1, r24	; 0x8000f1 <__TEXT_REGION_LENGTH__+0x7e00f1>
    4a9e:	80 91 e8 00 	lds	r24, 0x00E8	; 0x8000e8 <__TEXT_REGION_LENGTH__+0x7e00e8>
    4aa2:	8e 77       	andi	r24, 0x7E	; 126
    4aa4:	80 93 e8 00 	sts	0x00E8, r24	; 0x8000e8 <__TEXT_REGION_LENGTH__+0x7e00e8>
    4aa8:	df 91       	pop	r29
    4aaa:	cf 91       	pop	r28
    4aac:	62 c3       	rjmp	.+1732   	; 0x5172 <Endpoint_ClearStatusStage>
    4aae:	df 91       	pop	r29
    4ab0:	cf 91       	pop	r28
    4ab2:	08 95       	ret

00004ab4 <MS_Device_ConfigureEndpoints>:
    4ab4:	cf 93       	push	r28
    4ab6:	df 93       	push	r29
    4ab8:	ec 01       	movw	r28, r24
    4aba:	fc 01       	movw	r30, r24
    4abc:	3c 96       	adiw	r30, 0x0c	; 12
    4abe:	8d e2       	ldi	r24, 0x2D	; 45
    4ac0:	df 01       	movw	r26, r30
    4ac2:	1d 92       	st	X+, r1
    4ac4:	8a 95       	dec	r24
    4ac6:	e9 f7       	brne	.-6      	; 0x4ac2 <MS_Device_ConfigureEndpoints+0xe>
    4ac8:	82 e0       	ldi	r24, 0x02	; 2
    4aca:	8c 83       	std	Y+4, r24	; 0x04
    4acc:	89 87       	std	Y+9, r24	; 0x09
    4ace:	61 e0       	ldi	r22, 0x01	; 1
    4ad0:	ce 01       	movw	r24, r28
    4ad2:	01 96       	adiw	r24, 0x01	; 1
    4ad4:	11 d3       	rcall	.+1570   	; 0x50f8 <Endpoint_ConfigureEndpointTable>
    4ad6:	88 23       	and	r24, r24
    4ad8:	31 f0       	breq	.+12     	; 0x4ae6 <MS_Device_ConfigureEndpoints+0x32>
    4ada:	61 e0       	ldi	r22, 0x01	; 1
    4adc:	ce 01       	movw	r24, r28
    4ade:	06 96       	adiw	r24, 0x06	; 6
    4ae0:	df 91       	pop	r29
    4ae2:	cf 91       	pop	r28
    4ae4:	09 c3       	rjmp	.+1554   	; 0x50f8 <Endpoint_ConfigureEndpointTable>
    4ae6:	80 e0       	ldi	r24, 0x00	; 0
    4ae8:	df 91       	pop	r29
    4aea:	cf 91       	pop	r28
    4aec:	08 95       	ret

00004aee <MS_Device_USBTask>:
    4aee:	ef 92       	push	r14
    4af0:	ff 92       	push	r15
    4af2:	0f 93       	push	r16
    4af4:	1f 93       	push	r17
    4af6:	cf 93       	push	r28
    4af8:	df 93       	push	r29
    4afa:	00 d0       	rcall	.+0      	; 0x4afc <MS_Device_USBTask+0xe>
    4afc:	cd b7       	in	r28, 0x3d	; 61
    4afe:	de b7       	in	r29, 0x3e	; 62
    4b00:	20 91 64 0c 	lds	r18, 0x0C64	; 0x800c64 <USB_DeviceState>
    4b04:	24 30       	cpi	r18, 0x04	; 4
    4b06:	09 f0       	breq	.+2      	; 0x4b0a <MS_Device_USBTask+0x1c>
    4b08:	00 c1       	rjmp	.+512    	; 0x4d0a <MS_Device_USBTask+0x21c>
    4b0a:	8c 01       	movw	r16, r24
    4b0c:	fc 01       	movw	r30, r24
    4b0e:	86 81       	ldd	r24, Z+6	; 0x06
    4b10:	8f 70       	andi	r24, 0x0F	; 15
    4b12:	80 93 e9 00 	sts	0x00E9, r24	; 0x8000e9 <__TEXT_REGION_LENGTH__+0x7e00e9>
    4b16:	80 91 e8 00 	lds	r24, 0x00E8	; 0x8000e8 <__TEXT_REGION_LENGTH__+0x7e00e8>
    4b1a:	82 ff       	sbrs	r24, 2
    4b1c:	bd c0       	rjmp	.+378    	; 0x4c98 <MS_Device_USBTask+0x1aa>
    4b1e:	86 81       	ldd	r24, Z+6	; 0x06
    4b20:	8f 70       	andi	r24, 0x0F	; 15
    4b22:	80 93 e9 00 	sts	0x00E9, r24	; 0x8000e9 <__TEXT_REGION_LENGTH__+0x7e00e9>
    4b26:	1a 82       	std	Y+2, r1	; 0x02
    4b28:	19 82       	std	Y+1, r1	; 0x01
    4b2a:	78 01       	movw	r14, r16
    4b2c:	fc e0       	ldi	r31, 0x0C	; 12
    4b2e:	ef 0e       	add	r14, r31
    4b30:	f1 1c       	adc	r15, r1
    4b32:	ae 01       	movw	r20, r28
    4b34:	4f 5f       	subi	r20, 0xFF	; 255
    4b36:	5f 4f       	sbci	r21, 0xFF	; 255
    4b38:	6f e0       	ldi	r22, 0x0F	; 15
    4b3a:	70 e0       	ldi	r23, 0x00	; 0
    4b3c:	c7 01       	movw	r24, r14
    4b3e:	c4 d1       	rcall	.+904    	; 0x4ec8 <Endpoint_Read_Stream_LE>
    4b40:	f8 01       	movw	r30, r16
    4b42:	85 30       	cpi	r24, 0x05	; 5
    4b44:	21 f4       	brne	.+8      	; 0x4b4e <MS_Device_USBTask+0x60>
    4b46:	80 ad       	ldd	r24, Z+56	; 0x38
    4b48:	88 23       	and	r24, r24
    4b4a:	99 f3       	breq	.-26     	; 0x4b32 <MS_Device_USBTask+0x44>
    4b4c:	a5 c0       	rjmp	.+330    	; 0x4c98 <MS_Device_USBTask+0x1aa>
    4b4e:	84 85       	ldd	r24, Z+12	; 0x0c
    4b50:	95 85       	ldd	r25, Z+13	; 0x0d
    4b52:	a6 85       	ldd	r26, Z+14	; 0x0e
    4b54:	b7 85       	ldd	r27, Z+15	; 0x0f
    4b56:	85 35       	cpi	r24, 0x55	; 85
    4b58:	93 45       	sbci	r25, 0x53	; 83
    4b5a:	a2 44       	sbci	r26, 0x42	; 66
    4b5c:	b3 44       	sbci	r27, 0x43	; 67
    4b5e:	61 f4       	brne	.+24     	; 0x4b78 <MS_Device_USBTask+0x8a>
    4b60:	f8 01       	movw	r30, r16
    4b62:	91 8d       	ldd	r25, Z+25	; 0x19
    4b64:	83 85       	ldd	r24, Z+11	; 0x0b
    4b66:	98 17       	cp	r25, r24
    4b68:	38 f4       	brcc	.+14     	; 0x4b78 <MS_Device_USBTask+0x8a>
    4b6a:	80 8d       	ldd	r24, Z+24	; 0x18
    4b6c:	8f 71       	andi	r24, 0x1F	; 31
    4b6e:	21 f4       	brne	.+8      	; 0x4b78 <MS_Device_USBTask+0x8a>
    4b70:	82 8d       	ldd	r24, Z+26	; 0x1a
    4b72:	81 50       	subi	r24, 0x01	; 1
    4b74:	80 31       	cpi	r24, 0x10	; 16
    4b76:	80 f0       	brcs	.+32     	; 0x4b98 <MS_Device_USBTask+0xaa>
    4b78:	80 91 eb 00 	lds	r24, 0x00EB	; 0x8000eb <__TEXT_REGION_LENGTH__+0x7e00eb>
    4b7c:	80 62       	ori	r24, 0x20	; 32
    4b7e:	80 93 eb 00 	sts	0x00EB, r24	; 0x8000eb <__TEXT_REGION_LENGTH__+0x7e00eb>
    4b82:	f8 01       	movw	r30, r16
    4b84:	81 81       	ldd	r24, Z+1	; 0x01
    4b86:	8f 70       	andi	r24, 0x0F	; 15
    4b88:	80 93 e9 00 	sts	0x00E9, r24	; 0x8000e9 <__TEXT_REGION_LENGTH__+0x7e00e9>
    4b8c:	80 91 eb 00 	lds	r24, 0x00EB	; 0x8000eb <__TEXT_REGION_LENGTH__+0x7e00eb>
    4b90:	80 62       	ori	r24, 0x20	; 32
    4b92:	80 93 eb 00 	sts	0x00EB, r24	; 0x8000eb <__TEXT_REGION_LENGTH__+0x7e00eb>
    4b96:	80 c0       	rjmp	.+256    	; 0x4c98 <MS_Device_USBTask+0x1aa>
    4b98:	1a 82       	std	Y+2, r1	; 0x02
    4b9a:	19 82       	std	Y+1, r1	; 0x01
    4b9c:	78 01       	movw	r14, r16
    4b9e:	fb e1       	ldi	r31, 0x1B	; 27
    4ba0:	ef 0e       	add	r14, r31
    4ba2:	f1 1c       	adc	r15, r1
    4ba4:	f8 01       	movw	r30, r16
    4ba6:	62 8d       	ldd	r22, Z+26	; 0x1a
    4ba8:	70 e0       	ldi	r23, 0x00	; 0
    4baa:	ae 01       	movw	r20, r28
    4bac:	4f 5f       	subi	r20, 0xFF	; 255
    4bae:	5f 4f       	sbci	r21, 0xFF	; 255
    4bb0:	c7 01       	movw	r24, r14
    4bb2:	8a d1       	rcall	.+788    	; 0x4ec8 <Endpoint_Read_Stream_LE>
    4bb4:	85 30       	cpi	r24, 0x05	; 5
    4bb6:	29 f4       	brne	.+10     	; 0x4bc2 <MS_Device_USBTask+0xd4>
    4bb8:	f8 01       	movw	r30, r16
    4bba:	80 ad       	ldd	r24, Z+56	; 0x38
    4bbc:	88 23       	and	r24, r24
    4bbe:	91 f3       	breq	.-28     	; 0x4ba4 <MS_Device_USBTask+0xb6>
    4bc0:	6b c0       	rjmp	.+214    	; 0x4c98 <MS_Device_USBTask+0x1aa>
    4bc2:	80 91 e8 00 	lds	r24, 0x00E8	; 0x8000e8 <__TEXT_REGION_LENGTH__+0x7e00e8>
    4bc6:	8b 77       	andi	r24, 0x7B	; 123
    4bc8:	80 93 e8 00 	sts	0x00E8, r24	; 0x8000e8 <__TEXT_REGION_LENGTH__+0x7e00e8>
    4bcc:	f8 01       	movw	r30, r16
    4bce:	80 8d       	ldd	r24, Z+24	; 0x18
    4bd0:	87 ff       	sbrs	r24, 7
    4bd2:	04 c0       	rjmp	.+8      	; 0x4bdc <MS_Device_USBTask+0xee>
    4bd4:	81 81       	ldd	r24, Z+1	; 0x01
    4bd6:	8f 70       	andi	r24, 0x0F	; 15
    4bd8:	80 93 e9 00 	sts	0x00E9, r24	; 0x8000e9 <__TEXT_REGION_LENGTH__+0x7e00e9>
    4bdc:	c8 01       	movw	r24, r16
    4bde:	0e 94 75 17 	call	0x2eea	; 0x2eea <CALLBACK_MS_Device_SCSICommandReceived>
    4be2:	91 e0       	ldi	r25, 0x01	; 1
    4be4:	98 27       	eor	r25, r24
    4be6:	f8 01       	movw	r30, r16
    4be8:	97 ab       	std	Z+55, r25	; 0x37
    4bea:	45 e5       	ldi	r20, 0x55	; 85
    4bec:	53 e5       	ldi	r21, 0x53	; 83
    4bee:	62 e4       	ldi	r22, 0x42	; 66
    4bf0:	73 e5       	ldi	r23, 0x53	; 83
    4bf2:	43 a7       	std	Z+43, r20	; 0x2b
    4bf4:	54 a7       	std	Z+44, r21	; 0x2c
    4bf6:	65 a7       	std	Z+45, r22	; 0x2d
    4bf8:	76 a7       	std	Z+46, r23	; 0x2e
    4bfa:	40 89       	ldd	r20, Z+16	; 0x10
    4bfc:	51 89       	ldd	r21, Z+17	; 0x11
    4bfe:	62 89       	ldd	r22, Z+18	; 0x12
    4c00:	73 89       	ldd	r23, Z+19	; 0x13
    4c02:	47 a7       	std	Z+47, r20	; 0x2f
    4c04:	50 ab       	std	Z+48, r21	; 0x30
    4c06:	61 ab       	std	Z+49, r22	; 0x31
    4c08:	72 ab       	std	Z+50, r23	; 0x32
    4c0a:	44 89       	ldd	r20, Z+20	; 0x14
    4c0c:	55 89       	ldd	r21, Z+21	; 0x15
    4c0e:	66 89       	ldd	r22, Z+22	; 0x16
    4c10:	77 89       	ldd	r23, Z+23	; 0x17
    4c12:	43 ab       	std	Z+51, r20	; 0x33
    4c14:	54 ab       	std	Z+52, r21	; 0x34
    4c16:	65 ab       	std	Z+53, r22	; 0x35
    4c18:	76 ab       	std	Z+54, r23	; 0x36
    4c1a:	81 11       	cpse	r24, r1
    4c1c:	09 c0       	rjmp	.+18     	; 0x4c30 <MS_Device_USBTask+0x142>
    4c1e:	45 2b       	or	r20, r21
    4c20:	46 2b       	or	r20, r22
    4c22:	47 2b       	or	r20, r23
    4c24:	29 f0       	breq	.+10     	; 0x4c30 <MS_Device_USBTask+0x142>
    4c26:	80 91 eb 00 	lds	r24, 0x00EB	; 0x8000eb <__TEXT_REGION_LENGTH__+0x7e00eb>
    4c2a:	80 62       	ori	r24, 0x20	; 32
    4c2c:	80 93 eb 00 	sts	0x00EB, r24	; 0x8000eb <__TEXT_REGION_LENGTH__+0x7e00eb>
    4c30:	f8 01       	movw	r30, r16
    4c32:	86 81       	ldd	r24, Z+6	; 0x06
    4c34:	8f 70       	andi	r24, 0x0F	; 15
    4c36:	80 93 e9 00 	sts	0x00E9, r24	; 0x8000e9 <__TEXT_REGION_LENGTH__+0x7e00e9>
    4c3a:	80 91 eb 00 	lds	r24, 0x00EB	; 0x8000eb <__TEXT_REGION_LENGTH__+0x7e00eb>
    4c3e:	f8 01       	movw	r30, r16
    4c40:	85 ff       	sbrs	r24, 5
    4c42:	04 c0       	rjmp	.+8      	; 0x4c4c <MS_Device_USBTask+0x15e>
    4c44:	80 ad       	ldd	r24, Z+56	; 0x38
    4c46:	88 23       	and	r24, r24
    4c48:	c1 f3       	breq	.-16     	; 0x4c3a <MS_Device_USBTask+0x14c>
    4c4a:	26 c0       	rjmp	.+76     	; 0x4c98 <MS_Device_USBTask+0x1aa>
    4c4c:	81 81       	ldd	r24, Z+1	; 0x01
    4c4e:	8f 70       	andi	r24, 0x0F	; 15
    4c50:	80 93 e9 00 	sts	0x00E9, r24	; 0x8000e9 <__TEXT_REGION_LENGTH__+0x7e00e9>
    4c54:	80 91 eb 00 	lds	r24, 0x00EB	; 0x8000eb <__TEXT_REGION_LENGTH__+0x7e00eb>
    4c58:	85 ff       	sbrs	r24, 5
    4c5a:	05 c0       	rjmp	.+10     	; 0x4c66 <MS_Device_USBTask+0x178>
    4c5c:	f8 01       	movw	r30, r16
    4c5e:	80 ad       	ldd	r24, Z+56	; 0x38
    4c60:	88 23       	and	r24, r24
    4c62:	c1 f3       	breq	.-16     	; 0x4c54 <MS_Device_USBTask+0x166>
    4c64:	19 c0       	rjmp	.+50     	; 0x4c98 <MS_Device_USBTask+0x1aa>
    4c66:	1a 82       	std	Y+2, r1	; 0x02
    4c68:	19 82       	std	Y+1, r1	; 0x01
    4c6a:	78 01       	movw	r14, r16
    4c6c:	fb e2       	ldi	r31, 0x2B	; 43
    4c6e:	ef 0e       	add	r14, r31
    4c70:	f1 1c       	adc	r15, r1
    4c72:	ae 01       	movw	r20, r28
    4c74:	4f 5f       	subi	r20, 0xFF	; 255
    4c76:	5f 4f       	sbci	r21, 0xFF	; 255
    4c78:	6d e0       	ldi	r22, 0x0D	; 13
    4c7a:	70 e0       	ldi	r23, 0x00	; 0
    4c7c:	c7 01       	movw	r24, r14
    4c7e:	8d d0       	rcall	.+282    	; 0x4d9a <Endpoint_Write_Stream_LE>
    4c80:	85 30       	cpi	r24, 0x05	; 5
    4c82:	29 f4       	brne	.+10     	; 0x4c8e <MS_Device_USBTask+0x1a0>
    4c84:	f8 01       	movw	r30, r16
    4c86:	80 ad       	ldd	r24, Z+56	; 0x38
    4c88:	88 23       	and	r24, r24
    4c8a:	99 f3       	breq	.-26     	; 0x4c72 <MS_Device_USBTask+0x184>
    4c8c:	05 c0       	rjmp	.+10     	; 0x4c98 <MS_Device_USBTask+0x1aa>
    4c8e:	80 91 e8 00 	lds	r24, 0x00E8	; 0x8000e8 <__TEXT_REGION_LENGTH__+0x7e00e8>
    4c92:	8e 77       	andi	r24, 0x7E	; 126
    4c94:	80 93 e8 00 	sts	0x00E8, r24	; 0x8000e8 <__TEXT_REGION_LENGTH__+0x7e00e8>
    4c98:	f8 01       	movw	r30, r16
    4c9a:	80 ad       	ldd	r24, Z+56	; 0x38
    4c9c:	88 23       	and	r24, r24
    4c9e:	a9 f1       	breq	.+106    	; 0x4d0a <MS_Device_USBTask+0x21c>
    4ca0:	26 81       	ldd	r18, Z+6	; 0x06
    4ca2:	2f 70       	andi	r18, 0x0F	; 15
    4ca4:	81 e0       	ldi	r24, 0x01	; 1
    4ca6:	90 e0       	ldi	r25, 0x00	; 0
    4ca8:	ac 01       	movw	r20, r24
    4caa:	02 c0       	rjmp	.+4      	; 0x4cb0 <MS_Device_USBTask+0x1c2>
    4cac:	44 0f       	add	r20, r20
    4cae:	55 1f       	adc	r21, r21
    4cb0:	2a 95       	dec	r18
    4cb2:	e2 f7       	brpl	.-8      	; 0x4cac <MS_Device_USBTask+0x1be>
    4cb4:	40 93 ea 00 	sts	0x00EA, r20	; 0x8000ea <__TEXT_REGION_LENGTH__+0x7e00ea>
    4cb8:	10 92 ea 00 	sts	0x00EA, r1	; 0x8000ea <__TEXT_REGION_LENGTH__+0x7e00ea>
    4cbc:	21 81       	ldd	r18, Z+1	; 0x01
    4cbe:	2f 70       	andi	r18, 0x0F	; 15
    4cc0:	01 c0       	rjmp	.+2      	; 0x4cc4 <MS_Device_USBTask+0x1d6>
    4cc2:	88 0f       	add	r24, r24
    4cc4:	2a 95       	dec	r18
    4cc6:	ea f7       	brpl	.-6      	; 0x4cc2 <MS_Device_USBTask+0x1d4>
    4cc8:	80 93 ea 00 	sts	0x00EA, r24	; 0x8000ea <__TEXT_REGION_LENGTH__+0x7e00ea>
    4ccc:	10 92 ea 00 	sts	0x00EA, r1	; 0x8000ea <__TEXT_REGION_LENGTH__+0x7e00ea>
    4cd0:	86 81       	ldd	r24, Z+6	; 0x06
    4cd2:	8f 70       	andi	r24, 0x0F	; 15
    4cd4:	80 93 e9 00 	sts	0x00E9, r24	; 0x8000e9 <__TEXT_REGION_LENGTH__+0x7e00e9>
    4cd8:	80 91 eb 00 	lds	r24, 0x00EB	; 0x8000eb <__TEXT_REGION_LENGTH__+0x7e00eb>
    4cdc:	80 61       	ori	r24, 0x10	; 16
    4cde:	80 93 eb 00 	sts	0x00EB, r24	; 0x8000eb <__TEXT_REGION_LENGTH__+0x7e00eb>
    4ce2:	80 91 eb 00 	lds	r24, 0x00EB	; 0x8000eb <__TEXT_REGION_LENGTH__+0x7e00eb>
    4ce6:	88 60       	ori	r24, 0x08	; 8
    4ce8:	80 93 eb 00 	sts	0x00EB, r24	; 0x8000eb <__TEXT_REGION_LENGTH__+0x7e00eb>
    4cec:	81 81       	ldd	r24, Z+1	; 0x01
    4cee:	8f 70       	andi	r24, 0x0F	; 15
    4cf0:	80 93 e9 00 	sts	0x00E9, r24	; 0x8000e9 <__TEXT_REGION_LENGTH__+0x7e00e9>
    4cf4:	80 91 eb 00 	lds	r24, 0x00EB	; 0x8000eb <__TEXT_REGION_LENGTH__+0x7e00eb>
    4cf8:	80 61       	ori	r24, 0x10	; 16
    4cfa:	80 93 eb 00 	sts	0x00EB, r24	; 0x8000eb <__TEXT_REGION_LENGTH__+0x7e00eb>
    4cfe:	80 91 eb 00 	lds	r24, 0x00EB	; 0x8000eb <__TEXT_REGION_LENGTH__+0x7e00eb>
    4d02:	88 60       	ori	r24, 0x08	; 8
    4d04:	80 93 eb 00 	sts	0x00EB, r24	; 0x8000eb <__TEXT_REGION_LENGTH__+0x7e00eb>
    4d08:	10 ae       	std	Z+56, r1	; 0x38
    4d0a:	0f 90       	pop	r0
    4d0c:	0f 90       	pop	r0
    4d0e:	df 91       	pop	r29
    4d10:	cf 91       	pop	r28
    4d12:	1f 91       	pop	r17
    4d14:	0f 91       	pop	r16
    4d16:	ff 90       	pop	r15
    4d18:	ef 90       	pop	r14
    4d1a:	08 95       	ret

00004d1c <Endpoint_Null_Stream>:
    4d1c:	ef 92       	push	r14
    4d1e:	ff 92       	push	r15
    4d20:	0f 93       	push	r16
    4d22:	1f 93       	push	r17
    4d24:	cf 93       	push	r28
    4d26:	df 93       	push	r29
    4d28:	ec 01       	movw	r28, r24
    4d2a:	8b 01       	movw	r16, r22
    4d2c:	41 d2       	rcall	.+1154   	; 0x51b0 <Endpoint_WaitUntilReady>
    4d2e:	81 11       	cpse	r24, r1
    4d30:	2d c0       	rjmp	.+90     	; 0x4d8c <Endpoint_Null_Stream+0x70>
    4d32:	01 15       	cp	r16, r1
    4d34:	11 05       	cpc	r17, r1
    4d36:	29 f0       	breq	.+10     	; 0x4d42 <Endpoint_Null_Stream+0x26>
    4d38:	f8 01       	movw	r30, r16
    4d3a:	80 81       	ld	r24, Z
    4d3c:	91 81       	ldd	r25, Z+1	; 0x01
    4d3e:	c8 1b       	sub	r28, r24
    4d40:	d9 0b       	sbc	r29, r25
    4d42:	e1 2c       	mov	r14, r1
    4d44:	f1 2c       	mov	r15, r1
    4d46:	20 97       	sbiw	r28, 0x00	; 0
    4d48:	01 f1       	breq	.+64     	; 0x4d8a <Endpoint_Null_Stream+0x6e>
    4d4a:	80 91 e8 00 	lds	r24, 0x00E8	; 0x8000e8 <__TEXT_REGION_LENGTH__+0x7e00e8>
    4d4e:	85 fd       	sbrc	r24, 5
    4d50:	15 c0       	rjmp	.+42     	; 0x4d7c <Endpoint_Null_Stream+0x60>
    4d52:	80 91 e8 00 	lds	r24, 0x00E8	; 0x8000e8 <__TEXT_REGION_LENGTH__+0x7e00e8>
    4d56:	8e 77       	andi	r24, 0x7E	; 126
    4d58:	80 93 e8 00 	sts	0x00E8, r24	; 0x8000e8 <__TEXT_REGION_LENGTH__+0x7e00e8>
    4d5c:	01 15       	cp	r16, r1
    4d5e:	11 05       	cpc	r17, r1
    4d60:	49 f0       	breq	.+18     	; 0x4d74 <Endpoint_Null_Stream+0x58>
    4d62:	f8 01       	movw	r30, r16
    4d64:	80 81       	ld	r24, Z
    4d66:	91 81       	ldd	r25, Z+1	; 0x01
    4d68:	e8 0e       	add	r14, r24
    4d6a:	f9 1e       	adc	r15, r25
    4d6c:	f1 82       	std	Z+1, r15	; 0x01
    4d6e:	e0 82       	st	Z, r14
    4d70:	85 e0       	ldi	r24, 0x05	; 5
    4d72:	0c c0       	rjmp	.+24     	; 0x4d8c <Endpoint_Null_Stream+0x70>
    4d74:	1d d2       	rcall	.+1082   	; 0x51b0 <Endpoint_WaitUntilReady>
    4d76:	88 23       	and	r24, r24
    4d78:	31 f3       	breq	.-52     	; 0x4d46 <Endpoint_Null_Stream+0x2a>
    4d7a:	08 c0       	rjmp	.+16     	; 0x4d8c <Endpoint_Null_Stream+0x70>
    4d7c:	10 92 f1 00 	sts	0x00F1, r1	; 0x8000f1 <__TEXT_REGION_LENGTH__+0x7e00f1>
    4d80:	21 97       	sbiw	r28, 0x01	; 1
    4d82:	ff ef       	ldi	r31, 0xFF	; 255
    4d84:	ef 1a       	sub	r14, r31
    4d86:	ff 0a       	sbc	r15, r31
    4d88:	de cf       	rjmp	.-68     	; 0x4d46 <Endpoint_Null_Stream+0x2a>
    4d8a:	80 e0       	ldi	r24, 0x00	; 0
    4d8c:	df 91       	pop	r29
    4d8e:	cf 91       	pop	r28
    4d90:	1f 91       	pop	r17
    4d92:	0f 91       	pop	r16
    4d94:	ff 90       	pop	r15
    4d96:	ef 90       	pop	r14
    4d98:	08 95       	ret

00004d9a <Endpoint_Write_Stream_LE>:
    4d9a:	cf 92       	push	r12
    4d9c:	df 92       	push	r13
    4d9e:	ef 92       	push	r14
    4da0:	ff 92       	push	r15
    4da2:	0f 93       	push	r16
    4da4:	1f 93       	push	r17
    4da6:	cf 93       	push	r28
    4da8:	df 93       	push	r29
    4daa:	ec 01       	movw	r28, r24
    4dac:	8b 01       	movw	r16, r22
    4dae:	7a 01       	movw	r14, r20
    4db0:	ff d1       	rcall	.+1022   	; 0x51b0 <Endpoint_WaitUntilReady>
    4db2:	81 11       	cpse	r24, r1
    4db4:	32 c0       	rjmp	.+100    	; 0x4e1a <Endpoint_Write_Stream_LE+0x80>
    4db6:	e1 14       	cp	r14, r1
    4db8:	f1 04       	cpc	r15, r1
    4dba:	39 f0       	breq	.+14     	; 0x4dca <Endpoint_Write_Stream_LE+0x30>
    4dbc:	f7 01       	movw	r30, r14
    4dbe:	80 81       	ld	r24, Z
    4dc0:	91 81       	ldd	r25, Z+1	; 0x01
    4dc2:	08 1b       	sub	r16, r24
    4dc4:	19 0b       	sbc	r17, r25
    4dc6:	c8 0f       	add	r28, r24
    4dc8:	d9 1f       	adc	r29, r25
    4dca:	c1 2c       	mov	r12, r1
    4dcc:	d1 2c       	mov	r13, r1
    4dce:	01 15       	cp	r16, r1
    4dd0:	11 05       	cpc	r17, r1
    4dd2:	11 f1       	breq	.+68     	; 0x4e18 <Endpoint_Write_Stream_LE+0x7e>
    4dd4:	80 91 e8 00 	lds	r24, 0x00E8	; 0x8000e8 <__TEXT_REGION_LENGTH__+0x7e00e8>
    4dd8:	85 fd       	sbrc	r24, 5
    4dda:	15 c0       	rjmp	.+42     	; 0x4e06 <Endpoint_Write_Stream_LE+0x6c>
    4ddc:	80 91 e8 00 	lds	r24, 0x00E8	; 0x8000e8 <__TEXT_REGION_LENGTH__+0x7e00e8>
    4de0:	8e 77       	andi	r24, 0x7E	; 126
    4de2:	80 93 e8 00 	sts	0x00E8, r24	; 0x8000e8 <__TEXT_REGION_LENGTH__+0x7e00e8>
    4de6:	e1 14       	cp	r14, r1
    4de8:	f1 04       	cpc	r15, r1
    4dea:	49 f0       	breq	.+18     	; 0x4dfe <Endpoint_Write_Stream_LE+0x64>
    4dec:	f7 01       	movw	r30, r14
    4dee:	80 81       	ld	r24, Z
    4df0:	91 81       	ldd	r25, Z+1	; 0x01
    4df2:	c8 0e       	add	r12, r24
    4df4:	d9 1e       	adc	r13, r25
    4df6:	d1 82       	std	Z+1, r13	; 0x01
    4df8:	c0 82       	st	Z, r12
    4dfa:	85 e0       	ldi	r24, 0x05	; 5
    4dfc:	0e c0       	rjmp	.+28     	; 0x4e1a <Endpoint_Write_Stream_LE+0x80>
    4dfe:	d8 d1       	rcall	.+944    	; 0x51b0 <Endpoint_WaitUntilReady>
    4e00:	88 23       	and	r24, r24
    4e02:	29 f3       	breq	.-54     	; 0x4dce <Endpoint_Write_Stream_LE+0x34>
    4e04:	0a c0       	rjmp	.+20     	; 0x4e1a <Endpoint_Write_Stream_LE+0x80>
    4e06:	89 91       	ld	r24, Y+
    4e08:	80 93 f1 00 	sts	0x00F1, r24	; 0x8000f1 <__TEXT_REGION_LENGTH__+0x7e00f1>
    4e0c:	01 50       	subi	r16, 0x01	; 1
    4e0e:	11 09       	sbc	r17, r1
    4e10:	ff ef       	ldi	r31, 0xFF	; 255
    4e12:	cf 1a       	sub	r12, r31
    4e14:	df 0a       	sbc	r13, r31
    4e16:	db cf       	rjmp	.-74     	; 0x4dce <Endpoint_Write_Stream_LE+0x34>
    4e18:	80 e0       	ldi	r24, 0x00	; 0
    4e1a:	df 91       	pop	r29
    4e1c:	cf 91       	pop	r28
    4e1e:	1f 91       	pop	r17
    4e20:	0f 91       	pop	r16
    4e22:	ff 90       	pop	r15
    4e24:	ef 90       	pop	r14
    4e26:	df 90       	pop	r13
    4e28:	cf 90       	pop	r12
    4e2a:	08 95       	ret

00004e2c <Endpoint_Write_Stream_BE>:
    4e2c:	cf 92       	push	r12
    4e2e:	df 92       	push	r13
    4e30:	ef 92       	push	r14
    4e32:	ff 92       	push	r15
    4e34:	0f 93       	push	r16
    4e36:	1f 93       	push	r17
    4e38:	cf 93       	push	r28
    4e3a:	df 93       	push	r29
    4e3c:	ec 01       	movw	r28, r24
    4e3e:	8b 01       	movw	r16, r22
    4e40:	7a 01       	movw	r14, r20
    4e42:	b6 d1       	rcall	.+876    	; 0x51b0 <Endpoint_WaitUntilReady>
    4e44:	81 11       	cpse	r24, r1
    4e46:	37 c0       	rjmp	.+110    	; 0x4eb6 <Endpoint_Write_Stream_BE+0x8a>
    4e48:	c8 01       	movw	r24, r16
    4e4a:	01 97       	sbiw	r24, 0x01	; 1
    4e4c:	c8 0f       	add	r28, r24
    4e4e:	d9 1f       	adc	r29, r25
    4e50:	e1 14       	cp	r14, r1
    4e52:	f1 04       	cpc	r15, r1
    4e54:	39 f0       	breq	.+14     	; 0x4e64 <Endpoint_Write_Stream_BE+0x38>
    4e56:	f7 01       	movw	r30, r14
    4e58:	80 81       	ld	r24, Z
    4e5a:	91 81       	ldd	r25, Z+1	; 0x01
    4e5c:	08 1b       	sub	r16, r24
    4e5e:	19 0b       	sbc	r17, r25
    4e60:	c8 1b       	sub	r28, r24
    4e62:	d9 0b       	sbc	r29, r25
    4e64:	c1 2c       	mov	r12, r1
    4e66:	d1 2c       	mov	r13, r1
    4e68:	01 15       	cp	r16, r1
    4e6a:	11 05       	cpc	r17, r1
    4e6c:	19 f1       	breq	.+70     	; 0x4eb4 <Endpoint_Write_Stream_BE+0x88>
    4e6e:	80 91 e8 00 	lds	r24, 0x00E8	; 0x8000e8 <__TEXT_REGION_LENGTH__+0x7e00e8>
    4e72:	85 fd       	sbrc	r24, 5
    4e74:	15 c0       	rjmp	.+42     	; 0x4ea0 <Endpoint_Write_Stream_BE+0x74>
    4e76:	80 91 e8 00 	lds	r24, 0x00E8	; 0x8000e8 <__TEXT_REGION_LENGTH__+0x7e00e8>
    4e7a:	8e 77       	andi	r24, 0x7E	; 126
    4e7c:	80 93 e8 00 	sts	0x00E8, r24	; 0x8000e8 <__TEXT_REGION_LENGTH__+0x7e00e8>
    4e80:	e1 14       	cp	r14, r1
    4e82:	f1 04       	cpc	r15, r1
    4e84:	49 f0       	breq	.+18     	; 0x4e98 <Endpoint_Write_Stream_BE+0x6c>
    4e86:	f7 01       	movw	r30, r14
    4e88:	80 81       	ld	r24, Z
    4e8a:	91 81       	ldd	r25, Z+1	; 0x01
    4e8c:	c8 0e       	add	r12, r24
    4e8e:	d9 1e       	adc	r13, r25
    4e90:	d1 82       	std	Z+1, r13	; 0x01
    4e92:	c0 82       	st	Z, r12
    4e94:	85 e0       	ldi	r24, 0x05	; 5
    4e96:	0f c0       	rjmp	.+30     	; 0x4eb6 <Endpoint_Write_Stream_BE+0x8a>
    4e98:	8b d1       	rcall	.+790    	; 0x51b0 <Endpoint_WaitUntilReady>
    4e9a:	88 23       	and	r24, r24
    4e9c:	29 f3       	breq	.-54     	; 0x4e68 <Endpoint_Write_Stream_BE+0x3c>
    4e9e:	0b c0       	rjmp	.+22     	; 0x4eb6 <Endpoint_Write_Stream_BE+0x8a>
    4ea0:	88 81       	ld	r24, Y
    4ea2:	80 93 f1 00 	sts	0x00F1, r24	; 0x8000f1 <__TEXT_REGION_LENGTH__+0x7e00f1>
    4ea6:	21 97       	sbiw	r28, 0x01	; 1
    4ea8:	01 50       	subi	r16, 0x01	; 1
    4eaa:	11 09       	sbc	r17, r1
    4eac:	ff ef       	ldi	r31, 0xFF	; 255
    4eae:	cf 1a       	sub	r12, r31
    4eb0:	df 0a       	sbc	r13, r31
    4eb2:	da cf       	rjmp	.-76     	; 0x4e68 <Endpoint_Write_Stream_BE+0x3c>
    4eb4:	80 e0       	ldi	r24, 0x00	; 0
    4eb6:	df 91       	pop	r29
    4eb8:	cf 91       	pop	r28
    4eba:	1f 91       	pop	r17
    4ebc:	0f 91       	pop	r16
    4ebe:	ff 90       	pop	r15
    4ec0:	ef 90       	pop	r14
    4ec2:	df 90       	pop	r13
    4ec4:	cf 90       	pop	r12
    4ec6:	08 95       	ret

00004ec8 <Endpoint_Read_Stream_LE>:
    4ec8:	cf 92       	push	r12
    4eca:	df 92       	push	r13
    4ecc:	ef 92       	push	r14
    4ece:	ff 92       	push	r15
    4ed0:	0f 93       	push	r16
    4ed2:	1f 93       	push	r17
    4ed4:	cf 93       	push	r28
    4ed6:	df 93       	push	r29
    4ed8:	ec 01       	movw	r28, r24
    4eda:	8b 01       	movw	r16, r22
    4edc:	7a 01       	movw	r14, r20
    4ede:	68 d1       	rcall	.+720    	; 0x51b0 <Endpoint_WaitUntilReady>
    4ee0:	81 11       	cpse	r24, r1
    4ee2:	32 c0       	rjmp	.+100    	; 0x4f48 <Endpoint_Read_Stream_LE+0x80>
    4ee4:	e1 14       	cp	r14, r1
    4ee6:	f1 04       	cpc	r15, r1
    4ee8:	39 f0       	breq	.+14     	; 0x4ef8 <Endpoint_Read_Stream_LE+0x30>
    4eea:	f7 01       	movw	r30, r14
    4eec:	80 81       	ld	r24, Z
    4eee:	91 81       	ldd	r25, Z+1	; 0x01
    4ef0:	08 1b       	sub	r16, r24
    4ef2:	19 0b       	sbc	r17, r25
    4ef4:	c8 0f       	add	r28, r24
    4ef6:	d9 1f       	adc	r29, r25
    4ef8:	c1 2c       	mov	r12, r1
    4efa:	d1 2c       	mov	r13, r1
    4efc:	01 15       	cp	r16, r1
    4efe:	11 05       	cpc	r17, r1
    4f00:	11 f1       	breq	.+68     	; 0x4f46 <Endpoint_Read_Stream_LE+0x7e>
    4f02:	80 91 e8 00 	lds	r24, 0x00E8	; 0x8000e8 <__TEXT_REGION_LENGTH__+0x7e00e8>
    4f06:	85 fd       	sbrc	r24, 5
    4f08:	15 c0       	rjmp	.+42     	; 0x4f34 <Endpoint_Read_Stream_LE+0x6c>
    4f0a:	80 91 e8 00 	lds	r24, 0x00E8	; 0x8000e8 <__TEXT_REGION_LENGTH__+0x7e00e8>
    4f0e:	8b 77       	andi	r24, 0x7B	; 123
    4f10:	80 93 e8 00 	sts	0x00E8, r24	; 0x8000e8 <__TEXT_REGION_LENGTH__+0x7e00e8>
    4f14:	e1 14       	cp	r14, r1
    4f16:	f1 04       	cpc	r15, r1
    4f18:	49 f0       	breq	.+18     	; 0x4f2c <Endpoint_Read_Stream_LE+0x64>
    4f1a:	f7 01       	movw	r30, r14
    4f1c:	80 81       	ld	r24, Z
    4f1e:	91 81       	ldd	r25, Z+1	; 0x01
    4f20:	c8 0e       	add	r12, r24
    4f22:	d9 1e       	adc	r13, r25
    4f24:	d1 82       	std	Z+1, r13	; 0x01
    4f26:	c0 82       	st	Z, r12
    4f28:	85 e0       	ldi	r24, 0x05	; 5
    4f2a:	0e c0       	rjmp	.+28     	; 0x4f48 <Endpoint_Read_Stream_LE+0x80>
    4f2c:	41 d1       	rcall	.+642    	; 0x51b0 <Endpoint_WaitUntilReady>
    4f2e:	88 23       	and	r24, r24
    4f30:	29 f3       	breq	.-54     	; 0x4efc <Endpoint_Read_Stream_LE+0x34>
    4f32:	0a c0       	rjmp	.+20     	; 0x4f48 <Endpoint_Read_Stream_LE+0x80>
    4f34:	80 91 f1 00 	lds	r24, 0x00F1	; 0x8000f1 <__TEXT_REGION_LENGTH__+0x7e00f1>
    4f38:	89 93       	st	Y+, r24
    4f3a:	01 50       	subi	r16, 0x01	; 1
    4f3c:	11 09       	sbc	r17, r1
    4f3e:	ff ef       	ldi	r31, 0xFF	; 255
    4f40:	cf 1a       	sub	r12, r31
    4f42:	df 0a       	sbc	r13, r31
    4f44:	db cf       	rjmp	.-74     	; 0x4efc <Endpoint_Read_Stream_LE+0x34>
    4f46:	80 e0       	ldi	r24, 0x00	; 0
    4f48:	df 91       	pop	r29
    4f4a:	cf 91       	pop	r28
    4f4c:	1f 91       	pop	r17
    4f4e:	0f 91       	pop	r16
    4f50:	ff 90       	pop	r15
    4f52:	ef 90       	pop	r14
    4f54:	df 90       	pop	r13
    4f56:	cf 90       	pop	r12
    4f58:	08 95       	ret

00004f5a <Endpoint_Write_Control_Stream_LE>:
    4f5a:	20 91 6b 0c 	lds	r18, 0x0C6B	; 0x800c6b <USB_ControlRequest+0x6>
    4f5e:	30 91 6c 0c 	lds	r19, 0x0C6C	; 0x800c6c <USB_ControlRequest+0x7>
    4f62:	26 17       	cp	r18, r22
    4f64:	37 07       	cpc	r19, r23
    4f66:	48 f0       	brcs	.+18     	; 0x4f7a <Endpoint_Write_Control_Stream_LE+0x20>
    4f68:	61 15       	cp	r22, r1
    4f6a:	71 05       	cpc	r23, r1
    4f6c:	39 f4       	brne	.+14     	; 0x4f7c <Endpoint_Write_Control_Stream_LE+0x22>
    4f6e:	20 91 e8 00 	lds	r18, 0x00E8	; 0x8000e8 <__TEXT_REGION_LENGTH__+0x7e00e8>
    4f72:	2e 77       	andi	r18, 0x7E	; 126
    4f74:	20 93 e8 00 	sts	0x00E8, r18	; 0x8000e8 <__TEXT_REGION_LENGTH__+0x7e00e8>
    4f78:	01 c0       	rjmp	.+2      	; 0x4f7c <Endpoint_Write_Control_Stream_LE+0x22>
    4f7a:	b9 01       	movw	r22, r18
    4f7c:	fc 01       	movw	r30, r24
    4f7e:	20 e0       	ldi	r18, 0x00	; 0
    4f80:	61 15       	cp	r22, r1
    4f82:	71 05       	cpc	r23, r1
    4f84:	69 f1       	breq	.+90     	; 0x4fe0 <Endpoint_Write_Control_Stream_LE+0x86>
    4f86:	80 91 64 0c 	lds	r24, 0x0C64	; 0x800c64 <USB_DeviceState>
    4f8a:	88 23       	and	r24, r24
    4f8c:	e1 f1       	breq	.+120    	; 0x5006 <Endpoint_Write_Control_Stream_LE+0xac>
    4f8e:	85 30       	cpi	r24, 0x05	; 5
    4f90:	e1 f1       	breq	.+120    	; 0x500a <Endpoint_Write_Control_Stream_LE+0xb0>
    4f92:	80 91 e8 00 	lds	r24, 0x00E8	; 0x8000e8 <__TEXT_REGION_LENGTH__+0x7e00e8>
    4f96:	83 fd       	sbrc	r24, 3
    4f98:	3a c0       	rjmp	.+116    	; 0x500e <Endpoint_Write_Control_Stream_LE+0xb4>
    4f9a:	80 91 e8 00 	lds	r24, 0x00E8	; 0x8000e8 <__TEXT_REGION_LENGTH__+0x7e00e8>
    4f9e:	82 fd       	sbrc	r24, 2
    4fa0:	2c c0       	rjmp	.+88     	; 0x4ffa <Endpoint_Write_Control_Stream_LE+0xa0>
    4fa2:	80 91 e8 00 	lds	r24, 0x00E8	; 0x8000e8 <__TEXT_REGION_LENGTH__+0x7e00e8>
    4fa6:	80 ff       	sbrs	r24, 0
    4fa8:	eb cf       	rjmp	.-42     	; 0x4f80 <Endpoint_Write_Control_Stream_LE+0x26>
    4faa:	80 91 f2 00 	lds	r24, 0x00F2	; 0x8000f2 <__TEXT_REGION_LENGTH__+0x7e00f2>
    4fae:	90 91 f3 00 	lds	r25, 0x00F3	; 0x8000f3 <__TEXT_REGION_LENGTH__+0x7e00f3>
    4fb2:	61 15       	cp	r22, r1
    4fb4:	71 05       	cpc	r23, r1
    4fb6:	51 f0       	breq	.+20     	; 0x4fcc <Endpoint_Write_Control_Stream_LE+0x72>
    4fb8:	88 30       	cpi	r24, 0x08	; 8
    4fba:	91 05       	cpc	r25, r1
    4fbc:	38 f4       	brcc	.+14     	; 0x4fcc <Endpoint_Write_Control_Stream_LE+0x72>
    4fbe:	21 91       	ld	r18, Z+
    4fc0:	20 93 f1 00 	sts	0x00F1, r18	; 0x8000f1 <__TEXT_REGION_LENGTH__+0x7e00f1>
    4fc4:	61 50       	subi	r22, 0x01	; 1
    4fc6:	71 09       	sbc	r23, r1
    4fc8:	01 96       	adiw	r24, 0x01	; 1
    4fca:	f3 cf       	rjmp	.-26     	; 0x4fb2 <Endpoint_Write_Control_Stream_LE+0x58>
    4fcc:	21 e0       	ldi	r18, 0x01	; 1
    4fce:	08 97       	sbiw	r24, 0x08	; 8
    4fd0:	09 f0       	breq	.+2      	; 0x4fd4 <Endpoint_Write_Control_Stream_LE+0x7a>
    4fd2:	20 e0       	ldi	r18, 0x00	; 0
    4fd4:	80 91 e8 00 	lds	r24, 0x00E8	; 0x8000e8 <__TEXT_REGION_LENGTH__+0x7e00e8>
    4fd8:	8e 77       	andi	r24, 0x7E	; 126
    4fda:	80 93 e8 00 	sts	0x00E8, r24	; 0x8000e8 <__TEXT_REGION_LENGTH__+0x7e00e8>
    4fde:	d0 cf       	rjmp	.-96     	; 0x4f80 <Endpoint_Write_Control_Stream_LE+0x26>
    4fe0:	21 11       	cpse	r18, r1
    4fe2:	d1 cf       	rjmp	.-94     	; 0x4f86 <Endpoint_Write_Control_Stream_LE+0x2c>
    4fe4:	0a c0       	rjmp	.+20     	; 0x4ffa <Endpoint_Write_Control_Stream_LE+0xa0>
    4fe6:	80 91 64 0c 	lds	r24, 0x0C64	; 0x800c64 <USB_DeviceState>
    4fea:	88 23       	and	r24, r24
    4fec:	61 f0       	breq	.+24     	; 0x5006 <Endpoint_Write_Control_Stream_LE+0xac>
    4fee:	85 30       	cpi	r24, 0x05	; 5
    4ff0:	61 f0       	breq	.+24     	; 0x500a <Endpoint_Write_Control_Stream_LE+0xb0>
    4ff2:	80 91 e8 00 	lds	r24, 0x00E8	; 0x8000e8 <__TEXT_REGION_LENGTH__+0x7e00e8>
    4ff6:	83 fd       	sbrc	r24, 3
    4ff8:	0a c0       	rjmp	.+20     	; 0x500e <Endpoint_Write_Control_Stream_LE+0xb4>
    4ffa:	80 91 e8 00 	lds	r24, 0x00E8	; 0x8000e8 <__TEXT_REGION_LENGTH__+0x7e00e8>
    4ffe:	82 ff       	sbrs	r24, 2
    5000:	f2 cf       	rjmp	.-28     	; 0x4fe6 <Endpoint_Write_Control_Stream_LE+0x8c>
    5002:	80 e0       	ldi	r24, 0x00	; 0
    5004:	08 95       	ret
    5006:	82 e0       	ldi	r24, 0x02	; 2
    5008:	08 95       	ret
    500a:	83 e0       	ldi	r24, 0x03	; 3
    500c:	08 95       	ret
    500e:	81 e0       	ldi	r24, 0x01	; 1
    5010:	08 95       	ret

00005012 <Endpoint_Read_Control_Stream_LE>:
    5012:	61 15       	cp	r22, r1
    5014:	71 05       	cpc	r23, r1
    5016:	29 f4       	brne	.+10     	; 0x5022 <Endpoint_Read_Control_Stream_LE+0x10>
    5018:	20 91 e8 00 	lds	r18, 0x00E8	; 0x8000e8 <__TEXT_REGION_LENGTH__+0x7e00e8>
    501c:	2b 77       	andi	r18, 0x7B	; 123
    501e:	20 93 e8 00 	sts	0x00E8, r18	; 0x8000e8 <__TEXT_REGION_LENGTH__+0x7e00e8>
    5022:	fc 01       	movw	r30, r24
    5024:	61 15       	cp	r22, r1
    5026:	71 05       	cpc	r23, r1
    5028:	31 f1       	breq	.+76     	; 0x5076 <Endpoint_Read_Control_Stream_LE+0x64>
    502a:	80 91 64 0c 	lds	r24, 0x0C64	; 0x800c64 <USB_DeviceState>
    502e:	88 23       	and	r24, r24
    5030:	51 f1       	breq	.+84     	; 0x5086 <Endpoint_Read_Control_Stream_LE+0x74>
    5032:	85 30       	cpi	r24, 0x05	; 5
    5034:	51 f1       	breq	.+84     	; 0x508a <Endpoint_Read_Control_Stream_LE+0x78>
    5036:	80 91 e8 00 	lds	r24, 0x00E8	; 0x8000e8 <__TEXT_REGION_LENGTH__+0x7e00e8>
    503a:	83 fd       	sbrc	r24, 3
    503c:	22 c0       	rjmp	.+68     	; 0x5082 <Endpoint_Read_Control_Stream_LE+0x70>
    503e:	80 91 e8 00 	lds	r24, 0x00E8	; 0x8000e8 <__TEXT_REGION_LENGTH__+0x7e00e8>
    5042:	82 ff       	sbrs	r24, 2
    5044:	ef cf       	rjmp	.-34     	; 0x5024 <Endpoint_Read_Control_Stream_LE+0x12>
    5046:	80 91 f2 00 	lds	r24, 0x00F2	; 0x8000f2 <__TEXT_REGION_LENGTH__+0x7e00f2>
    504a:	90 91 f3 00 	lds	r25, 0x00F3	; 0x8000f3 <__TEXT_REGION_LENGTH__+0x7e00f3>
    504e:	89 2b       	or	r24, r25
    5050:	31 f0       	breq	.+12     	; 0x505e <Endpoint_Read_Control_Stream_LE+0x4c>
    5052:	80 91 f1 00 	lds	r24, 0x00F1	; 0x8000f1 <__TEXT_REGION_LENGTH__+0x7e00f1>
    5056:	81 93       	st	Z+, r24
    5058:	61 50       	subi	r22, 0x01	; 1
    505a:	71 09       	sbc	r23, r1
    505c:	a1 f7       	brne	.-24     	; 0x5046 <Endpoint_Read_Control_Stream_LE+0x34>
    505e:	80 91 e8 00 	lds	r24, 0x00E8	; 0x8000e8 <__TEXT_REGION_LENGTH__+0x7e00e8>
    5062:	8b 77       	andi	r24, 0x7B	; 123
    5064:	80 93 e8 00 	sts	0x00E8, r24	; 0x8000e8 <__TEXT_REGION_LENGTH__+0x7e00e8>
    5068:	dd cf       	rjmp	.-70     	; 0x5024 <Endpoint_Read_Control_Stream_LE+0x12>
    506a:	80 91 64 0c 	lds	r24, 0x0C64	; 0x800c64 <USB_DeviceState>
    506e:	88 23       	and	r24, r24
    5070:	51 f0       	breq	.+20     	; 0x5086 <Endpoint_Read_Control_Stream_LE+0x74>
    5072:	85 30       	cpi	r24, 0x05	; 5
    5074:	51 f0       	breq	.+20     	; 0x508a <Endpoint_Read_Control_Stream_LE+0x78>
    5076:	80 91 e8 00 	lds	r24, 0x00E8	; 0x8000e8 <__TEXT_REGION_LENGTH__+0x7e00e8>
    507a:	80 ff       	sbrs	r24, 0
    507c:	f6 cf       	rjmp	.-20     	; 0x506a <Endpoint_Read_Control_Stream_LE+0x58>
    507e:	80 e0       	ldi	r24, 0x00	; 0
    5080:	08 95       	ret
    5082:	81 e0       	ldi	r24, 0x01	; 1
    5084:	08 95       	ret
    5086:	82 e0       	ldi	r24, 0x02	; 2
    5088:	08 95       	ret
    508a:	83 e0       	ldi	r24, 0x03	; 3
    508c:	08 95       	ret

0000508e <Endpoint_ConfigureEndpoint_Prv>:
    508e:	98 2f       	mov	r25, r24
    5090:	97 30       	cpi	r25, 0x07	; 7
    5092:	68 f5       	brcc	.+90     	; 0x50ee <Endpoint_ConfigureEndpoint_Prv+0x60>
    5094:	90 93 e9 00 	sts	0x00E9, r25	; 0x8000e9 <__TEXT_REGION_LENGTH__+0x7e00e9>
    5098:	98 17       	cp	r25, r24
    509a:	39 f0       	breq	.+14     	; 0x50aa <Endpoint_ConfigureEndpoint_Prv+0x1c>
    509c:	70 91 ec 00 	lds	r23, 0x00EC	; 0x8000ec <__TEXT_REGION_LENGTH__+0x7e00ec>
    50a0:	20 91 ed 00 	lds	r18, 0x00ED	; 0x8000ed <__TEXT_REGION_LENGTH__+0x7e00ed>
    50a4:	50 91 f0 00 	lds	r21, 0x00F0	; 0x8000f0 <__TEXT_REGION_LENGTH__+0x7e00f0>
    50a8:	03 c0       	rjmp	.+6      	; 0x50b0 <Endpoint_ConfigureEndpoint_Prv+0x22>
    50aa:	24 2f       	mov	r18, r20
    50ac:	76 2f       	mov	r23, r22
    50ae:	50 e0       	ldi	r21, 0x00	; 0
    50b0:	21 fd       	sbrc	r18, 1
    50b2:	02 c0       	rjmp	.+4      	; 0x50b8 <Endpoint_ConfigureEndpoint_Prv+0x2a>
    50b4:	9f 5f       	subi	r25, 0xFF	; 255
    50b6:	ec cf       	rjmp	.-40     	; 0x5090 <Endpoint_ConfigureEndpoint_Prv+0x2>
    50b8:	30 91 eb 00 	lds	r19, 0x00EB	; 0x8000eb <__TEXT_REGION_LENGTH__+0x7e00eb>
    50bc:	3e 7f       	andi	r19, 0xFE	; 254
    50be:	30 93 eb 00 	sts	0x00EB, r19	; 0x8000eb <__TEXT_REGION_LENGTH__+0x7e00eb>
    50c2:	30 91 ed 00 	lds	r19, 0x00ED	; 0x8000ed <__TEXT_REGION_LENGTH__+0x7e00ed>
    50c6:	3d 7f       	andi	r19, 0xFD	; 253
    50c8:	30 93 ed 00 	sts	0x00ED, r19	; 0x8000ed <__TEXT_REGION_LENGTH__+0x7e00ed>
    50cc:	30 91 eb 00 	lds	r19, 0x00EB	; 0x8000eb <__TEXT_REGION_LENGTH__+0x7e00eb>
    50d0:	31 60       	ori	r19, 0x01	; 1
    50d2:	30 93 eb 00 	sts	0x00EB, r19	; 0x8000eb <__TEXT_REGION_LENGTH__+0x7e00eb>
    50d6:	70 93 ec 00 	sts	0x00EC, r23	; 0x8000ec <__TEXT_REGION_LENGTH__+0x7e00ec>
    50da:	20 93 ed 00 	sts	0x00ED, r18	; 0x8000ed <__TEXT_REGION_LENGTH__+0x7e00ed>
    50de:	50 93 f0 00 	sts	0x00F0, r21	; 0x8000f0 <__TEXT_REGION_LENGTH__+0x7e00f0>
    50e2:	20 91 ee 00 	lds	r18, 0x00EE	; 0x8000ee <__TEXT_REGION_LENGTH__+0x7e00ee>
    50e6:	27 fd       	sbrc	r18, 7
    50e8:	e5 cf       	rjmp	.-54     	; 0x50b4 <Endpoint_ConfigureEndpoint_Prv+0x26>
    50ea:	80 e0       	ldi	r24, 0x00	; 0
    50ec:	08 95       	ret
    50ee:	8f 70       	andi	r24, 0x0F	; 15
    50f0:	80 93 e9 00 	sts	0x00E9, r24	; 0x8000e9 <__TEXT_REGION_LENGTH__+0x7e00e9>
    50f4:	81 e0       	ldi	r24, 0x01	; 1
    50f6:	08 95       	ret

000050f8 <Endpoint_ConfigureEndpointTable>:
    50f8:	0f 93       	push	r16
    50fa:	1f 93       	push	r17
    50fc:	cf 93       	push	r28
    50fe:	df 93       	push	r29
    5100:	06 2f       	mov	r16, r22
    5102:	ec 01       	movw	r28, r24
    5104:	10 e0       	ldi	r17, 0x00	; 0
    5106:	10 17       	cp	r17, r16
    5108:	71 f1       	breq	.+92     	; 0x5166 <Endpoint_ConfigureEndpointTable+0x6e>
    510a:	68 81       	ld	r22, Y
    510c:	61 11       	cpse	r22, r1
    510e:	03 c0       	rjmp	.+6      	; 0x5116 <Endpoint_ConfigureEndpointTable+0x1e>
    5110:	1f 5f       	subi	r17, 0xFF	; 255
    5112:	25 96       	adiw	r28, 0x05	; 5
    5114:	f8 cf       	rjmp	.-16     	; 0x5106 <Endpoint_ConfigureEndpointTable+0xe>
    5116:	2c 81       	ldd	r18, Y+4	; 0x04
    5118:	a9 81       	ldd	r26, Y+1	; 0x01
    511a:	ba 81       	ldd	r27, Y+2	; 0x02
    511c:	9b 81       	ldd	r25, Y+3	; 0x03
    511e:	86 2f       	mov	r24, r22
    5120:	8f 70       	andi	r24, 0x0F	; 15
    5122:	87 30       	cpi	r24, 0x07	; 7
    5124:	10 f0       	brcs	.+4      	; 0x512a <Endpoint_ConfigureEndpointTable+0x32>
    5126:	80 e0       	ldi	r24, 0x00	; 0
    5128:	1f c0       	rjmp	.+62     	; 0x5168 <Endpoint_ConfigureEndpointTable+0x70>
    512a:	22 30       	cpi	r18, 0x02	; 2
    512c:	10 f4       	brcc	.+4      	; 0x5132 <Endpoint_ConfigureEndpointTable+0x3a>
    512e:	42 e0       	ldi	r20, 0x02	; 2
    5130:	01 c0       	rjmp	.+2      	; 0x5134 <Endpoint_ConfigureEndpointTable+0x3c>
    5132:	46 e0       	ldi	r20, 0x06	; 6
    5134:	e8 e0       	ldi	r30, 0x08	; 8
    5136:	f0 e0       	ldi	r31, 0x00	; 0
    5138:	20 e0       	ldi	r18, 0x00	; 0
    513a:	ea 17       	cp	r30, r26
    513c:	fb 07       	cpc	r31, r27
    513e:	20 f4       	brcc	.+8      	; 0x5148 <Endpoint_ConfigureEndpointTable+0x50>
    5140:	2f 5f       	subi	r18, 0xFF	; 255
    5142:	ee 0f       	add	r30, r30
    5144:	ff 1f       	adc	r31, r31
    5146:	f9 cf       	rjmp	.-14     	; 0x513a <Endpoint_ConfigureEndpointTable+0x42>
    5148:	22 95       	swap	r18
    514a:	20 7f       	andi	r18, 0xF0	; 240
    514c:	42 2b       	or	r20, r18
    514e:	50 e4       	ldi	r21, 0x40	; 64
    5150:	95 9f       	mul	r25, r21
    5152:	90 01       	movw	r18, r0
    5154:	11 24       	eor	r1, r1
    5156:	66 1f       	adc	r22, r22
    5158:	66 27       	eor	r22, r22
    515a:	66 1f       	adc	r22, r22
    515c:	62 2b       	or	r22, r18
    515e:	97 df       	rcall	.-210    	; 0x508e <Endpoint_ConfigureEndpoint_Prv>
    5160:	81 11       	cpse	r24, r1
    5162:	d6 cf       	rjmp	.-84     	; 0x5110 <Endpoint_ConfigureEndpointTable+0x18>
    5164:	e0 cf       	rjmp	.-64     	; 0x5126 <Endpoint_ConfigureEndpointTable+0x2e>
    5166:	81 e0       	ldi	r24, 0x01	; 1
    5168:	df 91       	pop	r29
    516a:	cf 91       	pop	r28
    516c:	1f 91       	pop	r17
    516e:	0f 91       	pop	r16
    5170:	08 95       	ret

00005172 <Endpoint_ClearStatusStage>:
    5172:	80 91 65 0c 	lds	r24, 0x0C65	; 0x800c65 <USB_ControlRequest>
    5176:	87 ff       	sbrs	r24, 7
    5178:	11 c0       	rjmp	.+34     	; 0x519c <Endpoint_ClearStatusStage+0x2a>
    517a:	80 91 e8 00 	lds	r24, 0x00E8	; 0x8000e8 <__TEXT_REGION_LENGTH__+0x7e00e8>
    517e:	82 fd       	sbrc	r24, 2
    5180:	05 c0       	rjmp	.+10     	; 0x518c <Endpoint_ClearStatusStage+0x1a>
    5182:	80 91 64 0c 	lds	r24, 0x0C64	; 0x800c64 <USB_DeviceState>
    5186:	81 11       	cpse	r24, r1
    5188:	f8 cf       	rjmp	.-16     	; 0x517a <Endpoint_ClearStatusStage+0x8>
    518a:	11 c0       	rjmp	.+34     	; 0x51ae <Endpoint_ClearStatusStage+0x3c>
    518c:	80 91 e8 00 	lds	r24, 0x00E8	; 0x8000e8 <__TEXT_REGION_LENGTH__+0x7e00e8>
    5190:	8b 77       	andi	r24, 0x7B	; 123
    5192:	0b c0       	rjmp	.+22     	; 0x51aa <Endpoint_ClearStatusStage+0x38>
    5194:	80 91 64 0c 	lds	r24, 0x0C64	; 0x800c64 <USB_DeviceState>
    5198:	88 23       	and	r24, r24
    519a:	49 f0       	breq	.+18     	; 0x51ae <Endpoint_ClearStatusStage+0x3c>
    519c:	80 91 e8 00 	lds	r24, 0x00E8	; 0x8000e8 <__TEXT_REGION_LENGTH__+0x7e00e8>
    51a0:	80 ff       	sbrs	r24, 0
    51a2:	f8 cf       	rjmp	.-16     	; 0x5194 <Endpoint_ClearStatusStage+0x22>
    51a4:	80 91 e8 00 	lds	r24, 0x00E8	; 0x8000e8 <__TEXT_REGION_LENGTH__+0x7e00e8>
    51a8:	8e 77       	andi	r24, 0x7E	; 126
    51aa:	80 93 e8 00 	sts	0x00E8, r24	; 0x8000e8 <__TEXT_REGION_LENGTH__+0x7e00e8>
    51ae:	08 95       	ret

000051b0 <Endpoint_WaitUntilReady>:
    51b0:	20 91 e4 00 	lds	r18, 0x00E4	; 0x8000e4 <__TEXT_REGION_LENGTH__+0x7e00e4>
    51b4:	30 91 e5 00 	lds	r19, 0x00E5	; 0x8000e5 <__TEXT_REGION_LENGTH__+0x7e00e5>
    51b8:	95 e6       	ldi	r25, 0x65	; 101
    51ba:	40 91 ec 00 	lds	r20, 0x00EC	; 0x8000ec <__TEXT_REGION_LENGTH__+0x7e00ec>
    51be:	84 2f       	mov	r24, r20
    51c0:	81 70       	andi	r24, 0x01	; 1
    51c2:	40 ff       	sbrs	r20, 0
    51c4:	23 c0       	rjmp	.+70     	; 0x520c <Endpoint_WaitUntilReady+0x5c>
    51c6:	80 91 e8 00 	lds	r24, 0x00E8	; 0x8000e8 <__TEXT_REGION_LENGTH__+0x7e00e8>
    51ca:	80 fd       	sbrc	r24, 0
    51cc:	1d c0       	rjmp	.+58     	; 0x5208 <Endpoint_WaitUntilReady+0x58>
    51ce:	80 91 64 0c 	lds	r24, 0x0C64	; 0x800c64 <USB_DeviceState>
    51d2:	88 23       	and	r24, r24
    51d4:	99 f0       	breq	.+38     	; 0x51fc <Endpoint_WaitUntilReady+0x4c>
    51d6:	85 30       	cpi	r24, 0x05	; 5
    51d8:	99 f0       	breq	.+38     	; 0x5200 <Endpoint_WaitUntilReady+0x50>
    51da:	80 91 eb 00 	lds	r24, 0x00EB	; 0x8000eb <__TEXT_REGION_LENGTH__+0x7e00eb>
    51de:	85 fd       	sbrc	r24, 5
    51e0:	11 c0       	rjmp	.+34     	; 0x5204 <Endpoint_WaitUntilReady+0x54>
    51e2:	40 91 e4 00 	lds	r20, 0x00E4	; 0x8000e4 <__TEXT_REGION_LENGTH__+0x7e00e4>
    51e6:	50 91 e5 00 	lds	r21, 0x00E5	; 0x8000e5 <__TEXT_REGION_LENGTH__+0x7e00e5>
    51ea:	24 17       	cp	r18, r20
    51ec:	35 07       	cpc	r19, r21
    51ee:	29 f3       	breq	.-54     	; 0x51ba <Endpoint_WaitUntilReady+0xa>
    51f0:	91 50       	subi	r25, 0x01	; 1
    51f2:	11 f0       	breq	.+4      	; 0x51f8 <Endpoint_WaitUntilReady+0x48>
    51f4:	9a 01       	movw	r18, r20
    51f6:	e1 cf       	rjmp	.-62     	; 0x51ba <Endpoint_WaitUntilReady+0xa>
    51f8:	84 e0       	ldi	r24, 0x04	; 4
    51fa:	08 95       	ret
    51fc:	82 e0       	ldi	r24, 0x02	; 2
    51fe:	08 95       	ret
    5200:	83 e0       	ldi	r24, 0x03	; 3
    5202:	08 95       	ret
    5204:	81 e0       	ldi	r24, 0x01	; 1
    5206:	08 95       	ret
    5208:	80 e0       	ldi	r24, 0x00	; 0
    520a:	08 95       	ret
    520c:	40 91 e8 00 	lds	r20, 0x00E8	; 0x8000e8 <__TEXT_REGION_LENGTH__+0x7e00e8>
    5210:	42 ff       	sbrs	r20, 2
    5212:	dd cf       	rjmp	.-70     	; 0x51ce <Endpoint_WaitUntilReady+0x1e>
    5214:	08 95       	ret

00005216 <USB_ResetInterface>:
    5216:	0f 93       	push	r16
    5218:	1f 93       	push	r17
    521a:	cf 93       	push	r28
    521c:	df 93       	push	r29
    521e:	4e d0       	rcall	.+156    	; 0x52bc <USB_INT_DisableAllInterrupts>
    5220:	55 d0       	rcall	.+170    	; 0x52cc <USB_INT_ClearAllInterrupts>
    5222:	c8 ed       	ldi	r28, 0xD8	; 216
    5224:	d0 e0       	ldi	r29, 0x00	; 0
    5226:	88 81       	ld	r24, Y
    5228:	8f 77       	andi	r24, 0x7F	; 127
    522a:	88 83       	st	Y, r24
    522c:	88 81       	ld	r24, Y
    522e:	80 68       	ori	r24, 0x80	; 128
    5230:	88 83       	st	Y, r24
    5232:	88 81       	ld	r24, Y
    5234:	8f 7d       	andi	r24, 0xDF	; 223
    5236:	88 83       	st	Y, r24
    5238:	e7 ed       	ldi	r30, 0xD7	; 215
    523a:	f0 e0       	ldi	r31, 0x00	; 0
    523c:	80 81       	ld	r24, Z
    523e:	80 68       	ori	r24, 0x80	; 128
    5240:	80 83       	st	Z, r24
    5242:	19 bc       	out	0x29, r1	; 41
    5244:	10 92 64 0c 	sts	0x0C64, r1	; 0x800c64 <USB_DeviceState>
    5248:	10 92 60 0c 	sts	0x0C60, r1	; 0x800c60 <USB_Device_ConfigurationNumber>
    524c:	10 92 62 0c 	sts	0x0C62, r1	; 0x800c62 <USB_Device_RemoteWakeupEnabled>
    5250:	10 92 61 0c 	sts	0x0C61, r1	; 0x800c61 <USB_Device_CurrentlySelfPowered>
    5254:	00 ee       	ldi	r16, 0xE0	; 224
    5256:	10 e0       	ldi	r17, 0x00	; 0
    5258:	f8 01       	movw	r30, r16
    525a:	80 81       	ld	r24, Z
    525c:	8b 7f       	andi	r24, 0xFB	; 251
    525e:	80 83       	st	Z, r24
    5260:	88 81       	ld	r24, Y
    5262:	81 60       	ori	r24, 0x01	; 1
    5264:	88 83       	st	Y, r24
    5266:	42 e0       	ldi	r20, 0x02	; 2
    5268:	60 e0       	ldi	r22, 0x00	; 0
    526a:	80 e0       	ldi	r24, 0x00	; 0
    526c:	10 df       	rcall	.-480    	; 0x508e <Endpoint_ConfigureEndpoint_Prv>
    526e:	e1 ee       	ldi	r30, 0xE1	; 225
    5270:	f0 e0       	ldi	r31, 0x00	; 0
    5272:	80 81       	ld	r24, Z
    5274:	8e 7f       	andi	r24, 0xFE	; 254
    5276:	80 83       	st	Z, r24
    5278:	e2 ee       	ldi	r30, 0xE2	; 226
    527a:	f0 e0       	ldi	r31, 0x00	; 0
    527c:	80 81       	ld	r24, Z
    527e:	81 60       	ori	r24, 0x01	; 1
    5280:	80 83       	st	Z, r24
    5282:	80 81       	ld	r24, Z
    5284:	88 60       	ori	r24, 0x08	; 8
    5286:	80 83       	st	Z, r24
    5288:	f8 01       	movw	r30, r16
    528a:	80 81       	ld	r24, Z
    528c:	8e 7f       	andi	r24, 0xFE	; 254
    528e:	80 83       	st	Z, r24
    5290:	88 81       	ld	r24, Y
    5292:	80 61       	ori	r24, 0x10	; 16
    5294:	88 83       	st	Y, r24
    5296:	df 91       	pop	r29
    5298:	cf 91       	pop	r28
    529a:	1f 91       	pop	r17
    529c:	0f 91       	pop	r16
    529e:	08 95       	ret

000052a0 <USB_Init>:
    52a0:	e8 ed       	ldi	r30, 0xD8	; 216
    52a2:	f0 e0       	ldi	r31, 0x00	; 0
    52a4:	80 81       	ld	r24, Z
    52a6:	8f 7e       	andi	r24, 0xEF	; 239
    52a8:	80 83       	st	Z, r24
    52aa:	e7 ed       	ldi	r30, 0xD7	; 215
    52ac:	f0 e0       	ldi	r31, 0x00	; 0
    52ae:	80 81       	ld	r24, Z
    52b0:	81 60       	ori	r24, 0x01	; 1
    52b2:	80 83       	st	Z, r24
    52b4:	81 e0       	ldi	r24, 0x01	; 1
    52b6:	80 93 63 0c 	sts	0x0C63, r24	; 0x800c63 <USB_IsInitialized>
    52ba:	ad cf       	rjmp	.-166    	; 0x5216 <USB_ResetInterface>

000052bc <USB_INT_DisableAllInterrupts>:
    52bc:	e8 ed       	ldi	r30, 0xD8	; 216
    52be:	f0 e0       	ldi	r31, 0x00	; 0
    52c0:	80 81       	ld	r24, Z
    52c2:	8c 7f       	andi	r24, 0xFC	; 252
    52c4:	80 83       	st	Z, r24
    52c6:	10 92 e2 00 	sts	0x00E2, r1	; 0x8000e2 <__TEXT_REGION_LENGTH__+0x7e00e2>
    52ca:	08 95       	ret

000052cc <USB_INT_ClearAllInterrupts>:
    52cc:	10 92 da 00 	sts	0x00DA, r1	; 0x8000da <__TEXT_REGION_LENGTH__+0x7e00da>
    52d0:	10 92 e1 00 	sts	0x00E1, r1	; 0x8000e1 <__TEXT_REGION_LENGTH__+0x7e00e1>
    52d4:	08 95       	ret

000052d6 <__vector_10>:
    52d6:	1f 92       	push	r1
    52d8:	0f 92       	push	r0
    52da:	0f b6       	in	r0, 0x3f	; 63
    52dc:	0f 92       	push	r0
    52de:	11 24       	eor	r1, r1
    52e0:	0b b6       	in	r0, 0x3b	; 59
    52e2:	0f 92       	push	r0
    52e4:	2f 93       	push	r18
    52e6:	3f 93       	push	r19
    52e8:	4f 93       	push	r20
    52ea:	5f 93       	push	r21
    52ec:	6f 93       	push	r22
    52ee:	7f 93       	push	r23
    52f0:	8f 93       	push	r24
    52f2:	9f 93       	push	r25
    52f4:	af 93       	push	r26
    52f6:	bf 93       	push	r27
    52f8:	ef 93       	push	r30
    52fa:	ff 93       	push	r31
    52fc:	80 91 e1 00 	lds	r24, 0x00E1	; 0x8000e1 <__TEXT_REGION_LENGTH__+0x7e00e1>
    5300:	82 ff       	sbrs	r24, 2
    5302:	0b c0       	rjmp	.+22     	; 0x531a <__vector_10+0x44>
    5304:	80 91 e2 00 	lds	r24, 0x00E2	; 0x8000e2 <__TEXT_REGION_LENGTH__+0x7e00e2>
    5308:	82 ff       	sbrs	r24, 2
    530a:	07 c0       	rjmp	.+14     	; 0x531a <__vector_10+0x44>
    530c:	80 91 e1 00 	lds	r24, 0x00E1	; 0x8000e1 <__TEXT_REGION_LENGTH__+0x7e00e1>
    5310:	8b 7f       	andi	r24, 0xFB	; 251
    5312:	80 93 e1 00 	sts	0x00E1, r24	; 0x8000e1 <__TEXT_REGION_LENGTH__+0x7e00e1>
    5316:	0e 94 a0 17 	call	0x2f40	; 0x2f40 <EVENT_USB_Device_StartOfFrame>
    531a:	80 91 da 00 	lds	r24, 0x00DA	; 0x8000da <__TEXT_REGION_LENGTH__+0x7e00da>
    531e:	80 ff       	sbrs	r24, 0
    5320:	1f c0       	rjmp	.+62     	; 0x5360 <__vector_10+0x8a>
    5322:	80 91 d8 00 	lds	r24, 0x00D8	; 0x8000d8 <__TEXT_REGION_LENGTH__+0x7e00d8>
    5326:	80 ff       	sbrs	r24, 0
    5328:	1b c0       	rjmp	.+54     	; 0x5360 <__vector_10+0x8a>
    532a:	80 91 da 00 	lds	r24, 0x00DA	; 0x8000da <__TEXT_REGION_LENGTH__+0x7e00da>
    532e:	8e 7f       	andi	r24, 0xFE	; 254
    5330:	80 93 da 00 	sts	0x00DA, r24	; 0x8000da <__TEXT_REGION_LENGTH__+0x7e00da>
    5334:	80 91 d9 00 	lds	r24, 0x00D9	; 0x8000d9 <__TEXT_REGION_LENGTH__+0x7e00d9>
    5338:	80 ff       	sbrs	r24, 0
    533a:	0d c0       	rjmp	.+26     	; 0x5356 <__vector_10+0x80>
    533c:	84 e1       	ldi	r24, 0x14	; 20
    533e:	89 bd       	out	0x29, r24	; 41
    5340:	86 e1       	ldi	r24, 0x16	; 22
    5342:	89 bd       	out	0x29, r24	; 41
    5344:	09 b4       	in	r0, 0x29	; 41
    5346:	00 fe       	sbrs	r0, 0
    5348:	fd cf       	rjmp	.-6      	; 0x5344 <__vector_10+0x6e>
    534a:	81 e0       	ldi	r24, 0x01	; 1
    534c:	80 93 64 0c 	sts	0x0C64, r24	; 0x800c64 <USB_DeviceState>
    5350:	0e 94 39 17 	call	0x2e72	; 0x2e72 <EVENT_USB_Device_Connect>
    5354:	05 c0       	rjmp	.+10     	; 0x5360 <__vector_10+0x8a>
    5356:	19 bc       	out	0x29, r1	; 41
    5358:	10 92 64 0c 	sts	0x0C64, r1	; 0x800c64 <USB_DeviceState>
    535c:	0e 94 43 17 	call	0x2e86	; 0x2e86 <EVENT_USB_Device_Disconnect>
    5360:	80 91 e1 00 	lds	r24, 0x00E1	; 0x8000e1 <__TEXT_REGION_LENGTH__+0x7e00e1>
    5364:	80 ff       	sbrs	r24, 0
    5366:	18 c0       	rjmp	.+48     	; 0x5398 <__vector_10+0xc2>
    5368:	80 91 e2 00 	lds	r24, 0x00E2	; 0x8000e2 <__TEXT_REGION_LENGTH__+0x7e00e2>
    536c:	80 ff       	sbrs	r24, 0
    536e:	14 c0       	rjmp	.+40     	; 0x5398 <__vector_10+0xc2>
    5370:	80 91 e2 00 	lds	r24, 0x00E2	; 0x8000e2 <__TEXT_REGION_LENGTH__+0x7e00e2>
    5374:	8e 7f       	andi	r24, 0xFE	; 254
    5376:	80 93 e2 00 	sts	0x00E2, r24	; 0x8000e2 <__TEXT_REGION_LENGTH__+0x7e00e2>
    537a:	80 91 e2 00 	lds	r24, 0x00E2	; 0x8000e2 <__TEXT_REGION_LENGTH__+0x7e00e2>
    537e:	80 61       	ori	r24, 0x10	; 16
    5380:	80 93 e2 00 	sts	0x00E2, r24	; 0x8000e2 <__TEXT_REGION_LENGTH__+0x7e00e2>
    5384:	80 91 d8 00 	lds	r24, 0x00D8	; 0x8000d8 <__TEXT_REGION_LENGTH__+0x7e00d8>
    5388:	80 62       	ori	r24, 0x20	; 32
    538a:	80 93 d8 00 	sts	0x00D8, r24	; 0x8000d8 <__TEXT_REGION_LENGTH__+0x7e00d8>
    538e:	19 bc       	out	0x29, r1	; 41
    5390:	85 e0       	ldi	r24, 0x05	; 5
    5392:	80 93 64 0c 	sts	0x0C64, r24	; 0x800c64 <USB_DeviceState>
    5396:	27 d2       	rcall	.+1102   	; 0x57e6 <USB_Event_Stub>
    5398:	80 91 e1 00 	lds	r24, 0x00E1	; 0x8000e1 <__TEXT_REGION_LENGTH__+0x7e00e1>
    539c:	84 ff       	sbrs	r24, 4
    539e:	2f c0       	rjmp	.+94     	; 0x53fe <__vector_10+0x128>
    53a0:	80 91 e2 00 	lds	r24, 0x00E2	; 0x8000e2 <__TEXT_REGION_LENGTH__+0x7e00e2>
    53a4:	84 ff       	sbrs	r24, 4
    53a6:	2b c0       	rjmp	.+86     	; 0x53fe <__vector_10+0x128>
    53a8:	84 e1       	ldi	r24, 0x14	; 20
    53aa:	89 bd       	out	0x29, r24	; 41
    53ac:	86 e1       	ldi	r24, 0x16	; 22
    53ae:	89 bd       	out	0x29, r24	; 41
    53b0:	09 b4       	in	r0, 0x29	; 41
    53b2:	00 fe       	sbrs	r0, 0
    53b4:	fd cf       	rjmp	.-6      	; 0x53b0 <__vector_10+0xda>
    53b6:	80 91 d8 00 	lds	r24, 0x00D8	; 0x8000d8 <__TEXT_REGION_LENGTH__+0x7e00d8>
    53ba:	8f 7d       	andi	r24, 0xDF	; 223
    53bc:	80 93 d8 00 	sts	0x00D8, r24	; 0x8000d8 <__TEXT_REGION_LENGTH__+0x7e00d8>
    53c0:	80 91 e1 00 	lds	r24, 0x00E1	; 0x8000e1 <__TEXT_REGION_LENGTH__+0x7e00e1>
    53c4:	8f 7e       	andi	r24, 0xEF	; 239
    53c6:	80 93 e1 00 	sts	0x00E1, r24	; 0x8000e1 <__TEXT_REGION_LENGTH__+0x7e00e1>
    53ca:	80 91 e2 00 	lds	r24, 0x00E2	; 0x8000e2 <__TEXT_REGION_LENGTH__+0x7e00e2>
    53ce:	8f 7e       	andi	r24, 0xEF	; 239
    53d0:	80 93 e2 00 	sts	0x00E2, r24	; 0x8000e2 <__TEXT_REGION_LENGTH__+0x7e00e2>
    53d4:	80 91 e2 00 	lds	r24, 0x00E2	; 0x8000e2 <__TEXT_REGION_LENGTH__+0x7e00e2>
    53d8:	81 60       	ori	r24, 0x01	; 1
    53da:	80 93 e2 00 	sts	0x00E2, r24	; 0x8000e2 <__TEXT_REGION_LENGTH__+0x7e00e2>
    53de:	80 91 60 0c 	lds	r24, 0x0C60	; 0x800c60 <USB_Device_ConfigurationNumber>
    53e2:	88 23       	and	r24, r24
    53e4:	11 f0       	breq	.+4      	; 0x53ea <__vector_10+0x114>
    53e6:	84 e0       	ldi	r24, 0x04	; 4
    53e8:	07 c0       	rjmp	.+14     	; 0x53f8 <__vector_10+0x122>
    53ea:	80 91 e3 00 	lds	r24, 0x00E3	; 0x8000e3 <__TEXT_REGION_LENGTH__+0x7e00e3>
    53ee:	87 fd       	sbrc	r24, 7
    53f0:	02 c0       	rjmp	.+4      	; 0x53f6 <__vector_10+0x120>
    53f2:	81 e0       	ldi	r24, 0x01	; 1
    53f4:	01 c0       	rjmp	.+2      	; 0x53f8 <__vector_10+0x122>
    53f6:	83 e0       	ldi	r24, 0x03	; 3
    53f8:	80 93 64 0c 	sts	0x0C64, r24	; 0x800c64 <USB_DeviceState>
    53fc:	f4 d1       	rcall	.+1000   	; 0x57e6 <USB_Event_Stub>
    53fe:	80 91 e1 00 	lds	r24, 0x00E1	; 0x8000e1 <__TEXT_REGION_LENGTH__+0x7e00e1>
    5402:	83 ff       	sbrs	r24, 3
    5404:	27 c0       	rjmp	.+78     	; 0x5454 <__vector_10+0x17e>
    5406:	80 91 e2 00 	lds	r24, 0x00E2	; 0x8000e2 <__TEXT_REGION_LENGTH__+0x7e00e2>
    540a:	83 ff       	sbrs	r24, 3
    540c:	23 c0       	rjmp	.+70     	; 0x5454 <__vector_10+0x17e>
    540e:	80 91 e1 00 	lds	r24, 0x00E1	; 0x8000e1 <__TEXT_REGION_LENGTH__+0x7e00e1>
    5412:	87 7f       	andi	r24, 0xF7	; 247
    5414:	80 93 e1 00 	sts	0x00E1, r24	; 0x8000e1 <__TEXT_REGION_LENGTH__+0x7e00e1>
    5418:	82 e0       	ldi	r24, 0x02	; 2
    541a:	80 93 64 0c 	sts	0x0C64, r24	; 0x800c64 <USB_DeviceState>
    541e:	10 92 60 0c 	sts	0x0C60, r1	; 0x800c60 <USB_Device_ConfigurationNumber>
    5422:	80 91 e1 00 	lds	r24, 0x00E1	; 0x8000e1 <__TEXT_REGION_LENGTH__+0x7e00e1>
    5426:	8e 7f       	andi	r24, 0xFE	; 254
    5428:	80 93 e1 00 	sts	0x00E1, r24	; 0x8000e1 <__TEXT_REGION_LENGTH__+0x7e00e1>
    542c:	80 91 e2 00 	lds	r24, 0x00E2	; 0x8000e2 <__TEXT_REGION_LENGTH__+0x7e00e2>
    5430:	8e 7f       	andi	r24, 0xFE	; 254
    5432:	80 93 e2 00 	sts	0x00E2, r24	; 0x8000e2 <__TEXT_REGION_LENGTH__+0x7e00e2>
    5436:	80 91 e2 00 	lds	r24, 0x00E2	; 0x8000e2 <__TEXT_REGION_LENGTH__+0x7e00e2>
    543a:	80 61       	ori	r24, 0x10	; 16
    543c:	80 93 e2 00 	sts	0x00E2, r24	; 0x8000e2 <__TEXT_REGION_LENGTH__+0x7e00e2>
    5440:	42 e0       	ldi	r20, 0x02	; 2
    5442:	60 e0       	ldi	r22, 0x00	; 0
    5444:	80 e0       	ldi	r24, 0x00	; 0
    5446:	23 de       	rcall	.-954    	; 0x508e <Endpoint_ConfigureEndpoint_Prv>
    5448:	80 91 f0 00 	lds	r24, 0x00F0	; 0x8000f0 <__TEXT_REGION_LENGTH__+0x7e00f0>
    544c:	88 60       	ori	r24, 0x08	; 8
    544e:	80 93 f0 00 	sts	0x00F0, r24	; 0x8000f0 <__TEXT_REGION_LENGTH__+0x7e00f0>
    5452:	c9 d1       	rcall	.+914    	; 0x57e6 <USB_Event_Stub>
    5454:	ff 91       	pop	r31
    5456:	ef 91       	pop	r30
    5458:	bf 91       	pop	r27
    545a:	af 91       	pop	r26
    545c:	9f 91       	pop	r25
    545e:	8f 91       	pop	r24
    5460:	7f 91       	pop	r23
    5462:	6f 91       	pop	r22
    5464:	5f 91       	pop	r21
    5466:	4f 91       	pop	r20
    5468:	3f 91       	pop	r19
    546a:	2f 91       	pop	r18
    546c:	0f 90       	pop	r0
    546e:	0b be       	out	0x3b, r0	; 59
    5470:	0f 90       	pop	r0
    5472:	0f be       	out	0x3f, r0	; 63
    5474:	0f 90       	pop	r0
    5476:	1f 90       	pop	r1
    5478:	18 95       	reti

0000547a <__vector_11>:
    547a:	1f 92       	push	r1
    547c:	0f 92       	push	r0
    547e:	0f b6       	in	r0, 0x3f	; 63
    5480:	0f 92       	push	r0
    5482:	11 24       	eor	r1, r1
    5484:	0b b6       	in	r0, 0x3b	; 59
    5486:	0f 92       	push	r0
    5488:	2f 93       	push	r18
    548a:	3f 93       	push	r19
    548c:	4f 93       	push	r20
    548e:	5f 93       	push	r21
    5490:	6f 93       	push	r22
    5492:	7f 93       	push	r23
    5494:	8f 93       	push	r24
    5496:	9f 93       	push	r25
    5498:	af 93       	push	r26
    549a:	bf 93       	push	r27
    549c:	cf 93       	push	r28
    549e:	df 93       	push	r29
    54a0:	ef 93       	push	r30
    54a2:	ff 93       	push	r31
    54a4:	c0 91 e9 00 	lds	r28, 0x00E9	; 0x8000e9 <__TEXT_REGION_LENGTH__+0x7e00e9>
    54a8:	cf 70       	andi	r28, 0x0F	; 15
    54aa:	80 91 ec 00 	lds	r24, 0x00EC	; 0x8000ec <__TEXT_REGION_LENGTH__+0x7e00ec>
    54ae:	d8 2f       	mov	r29, r24
    54b0:	d1 70       	andi	r29, 0x01	; 1
    54b2:	80 fd       	sbrc	r24, 0
    54b4:	d0 e8       	ldi	r29, 0x80	; 128
    54b6:	10 92 e9 00 	sts	0x00E9, r1	; 0x8000e9 <__TEXT_REGION_LENGTH__+0x7e00e9>
    54ba:	80 91 f0 00 	lds	r24, 0x00F0	; 0x8000f0 <__TEXT_REGION_LENGTH__+0x7e00f0>
    54be:	87 7f       	andi	r24, 0xF7	; 247
    54c0:	80 93 f0 00 	sts	0x00F0, r24	; 0x8000f0 <__TEXT_REGION_LENGTH__+0x7e00f0>
    54c4:	78 94       	sei
    54c6:	20 d0       	rcall	.+64     	; 0x5508 <USB_Device_ProcessControlRequest>
    54c8:	10 92 e9 00 	sts	0x00E9, r1	; 0x8000e9 <__TEXT_REGION_LENGTH__+0x7e00e9>
    54cc:	80 91 f0 00 	lds	r24, 0x00F0	; 0x8000f0 <__TEXT_REGION_LENGTH__+0x7e00f0>
    54d0:	88 60       	ori	r24, 0x08	; 8
    54d2:	80 93 f0 00 	sts	0x00F0, r24	; 0x8000f0 <__TEXT_REGION_LENGTH__+0x7e00f0>
    54d6:	cd 2b       	or	r28, r29
    54d8:	cf 70       	andi	r28, 0x0F	; 15
    54da:	c0 93 e9 00 	sts	0x00E9, r28	; 0x8000e9 <__TEXT_REGION_LENGTH__+0x7e00e9>
    54de:	ff 91       	pop	r31
    54e0:	ef 91       	pop	r30
    54e2:	df 91       	pop	r29
    54e4:	cf 91       	pop	r28
    54e6:	bf 91       	pop	r27
    54e8:	af 91       	pop	r26
    54ea:	9f 91       	pop	r25
    54ec:	8f 91       	pop	r24
    54ee:	7f 91       	pop	r23
    54f0:	6f 91       	pop	r22
    54f2:	5f 91       	pop	r21
    54f4:	4f 91       	pop	r20
    54f6:	3f 91       	pop	r19
    54f8:	2f 91       	pop	r18
    54fa:	0f 90       	pop	r0
    54fc:	0b be       	out	0x3b, r0	; 59
    54fe:	0f 90       	pop	r0
    5500:	0f be       	out	0x3f, r0	; 63
    5502:	0f 90       	pop	r0
    5504:	1f 90       	pop	r1
    5506:	18 95       	reti

00005508 <USB_Device_ProcessControlRequest>:
    5508:	1f 93       	push	r17
    550a:	cf 93       	push	r28
    550c:	df 93       	push	r29
    550e:	cd b7       	in	r28, 0x3d	; 61
    5510:	de b7       	in	r29, 0x3e	; 62
    5512:	aa 97       	sbiw	r28, 0x2a	; 42
    5514:	0f b6       	in	r0, 0x3f	; 63
    5516:	f8 94       	cli
    5518:	de bf       	out	0x3e, r29	; 62
    551a:	0f be       	out	0x3f, r0	; 63
    551c:	cd bf       	out	0x3d, r28	; 61
    551e:	e5 e6       	ldi	r30, 0x65	; 101
    5520:	fc e0       	ldi	r31, 0x0C	; 12
    5522:	80 91 f1 00 	lds	r24, 0x00F1	; 0x8000f1 <__TEXT_REGION_LENGTH__+0x7e00f1>
    5526:	81 93       	st	Z+, r24
    5528:	2c e0       	ldi	r18, 0x0C	; 12
    552a:	ed 36       	cpi	r30, 0x6D	; 109
    552c:	f2 07       	cpc	r31, r18
    552e:	c9 f7       	brne	.-14     	; 0x5522 <USB_Device_ProcessControlRequest+0x1a>
    5530:	0e 94 6d 17 	call	0x2eda	; 0x2eda <EVENT_USB_Device_ControlRequest>
    5534:	80 91 e8 00 	lds	r24, 0x00E8	; 0x8000e8 <__TEXT_REGION_LENGTH__+0x7e00e8>
    5538:	83 ff       	sbrs	r24, 3
    553a:	3d c1       	rjmp	.+634    	; 0x57b6 <USB_Device_ProcessControlRequest+0x2ae>
    553c:	80 91 65 0c 	lds	r24, 0x0C65	; 0x800c65 <USB_ControlRequest>
    5540:	90 91 66 0c 	lds	r25, 0x0C66	; 0x800c66 <USB_ControlRequest+0x1>
    5544:	95 30       	cpi	r25, 0x05	; 5
    5546:	09 f4       	brne	.+2      	; 0x554a <USB_Device_ProcessControlRequest+0x42>
    5548:	83 c0       	rjmp	.+262    	; 0x5650 <USB_Device_ProcessControlRequest+0x148>
    554a:	30 f4       	brcc	.+12     	; 0x5558 <USB_Device_ProcessControlRequest+0x50>
    554c:	91 30       	cpi	r25, 0x01	; 1
    554e:	a9 f1       	breq	.+106    	; 0x55ba <USB_Device_ProcessControlRequest+0xb2>
    5550:	68 f0       	brcs	.+26     	; 0x556c <USB_Device_ProcessControlRequest+0x64>
    5552:	93 30       	cpi	r25, 0x03	; 3
    5554:	91 f1       	breq	.+100    	; 0x55ba <USB_Device_ProcessControlRequest+0xb2>
    5556:	2f c1       	rjmp	.+606    	; 0x57b6 <USB_Device_ProcessControlRequest+0x2ae>
    5558:	98 30       	cpi	r25, 0x08	; 8
    555a:	09 f4       	brne	.+2      	; 0x555e <USB_Device_ProcessControlRequest+0x56>
    555c:	fb c0       	rjmp	.+502    	; 0x5754 <USB_Device_ProcessControlRequest+0x24c>
    555e:	99 30       	cpi	r25, 0x09	; 9
    5560:	09 f4       	brne	.+2      	; 0x5564 <USB_Device_ProcessControlRequest+0x5c>
    5562:	07 c1       	rjmp	.+526    	; 0x5772 <USB_Device_ProcessControlRequest+0x26a>
    5564:	96 30       	cpi	r25, 0x06	; 6
    5566:	09 f0       	breq	.+2      	; 0x556a <USB_Device_ProcessControlRequest+0x62>
    5568:	26 c1       	rjmp	.+588    	; 0x57b6 <USB_Device_ProcessControlRequest+0x2ae>
    556a:	94 c0       	rjmp	.+296    	; 0x5694 <USB_Device_ProcessControlRequest+0x18c>
    556c:	80 38       	cpi	r24, 0x80	; 128
    556e:	21 f0       	breq	.+8      	; 0x5578 <USB_Device_ProcessControlRequest+0x70>
    5570:	82 38       	cpi	r24, 0x82	; 130
    5572:	09 f0       	breq	.+2      	; 0x5576 <USB_Device_ProcessControlRequest+0x6e>
    5574:	20 c1       	rjmp	.+576    	; 0x57b6 <USB_Device_ProcessControlRequest+0x2ae>
    5576:	08 c0       	rjmp	.+16     	; 0x5588 <USB_Device_ProcessControlRequest+0x80>
    5578:	80 91 61 0c 	lds	r24, 0x0C61	; 0x800c61 <USB_Device_CurrentlySelfPowered>
    557c:	90 91 62 0c 	lds	r25, 0x0C62	; 0x800c62 <USB_Device_RemoteWakeupEnabled>
    5580:	99 23       	and	r25, r25
    5582:	89 f0       	breq	.+34     	; 0x55a6 <USB_Device_ProcessControlRequest+0x9e>
    5584:	82 60       	ori	r24, 0x02	; 2
    5586:	0f c0       	rjmp	.+30     	; 0x55a6 <USB_Device_ProcessControlRequest+0x9e>
    5588:	80 91 69 0c 	lds	r24, 0x0C69	; 0x800c69 <USB_ControlRequest+0x4>
    558c:	8f 70       	andi	r24, 0x0F	; 15
    558e:	87 30       	cpi	r24, 0x07	; 7
    5590:	08 f0       	brcs	.+2      	; 0x5594 <USB_Device_ProcessControlRequest+0x8c>
    5592:	11 c1       	rjmp	.+546    	; 0x57b6 <USB_Device_ProcessControlRequest+0x2ae>
    5594:	80 93 e9 00 	sts	0x00E9, r24	; 0x8000e9 <__TEXT_REGION_LENGTH__+0x7e00e9>
    5598:	80 91 eb 00 	lds	r24, 0x00EB	; 0x8000eb <__TEXT_REGION_LENGTH__+0x7e00eb>
    559c:	85 fb       	bst	r24, 5
    559e:	88 27       	eor	r24, r24
    55a0:	80 f9       	bld	r24, 0
    55a2:	10 92 e9 00 	sts	0x00E9, r1	; 0x8000e9 <__TEXT_REGION_LENGTH__+0x7e00e9>
    55a6:	90 91 e8 00 	lds	r25, 0x00E8	; 0x8000e8 <__TEXT_REGION_LENGTH__+0x7e00e8>
    55aa:	97 7f       	andi	r25, 0xF7	; 247
    55ac:	90 93 e8 00 	sts	0x00E8, r25	; 0x8000e8 <__TEXT_REGION_LENGTH__+0x7e00e8>
    55b0:	80 93 f1 00 	sts	0x00F1, r24	; 0x8000f1 <__TEXT_REGION_LENGTH__+0x7e00f1>
    55b4:	10 92 f1 00 	sts	0x00F1, r1	; 0x8000f1 <__TEXT_REGION_LENGTH__+0x7e00f1>
    55b8:	d8 c0       	rjmp	.+432    	; 0x576a <USB_Device_ProcessControlRequest+0x262>
    55ba:	28 2f       	mov	r18, r24
    55bc:	2d 7f       	andi	r18, 0xFD	; 253
    55be:	09 f0       	breq	.+2      	; 0x55c2 <USB_Device_ProcessControlRequest+0xba>
    55c0:	fa c0       	rjmp	.+500    	; 0x57b6 <USB_Device_ProcessControlRequest+0x2ae>
    55c2:	88 23       	and	r24, r24
    55c4:	19 f0       	breq	.+6      	; 0x55cc <USB_Device_ProcessControlRequest+0xc4>
    55c6:	82 30       	cpi	r24, 0x02	; 2
    55c8:	61 f0       	breq	.+24     	; 0x55e2 <USB_Device_ProcessControlRequest+0xda>
    55ca:	f5 c0       	rjmp	.+490    	; 0x57b6 <USB_Device_ProcessControlRequest+0x2ae>
    55cc:	80 91 67 0c 	lds	r24, 0x0C67	; 0x800c67 <USB_ControlRequest+0x2>
    55d0:	81 30       	cpi	r24, 0x01	; 1
    55d2:	09 f0       	breq	.+2      	; 0x55d6 <USB_Device_ProcessControlRequest+0xce>
    55d4:	f0 c0       	rjmp	.+480    	; 0x57b6 <USB_Device_ProcessControlRequest+0x2ae>
    55d6:	93 30       	cpi	r25, 0x03	; 3
    55d8:	09 f0       	breq	.+2      	; 0x55dc <USB_Device_ProcessControlRequest+0xd4>
    55da:	80 e0       	ldi	r24, 0x00	; 0
    55dc:	80 93 62 0c 	sts	0x0C62, r24	; 0x800c62 <USB_Device_RemoteWakeupEnabled>
    55e0:	2e c0       	rjmp	.+92     	; 0x563e <USB_Device_ProcessControlRequest+0x136>
    55e2:	80 91 67 0c 	lds	r24, 0x0C67	; 0x800c67 <USB_ControlRequest+0x2>
    55e6:	81 11       	cpse	r24, r1
    55e8:	2a c0       	rjmp	.+84     	; 0x563e <USB_Device_ProcessControlRequest+0x136>
    55ea:	80 91 69 0c 	lds	r24, 0x0C69	; 0x800c69 <USB_ControlRequest+0x4>
    55ee:	8f 70       	andi	r24, 0x0F	; 15
    55f0:	2f ef       	ldi	r18, 0xFF	; 255
    55f2:	28 0f       	add	r18, r24
    55f4:	26 30       	cpi	r18, 0x06	; 6
    55f6:	08 f0       	brcs	.+2      	; 0x55fa <USB_Device_ProcessControlRequest+0xf2>
    55f8:	de c0       	rjmp	.+444    	; 0x57b6 <USB_Device_ProcessControlRequest+0x2ae>
    55fa:	80 93 e9 00 	sts	0x00E9, r24	; 0x8000e9 <__TEXT_REGION_LENGTH__+0x7e00e9>
    55fe:	20 91 eb 00 	lds	r18, 0x00EB	; 0x8000eb <__TEXT_REGION_LENGTH__+0x7e00eb>
    5602:	20 ff       	sbrs	r18, 0
    5604:	1c c0       	rjmp	.+56     	; 0x563e <USB_Device_ProcessControlRequest+0x136>
    5606:	93 30       	cpi	r25, 0x03	; 3
    5608:	21 f4       	brne	.+8      	; 0x5612 <USB_Device_ProcessControlRequest+0x10a>
    560a:	80 91 eb 00 	lds	r24, 0x00EB	; 0x8000eb <__TEXT_REGION_LENGTH__+0x7e00eb>
    560e:	80 62       	ori	r24, 0x20	; 32
    5610:	14 c0       	rjmp	.+40     	; 0x563a <USB_Device_ProcessControlRequest+0x132>
    5612:	90 91 eb 00 	lds	r25, 0x00EB	; 0x8000eb <__TEXT_REGION_LENGTH__+0x7e00eb>
    5616:	90 61       	ori	r25, 0x10	; 16
    5618:	90 93 eb 00 	sts	0x00EB, r25	; 0x8000eb <__TEXT_REGION_LENGTH__+0x7e00eb>
    561c:	21 e0       	ldi	r18, 0x01	; 1
    561e:	30 e0       	ldi	r19, 0x00	; 0
    5620:	a9 01       	movw	r20, r18
    5622:	02 c0       	rjmp	.+4      	; 0x5628 <USB_Device_ProcessControlRequest+0x120>
    5624:	44 0f       	add	r20, r20
    5626:	55 1f       	adc	r21, r21
    5628:	8a 95       	dec	r24
    562a:	e2 f7       	brpl	.-8      	; 0x5624 <USB_Device_ProcessControlRequest+0x11c>
    562c:	40 93 ea 00 	sts	0x00EA, r20	; 0x8000ea <__TEXT_REGION_LENGTH__+0x7e00ea>
    5630:	10 92 ea 00 	sts	0x00EA, r1	; 0x8000ea <__TEXT_REGION_LENGTH__+0x7e00ea>
    5634:	80 91 eb 00 	lds	r24, 0x00EB	; 0x8000eb <__TEXT_REGION_LENGTH__+0x7e00eb>
    5638:	88 60       	ori	r24, 0x08	; 8
    563a:	80 93 eb 00 	sts	0x00EB, r24	; 0x8000eb <__TEXT_REGION_LENGTH__+0x7e00eb>
    563e:	10 92 e9 00 	sts	0x00E9, r1	; 0x8000e9 <__TEXT_REGION_LENGTH__+0x7e00e9>
    5642:	80 91 e8 00 	lds	r24, 0x00E8	; 0x8000e8 <__TEXT_REGION_LENGTH__+0x7e00e8>
    5646:	87 7f       	andi	r24, 0xF7	; 247
    5648:	80 93 e8 00 	sts	0x00E8, r24	; 0x8000e8 <__TEXT_REGION_LENGTH__+0x7e00e8>
    564c:	92 dd       	rcall	.-1244   	; 0x5172 <Endpoint_ClearStatusStage>
    564e:	b3 c0       	rjmp	.+358    	; 0x57b6 <USB_Device_ProcessControlRequest+0x2ae>
    5650:	81 11       	cpse	r24, r1
    5652:	b1 c0       	rjmp	.+354    	; 0x57b6 <USB_Device_ProcessControlRequest+0x2ae>
    5654:	10 91 67 0c 	lds	r17, 0x0C67	; 0x800c67 <USB_ControlRequest+0x2>
    5658:	1f 77       	andi	r17, 0x7F	; 127
    565a:	80 91 e3 00 	lds	r24, 0x00E3	; 0x8000e3 <__TEXT_REGION_LENGTH__+0x7e00e3>
    565e:	80 78       	andi	r24, 0x80	; 128
    5660:	81 2b       	or	r24, r17
    5662:	80 93 e3 00 	sts	0x00E3, r24	; 0x8000e3 <__TEXT_REGION_LENGTH__+0x7e00e3>
    5666:	80 91 e8 00 	lds	r24, 0x00E8	; 0x8000e8 <__TEXT_REGION_LENGTH__+0x7e00e8>
    566a:	87 7f       	andi	r24, 0xF7	; 247
    566c:	80 93 e8 00 	sts	0x00E8, r24	; 0x8000e8 <__TEXT_REGION_LENGTH__+0x7e00e8>
    5670:	80 dd       	rcall	.-1280   	; 0x5172 <Endpoint_ClearStatusStage>
    5672:	80 91 e8 00 	lds	r24, 0x00E8	; 0x8000e8 <__TEXT_REGION_LENGTH__+0x7e00e8>
    5676:	80 ff       	sbrs	r24, 0
    5678:	fc cf       	rjmp	.-8      	; 0x5672 <USB_Device_ProcessControlRequest+0x16a>
    567a:	80 91 e3 00 	lds	r24, 0x00E3	; 0x8000e3 <__TEXT_REGION_LENGTH__+0x7e00e3>
    567e:	80 68       	ori	r24, 0x80	; 128
    5680:	80 93 e3 00 	sts	0x00E3, r24	; 0x8000e3 <__TEXT_REGION_LENGTH__+0x7e00e3>
    5684:	11 11       	cpse	r17, r1
    5686:	02 c0       	rjmp	.+4      	; 0x568c <USB_Device_ProcessControlRequest+0x184>
    5688:	82 e0       	ldi	r24, 0x02	; 2
    568a:	01 c0       	rjmp	.+2      	; 0x568e <USB_Device_ProcessControlRequest+0x186>
    568c:	83 e0       	ldi	r24, 0x03	; 3
    568e:	80 93 64 0c 	sts	0x0C64, r24	; 0x800c64 <USB_DeviceState>
    5692:	91 c0       	rjmp	.+290    	; 0x57b6 <USB_Device_ProcessControlRequest+0x2ae>
    5694:	80 58       	subi	r24, 0x80	; 128
    5696:	82 30       	cpi	r24, 0x02	; 2
    5698:	08 f0       	brcs	.+2      	; 0x569c <USB_Device_ProcessControlRequest+0x194>
    569a:	8d c0       	rjmp	.+282    	; 0x57b6 <USB_Device_ProcessControlRequest+0x2ae>
    569c:	80 91 67 0c 	lds	r24, 0x0C67	; 0x800c67 <USB_ControlRequest+0x2>
    56a0:	90 91 68 0c 	lds	r25, 0x0C68	; 0x800c68 <USB_ControlRequest+0x3>
    56a4:	8c 3d       	cpi	r24, 0xDC	; 220
    56a6:	53 e0       	ldi	r21, 0x03	; 3
    56a8:	95 07       	cpc	r25, r21
    56aa:	c9 f5       	brne	.+114    	; 0x571e <USB_Device_ProcessControlRequest+0x216>
    56ac:	83 e0       	ldi	r24, 0x03	; 3
    56ae:	8a 83       	std	Y+2, r24	; 0x02
    56b0:	8a e2       	ldi	r24, 0x2A	; 42
    56b2:	89 83       	std	Y+1, r24	; 0x01
    56b4:	6f b7       	in	r22, 0x3f	; 63
    56b6:	f8 94       	cli
    56b8:	de 01       	movw	r26, r28
    56ba:	13 96       	adiw	r26, 0x03	; 3
    56bc:	40 e0       	ldi	r20, 0x00	; 0
    56be:	5e e0       	ldi	r21, 0x0E	; 14
    56c0:	cd 01       	movw	r24, r26
    56c2:	71 e2       	ldi	r23, 0x21	; 33
    56c4:	e5 2f       	mov	r30, r21
    56c6:	f0 e0       	ldi	r31, 0x00	; 0
    56c8:	70 93 57 00 	sts	0x0057, r23	; 0x800057 <__TEXT_REGION_LENGTH__+0x7e0057>
    56cc:	e4 91       	lpm	r30, Z
    56ce:	40 ff       	sbrs	r20, 0
    56d0:	03 c0       	rjmp	.+6      	; 0x56d8 <USB_Device_ProcessControlRequest+0x1d0>
    56d2:	e2 95       	swap	r30
    56d4:	ef 70       	andi	r30, 0x0F	; 15
    56d6:	5f 5f       	subi	r21, 0xFF	; 255
    56d8:	ef 70       	andi	r30, 0x0F	; 15
    56da:	2e 2f       	mov	r18, r30
    56dc:	30 e0       	ldi	r19, 0x00	; 0
    56de:	ea 30       	cpi	r30, 0x0A	; 10
    56e0:	18 f0       	brcs	.+6      	; 0x56e8 <USB_Device_ProcessControlRequest+0x1e0>
    56e2:	29 5c       	subi	r18, 0xC9	; 201
    56e4:	3f 4f       	sbci	r19, 0xFF	; 255
    56e6:	02 c0       	rjmp	.+4      	; 0x56ec <USB_Device_ProcessControlRequest+0x1e4>
    56e8:	20 5d       	subi	r18, 0xD0	; 208
    56ea:	3f 4f       	sbci	r19, 0xFF	; 255
    56ec:	2d 93       	st	X+, r18
    56ee:	3d 93       	st	X+, r19
    56f0:	4f 5f       	subi	r20, 0xFF	; 255
    56f2:	44 31       	cpi	r20, 0x14	; 20
    56f4:	39 f7       	brne	.-50     	; 0x56c4 <USB_Device_ProcessControlRequest+0x1bc>
    56f6:	6f bf       	out	0x3f, r22	; 63
    56f8:	e0 91 2d 01 	lds	r30, 0x012D	; 0x80012d <LUFA_DREG_HOOK_INTERNAL_SERIAL>
    56fc:	f0 91 2e 01 	lds	r31, 0x012E	; 0x80012e <LUFA_DREG_HOOK_INTERNAL_SERIAL+0x1>
    5700:	30 97       	sbiw	r30, 0x00	; 0
    5702:	19 f0       	breq	.+6      	; 0x570a <USB_Device_ProcessControlRequest+0x202>
    5704:	64 e1       	ldi	r22, 0x14	; 20
    5706:	70 e0       	ldi	r23, 0x00	; 0
    5708:	09 95       	icall
    570a:	80 91 e8 00 	lds	r24, 0x00E8	; 0x8000e8 <__TEXT_REGION_LENGTH__+0x7e00e8>
    570e:	87 7f       	andi	r24, 0xF7	; 247
    5710:	80 93 e8 00 	sts	0x00E8, r24	; 0x8000e8 <__TEXT_REGION_LENGTH__+0x7e00e8>
    5714:	6a e2       	ldi	r22, 0x2A	; 42
    5716:	70 e0       	ldi	r23, 0x00	; 0
    5718:	ce 01       	movw	r24, r28
    571a:	01 96       	adiw	r24, 0x01	; 1
    571c:	14 c0       	rjmp	.+40     	; 0x5746 <USB_Device_ProcessControlRequest+0x23e>
    571e:	60 91 69 0c 	lds	r22, 0x0C69	; 0x800c69 <USB_ControlRequest+0x4>
    5722:	70 91 6a 0c 	lds	r23, 0x0C6A	; 0x800c6a <USB_ControlRequest+0x5>
    5726:	ae 01       	movw	r20, r28
    5728:	4f 5f       	subi	r20, 0xFF	; 255
    572a:	5f 4f       	sbci	r21, 0xFF	; 255
    572c:	0e 94 6c 02 	call	0x4d8	; 0x4d8 <CALLBACK_USB_GetDescriptor>
    5730:	bc 01       	movw	r22, r24
    5732:	89 2b       	or	r24, r25
    5734:	09 f4       	brne	.+2      	; 0x5738 <USB_Device_ProcessControlRequest+0x230>
    5736:	3f c0       	rjmp	.+126    	; 0x57b6 <USB_Device_ProcessControlRequest+0x2ae>
    5738:	90 91 e8 00 	lds	r25, 0x00E8	; 0x8000e8 <__TEXT_REGION_LENGTH__+0x7e00e8>
    573c:	97 7f       	andi	r25, 0xF7	; 247
    573e:	90 93 e8 00 	sts	0x00E8, r25	; 0x8000e8 <__TEXT_REGION_LENGTH__+0x7e00e8>
    5742:	89 81       	ldd	r24, Y+1	; 0x01
    5744:	9a 81       	ldd	r25, Y+2	; 0x02
    5746:	09 dc       	rcall	.-2030   	; 0x4f5a <Endpoint_Write_Control_Stream_LE>
    5748:	80 91 e8 00 	lds	r24, 0x00E8	; 0x8000e8 <__TEXT_REGION_LENGTH__+0x7e00e8>
    574c:	8b 77       	andi	r24, 0x7B	; 123
    574e:	80 93 e8 00 	sts	0x00E8, r24	; 0x8000e8 <__TEXT_REGION_LENGTH__+0x7e00e8>
    5752:	31 c0       	rjmp	.+98     	; 0x57b6 <USB_Device_ProcessControlRequest+0x2ae>
    5754:	80 38       	cpi	r24, 0x80	; 128
    5756:	79 f5       	brne	.+94     	; 0x57b6 <USB_Device_ProcessControlRequest+0x2ae>
    5758:	80 91 e8 00 	lds	r24, 0x00E8	; 0x8000e8 <__TEXT_REGION_LENGTH__+0x7e00e8>
    575c:	87 7f       	andi	r24, 0xF7	; 247
    575e:	80 93 e8 00 	sts	0x00E8, r24	; 0x8000e8 <__TEXT_REGION_LENGTH__+0x7e00e8>
    5762:	80 91 60 0c 	lds	r24, 0x0C60	; 0x800c60 <USB_Device_ConfigurationNumber>
    5766:	80 93 f1 00 	sts	0x00F1, r24	; 0x8000f1 <__TEXT_REGION_LENGTH__+0x7e00f1>
    576a:	80 91 e8 00 	lds	r24, 0x00E8	; 0x8000e8 <__TEXT_REGION_LENGTH__+0x7e00e8>
    576e:	8e 77       	andi	r24, 0x7E	; 126
    5770:	6b cf       	rjmp	.-298    	; 0x5648 <USB_Device_ProcessControlRequest+0x140>
    5772:	81 11       	cpse	r24, r1
    5774:	20 c0       	rjmp	.+64     	; 0x57b6 <USB_Device_ProcessControlRequest+0x2ae>
    5776:	80 91 67 0c 	lds	r24, 0x0C67	; 0x800c67 <USB_ControlRequest+0x2>
    577a:	90 91 68 0c 	lds	r25, 0x0C68	; 0x800c68 <USB_ControlRequest+0x3>
    577e:	99 27       	eor	r25, r25
    5780:	02 97       	sbiw	r24, 0x02	; 2
    5782:	cc f4       	brge	.+50     	; 0x57b6 <USB_Device_ProcessControlRequest+0x2ae>
    5784:	80 91 e8 00 	lds	r24, 0x00E8	; 0x8000e8 <__TEXT_REGION_LENGTH__+0x7e00e8>
    5788:	87 7f       	andi	r24, 0xF7	; 247
    578a:	80 93 e8 00 	sts	0x00E8, r24	; 0x8000e8 <__TEXT_REGION_LENGTH__+0x7e00e8>
    578e:	80 91 67 0c 	lds	r24, 0x0C67	; 0x800c67 <USB_ControlRequest+0x2>
    5792:	80 93 60 0c 	sts	0x0C60, r24	; 0x800c60 <USB_Device_ConfigurationNumber>
    5796:	ed dc       	rcall	.-1574   	; 0x5172 <Endpoint_ClearStatusStage>
    5798:	80 91 60 0c 	lds	r24, 0x0C60	; 0x800c60 <USB_Device_ConfigurationNumber>
    579c:	81 11       	cpse	r24, r1
    579e:	06 c0       	rjmp	.+12     	; 0x57ac <USB_Device_ProcessControlRequest+0x2a4>
    57a0:	80 91 e3 00 	lds	r24, 0x00E3	; 0x8000e3 <__TEXT_REGION_LENGTH__+0x7e00e3>
    57a4:	87 fd       	sbrc	r24, 7
    57a6:	02 c0       	rjmp	.+4      	; 0x57ac <USB_Device_ProcessControlRequest+0x2a4>
    57a8:	81 e0       	ldi	r24, 0x01	; 1
    57aa:	01 c0       	rjmp	.+2      	; 0x57ae <USB_Device_ProcessControlRequest+0x2a6>
    57ac:	84 e0       	ldi	r24, 0x04	; 4
    57ae:	80 93 64 0c 	sts	0x0C64, r24	; 0x800c64 <USB_DeviceState>
    57b2:	0e 94 4d 17 	call	0x2e9a	; 0x2e9a <EVENT_USB_Device_ConfigurationChanged>
    57b6:	80 91 e8 00 	lds	r24, 0x00E8	; 0x8000e8 <__TEXT_REGION_LENGTH__+0x7e00e8>
    57ba:	83 ff       	sbrs	r24, 3
    57bc:	0a c0       	rjmp	.+20     	; 0x57d2 <USB_Device_ProcessControlRequest+0x2ca>
    57be:	80 91 e8 00 	lds	r24, 0x00E8	; 0x8000e8 <__TEXT_REGION_LENGTH__+0x7e00e8>
    57c2:	87 7f       	andi	r24, 0xF7	; 247
    57c4:	80 93 e8 00 	sts	0x00E8, r24	; 0x8000e8 <__TEXT_REGION_LENGTH__+0x7e00e8>
    57c8:	80 91 eb 00 	lds	r24, 0x00EB	; 0x8000eb <__TEXT_REGION_LENGTH__+0x7e00eb>
    57cc:	80 62       	ori	r24, 0x20	; 32
    57ce:	80 93 eb 00 	sts	0x00EB, r24	; 0x8000eb <__TEXT_REGION_LENGTH__+0x7e00eb>
    57d2:	aa 96       	adiw	r28, 0x2a	; 42
    57d4:	0f b6       	in	r0, 0x3f	; 63
    57d6:	f8 94       	cli
    57d8:	de bf       	out	0x3e, r29	; 62
    57da:	0f be       	out	0x3f, r0	; 63
    57dc:	cd bf       	out	0x3d, r28	; 61
    57de:	df 91       	pop	r29
    57e0:	cf 91       	pop	r28
    57e2:	1f 91       	pop	r17
    57e4:	08 95       	ret

000057e6 <USB_Event_Stub>:
    57e6:	08 95       	ret

000057e8 <USB_USBTask>:
    57e8:	cf 93       	push	r28
    57ea:	80 91 64 0c 	lds	r24, 0x0C64	; 0x800c64 <USB_DeviceState>
    57ee:	88 23       	and	r24, r24
    57f0:	99 f0       	breq	.+38     	; 0x5818 <USB_USBTask+0x30>
    57f2:	c0 91 e9 00 	lds	r28, 0x00E9	; 0x8000e9 <__TEXT_REGION_LENGTH__+0x7e00e9>
    57f6:	cf 70       	andi	r28, 0x0F	; 15
    57f8:	90 91 ec 00 	lds	r25, 0x00EC	; 0x8000ec <__TEXT_REGION_LENGTH__+0x7e00ec>
    57fc:	89 2f       	mov	r24, r25
    57fe:	81 70       	andi	r24, 0x01	; 1
    5800:	90 fd       	sbrc	r25, 0
    5802:	80 e8       	ldi	r24, 0x80	; 128
    5804:	c8 2b       	or	r28, r24
    5806:	10 92 e9 00 	sts	0x00E9, r1	; 0x8000e9 <__TEXT_REGION_LENGTH__+0x7e00e9>
    580a:	80 91 e8 00 	lds	r24, 0x00E8	; 0x8000e8 <__TEXT_REGION_LENGTH__+0x7e00e8>
    580e:	83 fd       	sbrc	r24, 3
    5810:	7b de       	rcall	.-778    	; 0x5508 <USB_Device_ProcessControlRequest>
    5812:	cf 70       	andi	r28, 0x0F	; 15
    5814:	c0 93 e9 00 	sts	0x00E9, r28	; 0x8000e9 <__TEXT_REGION_LENGTH__+0x7e00e9>
    5818:	cf 91       	pop	r28
    581a:	08 95       	ret

0000581c <__udivmodqi4>:
    581c:	99 1b       	sub	r25, r25
    581e:	79 e0       	ldi	r23, 0x09	; 9
    5820:	04 c0       	rjmp	.+8      	; 0x582a <__udivmodqi4_ep>

00005822 <__udivmodqi4_loop>:
    5822:	99 1f       	adc	r25, r25
    5824:	96 17       	cp	r25, r22
    5826:	08 f0       	brcs	.+2      	; 0x582a <__udivmodqi4_ep>
    5828:	96 1b       	sub	r25, r22

0000582a <__udivmodqi4_ep>:
    582a:	88 1f       	adc	r24, r24
    582c:	7a 95       	dec	r23
    582e:	c9 f7       	brne	.-14     	; 0x5822 <__udivmodqi4_loop>
    5830:	80 95       	com	r24
    5832:	08 95       	ret

00005834 <__udivmodhi4>:
    5834:	aa 1b       	sub	r26, r26
    5836:	bb 1b       	sub	r27, r27
    5838:	51 e1       	ldi	r21, 0x11	; 17
    583a:	07 c0       	rjmp	.+14     	; 0x584a <__udivmodhi4_ep>

0000583c <__udivmodhi4_loop>:
    583c:	aa 1f       	adc	r26, r26
    583e:	bb 1f       	adc	r27, r27
    5840:	a6 17       	cp	r26, r22
    5842:	b7 07       	cpc	r27, r23
    5844:	10 f0       	brcs	.+4      	; 0x584a <__udivmodhi4_ep>
    5846:	a6 1b       	sub	r26, r22
    5848:	b7 0b       	sbc	r27, r23

0000584a <__udivmodhi4_ep>:
    584a:	88 1f       	adc	r24, r24
    584c:	99 1f       	adc	r25, r25
    584e:	5a 95       	dec	r21
    5850:	a9 f7       	brne	.-22     	; 0x583c <__udivmodhi4_loop>
    5852:	80 95       	com	r24
    5854:	90 95       	com	r25
    5856:	bc 01       	movw	r22, r24
    5858:	cd 01       	movw	r24, r26
    585a:	08 95       	ret

0000585c <__udivmodsi4>:
    585c:	a1 e2       	ldi	r26, 0x21	; 33
    585e:	1a 2e       	mov	r1, r26
    5860:	aa 1b       	sub	r26, r26
    5862:	bb 1b       	sub	r27, r27
    5864:	fd 01       	movw	r30, r26
    5866:	0d c0       	rjmp	.+26     	; 0x5882 <__udivmodsi4_ep>

00005868 <__udivmodsi4_loop>:
    5868:	aa 1f       	adc	r26, r26
    586a:	bb 1f       	adc	r27, r27
    586c:	ee 1f       	adc	r30, r30
    586e:	ff 1f       	adc	r31, r31
    5870:	a2 17       	cp	r26, r18
    5872:	b3 07       	cpc	r27, r19
    5874:	e4 07       	cpc	r30, r20
    5876:	f5 07       	cpc	r31, r21
    5878:	20 f0       	brcs	.+8      	; 0x5882 <__udivmodsi4_ep>
    587a:	a2 1b       	sub	r26, r18
    587c:	b3 0b       	sbc	r27, r19
    587e:	e4 0b       	sbc	r30, r20
    5880:	f5 0b       	sbc	r31, r21

00005882 <__udivmodsi4_ep>:
    5882:	66 1f       	adc	r22, r22
    5884:	77 1f       	adc	r23, r23
    5886:	88 1f       	adc	r24, r24
    5888:	99 1f       	adc	r25, r25
    588a:	1a 94       	dec	r1
    588c:	69 f7       	brne	.-38     	; 0x5868 <__udivmodsi4_loop>
    588e:	60 95       	com	r22
    5890:	70 95       	com	r23
    5892:	80 95       	com	r24
    5894:	90 95       	com	r25
    5896:	9b 01       	movw	r18, r22
    5898:	ac 01       	movw	r20, r24
    589a:	bd 01       	movw	r22, r26
    589c:	cf 01       	movw	r24, r30
    589e:	08 95       	ret

000058a0 <__muluhisi3>:
    58a0:	09 d0       	rcall	.+18     	; 0x58b4 <__umulhisi3>
    58a2:	a5 9f       	mul	r26, r21
    58a4:	90 0d       	add	r25, r0
    58a6:	b4 9f       	mul	r27, r20
    58a8:	90 0d       	add	r25, r0
    58aa:	a4 9f       	mul	r26, r20
    58ac:	80 0d       	add	r24, r0
    58ae:	91 1d       	adc	r25, r1
    58b0:	11 24       	eor	r1, r1
    58b2:	08 95       	ret

000058b4 <__umulhisi3>:
    58b4:	a2 9f       	mul	r26, r18
    58b6:	b0 01       	movw	r22, r0
    58b8:	b3 9f       	mul	r27, r19
    58ba:	c0 01       	movw	r24, r0
    58bc:	a3 9f       	mul	r26, r19
    58be:	70 0d       	add	r23, r0
    58c0:	81 1d       	adc	r24, r1
    58c2:	11 24       	eor	r1, r1
    58c4:	91 1d       	adc	r25, r1
    58c6:	b2 9f       	mul	r27, r18
    58c8:	70 0d       	add	r23, r0
    58ca:	81 1d       	adc	r24, r1
    58cc:	11 24       	eor	r1, r1
    58ce:	91 1d       	adc	r25, r1
    58d0:	08 95       	ret

000058d2 <isgraph>:
    58d2:	80 32       	cpi	r24, 0x20	; 32
    58d4:	09 f0       	breq	.+2      	; 0x58d8 <isprint+0x2>

000058d6 <isprint>:
    58d6:	91 11       	cpse	r25, r1
    58d8:	c1 c2       	rjmp	.+1410   	; 0x5e5c <__ctype_isfalse>
    58da:	80 52       	subi	r24, 0x20	; 32
    58dc:	8f 55       	subi	r24, 0x5F	; 95
    58de:	e0 f7       	brcc	.-8      	; 0x58d8 <isprint+0x2>
    58e0:	08 95       	ret

000058e2 <memcmp>:
    58e2:	fb 01       	movw	r30, r22
    58e4:	dc 01       	movw	r26, r24
    58e6:	04 c0       	rjmp	.+8      	; 0x58f0 <memcmp+0xe>
    58e8:	8d 91       	ld	r24, X+
    58ea:	01 90       	ld	r0, Z+
    58ec:	80 19       	sub	r24, r0
    58ee:	21 f4       	brne	.+8      	; 0x58f8 <memcmp+0x16>
    58f0:	41 50       	subi	r20, 0x01	; 1
    58f2:	50 40       	sbci	r21, 0x00	; 0
    58f4:	c8 f7       	brcc	.-14     	; 0x58e8 <memcmp+0x6>
    58f6:	88 1b       	sub	r24, r24
    58f8:	99 0b       	sbc	r25, r25
    58fa:	08 95       	ret

000058fc <memcpy>:
    58fc:	fb 01       	movw	r30, r22
    58fe:	dc 01       	movw	r26, r24
    5900:	02 c0       	rjmp	.+4      	; 0x5906 <memcpy+0xa>
    5902:	01 90       	ld	r0, Z+
    5904:	0d 92       	st	X+, r0
    5906:	41 50       	subi	r20, 0x01	; 1
    5908:	50 40       	sbci	r21, 0x00	; 0
    590a:	d8 f7       	brcc	.-10     	; 0x5902 <memcpy+0x6>
    590c:	08 95       	ret

0000590e <memset>:
    590e:	dc 01       	movw	r26, r24
    5910:	01 c0       	rjmp	.+2      	; 0x5914 <memset+0x6>
    5912:	6d 93       	st	X+, r22
    5914:	41 50       	subi	r20, 0x01	; 1
    5916:	50 40       	sbci	r21, 0x00	; 0
    5918:	e0 f7       	brcc	.-8      	; 0x5912 <memset+0x4>
    591a:	08 95       	ret

0000591c <strchr>:
    591c:	fc 01       	movw	r30, r24
    591e:	81 91       	ld	r24, Z+
    5920:	86 17       	cp	r24, r22
    5922:	21 f0       	breq	.+8      	; 0x592c <strchr+0x10>
    5924:	88 23       	and	r24, r24
    5926:	d9 f7       	brne	.-10     	; 0x591e <strchr+0x2>
    5928:	99 27       	eor	r25, r25
    592a:	08 95       	ret
    592c:	31 97       	sbiw	r30, 0x01	; 1
    592e:	cf 01       	movw	r24, r30
    5930:	08 95       	ret

00005932 <printf>:
    5932:	cf 93       	push	r28
    5934:	df 93       	push	r29
    5936:	cd b7       	in	r28, 0x3d	; 61
    5938:	de b7       	in	r29, 0x3e	; 62
    593a:	ae 01       	movw	r20, r28
    593c:	4b 5f       	subi	r20, 0xFB	; 251
    593e:	5f 4f       	sbci	r21, 0xFF	; 255
    5940:	fa 01       	movw	r30, r20
    5942:	61 91       	ld	r22, Z+
    5944:	71 91       	ld	r23, Z+
    5946:	af 01       	movw	r20, r30
    5948:	80 91 6f 0c 	lds	r24, 0x0C6F	; 0x800c6f <__iob+0x2>
    594c:	90 91 70 0c 	lds	r25, 0x0C70	; 0x800c70 <__iob+0x3>
    5950:	88 d0       	rcall	.+272    	; 0x5a62 <vfprintf>
    5952:	df 91       	pop	r29
    5954:	cf 91       	pop	r28
    5956:	08 95       	ret

00005958 <printf_P>:
    5958:	0f 93       	push	r16
    595a:	1f 93       	push	r17
    595c:	cf 93       	push	r28
    595e:	df 93       	push	r29
    5960:	cd b7       	in	r28, 0x3d	; 61
    5962:	de b7       	in	r29, 0x3e	; 62
    5964:	ae 01       	movw	r20, r28
    5966:	49 5f       	subi	r20, 0xF9	; 249
    5968:	5f 4f       	sbci	r21, 0xFF	; 255
    596a:	da 01       	movw	r26, r20
    596c:	6d 91       	ld	r22, X+
    596e:	7d 91       	ld	r23, X+
    5970:	ad 01       	movw	r20, r26
    5972:	0d e6       	ldi	r16, 0x6D	; 109
    5974:	1c e0       	ldi	r17, 0x0C	; 12
    5976:	f8 01       	movw	r30, r16
    5978:	82 81       	ldd	r24, Z+2	; 0x02
    597a:	93 81       	ldd	r25, Z+3	; 0x03
    597c:	dc 01       	movw	r26, r24
    597e:	13 96       	adiw	r26, 0x03	; 3
    5980:	2c 91       	ld	r18, X
    5982:	13 97       	sbiw	r26, 0x03	; 3
    5984:	28 60       	ori	r18, 0x08	; 8
    5986:	13 96       	adiw	r26, 0x03	; 3
    5988:	2c 93       	st	X, r18
    598a:	6b d0       	rcall	.+214    	; 0x5a62 <vfprintf>
    598c:	d8 01       	movw	r26, r16
    598e:	12 96       	adiw	r26, 0x02	; 2
    5990:	ed 91       	ld	r30, X+
    5992:	fc 91       	ld	r31, X
    5994:	13 97       	sbiw	r26, 0x03	; 3
    5996:	23 81       	ldd	r18, Z+3	; 0x03
    5998:	27 7f       	andi	r18, 0xF7	; 247
    599a:	23 83       	std	Z+3, r18	; 0x03
    599c:	df 91       	pop	r29
    599e:	cf 91       	pop	r28
    59a0:	1f 91       	pop	r17
    59a2:	0f 91       	pop	r16
    59a4:	08 95       	ret

000059a6 <puts>:
    59a6:	0f 93       	push	r16
    59a8:	1f 93       	push	r17
    59aa:	cf 93       	push	r28
    59ac:	df 93       	push	r29
    59ae:	e0 91 6f 0c 	lds	r30, 0x0C6F	; 0x800c6f <__iob+0x2>
    59b2:	f0 91 70 0c 	lds	r31, 0x0C70	; 0x800c70 <__iob+0x3>
    59b6:	23 81       	ldd	r18, Z+3	; 0x03
    59b8:	21 ff       	sbrs	r18, 1
    59ba:	1b c0       	rjmp	.+54     	; 0x59f2 <puts+0x4c>
    59bc:	8c 01       	movw	r16, r24
    59be:	d0 e0       	ldi	r29, 0x00	; 0
    59c0:	c0 e0       	ldi	r28, 0x00	; 0
    59c2:	f8 01       	movw	r30, r16
    59c4:	81 91       	ld	r24, Z+
    59c6:	8f 01       	movw	r16, r30
    59c8:	60 91 6f 0c 	lds	r22, 0x0C6F	; 0x800c6f <__iob+0x2>
    59cc:	70 91 70 0c 	lds	r23, 0x0C70	; 0x800c70 <__iob+0x3>
    59d0:	db 01       	movw	r26, r22
    59d2:	18 96       	adiw	r26, 0x08	; 8
    59d4:	ed 91       	ld	r30, X+
    59d6:	fc 91       	ld	r31, X
    59d8:	19 97       	sbiw	r26, 0x09	; 9
    59da:	88 23       	and	r24, r24
    59dc:	31 f0       	breq	.+12     	; 0x59ea <puts+0x44>
    59de:	09 95       	icall
    59e0:	89 2b       	or	r24, r25
    59e2:	79 f3       	breq	.-34     	; 0x59c2 <puts+0x1c>
    59e4:	df ef       	ldi	r29, 0xFF	; 255
    59e6:	cf ef       	ldi	r28, 0xFF	; 255
    59e8:	ec cf       	rjmp	.-40     	; 0x59c2 <puts+0x1c>
    59ea:	8a e0       	ldi	r24, 0x0A	; 10
    59ec:	09 95       	icall
    59ee:	89 2b       	or	r24, r25
    59f0:	19 f0       	breq	.+6      	; 0x59f8 <puts+0x52>
    59f2:	8f ef       	ldi	r24, 0xFF	; 255
    59f4:	9f ef       	ldi	r25, 0xFF	; 255
    59f6:	02 c0       	rjmp	.+4      	; 0x59fc <puts+0x56>
    59f8:	8d 2f       	mov	r24, r29
    59fa:	9c 2f       	mov	r25, r28
    59fc:	df 91       	pop	r29
    59fe:	cf 91       	pop	r28
    5a00:	1f 91       	pop	r17
    5a02:	0f 91       	pop	r16
    5a04:	08 95       	ret

00005a06 <sprintf>:
    5a06:	0f 93       	push	r16
    5a08:	1f 93       	push	r17
    5a0a:	cf 93       	push	r28
    5a0c:	df 93       	push	r29
    5a0e:	cd b7       	in	r28, 0x3d	; 61
    5a10:	de b7       	in	r29, 0x3e	; 62
    5a12:	2e 97       	sbiw	r28, 0x0e	; 14
    5a14:	0f b6       	in	r0, 0x3f	; 63
    5a16:	f8 94       	cli
    5a18:	de bf       	out	0x3e, r29	; 62
    5a1a:	0f be       	out	0x3f, r0	; 63
    5a1c:	cd bf       	out	0x3d, r28	; 61
    5a1e:	0d 89       	ldd	r16, Y+21	; 0x15
    5a20:	1e 89       	ldd	r17, Y+22	; 0x16
    5a22:	86 e0       	ldi	r24, 0x06	; 6
    5a24:	8c 83       	std	Y+4, r24	; 0x04
    5a26:	1a 83       	std	Y+2, r17	; 0x02
    5a28:	09 83       	std	Y+1, r16	; 0x01
    5a2a:	8f ef       	ldi	r24, 0xFF	; 255
    5a2c:	9f e7       	ldi	r25, 0x7F	; 127
    5a2e:	9e 83       	std	Y+6, r25	; 0x06
    5a30:	8d 83       	std	Y+5, r24	; 0x05
    5a32:	ae 01       	movw	r20, r28
    5a34:	47 5e       	subi	r20, 0xE7	; 231
    5a36:	5f 4f       	sbci	r21, 0xFF	; 255
    5a38:	6f 89       	ldd	r22, Y+23	; 0x17
    5a3a:	78 8d       	ldd	r23, Y+24	; 0x18
    5a3c:	ce 01       	movw	r24, r28
    5a3e:	01 96       	adiw	r24, 0x01	; 1
    5a40:	10 d0       	rcall	.+32     	; 0x5a62 <vfprintf>
    5a42:	ef 81       	ldd	r30, Y+7	; 0x07
    5a44:	f8 85       	ldd	r31, Y+8	; 0x08
    5a46:	e0 0f       	add	r30, r16
    5a48:	f1 1f       	adc	r31, r17
    5a4a:	10 82       	st	Z, r1
    5a4c:	2e 96       	adiw	r28, 0x0e	; 14
    5a4e:	0f b6       	in	r0, 0x3f	; 63
    5a50:	f8 94       	cli
    5a52:	de bf       	out	0x3e, r29	; 62
    5a54:	0f be       	out	0x3f, r0	; 63
    5a56:	cd bf       	out	0x3d, r28	; 61
    5a58:	df 91       	pop	r29
    5a5a:	cf 91       	pop	r28
    5a5c:	1f 91       	pop	r17
    5a5e:	0f 91       	pop	r16
    5a60:	08 95       	ret

00005a62 <vfprintf>:
    5a62:	2f 92       	push	r2
    5a64:	3f 92       	push	r3
    5a66:	4f 92       	push	r4
    5a68:	5f 92       	push	r5
    5a6a:	6f 92       	push	r6
    5a6c:	7f 92       	push	r7
    5a6e:	8f 92       	push	r8
    5a70:	9f 92       	push	r9
    5a72:	af 92       	push	r10
    5a74:	bf 92       	push	r11
    5a76:	cf 92       	push	r12
    5a78:	df 92       	push	r13
    5a7a:	ef 92       	push	r14
    5a7c:	ff 92       	push	r15
    5a7e:	0f 93       	push	r16
    5a80:	1f 93       	push	r17
    5a82:	cf 93       	push	r28
    5a84:	df 93       	push	r29
    5a86:	cd b7       	in	r28, 0x3d	; 61
    5a88:	de b7       	in	r29, 0x3e	; 62
    5a8a:	2b 97       	sbiw	r28, 0x0b	; 11
    5a8c:	0f b6       	in	r0, 0x3f	; 63
    5a8e:	f8 94       	cli
    5a90:	de bf       	out	0x3e, r29	; 62
    5a92:	0f be       	out	0x3f, r0	; 63
    5a94:	cd bf       	out	0x3d, r28	; 61
    5a96:	6c 01       	movw	r12, r24
    5a98:	7b 01       	movw	r14, r22
    5a9a:	8a 01       	movw	r16, r20
    5a9c:	fc 01       	movw	r30, r24
    5a9e:	17 82       	std	Z+7, r1	; 0x07
    5aa0:	16 82       	std	Z+6, r1	; 0x06
    5aa2:	83 81       	ldd	r24, Z+3	; 0x03
    5aa4:	81 ff       	sbrs	r24, 1
    5aa6:	bf c1       	rjmp	.+894    	; 0x5e26 <vfprintf+0x3c4>
    5aa8:	ce 01       	movw	r24, r28
    5aaa:	01 96       	adiw	r24, 0x01	; 1
    5aac:	3c 01       	movw	r6, r24
    5aae:	f6 01       	movw	r30, r12
    5ab0:	93 81       	ldd	r25, Z+3	; 0x03
    5ab2:	f7 01       	movw	r30, r14
    5ab4:	93 fd       	sbrc	r25, 3
    5ab6:	85 91       	lpm	r24, Z+
    5ab8:	93 ff       	sbrs	r25, 3
    5aba:	81 91       	ld	r24, Z+
    5abc:	7f 01       	movw	r14, r30
    5abe:	88 23       	and	r24, r24
    5ac0:	09 f4       	brne	.+2      	; 0x5ac4 <vfprintf+0x62>
    5ac2:	ad c1       	rjmp	.+858    	; 0x5e1e <vfprintf+0x3bc>
    5ac4:	85 32       	cpi	r24, 0x25	; 37
    5ac6:	39 f4       	brne	.+14     	; 0x5ad6 <vfprintf+0x74>
    5ac8:	93 fd       	sbrc	r25, 3
    5aca:	85 91       	lpm	r24, Z+
    5acc:	93 ff       	sbrs	r25, 3
    5ace:	81 91       	ld	r24, Z+
    5ad0:	7f 01       	movw	r14, r30
    5ad2:	85 32       	cpi	r24, 0x25	; 37
    5ad4:	21 f4       	brne	.+8      	; 0x5ade <vfprintf+0x7c>
    5ad6:	b6 01       	movw	r22, r12
    5ad8:	90 e0       	ldi	r25, 0x00	; 0
    5ada:	d9 d1       	rcall	.+946    	; 0x5e8e <fputc>
    5adc:	e8 cf       	rjmp	.-48     	; 0x5aae <vfprintf+0x4c>
    5ade:	91 2c       	mov	r9, r1
    5ae0:	21 2c       	mov	r2, r1
    5ae2:	31 2c       	mov	r3, r1
    5ae4:	ff e1       	ldi	r31, 0x1F	; 31
    5ae6:	f3 15       	cp	r31, r3
    5ae8:	d8 f0       	brcs	.+54     	; 0x5b20 <vfprintf+0xbe>
    5aea:	8b 32       	cpi	r24, 0x2B	; 43
    5aec:	79 f0       	breq	.+30     	; 0x5b0c <vfprintf+0xaa>
    5aee:	38 f4       	brcc	.+14     	; 0x5afe <vfprintf+0x9c>
    5af0:	80 32       	cpi	r24, 0x20	; 32
    5af2:	79 f0       	breq	.+30     	; 0x5b12 <vfprintf+0xb0>
    5af4:	83 32       	cpi	r24, 0x23	; 35
    5af6:	a1 f4       	brne	.+40     	; 0x5b20 <vfprintf+0xbe>
    5af8:	23 2d       	mov	r18, r3
    5afa:	20 61       	ori	r18, 0x10	; 16
    5afc:	1d c0       	rjmp	.+58     	; 0x5b38 <vfprintf+0xd6>
    5afe:	8d 32       	cpi	r24, 0x2D	; 45
    5b00:	61 f0       	breq	.+24     	; 0x5b1a <vfprintf+0xb8>
    5b02:	80 33       	cpi	r24, 0x30	; 48
    5b04:	69 f4       	brne	.+26     	; 0x5b20 <vfprintf+0xbe>
    5b06:	23 2d       	mov	r18, r3
    5b08:	21 60       	ori	r18, 0x01	; 1
    5b0a:	16 c0       	rjmp	.+44     	; 0x5b38 <vfprintf+0xd6>
    5b0c:	83 2d       	mov	r24, r3
    5b0e:	82 60       	ori	r24, 0x02	; 2
    5b10:	38 2e       	mov	r3, r24
    5b12:	e3 2d       	mov	r30, r3
    5b14:	e4 60       	ori	r30, 0x04	; 4
    5b16:	3e 2e       	mov	r3, r30
    5b18:	2a c0       	rjmp	.+84     	; 0x5b6e <vfprintf+0x10c>
    5b1a:	f3 2d       	mov	r31, r3
    5b1c:	f8 60       	ori	r31, 0x08	; 8
    5b1e:	1d c0       	rjmp	.+58     	; 0x5b5a <vfprintf+0xf8>
    5b20:	37 fc       	sbrc	r3, 7
    5b22:	2d c0       	rjmp	.+90     	; 0x5b7e <vfprintf+0x11c>
    5b24:	20 ed       	ldi	r18, 0xD0	; 208
    5b26:	28 0f       	add	r18, r24
    5b28:	2a 30       	cpi	r18, 0x0A	; 10
    5b2a:	40 f0       	brcs	.+16     	; 0x5b3c <vfprintf+0xda>
    5b2c:	8e 32       	cpi	r24, 0x2E	; 46
    5b2e:	b9 f4       	brne	.+46     	; 0x5b5e <vfprintf+0xfc>
    5b30:	36 fc       	sbrc	r3, 6
    5b32:	75 c1       	rjmp	.+746    	; 0x5e1e <vfprintf+0x3bc>
    5b34:	23 2d       	mov	r18, r3
    5b36:	20 64       	ori	r18, 0x40	; 64
    5b38:	32 2e       	mov	r3, r18
    5b3a:	19 c0       	rjmp	.+50     	; 0x5b6e <vfprintf+0x10c>
    5b3c:	36 fe       	sbrs	r3, 6
    5b3e:	06 c0       	rjmp	.+12     	; 0x5b4c <vfprintf+0xea>
    5b40:	8a e0       	ldi	r24, 0x0A	; 10
    5b42:	98 9e       	mul	r9, r24
    5b44:	20 0d       	add	r18, r0
    5b46:	11 24       	eor	r1, r1
    5b48:	92 2e       	mov	r9, r18
    5b4a:	11 c0       	rjmp	.+34     	; 0x5b6e <vfprintf+0x10c>
    5b4c:	ea e0       	ldi	r30, 0x0A	; 10
    5b4e:	2e 9e       	mul	r2, r30
    5b50:	20 0d       	add	r18, r0
    5b52:	11 24       	eor	r1, r1
    5b54:	22 2e       	mov	r2, r18
    5b56:	f3 2d       	mov	r31, r3
    5b58:	f0 62       	ori	r31, 0x20	; 32
    5b5a:	3f 2e       	mov	r3, r31
    5b5c:	08 c0       	rjmp	.+16     	; 0x5b6e <vfprintf+0x10c>
    5b5e:	8c 36       	cpi	r24, 0x6C	; 108
    5b60:	21 f4       	brne	.+8      	; 0x5b6a <vfprintf+0x108>
    5b62:	83 2d       	mov	r24, r3
    5b64:	80 68       	ori	r24, 0x80	; 128
    5b66:	38 2e       	mov	r3, r24
    5b68:	02 c0       	rjmp	.+4      	; 0x5b6e <vfprintf+0x10c>
    5b6a:	88 36       	cpi	r24, 0x68	; 104
    5b6c:	41 f4       	brne	.+16     	; 0x5b7e <vfprintf+0x11c>
    5b6e:	f7 01       	movw	r30, r14
    5b70:	93 fd       	sbrc	r25, 3
    5b72:	85 91       	lpm	r24, Z+
    5b74:	93 ff       	sbrs	r25, 3
    5b76:	81 91       	ld	r24, Z+
    5b78:	7f 01       	movw	r14, r30
    5b7a:	81 11       	cpse	r24, r1
    5b7c:	b3 cf       	rjmp	.-154    	; 0x5ae4 <vfprintf+0x82>
    5b7e:	98 2f       	mov	r25, r24
    5b80:	9f 7d       	andi	r25, 0xDF	; 223
    5b82:	95 54       	subi	r25, 0x45	; 69
    5b84:	93 30       	cpi	r25, 0x03	; 3
    5b86:	28 f4       	brcc	.+10     	; 0x5b92 <vfprintf+0x130>
    5b88:	0c 5f       	subi	r16, 0xFC	; 252
    5b8a:	1f 4f       	sbci	r17, 0xFF	; 255
    5b8c:	9f e3       	ldi	r25, 0x3F	; 63
    5b8e:	99 83       	std	Y+1, r25	; 0x01
    5b90:	0d c0       	rjmp	.+26     	; 0x5bac <vfprintf+0x14a>
    5b92:	83 36       	cpi	r24, 0x63	; 99
    5b94:	31 f0       	breq	.+12     	; 0x5ba2 <vfprintf+0x140>
    5b96:	83 37       	cpi	r24, 0x73	; 115
    5b98:	71 f0       	breq	.+28     	; 0x5bb6 <vfprintf+0x154>
    5b9a:	83 35       	cpi	r24, 0x53	; 83
    5b9c:	09 f0       	breq	.+2      	; 0x5ba0 <vfprintf+0x13e>
    5b9e:	55 c0       	rjmp	.+170    	; 0x5c4a <vfprintf+0x1e8>
    5ba0:	20 c0       	rjmp	.+64     	; 0x5be2 <vfprintf+0x180>
    5ba2:	f8 01       	movw	r30, r16
    5ba4:	80 81       	ld	r24, Z
    5ba6:	89 83       	std	Y+1, r24	; 0x01
    5ba8:	0e 5f       	subi	r16, 0xFE	; 254
    5baa:	1f 4f       	sbci	r17, 0xFF	; 255
    5bac:	88 24       	eor	r8, r8
    5bae:	83 94       	inc	r8
    5bb0:	91 2c       	mov	r9, r1
    5bb2:	53 01       	movw	r10, r6
    5bb4:	12 c0       	rjmp	.+36     	; 0x5bda <vfprintf+0x178>
    5bb6:	28 01       	movw	r4, r16
    5bb8:	f2 e0       	ldi	r31, 0x02	; 2
    5bba:	4f 0e       	add	r4, r31
    5bbc:	51 1c       	adc	r5, r1
    5bbe:	f8 01       	movw	r30, r16
    5bc0:	a0 80       	ld	r10, Z
    5bc2:	b1 80       	ldd	r11, Z+1	; 0x01
    5bc4:	36 fe       	sbrs	r3, 6
    5bc6:	03 c0       	rjmp	.+6      	; 0x5bce <vfprintf+0x16c>
    5bc8:	69 2d       	mov	r22, r9
    5bca:	70 e0       	ldi	r23, 0x00	; 0
    5bcc:	02 c0       	rjmp	.+4      	; 0x5bd2 <vfprintf+0x170>
    5bce:	6f ef       	ldi	r22, 0xFF	; 255
    5bd0:	7f ef       	ldi	r23, 0xFF	; 255
    5bd2:	c5 01       	movw	r24, r10
    5bd4:	51 d1       	rcall	.+674    	; 0x5e78 <strnlen>
    5bd6:	4c 01       	movw	r8, r24
    5bd8:	82 01       	movw	r16, r4
    5bda:	f3 2d       	mov	r31, r3
    5bdc:	ff 77       	andi	r31, 0x7F	; 127
    5bde:	3f 2e       	mov	r3, r31
    5be0:	15 c0       	rjmp	.+42     	; 0x5c0c <vfprintf+0x1aa>
    5be2:	28 01       	movw	r4, r16
    5be4:	22 e0       	ldi	r18, 0x02	; 2
    5be6:	42 0e       	add	r4, r18
    5be8:	51 1c       	adc	r5, r1
    5bea:	f8 01       	movw	r30, r16
    5bec:	a0 80       	ld	r10, Z
    5bee:	b1 80       	ldd	r11, Z+1	; 0x01
    5bf0:	36 fe       	sbrs	r3, 6
    5bf2:	03 c0       	rjmp	.+6      	; 0x5bfa <vfprintf+0x198>
    5bf4:	69 2d       	mov	r22, r9
    5bf6:	70 e0       	ldi	r23, 0x00	; 0
    5bf8:	02 c0       	rjmp	.+4      	; 0x5bfe <vfprintf+0x19c>
    5bfa:	6f ef       	ldi	r22, 0xFF	; 255
    5bfc:	7f ef       	ldi	r23, 0xFF	; 255
    5bfe:	c5 01       	movw	r24, r10
    5c00:	30 d1       	rcall	.+608    	; 0x5e62 <strnlen_P>
    5c02:	4c 01       	movw	r8, r24
    5c04:	f3 2d       	mov	r31, r3
    5c06:	f0 68       	ori	r31, 0x80	; 128
    5c08:	3f 2e       	mov	r3, r31
    5c0a:	82 01       	movw	r16, r4
    5c0c:	33 fc       	sbrc	r3, 3
    5c0e:	19 c0       	rjmp	.+50     	; 0x5c42 <vfprintf+0x1e0>
    5c10:	82 2d       	mov	r24, r2
    5c12:	90 e0       	ldi	r25, 0x00	; 0
    5c14:	88 16       	cp	r8, r24
    5c16:	99 06       	cpc	r9, r25
    5c18:	a0 f4       	brcc	.+40     	; 0x5c42 <vfprintf+0x1e0>
    5c1a:	b6 01       	movw	r22, r12
    5c1c:	80 e2       	ldi	r24, 0x20	; 32
    5c1e:	90 e0       	ldi	r25, 0x00	; 0
    5c20:	36 d1       	rcall	.+620    	; 0x5e8e <fputc>
    5c22:	2a 94       	dec	r2
    5c24:	f5 cf       	rjmp	.-22     	; 0x5c10 <vfprintf+0x1ae>
    5c26:	f5 01       	movw	r30, r10
    5c28:	37 fc       	sbrc	r3, 7
    5c2a:	85 91       	lpm	r24, Z+
    5c2c:	37 fe       	sbrs	r3, 7
    5c2e:	81 91       	ld	r24, Z+
    5c30:	5f 01       	movw	r10, r30
    5c32:	b6 01       	movw	r22, r12
    5c34:	90 e0       	ldi	r25, 0x00	; 0
    5c36:	2b d1       	rcall	.+598    	; 0x5e8e <fputc>
    5c38:	21 10       	cpse	r2, r1
    5c3a:	2a 94       	dec	r2
    5c3c:	21 e0       	ldi	r18, 0x01	; 1
    5c3e:	82 1a       	sub	r8, r18
    5c40:	91 08       	sbc	r9, r1
    5c42:	81 14       	cp	r8, r1
    5c44:	91 04       	cpc	r9, r1
    5c46:	79 f7       	brne	.-34     	; 0x5c26 <vfprintf+0x1c4>
    5c48:	e1 c0       	rjmp	.+450    	; 0x5e0c <vfprintf+0x3aa>
    5c4a:	84 36       	cpi	r24, 0x64	; 100
    5c4c:	11 f0       	breq	.+4      	; 0x5c52 <vfprintf+0x1f0>
    5c4e:	89 36       	cpi	r24, 0x69	; 105
    5c50:	39 f5       	brne	.+78     	; 0x5ca0 <vfprintf+0x23e>
    5c52:	f8 01       	movw	r30, r16
    5c54:	37 fe       	sbrs	r3, 7
    5c56:	07 c0       	rjmp	.+14     	; 0x5c66 <vfprintf+0x204>
    5c58:	60 81       	ld	r22, Z
    5c5a:	71 81       	ldd	r23, Z+1	; 0x01
    5c5c:	82 81       	ldd	r24, Z+2	; 0x02
    5c5e:	93 81       	ldd	r25, Z+3	; 0x03
    5c60:	0c 5f       	subi	r16, 0xFC	; 252
    5c62:	1f 4f       	sbci	r17, 0xFF	; 255
    5c64:	08 c0       	rjmp	.+16     	; 0x5c76 <vfprintf+0x214>
    5c66:	60 81       	ld	r22, Z
    5c68:	71 81       	ldd	r23, Z+1	; 0x01
    5c6a:	07 2e       	mov	r0, r23
    5c6c:	00 0c       	add	r0, r0
    5c6e:	88 0b       	sbc	r24, r24
    5c70:	99 0b       	sbc	r25, r25
    5c72:	0e 5f       	subi	r16, 0xFE	; 254
    5c74:	1f 4f       	sbci	r17, 0xFF	; 255
    5c76:	f3 2d       	mov	r31, r3
    5c78:	ff 76       	andi	r31, 0x6F	; 111
    5c7a:	3f 2e       	mov	r3, r31
    5c7c:	97 ff       	sbrs	r25, 7
    5c7e:	09 c0       	rjmp	.+18     	; 0x5c92 <vfprintf+0x230>
    5c80:	90 95       	com	r25
    5c82:	80 95       	com	r24
    5c84:	70 95       	com	r23
    5c86:	61 95       	neg	r22
    5c88:	7f 4f       	sbci	r23, 0xFF	; 255
    5c8a:	8f 4f       	sbci	r24, 0xFF	; 255
    5c8c:	9f 4f       	sbci	r25, 0xFF	; 255
    5c8e:	f0 68       	ori	r31, 0x80	; 128
    5c90:	3f 2e       	mov	r3, r31
    5c92:	2a e0       	ldi	r18, 0x0A	; 10
    5c94:	30 e0       	ldi	r19, 0x00	; 0
    5c96:	a3 01       	movw	r20, r6
    5c98:	36 d1       	rcall	.+620    	; 0x5f06 <__ultoa_invert>
    5c9a:	88 2e       	mov	r8, r24
    5c9c:	86 18       	sub	r8, r6
    5c9e:	44 c0       	rjmp	.+136    	; 0x5d28 <vfprintf+0x2c6>
    5ca0:	85 37       	cpi	r24, 0x75	; 117
    5ca2:	31 f4       	brne	.+12     	; 0x5cb0 <vfprintf+0x24e>
    5ca4:	23 2d       	mov	r18, r3
    5ca6:	2f 7e       	andi	r18, 0xEF	; 239
    5ca8:	b2 2e       	mov	r11, r18
    5caa:	2a e0       	ldi	r18, 0x0A	; 10
    5cac:	30 e0       	ldi	r19, 0x00	; 0
    5cae:	25 c0       	rjmp	.+74     	; 0x5cfa <vfprintf+0x298>
    5cb0:	93 2d       	mov	r25, r3
    5cb2:	99 7f       	andi	r25, 0xF9	; 249
    5cb4:	b9 2e       	mov	r11, r25
    5cb6:	8f 36       	cpi	r24, 0x6F	; 111
    5cb8:	c1 f0       	breq	.+48     	; 0x5cea <vfprintf+0x288>
    5cba:	18 f4       	brcc	.+6      	; 0x5cc2 <vfprintf+0x260>
    5cbc:	88 35       	cpi	r24, 0x58	; 88
    5cbe:	79 f0       	breq	.+30     	; 0x5cde <vfprintf+0x27c>
    5cc0:	ae c0       	rjmp	.+348    	; 0x5e1e <vfprintf+0x3bc>
    5cc2:	80 37       	cpi	r24, 0x70	; 112
    5cc4:	19 f0       	breq	.+6      	; 0x5ccc <vfprintf+0x26a>
    5cc6:	88 37       	cpi	r24, 0x78	; 120
    5cc8:	21 f0       	breq	.+8      	; 0x5cd2 <vfprintf+0x270>
    5cca:	a9 c0       	rjmp	.+338    	; 0x5e1e <vfprintf+0x3bc>
    5ccc:	e9 2f       	mov	r30, r25
    5cce:	e0 61       	ori	r30, 0x10	; 16
    5cd0:	be 2e       	mov	r11, r30
    5cd2:	b4 fe       	sbrs	r11, 4
    5cd4:	0d c0       	rjmp	.+26     	; 0x5cf0 <vfprintf+0x28e>
    5cd6:	fb 2d       	mov	r31, r11
    5cd8:	f4 60       	ori	r31, 0x04	; 4
    5cda:	bf 2e       	mov	r11, r31
    5cdc:	09 c0       	rjmp	.+18     	; 0x5cf0 <vfprintf+0x28e>
    5cde:	34 fe       	sbrs	r3, 4
    5ce0:	0a c0       	rjmp	.+20     	; 0x5cf6 <vfprintf+0x294>
    5ce2:	29 2f       	mov	r18, r25
    5ce4:	26 60       	ori	r18, 0x06	; 6
    5ce6:	b2 2e       	mov	r11, r18
    5ce8:	06 c0       	rjmp	.+12     	; 0x5cf6 <vfprintf+0x294>
    5cea:	28 e0       	ldi	r18, 0x08	; 8
    5cec:	30 e0       	ldi	r19, 0x00	; 0
    5cee:	05 c0       	rjmp	.+10     	; 0x5cfa <vfprintf+0x298>
    5cf0:	20 e1       	ldi	r18, 0x10	; 16
    5cf2:	30 e0       	ldi	r19, 0x00	; 0
    5cf4:	02 c0       	rjmp	.+4      	; 0x5cfa <vfprintf+0x298>
    5cf6:	20 e1       	ldi	r18, 0x10	; 16
    5cf8:	32 e0       	ldi	r19, 0x02	; 2
    5cfa:	f8 01       	movw	r30, r16
    5cfc:	b7 fe       	sbrs	r11, 7
    5cfe:	07 c0       	rjmp	.+14     	; 0x5d0e <vfprintf+0x2ac>
    5d00:	60 81       	ld	r22, Z
    5d02:	71 81       	ldd	r23, Z+1	; 0x01
    5d04:	82 81       	ldd	r24, Z+2	; 0x02
    5d06:	93 81       	ldd	r25, Z+3	; 0x03
    5d08:	0c 5f       	subi	r16, 0xFC	; 252
    5d0a:	1f 4f       	sbci	r17, 0xFF	; 255
    5d0c:	06 c0       	rjmp	.+12     	; 0x5d1a <vfprintf+0x2b8>
    5d0e:	60 81       	ld	r22, Z
    5d10:	71 81       	ldd	r23, Z+1	; 0x01
    5d12:	80 e0       	ldi	r24, 0x00	; 0
    5d14:	90 e0       	ldi	r25, 0x00	; 0
    5d16:	0e 5f       	subi	r16, 0xFE	; 254
    5d18:	1f 4f       	sbci	r17, 0xFF	; 255
    5d1a:	a3 01       	movw	r20, r6
    5d1c:	f4 d0       	rcall	.+488    	; 0x5f06 <__ultoa_invert>
    5d1e:	88 2e       	mov	r8, r24
    5d20:	86 18       	sub	r8, r6
    5d22:	fb 2d       	mov	r31, r11
    5d24:	ff 77       	andi	r31, 0x7F	; 127
    5d26:	3f 2e       	mov	r3, r31
    5d28:	36 fe       	sbrs	r3, 6
    5d2a:	0d c0       	rjmp	.+26     	; 0x5d46 <vfprintf+0x2e4>
    5d2c:	23 2d       	mov	r18, r3
    5d2e:	2e 7f       	andi	r18, 0xFE	; 254
    5d30:	a2 2e       	mov	r10, r18
    5d32:	89 14       	cp	r8, r9
    5d34:	58 f4       	brcc	.+22     	; 0x5d4c <vfprintf+0x2ea>
    5d36:	34 fe       	sbrs	r3, 4
    5d38:	0b c0       	rjmp	.+22     	; 0x5d50 <vfprintf+0x2ee>
    5d3a:	32 fc       	sbrc	r3, 2
    5d3c:	09 c0       	rjmp	.+18     	; 0x5d50 <vfprintf+0x2ee>
    5d3e:	83 2d       	mov	r24, r3
    5d40:	8e 7e       	andi	r24, 0xEE	; 238
    5d42:	a8 2e       	mov	r10, r24
    5d44:	05 c0       	rjmp	.+10     	; 0x5d50 <vfprintf+0x2ee>
    5d46:	b8 2c       	mov	r11, r8
    5d48:	a3 2c       	mov	r10, r3
    5d4a:	03 c0       	rjmp	.+6      	; 0x5d52 <vfprintf+0x2f0>
    5d4c:	b8 2c       	mov	r11, r8
    5d4e:	01 c0       	rjmp	.+2      	; 0x5d52 <vfprintf+0x2f0>
    5d50:	b9 2c       	mov	r11, r9
    5d52:	a4 fe       	sbrs	r10, 4
    5d54:	0f c0       	rjmp	.+30     	; 0x5d74 <vfprintf+0x312>
    5d56:	fe 01       	movw	r30, r28
    5d58:	e8 0d       	add	r30, r8
    5d5a:	f1 1d       	adc	r31, r1
    5d5c:	80 81       	ld	r24, Z
    5d5e:	80 33       	cpi	r24, 0x30	; 48
    5d60:	21 f4       	brne	.+8      	; 0x5d6a <vfprintf+0x308>
    5d62:	9a 2d       	mov	r25, r10
    5d64:	99 7e       	andi	r25, 0xE9	; 233
    5d66:	a9 2e       	mov	r10, r25
    5d68:	09 c0       	rjmp	.+18     	; 0x5d7c <vfprintf+0x31a>
    5d6a:	a2 fe       	sbrs	r10, 2
    5d6c:	06 c0       	rjmp	.+12     	; 0x5d7a <vfprintf+0x318>
    5d6e:	b3 94       	inc	r11
    5d70:	b3 94       	inc	r11
    5d72:	04 c0       	rjmp	.+8      	; 0x5d7c <vfprintf+0x31a>
    5d74:	8a 2d       	mov	r24, r10
    5d76:	86 78       	andi	r24, 0x86	; 134
    5d78:	09 f0       	breq	.+2      	; 0x5d7c <vfprintf+0x31a>
    5d7a:	b3 94       	inc	r11
    5d7c:	a3 fc       	sbrc	r10, 3
    5d7e:	10 c0       	rjmp	.+32     	; 0x5da0 <vfprintf+0x33e>
    5d80:	a0 fe       	sbrs	r10, 0
    5d82:	06 c0       	rjmp	.+12     	; 0x5d90 <vfprintf+0x32e>
    5d84:	b2 14       	cp	r11, r2
    5d86:	80 f4       	brcc	.+32     	; 0x5da8 <vfprintf+0x346>
    5d88:	28 0c       	add	r2, r8
    5d8a:	92 2c       	mov	r9, r2
    5d8c:	9b 18       	sub	r9, r11
    5d8e:	0d c0       	rjmp	.+26     	; 0x5daa <vfprintf+0x348>
    5d90:	b2 14       	cp	r11, r2
    5d92:	58 f4       	brcc	.+22     	; 0x5daa <vfprintf+0x348>
    5d94:	b6 01       	movw	r22, r12
    5d96:	80 e2       	ldi	r24, 0x20	; 32
    5d98:	90 e0       	ldi	r25, 0x00	; 0
    5d9a:	79 d0       	rcall	.+242    	; 0x5e8e <fputc>
    5d9c:	b3 94       	inc	r11
    5d9e:	f8 cf       	rjmp	.-16     	; 0x5d90 <vfprintf+0x32e>
    5da0:	b2 14       	cp	r11, r2
    5da2:	18 f4       	brcc	.+6      	; 0x5daa <vfprintf+0x348>
    5da4:	2b 18       	sub	r2, r11
    5da6:	02 c0       	rjmp	.+4      	; 0x5dac <vfprintf+0x34a>
    5da8:	98 2c       	mov	r9, r8
    5daa:	21 2c       	mov	r2, r1
    5dac:	a4 fe       	sbrs	r10, 4
    5dae:	0f c0       	rjmp	.+30     	; 0x5dce <vfprintf+0x36c>
    5db0:	b6 01       	movw	r22, r12
    5db2:	80 e3       	ldi	r24, 0x30	; 48
    5db4:	90 e0       	ldi	r25, 0x00	; 0
    5db6:	6b d0       	rcall	.+214    	; 0x5e8e <fputc>
    5db8:	a2 fe       	sbrs	r10, 2
    5dba:	16 c0       	rjmp	.+44     	; 0x5de8 <vfprintf+0x386>
    5dbc:	a1 fc       	sbrc	r10, 1
    5dbe:	03 c0       	rjmp	.+6      	; 0x5dc6 <vfprintf+0x364>
    5dc0:	88 e7       	ldi	r24, 0x78	; 120
    5dc2:	90 e0       	ldi	r25, 0x00	; 0
    5dc4:	02 c0       	rjmp	.+4      	; 0x5dca <vfprintf+0x368>
    5dc6:	88 e5       	ldi	r24, 0x58	; 88
    5dc8:	90 e0       	ldi	r25, 0x00	; 0
    5dca:	b6 01       	movw	r22, r12
    5dcc:	0c c0       	rjmp	.+24     	; 0x5de6 <vfprintf+0x384>
    5dce:	8a 2d       	mov	r24, r10
    5dd0:	86 78       	andi	r24, 0x86	; 134
    5dd2:	51 f0       	breq	.+20     	; 0x5de8 <vfprintf+0x386>
    5dd4:	a1 fe       	sbrs	r10, 1
    5dd6:	02 c0       	rjmp	.+4      	; 0x5ddc <vfprintf+0x37a>
    5dd8:	8b e2       	ldi	r24, 0x2B	; 43
    5dda:	01 c0       	rjmp	.+2      	; 0x5dde <vfprintf+0x37c>
    5ddc:	80 e2       	ldi	r24, 0x20	; 32
    5dde:	a7 fc       	sbrc	r10, 7
    5de0:	8d e2       	ldi	r24, 0x2D	; 45
    5de2:	b6 01       	movw	r22, r12
    5de4:	90 e0       	ldi	r25, 0x00	; 0
    5de6:	53 d0       	rcall	.+166    	; 0x5e8e <fputc>
    5de8:	89 14       	cp	r8, r9
    5dea:	30 f4       	brcc	.+12     	; 0x5df8 <vfprintf+0x396>
    5dec:	b6 01       	movw	r22, r12
    5dee:	80 e3       	ldi	r24, 0x30	; 48
    5df0:	90 e0       	ldi	r25, 0x00	; 0
    5df2:	4d d0       	rcall	.+154    	; 0x5e8e <fputc>
    5df4:	9a 94       	dec	r9
    5df6:	f8 cf       	rjmp	.-16     	; 0x5de8 <vfprintf+0x386>
    5df8:	8a 94       	dec	r8
    5dfa:	f3 01       	movw	r30, r6
    5dfc:	e8 0d       	add	r30, r8
    5dfe:	f1 1d       	adc	r31, r1
    5e00:	80 81       	ld	r24, Z
    5e02:	b6 01       	movw	r22, r12
    5e04:	90 e0       	ldi	r25, 0x00	; 0
    5e06:	43 d0       	rcall	.+134    	; 0x5e8e <fputc>
    5e08:	81 10       	cpse	r8, r1
    5e0a:	f6 cf       	rjmp	.-20     	; 0x5df8 <vfprintf+0x396>
    5e0c:	22 20       	and	r2, r2
    5e0e:	09 f4       	brne	.+2      	; 0x5e12 <vfprintf+0x3b0>
    5e10:	4e ce       	rjmp	.-868    	; 0x5aae <vfprintf+0x4c>
    5e12:	b6 01       	movw	r22, r12
    5e14:	80 e2       	ldi	r24, 0x20	; 32
    5e16:	90 e0       	ldi	r25, 0x00	; 0
    5e18:	3a d0       	rcall	.+116    	; 0x5e8e <fputc>
    5e1a:	2a 94       	dec	r2
    5e1c:	f7 cf       	rjmp	.-18     	; 0x5e0c <vfprintf+0x3aa>
    5e1e:	f6 01       	movw	r30, r12
    5e20:	86 81       	ldd	r24, Z+6	; 0x06
    5e22:	97 81       	ldd	r25, Z+7	; 0x07
    5e24:	02 c0       	rjmp	.+4      	; 0x5e2a <vfprintf+0x3c8>
    5e26:	8f ef       	ldi	r24, 0xFF	; 255
    5e28:	9f ef       	ldi	r25, 0xFF	; 255
    5e2a:	2b 96       	adiw	r28, 0x0b	; 11
    5e2c:	0f b6       	in	r0, 0x3f	; 63
    5e2e:	f8 94       	cli
    5e30:	de bf       	out	0x3e, r29	; 62
    5e32:	0f be       	out	0x3f, r0	; 63
    5e34:	cd bf       	out	0x3d, r28	; 61
    5e36:	df 91       	pop	r29
    5e38:	cf 91       	pop	r28
    5e3a:	1f 91       	pop	r17
    5e3c:	0f 91       	pop	r16
    5e3e:	ff 90       	pop	r15
    5e40:	ef 90       	pop	r14
    5e42:	df 90       	pop	r13
    5e44:	cf 90       	pop	r12
    5e46:	bf 90       	pop	r11
    5e48:	af 90       	pop	r10
    5e4a:	9f 90       	pop	r9
    5e4c:	8f 90       	pop	r8
    5e4e:	7f 90       	pop	r7
    5e50:	6f 90       	pop	r6
    5e52:	5f 90       	pop	r5
    5e54:	4f 90       	pop	r4
    5e56:	3f 90       	pop	r3
    5e58:	2f 90       	pop	r2
    5e5a:	08 95       	ret

00005e5c <__ctype_isfalse>:
    5e5c:	99 27       	eor	r25, r25
    5e5e:	88 27       	eor	r24, r24

00005e60 <__ctype_istrue>:
    5e60:	08 95       	ret

00005e62 <strnlen_P>:
    5e62:	fc 01       	movw	r30, r24
    5e64:	05 90       	lpm	r0, Z+
    5e66:	61 50       	subi	r22, 0x01	; 1
    5e68:	70 40       	sbci	r23, 0x00	; 0
    5e6a:	01 10       	cpse	r0, r1
    5e6c:	d8 f7       	brcc	.-10     	; 0x5e64 <strnlen_P+0x2>
    5e6e:	80 95       	com	r24
    5e70:	90 95       	com	r25
    5e72:	8e 0f       	add	r24, r30
    5e74:	9f 1f       	adc	r25, r31
    5e76:	08 95       	ret

00005e78 <strnlen>:
    5e78:	fc 01       	movw	r30, r24
    5e7a:	61 50       	subi	r22, 0x01	; 1
    5e7c:	70 40       	sbci	r23, 0x00	; 0
    5e7e:	01 90       	ld	r0, Z+
    5e80:	01 10       	cpse	r0, r1
    5e82:	d8 f7       	brcc	.-10     	; 0x5e7a <strnlen+0x2>
    5e84:	80 95       	com	r24
    5e86:	90 95       	com	r25
    5e88:	8e 0f       	add	r24, r30
    5e8a:	9f 1f       	adc	r25, r31
    5e8c:	08 95       	ret

00005e8e <fputc>:
    5e8e:	0f 93       	push	r16
    5e90:	1f 93       	push	r17
    5e92:	cf 93       	push	r28
    5e94:	df 93       	push	r29
    5e96:	fb 01       	movw	r30, r22
    5e98:	23 81       	ldd	r18, Z+3	; 0x03
    5e9a:	21 fd       	sbrc	r18, 1
    5e9c:	03 c0       	rjmp	.+6      	; 0x5ea4 <fputc+0x16>
    5e9e:	8f ef       	ldi	r24, 0xFF	; 255
    5ea0:	9f ef       	ldi	r25, 0xFF	; 255
    5ea2:	2c c0       	rjmp	.+88     	; 0x5efc <fputc+0x6e>
    5ea4:	22 ff       	sbrs	r18, 2
    5ea6:	16 c0       	rjmp	.+44     	; 0x5ed4 <fputc+0x46>
    5ea8:	46 81       	ldd	r20, Z+6	; 0x06
    5eaa:	57 81       	ldd	r21, Z+7	; 0x07
    5eac:	24 81       	ldd	r18, Z+4	; 0x04
    5eae:	35 81       	ldd	r19, Z+5	; 0x05
    5eb0:	42 17       	cp	r20, r18
    5eb2:	53 07       	cpc	r21, r19
    5eb4:	44 f4       	brge	.+16     	; 0x5ec6 <fputc+0x38>
    5eb6:	a0 81       	ld	r26, Z
    5eb8:	b1 81       	ldd	r27, Z+1	; 0x01
    5eba:	9d 01       	movw	r18, r26
    5ebc:	2f 5f       	subi	r18, 0xFF	; 255
    5ebe:	3f 4f       	sbci	r19, 0xFF	; 255
    5ec0:	31 83       	std	Z+1, r19	; 0x01
    5ec2:	20 83       	st	Z, r18
    5ec4:	8c 93       	st	X, r24
    5ec6:	26 81       	ldd	r18, Z+6	; 0x06
    5ec8:	37 81       	ldd	r19, Z+7	; 0x07
    5eca:	2f 5f       	subi	r18, 0xFF	; 255
    5ecc:	3f 4f       	sbci	r19, 0xFF	; 255
    5ece:	37 83       	std	Z+7, r19	; 0x07
    5ed0:	26 83       	std	Z+6, r18	; 0x06
    5ed2:	14 c0       	rjmp	.+40     	; 0x5efc <fputc+0x6e>
    5ed4:	8b 01       	movw	r16, r22
    5ed6:	ec 01       	movw	r28, r24
    5ed8:	fb 01       	movw	r30, r22
    5eda:	00 84       	ldd	r0, Z+8	; 0x08
    5edc:	f1 85       	ldd	r31, Z+9	; 0x09
    5ede:	e0 2d       	mov	r30, r0
    5ee0:	09 95       	icall
    5ee2:	89 2b       	or	r24, r25
    5ee4:	e1 f6       	brne	.-72     	; 0x5e9e <fputc+0x10>
    5ee6:	d8 01       	movw	r26, r16
    5ee8:	16 96       	adiw	r26, 0x06	; 6
    5eea:	8d 91       	ld	r24, X+
    5eec:	9c 91       	ld	r25, X
    5eee:	17 97       	sbiw	r26, 0x07	; 7
    5ef0:	01 96       	adiw	r24, 0x01	; 1
    5ef2:	17 96       	adiw	r26, 0x07	; 7
    5ef4:	9c 93       	st	X, r25
    5ef6:	8e 93       	st	-X, r24
    5ef8:	16 97       	sbiw	r26, 0x06	; 6
    5efa:	ce 01       	movw	r24, r28
    5efc:	df 91       	pop	r29
    5efe:	cf 91       	pop	r28
    5f00:	1f 91       	pop	r17
    5f02:	0f 91       	pop	r16
    5f04:	08 95       	ret

00005f06 <__ultoa_invert>:
    5f06:	fa 01       	movw	r30, r20
    5f08:	aa 27       	eor	r26, r26
    5f0a:	28 30       	cpi	r18, 0x08	; 8
    5f0c:	51 f1       	breq	.+84     	; 0x5f62 <__ultoa_invert+0x5c>
    5f0e:	20 31       	cpi	r18, 0x10	; 16
    5f10:	81 f1       	breq	.+96     	; 0x5f72 <__ultoa_invert+0x6c>
    5f12:	e8 94       	clt
    5f14:	6f 93       	push	r22
    5f16:	6e 7f       	andi	r22, 0xFE	; 254
    5f18:	6e 5f       	subi	r22, 0xFE	; 254
    5f1a:	7f 4f       	sbci	r23, 0xFF	; 255
    5f1c:	8f 4f       	sbci	r24, 0xFF	; 255
    5f1e:	9f 4f       	sbci	r25, 0xFF	; 255
    5f20:	af 4f       	sbci	r26, 0xFF	; 255
    5f22:	b1 e0       	ldi	r27, 0x01	; 1
    5f24:	3e d0       	rcall	.+124    	; 0x5fa2 <__ultoa_invert+0x9c>
    5f26:	b4 e0       	ldi	r27, 0x04	; 4
    5f28:	3c d0       	rcall	.+120    	; 0x5fa2 <__ultoa_invert+0x9c>
    5f2a:	67 0f       	add	r22, r23
    5f2c:	78 1f       	adc	r23, r24
    5f2e:	89 1f       	adc	r24, r25
    5f30:	9a 1f       	adc	r25, r26
    5f32:	a1 1d       	adc	r26, r1
    5f34:	68 0f       	add	r22, r24
    5f36:	79 1f       	adc	r23, r25
    5f38:	8a 1f       	adc	r24, r26
    5f3a:	91 1d       	adc	r25, r1
    5f3c:	a1 1d       	adc	r26, r1
    5f3e:	6a 0f       	add	r22, r26
    5f40:	71 1d       	adc	r23, r1
    5f42:	81 1d       	adc	r24, r1
    5f44:	91 1d       	adc	r25, r1
    5f46:	a1 1d       	adc	r26, r1
    5f48:	20 d0       	rcall	.+64     	; 0x5f8a <__ultoa_invert+0x84>
    5f4a:	09 f4       	brne	.+2      	; 0x5f4e <__ultoa_invert+0x48>
    5f4c:	68 94       	set
    5f4e:	3f 91       	pop	r19
    5f50:	2a e0       	ldi	r18, 0x0A	; 10
    5f52:	26 9f       	mul	r18, r22
    5f54:	11 24       	eor	r1, r1
    5f56:	30 19       	sub	r19, r0
    5f58:	30 5d       	subi	r19, 0xD0	; 208
    5f5a:	31 93       	st	Z+, r19
    5f5c:	de f6       	brtc	.-74     	; 0x5f14 <__ultoa_invert+0xe>
    5f5e:	cf 01       	movw	r24, r30
    5f60:	08 95       	ret
    5f62:	46 2f       	mov	r20, r22
    5f64:	47 70       	andi	r20, 0x07	; 7
    5f66:	40 5d       	subi	r20, 0xD0	; 208
    5f68:	41 93       	st	Z+, r20
    5f6a:	b3 e0       	ldi	r27, 0x03	; 3
    5f6c:	0f d0       	rcall	.+30     	; 0x5f8c <__ultoa_invert+0x86>
    5f6e:	c9 f7       	brne	.-14     	; 0x5f62 <__ultoa_invert+0x5c>
    5f70:	f6 cf       	rjmp	.-20     	; 0x5f5e <__ultoa_invert+0x58>
    5f72:	46 2f       	mov	r20, r22
    5f74:	4f 70       	andi	r20, 0x0F	; 15
    5f76:	40 5d       	subi	r20, 0xD0	; 208
    5f78:	4a 33       	cpi	r20, 0x3A	; 58
    5f7a:	18 f0       	brcs	.+6      	; 0x5f82 <__ultoa_invert+0x7c>
    5f7c:	49 5d       	subi	r20, 0xD9	; 217
    5f7e:	31 fd       	sbrc	r19, 1
    5f80:	40 52       	subi	r20, 0x20	; 32
    5f82:	41 93       	st	Z+, r20
    5f84:	02 d0       	rcall	.+4      	; 0x5f8a <__ultoa_invert+0x84>
    5f86:	a9 f7       	brne	.-22     	; 0x5f72 <__ultoa_invert+0x6c>
    5f88:	ea cf       	rjmp	.-44     	; 0x5f5e <__ultoa_invert+0x58>
    5f8a:	b4 e0       	ldi	r27, 0x04	; 4
    5f8c:	a6 95       	lsr	r26
    5f8e:	97 95       	ror	r25
    5f90:	87 95       	ror	r24
    5f92:	77 95       	ror	r23
    5f94:	67 95       	ror	r22
    5f96:	ba 95       	dec	r27
    5f98:	c9 f7       	brne	.-14     	; 0x5f8c <__ultoa_invert+0x86>
    5f9a:	00 97       	sbiw	r24, 0x00	; 0
    5f9c:	61 05       	cpc	r22, r1
    5f9e:	71 05       	cpc	r23, r1
    5fa0:	08 95       	ret
    5fa2:	9b 01       	movw	r18, r22
    5fa4:	ac 01       	movw	r20, r24
    5fa6:	0a 2e       	mov	r0, r26
    5fa8:	06 94       	lsr	r0
    5faa:	57 95       	ror	r21
    5fac:	47 95       	ror	r20
    5fae:	37 95       	ror	r19
    5fb0:	27 95       	ror	r18
    5fb2:	ba 95       	dec	r27
    5fb4:	c9 f7       	brne	.-14     	; 0x5fa8 <__ultoa_invert+0xa2>
    5fb6:	62 0f       	add	r22, r18
    5fb8:	73 1f       	adc	r23, r19
    5fba:	84 1f       	adc	r24, r20
    5fbc:	95 1f       	adc	r25, r21
    5fbe:	a0 1d       	adc	r26, r0
    5fc0:	08 95       	ret

00005fc2 <eeprom_read_byte>:
    5fc2:	f9 99       	sbic	0x1f, 1	; 31
    5fc4:	fe cf       	rjmp	.-4      	; 0x5fc2 <eeprom_read_byte>
    5fc6:	92 bd       	out	0x22, r25	; 34
    5fc8:	81 bd       	out	0x21, r24	; 33
    5fca:	f8 9a       	sbi	0x1f, 0	; 31
    5fcc:	99 27       	eor	r25, r25
    5fce:	80 b5       	in	r24, 0x20	; 32
    5fd0:	08 95       	ret

00005fd2 <eeprom_write_byte>:
    5fd2:	26 2f       	mov	r18, r22

00005fd4 <eeprom_write_r18>:
    5fd4:	f9 99       	sbic	0x1f, 1	; 31
    5fd6:	fe cf       	rjmp	.-4      	; 0x5fd4 <eeprom_write_r18>
    5fd8:	1f ba       	out	0x1f, r1	; 31
    5fda:	92 bd       	out	0x22, r25	; 34
    5fdc:	81 bd       	out	0x21, r24	; 33
    5fde:	20 bd       	out	0x20, r18	; 32
    5fe0:	0f b6       	in	r0, 0x3f	; 63
    5fe2:	f8 94       	cli
    5fe4:	fa 9a       	sbi	0x1f, 2	; 31
    5fe6:	f9 9a       	sbi	0x1f, 1	; 31
    5fe8:	0f be       	out	0x3f, r0	; 63
    5fea:	01 96       	adiw	r24, 0x01	; 1
    5fec:	08 95       	ret

00005fee <_exit>:
    5fee:	f8 94       	cli

00005ff0 <__stop_program>:
    5ff0:	ff cf       	rjmp	.-2      	; 0x5ff0 <__stop_program>
