Archive member included to satisfy reference by file (symbol)

C:\Users\Jose\Documents\rpk2\firmwares\leoencchat\ArduinoSketch1\ArduinoSketch1\ArduinoCore\Debug\libArduinoCore.a(HardwareSerial.o)
                              main.o (_ZN14HardwareSerial9availableEv)
C:\Users\Jose\Documents\rpk2\firmwares\leoencchat\ArduinoSketch1\ArduinoSketch1\ArduinoCore\Debug\libArduinoCore.a(HardwareSerial1.o)
                              main.o (Serial1)
C:\Users\Jose\Documents\rpk2\firmwares\leoencchat\ArduinoSketch1\ArduinoSketch1\ArduinoCore\Debug\libArduinoCore.a(main.o)
                              C:/Program Files (x86)/Atmel/Studio/7.0/Packs/Atmel/ATmega_DFP/1.7.374/gcc/dev/atmega32u4/avr5/crtatmega32u4.o (main)
C:\Users\Jose\Documents\rpk2\firmwares\leoencchat\ArduinoSketch1\ArduinoSketch1\ArduinoCore\Debug\libArduinoCore.a(Print.o)
                              C:\Users\Jose\Documents\rpk2\firmwares\leoencchat\ArduinoSketch1\ArduinoSketch1\ArduinoCore\Debug\libArduinoCore.a(HardwareSerial.o) (_ZN5Print5writeEPKhj)
C:\Users\Jose\Documents\rpk2\firmwares\leoencchat\ArduinoSketch1\ArduinoSketch1\ArduinoCore\Debug\libArduinoCore.a(Stream.o)
                              main.o (_ZN6Stream10readStringEv)
C:\Users\Jose\Documents\rpk2\firmwares\leoencchat\ArduinoSketch1\ArduinoSketch1\ArduinoCore\Debug\libArduinoCore.a(USBCore.o)
                              C:\Users\Jose\Documents\rpk2\firmwares\leoencchat\ArduinoSketch1\ArduinoSketch1\ArduinoCore\Debug\libArduinoCore.a(main.o) (_ZN10USBDevice_6attachEv)
C:\Users\Jose\Documents\rpk2\firmwares\leoencchat\ArduinoSketch1\ArduinoSketch1\ArduinoCore\Debug\libArduinoCore.a(wiring.o)
                              C:\Users\Jose\Documents\rpk2\firmwares\leoencchat\ArduinoSketch1\ArduinoSketch1\ArduinoCore\Debug\libArduinoCore.a(Stream.o) (millis)
C:\Users\Jose\Documents\rpk2\firmwares\leoencchat\ArduinoSketch1\ArduinoSketch1\ArduinoCore\Debug\libArduinoCore.a(wiring_digital.o)
                              main.o (pinMode)
C:\Users\Jose\Documents\rpk2\firmwares\leoencchat\ArduinoSketch1\ArduinoSketch1\ArduinoCore\Debug\libArduinoCore.a(WString.o)
                              main.o (_ZN6StringD1Ev)
C:\Users\Jose\Documents\rpk2\firmwares\leoencchat\ArduinoSketch1\ArduinoSketch1\ArduinoCore\Debug\libArduinoCore.a(RHGenericDriver.o)
                              main.o (_ZN15RHGenericDriver8lastRssiEv)
C:\Users\Jose\Documents\rpk2\firmwares\leoencchat\ArduinoSketch1\ArduinoSketch1\ArduinoCore\Debug\libArduinoCore.a(RHHardwareSPI.o)
                              main.o (hardware_spi)
C:\Users\Jose\Documents\rpk2\firmwares\leoencchat\ArduinoSketch1\ArduinoSketch1\ArduinoCore\Debug\libArduinoCore.a(RH_RF69.o)
                              main.o (_ZN7RH_RF694recvEPhS0_)
C:\Users\Jose\Documents\rpk2\firmwares\leoencchat\ArduinoSketch1\ArduinoSketch1\ArduinoCore\Debug\libArduinoCore.a(SPI.o)
                              C:\Users\Jose\Documents\rpk2\firmwares\leoencchat\ArduinoSketch1\ArduinoSketch1\ArduinoCore\Debug\libArduinoCore.a(RHHardwareSPI.o) (_ZN8SPIClass5beginEv)
C:\Users\Jose\Documents\rpk2\firmwares\leoencchat\ArduinoSketch1\ArduinoSketch1\ArduinoCore\Debug\libArduinoCore.a(abi.o)
                              C:\Users\Jose\Documents\rpk2\firmwares\leoencchat\ArduinoSketch1\ArduinoSketch1\ArduinoCore\Debug\libArduinoCore.a(Print.o) (__cxa_pure_virtual)
C:\Users\Jose\Documents\rpk2\firmwares\leoencchat\ArduinoSketch1\ArduinoSketch1\ArduinoCore\Debug\libArduinoCore.a(CDC.o)
                              C:\Users\Jose\Documents\rpk2\firmwares\leoencchat\ArduinoSketch1\ArduinoSketch1\ArduinoCore\Debug\libArduinoCore.a(USBCore.o) (_Z16CDC_GetInterfacePh)
C:\Users\Jose\Documents\rpk2\firmwares\leoencchat\ArduinoSketch1\ArduinoSketch1\ArduinoCore\Debug\libArduinoCore.a(hooks.o)
                              C:\Users\Jose\Documents\rpk2\firmwares\leoencchat\ArduinoSketch1\ArduinoSketch1\ArduinoCore\Debug\libArduinoCore.a(wiring.o) (yield)
C:\Users\Jose\Documents\rpk2\firmwares\leoencchat\ArduinoSketch1\ArduinoSketch1\ArduinoCore\Debug\libArduinoCore.a(PluggableUSB.o)
                              C:\Users\Jose\Documents\rpk2\firmwares\leoencchat\ArduinoSketch1\ArduinoSketch1\ArduinoCore\Debug\libArduinoCore.a(USBCore.o) (_ZN13PluggableUSB_12getInterfaceEPh)
C:\Users\Jose\Documents\rpk2\firmwares\leoencchat\ArduinoSketch1\ArduinoSketch1\ArduinoCore\Debug\libArduinoCore.a(WInterrupts.o)
                              C:\Users\Jose\Documents\rpk2\firmwares\leoencchat\ArduinoSketch1\ArduinoSketch1\ArduinoCore\Debug\libArduinoCore.a(RH_RF69.o) (attachInterrupt)
C:\Users\Jose\Documents\rpk2\firmwares\leoencchat\ArduinoSketch1\ArduinoSketch1\ArduinoCore\Debug\libArduinoCore.a(WMath.o)
                              C:\Users\Jose\Documents\rpk2\firmwares\leoencchat\ArduinoSketch1\ArduinoSketch1\ArduinoCore\Debug\libArduinoCore.a(RHGenericDriver.o) (_Z6randomll)
C:\Users\Jose\Documents\rpk2\firmwares\leoencchat\ArduinoSketch1\ArduinoSketch1\ArduinoCore\Debug\libArduinoCore.a(RHGenericSPI.o)
                              C:\Users\Jose\Documents\rpk2\firmwares\leoencchat\ArduinoSketch1\ArduinoSketch1\ArduinoCore\Debug\libArduinoCore.a(RHHardwareSPI.o) (_ZN12RHGenericSPI11setBitOrderENS_8BitOrderE)
C:\Users\Jose\Documents\rpk2\firmwares\leoencchat\ArduinoSketch1\ArduinoSketch1\ArduinoCore\Debug\libArduinoCore.a(RHSPIDriver.o)
                              C:\Users\Jose\Documents\rpk2\firmwares\leoencchat\ArduinoSketch1\ArduinoSketch1\ArduinoCore\Debug\libArduinoCore.a(RH_RF69.o) (_ZN11RHSPIDriver4initEv)
c:/program files (x86)/atmel/studio/7.0/toolchain/avr8/avr8-gnu-toolchain/bin/../lib/gcc/avr/5.4.0/../../../../avr/lib/avr5\libm.a(addsf3.o)
                              C:\Users\Jose\Documents\rpk2\firmwares\leoencchat\ArduinoSketch1\ArduinoSketch1\ArduinoCore\Debug\libArduinoCore.a(Print.o) (__subsf3)
c:/program files (x86)/atmel/studio/7.0/toolchain/avr8/avr8-gnu-toolchain/bin/../lib/gcc/avr/5.4.0/../../../../avr/lib/avr5\libm.a(addsf3x.o)
                              c:/program files (x86)/atmel/studio/7.0/toolchain/avr8/avr8-gnu-toolchain/bin/../lib/gcc/avr/5.4.0/../../../../avr/lib/avr5\libm.a(addsf3.o) (__addsf3x)
c:/program files (x86)/atmel/studio/7.0/toolchain/avr8/avr8-gnu-toolchain/bin/../lib/gcc/avr/5.4.0/../../../../avr/lib/avr5\libm.a(cmpsf2.o)
                              C:\Users\Jose\Documents\rpk2\firmwares\leoencchat\ArduinoSketch1\ArduinoSketch1\ArduinoCore\Debug\libArduinoCore.a(Print.o) (__ltsf2)
c:/program files (x86)/atmel/studio/7.0/toolchain/avr8/avr8-gnu-toolchain/bin/../lib/gcc/avr/5.4.0/../../../../avr/lib/avr5\libm.a(divsf3.o)
                              C:\Users\Jose\Documents\rpk2\firmwares\leoencchat\ArduinoSketch1\ArduinoSketch1\ArduinoCore\Debug\libArduinoCore.a(Print.o) (__divsf3)
c:/program files (x86)/atmel/studio/7.0/toolchain/avr8/avr8-gnu-toolchain/bin/../lib/gcc/avr/5.4.0/../../../../avr/lib/avr5\libm.a(divsf3x.o)
                              c:/program files (x86)/atmel/studio/7.0/toolchain/avr8/avr8-gnu-toolchain/bin/../lib/gcc/avr/5.4.0/../../../../avr/lib/avr5\libm.a(divsf3.o) (__divsf3x)
c:/program files (x86)/atmel/studio/7.0/toolchain/avr8/avr8-gnu-toolchain/bin/../lib/gcc/avr/5.4.0/../../../../avr/lib/avr5\libm.a(fixunssfsi.o)
                              C:\Users\Jose\Documents\rpk2\firmwares\leoencchat\ArduinoSketch1\ArduinoSketch1\ArduinoCore\Debug\libArduinoCore.a(Print.o) (__fixunssfsi)
c:/program files (x86)/atmel/studio/7.0/toolchain/avr8/avr8-gnu-toolchain/bin/../lib/gcc/avr/5.4.0/../../../../avr/lib/avr5\libm.a(floatsisf.o)
                              C:\Users\Jose\Documents\rpk2\firmwares\leoencchat\ArduinoSketch1\ArduinoSketch1\ArduinoCore\Debug\libArduinoCore.a(Print.o) (__floatunsisf)
c:/program files (x86)/atmel/studio/7.0/toolchain/avr8/avr8-gnu-toolchain/bin/../lib/gcc/avr/5.4.0/../../../../avr/lib/avr5\libm.a(fp_cmp.o)
                              c:/program files (x86)/atmel/studio/7.0/toolchain/avr8/avr8-gnu-toolchain/bin/../lib/gcc/avr/5.4.0/../../../../avr/lib/avr5\libm.a(cmpsf2.o) (__fp_cmp)
c:/program files (x86)/atmel/studio/7.0/toolchain/avr8/avr8-gnu-toolchain/bin/../lib/gcc/avr/5.4.0/../../../../avr/lib/avr5\libm.a(fp_inf.o)
                              c:/program files (x86)/atmel/studio/7.0/toolchain/avr8/avr8-gnu-toolchain/bin/../lib/gcc/avr/5.4.0/../../../../avr/lib/avr5\libm.a(addsf3x.o) (__fp_inf)
c:/program files (x86)/atmel/studio/7.0/toolchain/avr8/avr8-gnu-toolchain/bin/../lib/gcc/avr/5.4.0/../../../../avr/lib/avr5\libm.a(fp_nan.o)
                              c:/program files (x86)/atmel/studio/7.0/toolchain/avr8/avr8-gnu-toolchain/bin/../lib/gcc/avr/5.4.0/../../../../avr/lib/avr5\libm.a(addsf3x.o) (__fp_nan)
c:/program files (x86)/atmel/studio/7.0/toolchain/avr8/avr8-gnu-toolchain/bin/../lib/gcc/avr/5.4.0/../../../../avr/lib/avr5\libm.a(fp_pscA.o)
                              c:/program files (x86)/atmel/studio/7.0/toolchain/avr8/avr8-gnu-toolchain/bin/../lib/gcc/avr/5.4.0/../../../../avr/lib/avr5\libm.a(addsf3x.o) (__fp_pscA)
c:/program files (x86)/atmel/studio/7.0/toolchain/avr8/avr8-gnu-toolchain/bin/../lib/gcc/avr/5.4.0/../../../../avr/lib/avr5\libm.a(fp_pscB.o)
                              c:/program files (x86)/atmel/studio/7.0/toolchain/avr8/avr8-gnu-toolchain/bin/../lib/gcc/avr/5.4.0/../../../../avr/lib/avr5\libm.a(addsf3x.o) (__fp_pscB)
c:/program files (x86)/atmel/studio/7.0/toolchain/avr8/avr8-gnu-toolchain/bin/../lib/gcc/avr/5.4.0/../../../../avr/lib/avr5\libm.a(fp_round.o)
                              c:/program files (x86)/atmel/studio/7.0/toolchain/avr8/avr8-gnu-toolchain/bin/../lib/gcc/avr/5.4.0/../../../../avr/lib/avr5\libm.a(addsf3.o) (__fp_round)
c:/program files (x86)/atmel/studio/7.0/toolchain/avr8/avr8-gnu-toolchain/bin/../lib/gcc/avr/5.4.0/../../../../avr/lib/avr5\libm.a(fp_split3.o)
                              c:/program files (x86)/atmel/studio/7.0/toolchain/avr8/avr8-gnu-toolchain/bin/../lib/gcc/avr/5.4.0/../../../../avr/lib/avr5\libm.a(addsf3x.o) (__fp_split3)
c:/program files (x86)/atmel/studio/7.0/toolchain/avr8/avr8-gnu-toolchain/bin/../lib/gcc/avr/5.4.0/../../../../avr/lib/avr5\libm.a(fp_zero.o)
                              c:/program files (x86)/atmel/studio/7.0/toolchain/avr8/avr8-gnu-toolchain/bin/../lib/gcc/avr/5.4.0/../../../../avr/lib/avr5\libm.a(addsf3x.o) (__fp_zero)
c:/program files (x86)/atmel/studio/7.0/toolchain/avr8/avr8-gnu-toolchain/bin/../lib/gcc/avr/5.4.0/../../../../avr/lib/avr5\libm.a(gesf2.o)
                              C:\Users\Jose\Documents\rpk2\firmwares\leoencchat\ArduinoSketch1\ArduinoSketch1\ArduinoCore\Debug\libArduinoCore.a(Print.o) (__gtsf2)
c:/program files (x86)/atmel/studio/7.0/toolchain/avr8/avr8-gnu-toolchain/bin/../lib/gcc/avr/5.4.0/../../../../avr/lib/avr5\libm.a(mulsf3.o)
                              C:\Users\Jose\Documents\rpk2\firmwares\leoencchat\ArduinoSketch1\ArduinoSketch1\ArduinoCore\Debug\libArduinoCore.a(Print.o) (__mulsf3)
c:/program files (x86)/atmel/studio/7.0/toolchain/avr8/avr8-gnu-toolchain/bin/../lib/gcc/avr/5.4.0/../../../../avr/lib/avr5\libm.a(mulsf3x.o)
                              c:/program files (x86)/atmel/studio/7.0/toolchain/avr8/avr8-gnu-toolchain/bin/../lib/gcc/avr/5.4.0/../../../../avr/lib/avr5\libm.a(mulsf3.o) (__mulsf3x)
c:/program files (x86)/atmel/studio/7.0/toolchain/avr8/avr8-gnu-toolchain/bin/../lib/gcc/avr/5.4.0/../../../../avr/lib/avr5\libm.a(unordsf2.o)
                              C:\Users\Jose\Documents\rpk2\firmwares\leoencchat\ArduinoSketch1\ArduinoSketch1\ArduinoCore\Debug\libArduinoCore.a(Print.o) (__unordsf2)
c:/program files (x86)/atmel/studio/7.0/toolchain/avr8/avr8-gnu-toolchain/bin/../lib/gcc/avr/5.4.0/avr5\libgcc.a(_mulsi3.o)
                              C:\Users\Jose\Documents\rpk2\firmwares\leoencchat\ArduinoSketch1\ArduinoSketch1\ArduinoCore\Debug\libArduinoCore.a(WMath.o) (__mulsi3)
c:/program files (x86)/atmel/studio/7.0/toolchain/avr8/avr8-gnu-toolchain/bin/../lib/gcc/avr/5.4.0/avr5\libgcc.a(_udivmodsi4.o)
                              C:\Users\Jose\Documents\rpk2\firmwares\leoencchat\ArduinoSketch1\ArduinoSketch1\ArduinoCore\Debug\libArduinoCore.a(HardwareSerial.o) (__udivmodsi4)
c:/program files (x86)/atmel/studio/7.0/toolchain/avr8/avr8-gnu-toolchain/bin/../lib/gcc/avr/5.4.0/avr5\libgcc.a(_divmodsi4.o)
                              C:\Users\Jose\Documents\rpk2\firmwares\leoencchat\ArduinoSketch1\ArduinoSketch1\ArduinoCore\Debug\libArduinoCore.a(WMath.o) (__divmodsi4)
c:/program files (x86)/atmel/studio/7.0/toolchain/avr8/avr8-gnu-toolchain/bin/../lib/gcc/avr/5.4.0/avr5\libgcc.a(_negsi2.o)
                              c:/program files (x86)/atmel/studio/7.0/toolchain/avr8/avr8-gnu-toolchain/bin/../lib/gcc/avr/5.4.0/avr5\libgcc.a(_divmodsi4.o) (__negsi2)
c:/program files (x86)/atmel/studio/7.0/toolchain/avr8/avr8-gnu-toolchain/bin/../lib/gcc/avr/5.4.0/avr5\libgcc.a(_exit.o)
                              C:/Program Files (x86)/Atmel/Studio/7.0/Packs/Atmel/ATmega_DFP/1.7.374/gcc/dev/atmega32u4/avr5/crtatmega32u4.o (exit)
c:/program files (x86)/atmel/studio/7.0/toolchain/avr8/avr8-gnu-toolchain/bin/../lib/gcc/avr/5.4.0/avr5\libgcc.a(_tablejump2.o)
                              C:\Users\Jose\Documents\rpk2\firmwares\leoencchat\ArduinoSketch1\ArduinoSketch1\ArduinoCore\Debug\libArduinoCore.a(wiring_digital.o) (__tablejump2__)
c:/program files (x86)/atmel/studio/7.0/toolchain/avr8/avr8-gnu-toolchain/bin/../lib/gcc/avr/5.4.0/avr5\libgcc.a(_copy_data.o)
                              main.o (__do_copy_data)
c:/program files (x86)/atmel/studio/7.0/toolchain/avr8/avr8-gnu-toolchain/bin/../lib/gcc/avr/5.4.0/avr5\libgcc.a(_clear_bss.o)
                              main.o (__do_clear_bss)
c:/program files (x86)/atmel/studio/7.0/toolchain/avr8/avr8-gnu-toolchain/bin/../lib/gcc/avr/5.4.0/avr5\libgcc.a(_ctors.o)
                              main.o (__do_global_ctors)
c:/program files (x86)/atmel/studio/7.0/toolchain/avr8/avr8-gnu-toolchain/bin/../lib/gcc/avr/5.4.0/avr5\libgcc.a(_dtors.o)
                              main.o (__do_global_dtors)
c:/program files (x86)/atmel/studio/7.0/toolchain/avr8/avr8-gnu-toolchain/bin/../lib/gcc/avr/5.4.0/avr5\libgcc.a(_muluhisi3.o)
                              C:\Users\Jose\Documents\rpk2\firmwares\leoencchat\ArduinoSketch1\ArduinoSketch1\ArduinoCore\Debug\libArduinoCore.a(Stream.o) (__muluhisi3)
c:/program files (x86)/atmel/studio/7.0/toolchain/avr8/avr8-gnu-toolchain/bin/../lib/gcc/avr/5.4.0/avr5\libgcc.a(_umulhisi3.o)
                              c:/program files (x86)/atmel/studio/7.0/toolchain/avr8/avr8-gnu-toolchain/bin/../lib/gcc/avr/5.4.0/avr5\libgcc.a(_muluhisi3.o) (__umulhisi3)
c:/program files (x86)/atmel/studio/7.0/toolchain/avr8/avr8-gnu-toolchain/bin/../lib/gcc/avr/5.4.0/../../../../avr/lib/avr5\libc.a(dtostrf.o)
                              C:\Users\Jose\Documents\rpk2\firmwares\leoencchat\ArduinoSketch1\ArduinoSketch1\ArduinoCore\Debug\libArduinoCore.a(WString.o) (dtostrf)
c:/program files (x86)/atmel/studio/7.0/toolchain/avr8/avr8-gnu-toolchain/bin/../lib/gcc/avr/5.4.0/../../../../avr/lib/avr5\libc.a(malloc.o)
                              C:\Users\Jose\Documents\rpk2\firmwares\leoencchat\ArduinoSketch1\ArduinoSketch1\ArduinoCore\Debug\libArduinoCore.a(WString.o) (free)
c:/program files (x86)/atmel/studio/7.0/toolchain/avr8/avr8-gnu-toolchain/bin/../lib/gcc/avr/5.4.0/../../../../avr/lib/avr5\libc.a(random.o)
                              C:\Users\Jose\Documents\rpk2\firmwares\leoencchat\ArduinoSketch1\ArduinoSketch1\ArduinoCore\Debug\libArduinoCore.a(WMath.o) (random)
c:/program files (x86)/atmel/studio/7.0/toolchain/avr8/avr8-gnu-toolchain/bin/../lib/gcc/avr/5.4.0/../../../../avr/lib/avr5\libc.a(realloc.o)
                              C:\Users\Jose\Documents\rpk2\firmwares\leoencchat\ArduinoSketch1\ArduinoSketch1\ArduinoCore\Debug\libArduinoCore.a(WString.o) (realloc)
c:/program files (x86)/atmel/studio/7.0/toolchain/avr8/avr8-gnu-toolchain/bin/../lib/gcc/avr/5.4.0/../../../../avr/lib/avr5\libc.a(abort.o)
                              C:\Users\Jose\Documents\rpk2\firmwares\leoencchat\ArduinoSketch1\ArduinoSketch1\ArduinoCore\Debug\libArduinoCore.a(abi.o) (abort)
c:/program files (x86)/atmel/studio/7.0/toolchain/avr8/avr8-gnu-toolchain/bin/../lib/gcc/avr/5.4.0/../../../../avr/lib/avr5\libc.a(atof.o)
                              C:\Users\Jose\Documents\rpk2\firmwares\leoencchat\ArduinoSketch1\ArduinoSketch1\ArduinoCore\Debug\libArduinoCore.a(WString.o) (atof)
c:/program files (x86)/atmel/studio/7.0/toolchain/avr8/avr8-gnu-toolchain/bin/../lib/gcc/avr/5.4.0/../../../../avr/lib/avr5\libc.a(atol.o)
                              C:\Users\Jose\Documents\rpk2\firmwares\leoencchat\ArduinoSketch1\ArduinoSketch1\ArduinoCore\Debug\libArduinoCore.a(WString.o) (atol)
c:/program files (x86)/atmel/studio/7.0/toolchain/avr8/avr8-gnu-toolchain/bin/../lib/gcc/avr/5.4.0/../../../../avr/lib/avr5\libc.a(isspace.o)
                              C:\Users\Jose\Documents\rpk2\firmwares\leoencchat\ArduinoSketch1\ArduinoSketch1\ArduinoCore\Debug\libArduinoCore.a(WString.o) (isspace)
c:/program files (x86)/atmel/studio/7.0/toolchain/avr8/avr8-gnu-toolchain/bin/../lib/gcc/avr/5.4.0/../../../../avr/lib/avr5\libc.a(tolower.o)
                              C:\Users\Jose\Documents\rpk2\firmwares\leoencchat\ArduinoSketch1\ArduinoSketch1\ArduinoCore\Debug\libArduinoCore.a(WString.o) (tolower)
c:/program files (x86)/atmel/studio/7.0/toolchain/avr8/avr8-gnu-toolchain/bin/../lib/gcc/avr/5.4.0/../../../../avr/lib/avr5\libc.a(toupper.o)
                              C:\Users\Jose\Documents\rpk2\firmwares\leoencchat\ArduinoSketch1\ArduinoSketch1\ArduinoCore\Debug\libArduinoCore.a(WString.o) (toupper)
c:/program files (x86)/atmel/studio/7.0/toolchain/avr8/avr8-gnu-toolchain/bin/../lib/gcc/avr/5.4.0/../../../../avr/lib/avr5\libc.a(memcpy_P.o)
                              C:\Users\Jose\Documents\rpk2\firmwares\leoencchat\ArduinoSketch1\ArduinoSketch1\ArduinoCore\Debug\libArduinoCore.a(RH_RF69.o) (memcpy_P)
c:/program files (x86)/atmel/studio/7.0/toolchain/avr8/avr8-gnu-toolchain/bin/../lib/gcc/avr/5.4.0/../../../../avr/lib/avr5\libc.a(strcpy_P.o)
                              C:\Users\Jose\Documents\rpk2\firmwares\leoencchat\ArduinoSketch1\ArduinoSketch1\ArduinoCore\Debug\libArduinoCore.a(WString.o) (strcpy_P)
c:/program files (x86)/atmel/studio/7.0/toolchain/avr8/avr8-gnu-toolchain/bin/../lib/gcc/avr/5.4.0/../../../../avr/lib/avr5\libc.a(strlen_P.o)
                              C:\Users\Jose\Documents\rpk2\firmwares\leoencchat\ArduinoSketch1\ArduinoSketch1\ArduinoCore\Debug\libArduinoCore.a(WString.o) (__strlen_P)
c:/program files (x86)/atmel/studio/7.0/toolchain/avr8/avr8-gnu-toolchain/bin/../lib/gcc/avr/5.4.0/../../../../avr/lib/avr5\libc.a(memcpy.o)
                              C:\Users\Jose\Documents\rpk2\firmwares\leoencchat\ArduinoSketch1\ArduinoSketch1\ArduinoCore\Debug\libArduinoCore.a(WString.o) (memcpy)
c:/program files (x86)/atmel/studio/7.0/toolchain/avr8/avr8-gnu-toolchain/bin/../lib/gcc/avr/5.4.0/../../../../avr/lib/avr5\libc.a(memmove.o)
                              C:\Users\Jose\Documents\rpk2\firmwares\leoencchat\ArduinoSketch1\ArduinoSketch1\ArduinoCore\Debug\libArduinoCore.a(WString.o) (memmove)
c:/program files (x86)/atmel/studio/7.0/toolchain/avr8/avr8-gnu-toolchain/bin/../lib/gcc/avr/5.4.0/../../../../avr/lib/avr5\libc.a(strchr.o)
                              C:\Users\Jose\Documents\rpk2\firmwares\leoencchat\ArduinoSketch1\ArduinoSketch1\ArduinoCore\Debug\libArduinoCore.a(WString.o) (strchr)
c:/program files (x86)/atmel/studio/7.0/toolchain/avr8/avr8-gnu-toolchain/bin/../lib/gcc/avr/5.4.0/../../../../avr/lib/avr5\libc.a(strcmp.o)
                              C:\Users\Jose\Documents\rpk2\firmwares\leoencchat\ArduinoSketch1\ArduinoSketch1\ArduinoCore\Debug\libArduinoCore.a(WString.o) (strcmp)
c:/program files (x86)/atmel/studio/7.0/toolchain/avr8/avr8-gnu-toolchain/bin/../lib/gcc/avr/5.4.0/../../../../avr/lib/avr5\libc.a(strcpy.o)
                              C:\Users\Jose\Documents\rpk2\firmwares\leoencchat\ArduinoSketch1\ArduinoSketch1\ArduinoCore\Debug\libArduinoCore.a(WString.o) (strcpy)
c:/program files (x86)/atmel/studio/7.0/toolchain/avr8/avr8-gnu-toolchain/bin/../lib/gcc/avr/5.4.0/../../../../avr/lib/avr5\libc.a(strncmp.o)
                              C:\Users\Jose\Documents\rpk2\firmwares\leoencchat\ArduinoSketch1\ArduinoSketch1\ArduinoCore\Debug\libArduinoCore.a(WString.o) (strncmp)
c:/program files (x86)/atmel/studio/7.0/toolchain/avr8/avr8-gnu-toolchain/bin/../lib/gcc/avr/5.4.0/../../../../avr/lib/avr5\libc.a(strncpy.o)
                              C:\Users\Jose\Documents\rpk2\firmwares\leoencchat\ArduinoSketch1\ArduinoSketch1\ArduinoCore\Debug\libArduinoCore.a(WString.o) (strncpy)
c:/program files (x86)/atmel/studio/7.0/toolchain/avr8/avr8-gnu-toolchain/bin/../lib/gcc/avr/5.4.0/../../../../avr/lib/avr5\libc.a(strrchr.o)
                              C:\Users\Jose\Documents\rpk2\firmwares\leoencchat\ArduinoSketch1\ArduinoSketch1\ArduinoCore\Debug\libArduinoCore.a(WString.o) (strrchr)
c:/program files (x86)/atmel/studio/7.0/toolchain/avr8/avr8-gnu-toolchain/bin/../lib/gcc/avr/5.4.0/../../../../avr/lib/avr5\libc.a(strstr.o)
                              C:\Users\Jose\Documents\rpk2\firmwares\leoencchat\ArduinoSketch1\ArduinoSketch1\ArduinoCore\Debug\libArduinoCore.a(WString.o) (strstr)
c:/program files (x86)/atmel/studio/7.0/toolchain/avr8/avr8-gnu-toolchain/bin/../lib/gcc/avr/5.4.0/../../../../avr/lib/avr5\libc.a(itoa.o)
                              C:\Users\Jose\Documents\rpk2\firmwares\leoencchat\ArduinoSketch1\ArduinoSketch1\ArduinoCore\Debug\libArduinoCore.a(WString.o) (__itoa)
c:/program files (x86)/atmel/studio/7.0/toolchain/avr8/avr8-gnu-toolchain/bin/../lib/gcc/avr/5.4.0/../../../../avr/lib/avr5\libc.a(itoa_ncheck.o)
                              C:\Users\Jose\Documents\rpk2\firmwares\leoencchat\ArduinoSketch1\ArduinoSketch1\ArduinoCore\Debug\libArduinoCore.a(WString.o) (__itoa_ncheck)
c:/program files (x86)/atmel/studio/7.0/toolchain/avr8/avr8-gnu-toolchain/bin/../lib/gcc/avr/5.4.0/../../../../avr/lib/avr5\libc.a(ltoa.o)
                              C:\Users\Jose\Documents\rpk2\firmwares\leoencchat\ArduinoSketch1\ArduinoSketch1\ArduinoCore\Debug\libArduinoCore.a(WString.o) (__ltoa)
c:/program files (x86)/atmel/studio/7.0/toolchain/avr8/avr8-gnu-toolchain/bin/../lib/gcc/avr/5.4.0/../../../../avr/lib/avr5\libc.a(ltoa_ncheck.o)
                              C:\Users\Jose\Documents\rpk2\firmwares\leoencchat\ArduinoSketch1\ArduinoSketch1\ArduinoCore\Debug\libArduinoCore.a(WString.o) (__ltoa_ncheck)
c:/program files (x86)/atmel/studio/7.0/toolchain/avr8/avr8-gnu-toolchain/bin/../lib/gcc/avr/5.4.0/../../../../avr/lib/avr5\libc.a(mulsi10.o)
                              c:/program files (x86)/atmel/studio/7.0/toolchain/avr8/avr8-gnu-toolchain/bin/../lib/gcc/avr/5.4.0/../../../../avr/lib/avr5\libc.a(atol.o) (__mulsi_const_10)
c:/program files (x86)/atmel/studio/7.0/toolchain/avr8/avr8-gnu-toolchain/bin/../lib/gcc/avr/5.4.0/../../../../avr/lib/avr5\libc.a(ultoa.o)
                              C:\Users\Jose\Documents\rpk2\firmwares\leoencchat\ArduinoSketch1\ArduinoSketch1\ArduinoCore\Debug\libArduinoCore.a(WString.o) (__ultoa)
c:/program files (x86)/atmel/studio/7.0/toolchain/avr8/avr8-gnu-toolchain/bin/../lib/gcc/avr/5.4.0/../../../../avr/lib/avr5\libc.a(ultoa_ncheck.o)
                              C:\Users\Jose\Documents\rpk2\firmwares\leoencchat\ArduinoSketch1\ArduinoSketch1\ArduinoCore\Debug\libArduinoCore.a(WString.o) (__ultoa_ncheck)
c:/program files (x86)/atmel/studio/7.0/toolchain/avr8/avr8-gnu-toolchain/bin/../lib/gcc/avr/5.4.0/../../../../avr/lib/avr5\libc.a(utoa.o)
                              C:\Users\Jose\Documents\rpk2\firmwares\leoencchat\ArduinoSketch1\ArduinoSketch1\ArduinoCore\Debug\libArduinoCore.a(WString.o) (__utoa)
c:/program files (x86)/atmel/studio/7.0/toolchain/avr8/avr8-gnu-toolchain/bin/../lib/gcc/avr/5.4.0/../../../../avr/lib/avr5\libc.a(utoa_ncheck.o)
                              C:\Users\Jose\Documents\rpk2\firmwares\leoencchat\ArduinoSketch1\ArduinoSketch1\ArduinoCore\Debug\libArduinoCore.a(WString.o) (__utoa_ncheck)
c:/program files (x86)/atmel/studio/7.0/toolchain/avr8/avr8-gnu-toolchain/bin/../lib/gcc/avr/5.4.0/../../../../avr/lib/avr5\libc.a(dtoa_prf.o)
                              c:/program files (x86)/atmel/studio/7.0/toolchain/avr8/avr8-gnu-toolchain/bin/../lib/gcc/avr/5.4.0/../../../../avr/lib/avr5\libc.a(dtostrf.o) (dtoa_prf)
c:/program files (x86)/atmel/studio/7.0/toolchain/avr8/avr8-gnu-toolchain/bin/../lib/gcc/avr/5.4.0/../../../../avr/lib/avr5\libc.a(strtod.o)
                              c:/program files (x86)/atmel/studio/7.0/toolchain/avr8/avr8-gnu-toolchain/bin/../lib/gcc/avr/5.4.0/../../../../avr/lib/avr5\libc.a(atof.o) (strtod)
c:/program files (x86)/atmel/studio/7.0/toolchain/avr8/avr8-gnu-toolchain/bin/../lib/gcc/avr/5.4.0/../../../../avr/lib/avr5\libc.a(ftoa_engine.o)
                              c:/program files (x86)/atmel/studio/7.0/toolchain/avr8/avr8-gnu-toolchain/bin/../lib/gcc/avr/5.4.0/../../../../avr/lib/avr5\libc.a(dtoa_prf.o) (__ftoa_engine)
c:/program files (x86)/atmel/studio/7.0/toolchain/avr8/avr8-gnu-toolchain/bin/../lib/gcc/avr/5.4.0/../../../../avr/lib/avr5\libc.a(cty_isfalse.o)
                              c:/program files (x86)/atmel/studio/7.0/toolchain/avr8/avr8-gnu-toolchain/bin/../lib/gcc/avr/5.4.0/../../../../avr/lib/avr5\libc.a(isspace.o) (__ctype_isfalse)
c:/program files (x86)/atmel/studio/7.0/toolchain/avr8/avr8-gnu-toolchain/bin/../lib/gcc/avr/5.4.0/../../../../avr/lib/avr5\libc.a(strncasecmp_P.o)
                              c:/program files (x86)/atmel/studio/7.0/toolchain/avr8/avr8-gnu-toolchain/bin/../lib/gcc/avr/5.4.0/../../../../avr/lib/avr5\libc.a(strtod.o) (strncasecmp_P)
c:/program files (x86)/atmel/studio/7.0/toolchain/avr8/avr8-gnu-toolchain/bin/../lib/gcc/avr/5.4.0/../../../../avr/lib/avr5\libc.a(strrev.o)
                              c:/program files (x86)/atmel/studio/7.0/toolchain/avr8/avr8-gnu-toolchain/bin/../lib/gcc/avr/5.4.0/../../../../avr/lib/avr5\libc.a(ultoa_ncheck.o) (strrev)
c:/program files (x86)/atmel/studio/7.0/toolchain/avr8/avr8-gnu-toolchain/bin/../lib/gcc/avr/5.4.0/../../../../avr/lib/avr5\libc.a(errno.o)
                              c:/program files (x86)/atmel/studio/7.0/toolchain/avr8/avr8-gnu-toolchain/bin/../lib/gcc/avr/5.4.0/../../../../avr/lib/avr5\libc.a(strtod.o) (errno)
c:/program files (x86)/atmel/studio/7.0/toolchain/avr8/avr8-gnu-toolchain/bin/../lib/gcc/avr/5.4.0/avr5\libgcc.a(_mulshisi3.o)
                              c:/program files (x86)/atmel/studio/7.0/toolchain/avr8/avr8-gnu-toolchain/bin/../lib/gcc/avr/5.4.0/../../../../avr/lib/avr5\libc.a(random.o) (__mulohisi3)
c:/program files (x86)/atmel/studio/7.0/toolchain/avr8/avr8-gnu-toolchain/bin/../lib/gcc/avr/5.4.0/avr5\libgcc.a(_prologue.o)
                              c:/program files (x86)/atmel/studio/7.0/toolchain/avr8/avr8-gnu-toolchain/bin/../lib/gcc/avr/5.4.0/../../../../avr/lib/avr5\libc.a(realloc.o) (__prologue_saves__)
c:/program files (x86)/atmel/studio/7.0/toolchain/avr8/avr8-gnu-toolchain/bin/../lib/gcc/avr/5.4.0/avr5\libgcc.a(_epilogue.o)
                              c:/program files (x86)/atmel/studio/7.0/toolchain/avr8/avr8-gnu-toolchain/bin/../lib/gcc/avr/5.4.0/../../../../avr/lib/avr5\libc.a(realloc.o) (__epilogue_restores__)

Allocating common symbols
Common symbol       size              file

errno               0x2               c:/program files (x86)/atmel/studio/7.0/toolchain/avr8/avr8-gnu-toolchain/bin/../lib/gcc/avr/5.4.0/../../../../avr/lib/avr5\libc.a(errno.o)
__brkval            0x2               c:/program files (x86)/atmel/studio/7.0/toolchain/avr8/avr8-gnu-toolchain/bin/../lib/gcc/avr/5.4.0/../../../../avr/lib/avr5\libc.a(malloc.o)
__flp               0x2               c:/program files (x86)/atmel/studio/7.0/toolchain/avr8/avr8-gnu-toolchain/bin/../lib/gcc/avr/5.4.0/../../../../avr/lib/avr5\libc.a(malloc.o)

Discarded input sections

 .data          0x00000000        0x0 C:/Program Files (x86)/Atmel/Studio/7.0/Packs/Atmel/ATmega_DFP/1.7.374/gcc/dev/atmega32u4/avr5/crtatmega32u4.o
 .bss           0x00000000        0x0 C:/Program Files (x86)/Atmel/Studio/7.0/Packs/Atmel/ATmega_DFP/1.7.374/gcc/dev/atmega32u4/avr5/crtatmega32u4.o
 .text          0x00000000        0x0 main.o
 .data          0x00000000        0x0 main.o
 .bss           0x00000000        0x0 main.o
 .text._Z6rfreadv
                0x00000000       0xba main.o
 .text._Z9echo_backv
                0x00000000       0x66 main.o
 .text._Z12serial_to_rfv
                0x00000000       0xa6 main.o
 .bss.serial_eol
                0x00000000        0x1 main.o
 .group         0x00000000        0x8 C:\Users\Jose\Documents\rpk2\firmwares\leoencchat\ArduinoSketch1\ArduinoSketch1\ArduinoCore\Debug\libArduinoCore.a(HardwareSerial.o)
 .text          0x00000000        0x0 C:\Users\Jose\Documents\rpk2\firmwares\leoencchat\ArduinoSketch1\ArduinoSketch1\ArduinoCore\Debug\libArduinoCore.a(HardwareSerial.o)
 .data          0x00000000        0x0 C:\Users\Jose\Documents\rpk2\firmwares\leoencchat\ArduinoSketch1\ArduinoSketch1\ArduinoCore\Debug\libArduinoCore.a(HardwareSerial.o)
 .bss           0x00000000        0x0 C:\Users\Jose\Documents\rpk2\firmwares\leoencchat\ArduinoSketch1\ArduinoSketch1\ArduinoCore\Debug\libArduinoCore.a(HardwareSerial.o)
 .text._ZN14HardwareSerial3endEv
                0x00000000       0x44 C:\Users\Jose\Documents\rpk2\firmwares\leoencchat\ArduinoSketch1\ArduinoSketch1\ArduinoCore\Debug\libArduinoCore.a(HardwareSerial.o)
 .group         0x00000000        0x8 C:\Users\Jose\Documents\rpk2\firmwares\leoencchat\ArduinoSketch1\ArduinoSketch1\ArduinoCore\Debug\libArduinoCore.a(HardwareSerial1.o)
 .group         0x00000000        0x8 C:\Users\Jose\Documents\rpk2\firmwares\leoencchat\ArduinoSketch1\ArduinoSketch1\ArduinoCore\Debug\libArduinoCore.a(HardwareSerial1.o)
 .text          0x00000000        0x0 C:\Users\Jose\Documents\rpk2\firmwares\leoencchat\ArduinoSketch1\ArduinoSketch1\ArduinoCore\Debug\libArduinoCore.a(HardwareSerial1.o)
 .data          0x00000000        0x0 C:\Users\Jose\Documents\rpk2\firmwares\leoencchat\ArduinoSketch1\ArduinoSketch1\ArduinoCore\Debug\libArduinoCore.a(HardwareSerial1.o)
 .bss           0x00000000        0x0 C:\Users\Jose\Documents\rpk2\firmwares\leoencchat\ArduinoSketch1\ArduinoSketch1\ArduinoCore\Debug\libArduinoCore.a(HardwareSerial1.o)
 .text._ZN5Print17availableForWriteEv
                0x00000000        0x6 C:\Users\Jose\Documents\rpk2\firmwares\leoencchat\ArduinoSketch1\ArduinoSketch1\ArduinoCore\Debug\libArduinoCore.a(HardwareSerial1.o)
 .text._ZN5Print5flushEv
                0x00000000        0x2 C:\Users\Jose\Documents\rpk2\firmwares\leoencchat\ArduinoSketch1\ArduinoSketch1\ArduinoCore\Debug\libArduinoCore.a(HardwareSerial1.o)
 .text          0x00000000        0x0 C:\Users\Jose\Documents\rpk2\firmwares\leoencchat\ArduinoSketch1\ArduinoSketch1\ArduinoCore\Debug\libArduinoCore.a(main.o)
 .data          0x00000000        0x0 C:\Users\Jose\Documents\rpk2\firmwares\leoencchat\ArduinoSketch1\ArduinoSketch1\ArduinoCore\Debug\libArduinoCore.a(main.o)
 .bss           0x00000000        0x0 C:\Users\Jose\Documents\rpk2\firmwares\leoencchat\ArduinoSketch1\ArduinoSketch1\ArduinoCore\Debug\libArduinoCore.a(main.o)
 .text.atexit   0x00000000        0x6 C:\Users\Jose\Documents\rpk2\firmwares\leoencchat\ArduinoSketch1\ArduinoSketch1\ArduinoCore\Debug\libArduinoCore.a(main.o)
 .text._Z8setupUSBv
                0x00000000        0x2 C:\Users\Jose\Documents\rpk2\firmwares\leoencchat\ArduinoSketch1\ArduinoSketch1\ArduinoCore\Debug\libArduinoCore.a(main.o)
 .group         0x00000000        0x8 C:\Users\Jose\Documents\rpk2\firmwares\leoencchat\ArduinoSketch1\ArduinoSketch1\ArduinoCore\Debug\libArduinoCore.a(Print.o)
 .group         0x00000000        0x8 C:\Users\Jose\Documents\rpk2\firmwares\leoencchat\ArduinoSketch1\ArduinoSketch1\ArduinoCore\Debug\libArduinoCore.a(Print.o)
 .group         0x00000000        0x8 C:\Users\Jose\Documents\rpk2\firmwares\leoencchat\ArduinoSketch1\ArduinoSketch1\ArduinoCore\Debug\libArduinoCore.a(Print.o)
 .group         0x00000000        0x8 C:\Users\Jose\Documents\rpk2\firmwares\leoencchat\ArduinoSketch1\ArduinoSketch1\ArduinoCore\Debug\libArduinoCore.a(Print.o)
 .text          0x00000000        0x0 C:\Users\Jose\Documents\rpk2\firmwares\leoencchat\ArduinoSketch1\ArduinoSketch1\ArduinoCore\Debug\libArduinoCore.a(Print.o)
 .data          0x00000000        0x0 C:\Users\Jose\Documents\rpk2\firmwares\leoencchat\ArduinoSketch1\ArduinoSketch1\ArduinoCore\Debug\libArduinoCore.a(Print.o)
 .bss           0x00000000        0x0 C:\Users\Jose\Documents\rpk2\firmwares\leoencchat\ArduinoSketch1\ArduinoSketch1\ArduinoCore\Debug\libArduinoCore.a(Print.o)
 .text._ZN5Print17availableForWriteEv
                0x00000000        0x6 C:\Users\Jose\Documents\rpk2\firmwares\leoencchat\ArduinoSketch1\ArduinoSketch1\ArduinoCore\Debug\libArduinoCore.a(Print.o)
 .text._ZN5Print5flushEv
                0x00000000        0x2 C:\Users\Jose\Documents\rpk2\firmwares\leoencchat\ArduinoSketch1\ArduinoSketch1\ArduinoCore\Debug\libArduinoCore.a(Print.o)
 .text._ZN5Print5printEPK19__FlashStringHelper
                0x00000000       0x48 C:\Users\Jose\Documents\rpk2\firmwares\leoencchat\ArduinoSketch1\ArduinoSketch1\ArduinoCore\Debug\libArduinoCore.a(Print.o)
 .text._ZN5Print5printERK9Printable
                0x00000000       0x14 C:\Users\Jose\Documents\rpk2\firmwares\leoencchat\ArduinoSketch1\ArduinoSketch1\ArduinoCore\Debug\libArduinoCore.a(Print.o)
 .text._ZN5Print7printlnEPK19__FlashStringHelper
                0x00000000       0x24 C:\Users\Jose\Documents\rpk2\firmwares\leoencchat\ArduinoSketch1\ArduinoSketch1\ArduinoCore\Debug\libArduinoCore.a(Print.o)
 .text._ZN5Print7printlnEc
                0x00000000       0x24 C:\Users\Jose\Documents\rpk2\firmwares\leoencchat\ArduinoSketch1\ArduinoSketch1\ArduinoCore\Debug\libArduinoCore.a(Print.o)
 .text._ZN5Print7printlnERK9Printable
                0x00000000       0x24 C:\Users\Jose\Documents\rpk2\firmwares\leoencchat\ArduinoSketch1\ArduinoSketch1\ArduinoCore\Debug\libArduinoCore.a(Print.o)
 .text._ZN5Print5printEmi
                0x00000000       0x1a C:\Users\Jose\Documents\rpk2\firmwares\leoencchat\ArduinoSketch1\ArduinoSketch1\ArduinoCore\Debug\libArduinoCore.a(Print.o)
 .text._ZN5Print5printEhi
                0x00000000        0xe C:\Users\Jose\Documents\rpk2\firmwares\leoencchat\ArduinoSketch1\ArduinoSketch1\ArduinoCore\Debug\libArduinoCore.a(Print.o)
 .text._ZN5Print7printlnEhi
                0x00000000       0x24 C:\Users\Jose\Documents\rpk2\firmwares\leoencchat\ArduinoSketch1\ArduinoSketch1\ArduinoCore\Debug\libArduinoCore.a(Print.o)
 .text._ZN5Print5printEji
                0x00000000        0xc C:\Users\Jose\Documents\rpk2\firmwares\leoencchat\ArduinoSketch1\ArduinoSketch1\ArduinoCore\Debug\libArduinoCore.a(Print.o)
 .text._ZN5Print7printlnEji
                0x00000000       0x24 C:\Users\Jose\Documents\rpk2\firmwares\leoencchat\ArduinoSketch1\ArduinoSketch1\ArduinoCore\Debug\libArduinoCore.a(Print.o)
 .text._ZN5Print7printlnEmi
                0x00000000       0x24 C:\Users\Jose\Documents\rpk2\firmwares\leoencchat\ArduinoSketch1\ArduinoSketch1\ArduinoCore\Debug\libArduinoCore.a(Print.o)
 .text._ZN5Print7printlnEii
                0x00000000       0x24 C:\Users\Jose\Documents\rpk2\firmwares\leoencchat\ArduinoSketch1\ArduinoSketch1\ArduinoCore\Debug\libArduinoCore.a(Print.o)
 .text._ZN5Print7printlnEli
                0x00000000       0x24 C:\Users\Jose\Documents\rpk2\firmwares\leoencchat\ArduinoSketch1\ArduinoSketch1\ArduinoCore\Debug\libArduinoCore.a(Print.o)
 .text._ZN5Print10printFloatEdh
                0x00000000      0x1b6 C:\Users\Jose\Documents\rpk2\firmwares\leoencchat\ArduinoSketch1\ArduinoSketch1\ArduinoCore\Debug\libArduinoCore.a(Print.o)
 .text._ZN5Print5printEdi
                0x00000000        0x4 C:\Users\Jose\Documents\rpk2\firmwares\leoencchat\ArduinoSketch1\ArduinoSketch1\ArduinoCore\Debug\libArduinoCore.a(Print.o)
 .text._ZN5Print7printlnEdi
                0x00000000       0x24 C:\Users\Jose\Documents\rpk2\firmwares\leoencchat\ArduinoSketch1\ArduinoSketch1\ArduinoCore\Debug\libArduinoCore.a(Print.o)
 .rodata._ZTV5Print
                0x00000000        0xc C:\Users\Jose\Documents\rpk2\firmwares\leoencchat\ArduinoSketch1\ArduinoSketch1\ArduinoCore\Debug\libArduinoCore.a(Print.o)
 .text          0x00000000        0x0 C:\Users\Jose\Documents\rpk2\firmwares\leoencchat\ArduinoSketch1\ArduinoSketch1\ArduinoCore\Debug\libArduinoCore.a(Stream.o)
 .data          0x00000000        0x0 C:\Users\Jose\Documents\rpk2\firmwares\leoencchat\ArduinoSketch1\ArduinoSketch1\ArduinoCore\Debug\libArduinoCore.a(Stream.o)
 .bss           0x00000000        0x0 C:\Users\Jose\Documents\rpk2\firmwares\leoencchat\ArduinoSketch1\ArduinoSketch1\ArduinoCore\Debug\libArduinoCore.a(Stream.o)
 .text._ZN6Stream9timedReadEv
                0x00000000       0x60 C:\Users\Jose\Documents\rpk2\firmwares\leoencchat\ArduinoSketch1\ArduinoSketch1\ArduinoCore\Debug\libArduinoCore.a(Stream.o)
 .text._ZN6Stream9timedPeekEv
                0x00000000       0x60 C:\Users\Jose\Documents\rpk2\firmwares\leoencchat\ArduinoSketch1\ArduinoSketch1\ArduinoCore\Debug\libArduinoCore.a(Stream.o)
 .text._ZN6Stream13peekNextDigitE13LookaheadModeb
                0x00000000       0x78 C:\Users\Jose\Documents\rpk2\firmwares\leoencchat\ArduinoSketch1\ArduinoSketch1\ArduinoCore\Debug\libArduinoCore.a(Stream.o)
 .text._ZN6Stream10setTimeoutEm
                0x00000000        0xc C:\Users\Jose\Documents\rpk2\firmwares\leoencchat\ArduinoSketch1\ArduinoSketch1\ArduinoCore\Debug\libArduinoCore.a(Stream.o)
 .text._ZN6Stream8parseIntE13LookaheadModec
                0x00000000       0xcc C:\Users\Jose\Documents\rpk2\firmwares\leoencchat\ArduinoSketch1\ArduinoSketch1\ArduinoCore\Debug\libArduinoCore.a(Stream.o)
 .text._ZN6Stream10parseFloatE13LookaheadModec
                0x00000000      0x12a C:\Users\Jose\Documents\rpk2\firmwares\leoencchat\ArduinoSketch1\ArduinoSketch1\ArduinoCore\Debug\libArduinoCore.a(Stream.o)
 .text._ZN6Stream9readBytesEPcj
                0x00000000       0x4a C:\Users\Jose\Documents\rpk2\firmwares\leoencchat\ArduinoSketch1\ArduinoSketch1\ArduinoCore\Debug\libArduinoCore.a(Stream.o)
 .text._ZN6Stream14readBytesUntilEcPcj
                0x00000000       0x5a C:\Users\Jose\Documents\rpk2\firmwares\leoencchat\ArduinoSketch1\ArduinoSketch1\ArduinoCore\Debug\libArduinoCore.a(Stream.o)
 .rodata.str1.1
                0x00000000        0x1 C:\Users\Jose\Documents\rpk2\firmwares\leoencchat\ArduinoSketch1\ArduinoSketch1\ArduinoCore\Debug\libArduinoCore.a(Stream.o)
 .text._ZN6Stream10readStringEv
                0x00000000       0x34 C:\Users\Jose\Documents\rpk2\firmwares\leoencchat\ArduinoSketch1\ArduinoSketch1\ArduinoCore\Debug\libArduinoCore.a(Stream.o)
 .text._ZN6Stream15readStringUntilEc
                0x00000000       0x4c C:\Users\Jose\Documents\rpk2\firmwares\leoencchat\ArduinoSketch1\ArduinoSketch1\ArduinoCore\Debug\libArduinoCore.a(Stream.o)
 .text._ZN6Stream9findMultiEPNS_11MultiTargetEi
                0x00000000      0x132 C:\Users\Jose\Documents\rpk2\firmwares\leoencchat\ArduinoSketch1\ArduinoSketch1\ArduinoCore\Debug\libArduinoCore.a(Stream.o)
 .text._ZN6Stream9findUntilEPcjS0_j.part.0.constprop.1
                0x00000000       0x4a C:\Users\Jose\Documents\rpk2\firmwares\leoencchat\ArduinoSketch1\ArduinoSketch1\ArduinoCore\Debug\libArduinoCore.a(Stream.o)
 .text._ZN6Stream4findEPcj
                0x00000000        0x4 C:\Users\Jose\Documents\rpk2\firmwares\leoencchat\ArduinoSketch1\ArduinoSketch1\ArduinoCore\Debug\libArduinoCore.a(Stream.o)
 .text._ZN6Stream4findEPc
                0x00000000       0x14 C:\Users\Jose\Documents\rpk2\firmwares\leoencchat\ArduinoSketch1\ArduinoSketch1\ArduinoCore\Debug\libArduinoCore.a(Stream.o)
 .text._ZN6Stream9findUntilEPcjS0_j
                0x00000000       0x74 C:\Users\Jose\Documents\rpk2\firmwares\leoencchat\ArduinoSketch1\ArduinoSketch1\ArduinoCore\Debug\libArduinoCore.a(Stream.o)
 .text._ZN6Stream9findUntilEPcS0_
                0x00000000       0x30 C:\Users\Jose\Documents\rpk2\firmwares\leoencchat\ArduinoSketch1\ArduinoSketch1\ArduinoCore\Debug\libArduinoCore.a(Stream.o)
 .debug_info    0x00000000     0x21f7 C:\Users\Jose\Documents\rpk2\firmwares\leoencchat\ArduinoSketch1\ArduinoSketch1\ArduinoCore\Debug\libArduinoCore.a(Stream.o)
 .debug_abbrev  0x00000000      0x48c C:\Users\Jose\Documents\rpk2\firmwares\leoencchat\ArduinoSketch1\ArduinoSketch1\ArduinoCore\Debug\libArduinoCore.a(Stream.o)
 .debug_loc     0x00000000     0x143b C:\Users\Jose\Documents\rpk2\firmwares\leoencchat\ArduinoSketch1\ArduinoSketch1\ArduinoCore\Debug\libArduinoCore.a(Stream.o)
 .debug_aranges
                0x00000000       0x98 C:\Users\Jose\Documents\rpk2\firmwares\leoencchat\ArduinoSketch1\ArduinoSketch1\ArduinoCore\Debug\libArduinoCore.a(Stream.o)
 .debug_ranges  0x00000000       0xd0 C:\Users\Jose\Documents\rpk2\firmwares\leoencchat\ArduinoSketch1\ArduinoSketch1\ArduinoCore\Debug\libArduinoCore.a(Stream.o)
 .debug_line    0x00000000      0x5f7 C:\Users\Jose\Documents\rpk2\firmwares\leoencchat\ArduinoSketch1\ArduinoSketch1\ArduinoCore\Debug\libArduinoCore.a(Stream.o)
 .debug_str     0x00000000     0x12ad C:\Users\Jose\Documents\rpk2\firmwares\leoencchat\ArduinoSketch1\ArduinoSketch1\ArduinoCore\Debug\libArduinoCore.a(Stream.o)
 .comment       0x00000000       0x31 C:\Users\Jose\Documents\rpk2\firmwares\leoencchat\ArduinoSketch1\ArduinoSketch1\ArduinoCore\Debug\libArduinoCore.a(Stream.o)
 .debug_frame   0x00000000      0x2e4 C:\Users\Jose\Documents\rpk2\firmwares\leoencchat\ArduinoSketch1\ArduinoSketch1\ArduinoCore\Debug\libArduinoCore.a(Stream.o)
 .group         0x00000000        0x8 C:\Users\Jose\Documents\rpk2\firmwares\leoencchat\ArduinoSketch1\ArduinoSketch1\ArduinoCore\Debug\libArduinoCore.a(USBCore.o)
 .text          0x00000000        0x0 C:\Users\Jose\Documents\rpk2\firmwares\leoencchat\ArduinoSketch1\ArduinoSketch1\ArduinoCore\Debug\libArduinoCore.a(USBCore.o)
 .data          0x00000000        0x0 C:\Users\Jose\Documents\rpk2\firmwares\leoencchat\ArduinoSketch1\ArduinoSketch1\ArduinoCore\Debug\libArduinoCore.a(USBCore.o)
 .bss           0x00000000        0x0 C:\Users\Jose\Documents\rpk2\firmwares\leoencchat\ArduinoSketch1\ArduinoSketch1\ArduinoCore\Debug\libArduinoCore.a(USBCore.o)
 .text._Z19USBGetConfigurationv
                0x00000000        0x6 C:\Users\Jose\Documents\rpk2\firmwares\leoencchat\ArduinoSketch1\ArduinoSketch1\ArduinoCore\Debug\libArduinoCore.a(USBCore.o)
 .text._Z12USBConnectedv
                0x00000000       0x22 C:\Users\Jose\Documents\rpk2\firmwares\leoencchat\ArduinoSketch1\ArduinoSketch1\ArduinoCore\Debug\libArduinoCore.a(USBCore.o)
 .text._ZN10USBDevice_C2Ev
                0x00000000        0x2 C:\Users\Jose\Documents\rpk2\firmwares\leoencchat\ArduinoSketch1\ArduinoSketch1\ArduinoCore\Debug\libArduinoCore.a(USBCore.o)
 .text._ZN10USBDevice_6detachEv
                0x00000000        0x2 C:\Users\Jose\Documents\rpk2\firmwares\leoencchat\ArduinoSketch1\ArduinoSketch1\ArduinoCore\Debug\libArduinoCore.a(USBCore.o)
 .text._ZN10USBDevice_10configuredEv
                0x00000000        0xe C:\Users\Jose\Documents\rpk2\firmwares\leoencchat\ArduinoSketch1\ArduinoSketch1\ArduinoCore\Debug\libArduinoCore.a(USBCore.o)
 .text._ZN10USBDevice_4pollEv
                0x00000000        0x2 C:\Users\Jose\Documents\rpk2\firmwares\leoencchat\ArduinoSketch1\ArduinoSketch1\ArduinoCore\Debug\libArduinoCore.a(USBCore.o)
 .text._ZN10USBDevice_10wakeupHostEv
                0x00000000       0x38 C:\Users\Jose\Documents\rpk2\firmwares\leoencchat\ArduinoSketch1\ArduinoSketch1\ArduinoCore\Debug\libArduinoCore.a(USBCore.o)
 .text._ZN10USBDevice_11isSuspendedEv
                0x00000000        0x8 C:\Users\Jose\Documents\rpk2\firmwares\leoencchat\ArduinoSketch1\ArduinoSketch1\ArduinoCore\Debug\libArduinoCore.a(USBCore.o)
 .text          0x00000000        0x0 C:\Users\Jose\Documents\rpk2\firmwares\leoencchat\ArduinoSketch1\ArduinoSketch1\ArduinoCore\Debug\libArduinoCore.a(wiring.o)
 .data          0x00000000        0x0 C:\Users\Jose\Documents\rpk2\firmwares\leoencchat\ArduinoSketch1\ArduinoSketch1\ArduinoCore\Debug\libArduinoCore.a(wiring.o)
 .bss           0x00000000        0x0 C:\Users\Jose\Documents\rpk2\firmwares\leoencchat\ArduinoSketch1\ArduinoSketch1\ArduinoCore\Debug\libArduinoCore.a(wiring.o)
 .text.delayMicroseconds
                0x00000000       0x16 C:\Users\Jose\Documents\rpk2\firmwares\leoencchat\ArduinoSketch1\ArduinoSketch1\ArduinoCore\Debug\libArduinoCore.a(wiring.o)
 .text          0x00000000        0x0 C:\Users\Jose\Documents\rpk2\firmwares\leoencchat\ArduinoSketch1\ArduinoSketch1\ArduinoCore\Debug\libArduinoCore.a(wiring_digital.o)
 .data          0x00000000        0x0 C:\Users\Jose\Documents\rpk2\firmwares\leoencchat\ArduinoSketch1\ArduinoSketch1\ArduinoCore\Debug\libArduinoCore.a(wiring_digital.o)
 .bss           0x00000000        0x0 C:\Users\Jose\Documents\rpk2\firmwares\leoencchat\ArduinoSketch1\ArduinoSketch1\ArduinoCore\Debug\libArduinoCore.a(wiring_digital.o)
 .text.digitalRead
                0x00000000       0x52 C:\Users\Jose\Documents\rpk2\firmwares\leoencchat\ArduinoSketch1\ArduinoSketch1\ArduinoCore\Debug\libArduinoCore.a(wiring_digital.o)
 .progmem.data.analog_pin_to_channel_PGM
                0x00000000        0xc C:\Users\Jose\Documents\rpk2\firmwares\leoencchat\ArduinoSketch1\ArduinoSketch1\ArduinoCore\Debug\libArduinoCore.a(wiring_digital.o)
 .progmem.data.port_to_input_PGM
                0x00000000        0xe C:\Users\Jose\Documents\rpk2\firmwares\leoencchat\ArduinoSketch1\ArduinoSketch1\ArduinoCore\Debug\libArduinoCore.a(wiring_digital.o)
 .group         0x00000000        0x8 C:\Users\Jose\Documents\rpk2\firmwares\leoencchat\ArduinoSketch1\ArduinoSketch1\ArduinoCore\Debug\libArduinoCore.a(WString.o)
 .text          0x00000000        0x0 C:\Users\Jose\Documents\rpk2\firmwares\leoencchat\ArduinoSketch1\ArduinoSketch1\ArduinoCore\Debug\libArduinoCore.a(WString.o)
 .data          0x00000000        0x0 C:\Users\Jose\Documents\rpk2\firmwares\leoencchat\ArduinoSketch1\ArduinoSketch1\ArduinoCore\Debug\libArduinoCore.a(WString.o)
 .bss           0x00000000        0x0 C:\Users\Jose\Documents\rpk2\firmwares\leoencchat\ArduinoSketch1\ArduinoSketch1\ArduinoCore\Debug\libArduinoCore.a(WString.o)
 .text._ZNK6String14StringIfHelperEv
                0x00000000        0x2 C:\Users\Jose\Documents\rpk2\firmwares\leoencchat\ArduinoSketch1\ArduinoSketch1\ArduinoCore\Debug\libArduinoCore.a(WString.o)
 .text._ZN6String4copyEPK19__FlashStringHelperj
                0x00000000       0x42 C:\Users\Jose\Documents\rpk2\firmwares\leoencchat\ArduinoSketch1\ArduinoSketch1\ArduinoCore\Debug\libArduinoCore.a(WString.o)
 .text._ZN6String4moveERS_
                0x00000000       0x7a C:\Users\Jose\Documents\rpk2\firmwares\leoencchat\ArduinoSketch1\ArduinoSketch1\ArduinoCore\Debug\libArduinoCore.a(WString.o)
 .text._ZN6StringC2EOS_
                0x00000000       0x12 C:\Users\Jose\Documents\rpk2\firmwares\leoencchat\ArduinoSketch1\ArduinoSketch1\ArduinoCore\Debug\libArduinoCore.a(WString.o)
 .text._ZN6StringC2EO15StringSumHelper
                0x00000000       0x12 C:\Users\Jose\Documents\rpk2\firmwares\leoencchat\ArduinoSketch1\ArduinoSketch1\ArduinoCore\Debug\libArduinoCore.a(WString.o)
 .text._ZN6StringaSERKS_
                0x00000000       0x2e C:\Users\Jose\Documents\rpk2\firmwares\leoencchat\ArduinoSketch1\ArduinoSketch1\ArduinoCore\Debug\libArduinoCore.a(WString.o)
 .text._ZN6StringC2ERKS_
                0x00000000       0x12 C:\Users\Jose\Documents\rpk2\firmwares\leoencchat\ArduinoSketch1\ArduinoSketch1\ArduinoCore\Debug\libArduinoCore.a(WString.o)
 .text._ZN6StringaSEOS_
                0x00000000       0x18 C:\Users\Jose\Documents\rpk2\firmwares\leoencchat\ArduinoSketch1\ArduinoSketch1\ArduinoCore\Debug\libArduinoCore.a(WString.o)
 .text._ZN6StringaSEO15StringSumHelper
                0x00000000       0x18 C:\Users\Jose\Documents\rpk2\firmwares\leoencchat\ArduinoSketch1\ArduinoSketch1\ArduinoCore\Debug\libArduinoCore.a(WString.o)
 .text._ZN6StringC2Ec
                0x00000000       0x30 C:\Users\Jose\Documents\rpk2\firmwares\leoencchat\ArduinoSketch1\ArduinoSketch1\ArduinoCore\Debug\libArduinoCore.a(WString.o)
 .text._ZN6StringC2Ehh
                0x00000000       0x5a C:\Users\Jose\Documents\rpk2\firmwares\leoencchat\ArduinoSketch1\ArduinoSketch1\ArduinoCore\Debug\libArduinoCore.a(WString.o)
 .text._ZN6StringC2Eih
                0x00000000       0x58 C:\Users\Jose\Documents\rpk2\firmwares\leoencchat\ArduinoSketch1\ArduinoSketch1\ArduinoCore\Debug\libArduinoCore.a(WString.o)
 .text._ZN6StringC2Ejh
                0x00000000       0x58 C:\Users\Jose\Documents\rpk2\firmwares\leoencchat\ArduinoSketch1\ArduinoSketch1\ArduinoCore\Debug\libArduinoCore.a(WString.o)
 .text._ZN6StringC2Elh
                0x00000000       0x5a C:\Users\Jose\Documents\rpk2\firmwares\leoencchat\ArduinoSketch1\ArduinoSketch1\ArduinoCore\Debug\libArduinoCore.a(WString.o)
 .text._ZN6StringC2Emh
                0x00000000       0x5a C:\Users\Jose\Documents\rpk2\firmwares\leoencchat\ArduinoSketch1\ArduinoSketch1\ArduinoCore\Debug\libArduinoCore.a(WString.o)
 .text._ZN6StringC2Efh
                0x00000000       0x60 C:\Users\Jose\Documents\rpk2\firmwares\leoencchat\ArduinoSketch1\ArduinoSketch1\ArduinoCore\Debug\libArduinoCore.a(WString.o)
 .text._ZN6StringC2Edh
                0x00000000       0x60 C:\Users\Jose\Documents\rpk2\firmwares\leoencchat\ArduinoSketch1\ArduinoSketch1\ArduinoCore\Debug\libArduinoCore.a(WString.o)
 .text._ZN6StringaSEPK19__FlashStringHelper
                0x00000000       0x34 C:\Users\Jose\Documents\rpk2\firmwares\leoencchat\ArduinoSketch1\ArduinoSketch1\ArduinoCore\Debug\libArduinoCore.a(WString.o)
 .text._ZN6StringC2EPK19__FlashStringHelper
                0x00000000       0x12 C:\Users\Jose\Documents\rpk2\firmwares\leoencchat\ArduinoSketch1\ArduinoSketch1\ArduinoCore\Debug\libArduinoCore.a(WString.o)
 .text._ZN6String6concatERKS_
                0x00000000        0xe C:\Users\Jose\Documents\rpk2\firmwares\leoencchat\ArduinoSketch1\ArduinoSketch1\ArduinoCore\Debug\libArduinoCore.a(WString.o)
 .text._ZN6String6concatEPKc
                0x00000000       0x1e C:\Users\Jose\Documents\rpk2\firmwares\leoencchat\ArduinoSketch1\ArduinoSketch1\ArduinoCore\Debug\libArduinoCore.a(WString.o)
 .text._ZN6String6concatEh
                0x00000000       0x56 C:\Users\Jose\Documents\rpk2\firmwares\leoencchat\ArduinoSketch1\ArduinoSketch1\ArduinoCore\Debug\libArduinoCore.a(WString.o)
 .text._ZN6String6concatEi
                0x00000000       0x60 C:\Users\Jose\Documents\rpk2\firmwares\leoencchat\ArduinoSketch1\ArduinoSketch1\ArduinoCore\Debug\libArduinoCore.a(WString.o)
 .text._ZN6String6concatEj
                0x00000000       0x60 C:\Users\Jose\Documents\rpk2\firmwares\leoencchat\ArduinoSketch1\ArduinoSketch1\ArduinoCore\Debug\libArduinoCore.a(WString.o)
 .text._ZN6String6concatEl
                0x00000000       0x62 C:\Users\Jose\Documents\rpk2\firmwares\leoencchat\ArduinoSketch1\ArduinoSketch1\ArduinoCore\Debug\libArduinoCore.a(WString.o)
 .text._ZN6String6concatEm
                0x00000000       0x62 C:\Users\Jose\Documents\rpk2\firmwares\leoencchat\ArduinoSketch1\ArduinoSketch1\ArduinoCore\Debug\libArduinoCore.a(WString.o)
 .text._ZN6String6concatEf
                0x00000000       0x62 C:\Users\Jose\Documents\rpk2\firmwares\leoencchat\ArduinoSketch1\ArduinoSketch1\ArduinoCore\Debug\libArduinoCore.a(WString.o)
 .text._ZN6String6concatEd
                0x00000000       0x62 C:\Users\Jose\Documents\rpk2\firmwares\leoencchat\ArduinoSketch1\ArduinoSketch1\ArduinoCore\Debug\libArduinoCore.a(WString.o)
 .text._ZN6String6concatEPK19__FlashStringHelper
                0x00000000       0x60 C:\Users\Jose\Documents\rpk2\firmwares\leoencchat\ArduinoSketch1\ArduinoSketch1\ArduinoCore\Debug\libArduinoCore.a(WString.o)
 .text._ZplRK15StringSumHelperRK6String
                0x00000000       0x26 C:\Users\Jose\Documents\rpk2\firmwares\leoencchat\ArduinoSketch1\ArduinoSketch1\ArduinoCore\Debug\libArduinoCore.a(WString.o)
 .text._ZplRK15StringSumHelperPKc
                0x00000000       0x32 C:\Users\Jose\Documents\rpk2\firmwares\leoencchat\ArduinoSketch1\ArduinoSketch1\ArduinoCore\Debug\libArduinoCore.a(WString.o)
 .text._ZplRK15StringSumHelperc
                0x00000000       0x1c C:\Users\Jose\Documents\rpk2\firmwares\leoencchat\ArduinoSketch1\ArduinoSketch1\ArduinoCore\Debug\libArduinoCore.a(WString.o)
 .text._ZplRK15StringSumHelperh
                0x00000000       0x1c C:\Users\Jose\Documents\rpk2\firmwares\leoencchat\ArduinoSketch1\ArduinoSketch1\ArduinoCore\Debug\libArduinoCore.a(WString.o)
 .text._ZplRK15StringSumHelperi
                0x00000000       0x1c C:\Users\Jose\Documents\rpk2\firmwares\leoencchat\ArduinoSketch1\ArduinoSketch1\ArduinoCore\Debug\libArduinoCore.a(WString.o)
 .text._ZplRK15StringSumHelperj
                0x00000000       0x1c C:\Users\Jose\Documents\rpk2\firmwares\leoencchat\ArduinoSketch1\ArduinoSketch1\ArduinoCore\Debug\libArduinoCore.a(WString.o)
 .text._ZplRK15StringSumHelperl
                0x00000000       0x1c C:\Users\Jose\Documents\rpk2\firmwares\leoencchat\ArduinoSketch1\ArduinoSketch1\ArduinoCore\Debug\libArduinoCore.a(WString.o)
 .text._ZplRK15StringSumHelperm
                0x00000000       0x1c C:\Users\Jose\Documents\rpk2\firmwares\leoencchat\ArduinoSketch1\ArduinoSketch1\ArduinoCore\Debug\libArduinoCore.a(WString.o)
 .text._ZplRK15StringSumHelperf
                0x00000000       0x1c C:\Users\Jose\Documents\rpk2\firmwares\leoencchat\ArduinoSketch1\ArduinoSketch1\ArduinoCore\Debug\libArduinoCore.a(WString.o)
 .text._ZplRK15StringSumHelperd
                0x00000000       0x1c C:\Users\Jose\Documents\rpk2\firmwares\leoencchat\ArduinoSketch1\ArduinoSketch1\ArduinoCore\Debug\libArduinoCore.a(WString.o)
 .text._ZplRK15StringSumHelperPK19__FlashStringHelper
                0x00000000       0x1c C:\Users\Jose\Documents\rpk2\firmwares\leoencchat\ArduinoSketch1\ArduinoSketch1\ArduinoCore\Debug\libArduinoCore.a(WString.o)
 .text._ZNK6String9compareToERKS_
                0x00000000       0x60 C:\Users\Jose\Documents\rpk2\firmwares\leoencchat\ArduinoSketch1\ArduinoSketch1\ArduinoCore\Debug\libArduinoCore.a(WString.o)
 .text._ZNK6String6equalsERKS_
                0x00000000       0x22 C:\Users\Jose\Documents\rpk2\firmwares\leoencchat\ArduinoSketch1\ArduinoSketch1\ArduinoCore\Debug\libArduinoCore.a(WString.o)
 .text._ZNK6String6equalsEPKc
                0x00000000       0x3e C:\Users\Jose\Documents\rpk2\firmwares\leoencchat\ArduinoSketch1\ArduinoSketch1\ArduinoCore\Debug\libArduinoCore.a(WString.o)
 .text._ZNK6StringltERKS_
                0x00000000        0xe C:\Users\Jose\Documents\rpk2\firmwares\leoencchat\ArduinoSketch1\ArduinoSketch1\ArduinoCore\Debug\libArduinoCore.a(WString.o)
 .text._ZNK6StringgtERKS_
                0x00000000       0x12 C:\Users\Jose\Documents\rpk2\firmwares\leoencchat\ArduinoSketch1\ArduinoSketch1\ArduinoCore\Debug\libArduinoCore.a(WString.o)
 .text._ZNK6StringleERKS_
                0x00000000       0x12 C:\Users\Jose\Documents\rpk2\firmwares\leoencchat\ArduinoSketch1\ArduinoSketch1\ArduinoCore\Debug\libArduinoCore.a(WString.o)
 .text._ZNK6StringgeERKS_
                0x00000000       0x10 C:\Users\Jose\Documents\rpk2\firmwares\leoencchat\ArduinoSketch1\ArduinoSketch1\ArduinoCore\Debug\libArduinoCore.a(WString.o)
 .text._ZNK6String16equalsIgnoreCaseERKS_
                0x00000000       0x66 C:\Users\Jose\Documents\rpk2\firmwares\leoencchat\ArduinoSketch1\ArduinoSketch1\ArduinoCore\Debug\libArduinoCore.a(WString.o)
 .text._ZNK6String10startsWithERKS_j
                0x00000000       0x4c C:\Users\Jose\Documents\rpk2\firmwares\leoencchat\ArduinoSketch1\ArduinoSketch1\ArduinoCore\Debug\libArduinoCore.a(WString.o)
 .text._ZNK6String10startsWithERKS_
                0x00000000       0x1e C:\Users\Jose\Documents\rpk2\firmwares\leoencchat\ArduinoSketch1\ArduinoSketch1\ArduinoCore\Debug\libArduinoCore.a(WString.o)
 .text._ZNK6String8endsWithERKS_
                0x00000000       0x40 C:\Users\Jose\Documents\rpk2\firmwares\leoencchat\ArduinoSketch1\ArduinoSketch1\ArduinoCore\Debug\libArduinoCore.a(WString.o)
 .text._ZN6String9setCharAtEjc
                0x00000000       0x1a C:\Users\Jose\Documents\rpk2\firmwares\leoencchat\ArduinoSketch1\ArduinoSketch1\ArduinoCore\Debug\libArduinoCore.a(WString.o)
 .text._ZN6StringixEj
                0x00000000       0x24 C:\Users\Jose\Documents\rpk2\firmwares\leoencchat\ArduinoSketch1\ArduinoSketch1\ArduinoCore\Debug\libArduinoCore.a(WString.o)
 .text._ZNK6StringixEj
                0x00000000       0x22 C:\Users\Jose\Documents\rpk2\firmwares\leoencchat\ArduinoSketch1\ArduinoSketch1\ArduinoCore\Debug\libArduinoCore.a(WString.o)
 .text._ZNK6String6charAtEj
                0x00000000        0x4 C:\Users\Jose\Documents\rpk2\firmwares\leoencchat\ArduinoSketch1\ArduinoSketch1\ArduinoCore\Debug\libArduinoCore.a(WString.o)
 .text._ZNK6String7indexOfEcj
                0x00000000       0x34 C:\Users\Jose\Documents\rpk2\firmwares\leoencchat\ArduinoSketch1\ArduinoSketch1\ArduinoCore\Debug\libArduinoCore.a(WString.o)
 .text._ZNK6String7indexOfEc
                0x00000000        0x8 C:\Users\Jose\Documents\rpk2\firmwares\leoencchat\ArduinoSketch1\ArduinoSketch1\ArduinoCore\Debug\libArduinoCore.a(WString.o)
 .text._ZNK6String7indexOfERKS_j
                0x00000000       0x3a C:\Users\Jose\Documents\rpk2\firmwares\leoencchat\ArduinoSketch1\ArduinoSketch1\ArduinoCore\Debug\libArduinoCore.a(WString.o)
 .text._ZNK6String7indexOfERKS_
                0x00000000        0x8 C:\Users\Jose\Documents\rpk2\firmwares\leoencchat\ArduinoSketch1\ArduinoSketch1\ArduinoCore\Debug\libArduinoCore.a(WString.o)
 .text._ZNK6String11lastIndexOfEcj
                0x00000000       0x6a C:\Users\Jose\Documents\rpk2\firmwares\leoencchat\ArduinoSketch1\ArduinoSketch1\ArduinoCore\Debug\libArduinoCore.a(WString.o)
 .text._ZNK6String11lastIndexOfEc
                0x00000000        0xe C:\Users\Jose\Documents\rpk2\firmwares\leoencchat\ArduinoSketch1\ArduinoSketch1\ArduinoCore\Debug\libArduinoCore.a(WString.o)
 .text._ZNK6String11lastIndexOfERKS_j
                0x00000000       0x9c C:\Users\Jose\Documents\rpk2\firmwares\leoencchat\ArduinoSketch1\ArduinoSketch1\ArduinoCore\Debug\libArduinoCore.a(WString.o)
 .text._ZNK6String11lastIndexOfERKS_
                0x00000000       0x14 C:\Users\Jose\Documents\rpk2\firmwares\leoencchat\ArduinoSketch1\ArduinoSketch1\ArduinoCore\Debug\libArduinoCore.a(WString.o)
 .rodata.str1.1
                0x00000000        0x1 C:\Users\Jose\Documents\rpk2\firmwares\leoencchat\ArduinoSketch1\ArduinoSketch1\ArduinoCore\Debug\libArduinoCore.a(WString.o)
 .text._ZNK6String9substringEjj
                0x00000000       0x8a C:\Users\Jose\Documents\rpk2\firmwares\leoencchat\ArduinoSketch1\ArduinoSketch1\ArduinoCore\Debug\libArduinoCore.a(WString.o)
 .text._ZN6String7replaceEcc
                0x00000000       0x1c C:\Users\Jose\Documents\rpk2\firmwares\leoencchat\ArduinoSketch1\ArduinoSketch1\ArduinoCore\Debug\libArduinoCore.a(WString.o)
 .text._ZN6String7replaceERKS_S1_
                0x00000000      0x1f4 C:\Users\Jose\Documents\rpk2\firmwares\leoencchat\ArduinoSketch1\ArduinoSketch1\ArduinoCore\Debug\libArduinoCore.a(WString.o)
 .text._ZN6String6removeEjj
                0x00000000       0x66 C:\Users\Jose\Documents\rpk2\firmwares\leoencchat\ArduinoSketch1\ArduinoSketch1\ArduinoCore\Debug\libArduinoCore.a(WString.o)
 .text._ZN6String6removeEj
                0x00000000        0x8 C:\Users\Jose\Documents\rpk2\firmwares\leoencchat\ArduinoSketch1\ArduinoSketch1\ArduinoCore\Debug\libArduinoCore.a(WString.o)
 .text._ZN6String11toLowerCaseEv
                0x00000000       0x24 C:\Users\Jose\Documents\rpk2\firmwares\leoencchat\ArduinoSketch1\ArduinoSketch1\ArduinoCore\Debug\libArduinoCore.a(WString.o)
 .text._ZN6String11toUpperCaseEv
                0x00000000       0x24 C:\Users\Jose\Documents\rpk2\firmwares\leoencchat\ArduinoSketch1\ArduinoSketch1\ArduinoCore\Debug\libArduinoCore.a(WString.o)
 .text._ZN6String4trimEv
                0x00000000       0xb8 C:\Users\Jose\Documents\rpk2\firmwares\leoencchat\ArduinoSketch1\ArduinoSketch1\ArduinoCore\Debug\libArduinoCore.a(WString.o)
 .text._ZNK6String5toIntEv
                0x00000000       0x16 C:\Users\Jose\Documents\rpk2\firmwares\leoencchat\ArduinoSketch1\ArduinoSketch1\ArduinoCore\Debug\libArduinoCore.a(WString.o)
 .text._ZNK6String8toDoubleEv
                0x00000000       0x16 C:\Users\Jose\Documents\rpk2\firmwares\leoencchat\ArduinoSketch1\ArduinoSketch1\ArduinoCore\Debug\libArduinoCore.a(WString.o)
 .text._ZNK6String7toFloatEv
                0x00000000        0x4 C:\Users\Jose\Documents\rpk2\firmwares\leoencchat\ArduinoSketch1\ArduinoSketch1\ArduinoCore\Debug\libArduinoCore.a(WString.o)
 .bss._ZZN6StringixEjE19dummy_writable_char
                0x00000000        0x1 C:\Users\Jose\Documents\rpk2\firmwares\leoencchat\ArduinoSketch1\ArduinoSketch1\ArduinoCore\Debug\libArduinoCore.a(WString.o)
 .group         0x00000000        0x8 C:\Users\Jose\Documents\rpk2\firmwares\leoencchat\ArduinoSketch1\ArduinoSketch1\ArduinoCore\Debug\libArduinoCore.a(RHGenericDriver.o)
 .text          0x00000000        0x0 C:\Users\Jose\Documents\rpk2\firmwares\leoencchat\ArduinoSketch1\ArduinoSketch1\ArduinoCore\Debug\libArduinoCore.a(RHGenericDriver.o)
 .data          0x00000000        0x0 C:\Users\Jose\Documents\rpk2\firmwares\leoencchat\ArduinoSketch1\ArduinoSketch1\ArduinoCore\Debug\libArduinoCore.a(RHGenericDriver.o)
 .bss           0x00000000        0x0 C:\Users\Jose\Documents\rpk2\firmwares\leoencchat\ArduinoSketch1\ArduinoSketch1\ArduinoCore\Debug\libArduinoCore.a(RHGenericDriver.o)
 .rodata.str1.1
                0x00000000        0x1 C:\Users\Jose\Documents\rpk2\firmwares\leoencchat\ArduinoSketch1\ArduinoSketch1\ArduinoCore\Debug\libArduinoCore.a(RHGenericDriver.o)
 .text._ZN15RHGenericDriver11printBufferEPKcPKhh
                0x00000000       0x6a C:\Users\Jose\Documents\rpk2\firmwares\leoencchat\ArduinoSketch1\ArduinoSketch1\ArduinoCore\Debug\libArduinoCore.a(RHGenericDriver.o)
 .text._ZN15RHGenericDriver13setCADTimeoutEm
                0x00000000        0x8 C:\Users\Jose\Documents\rpk2\firmwares\leoencchat\ArduinoSketch1\ArduinoSketch1\ArduinoCore\Debug\libArduinoCore.a(RHGenericDriver.o)
 .group         0x00000000        0x8 C:\Users\Jose\Documents\rpk2\firmwares\leoencchat\ArduinoSketch1\ArduinoSketch1\ArduinoCore\Debug\libArduinoCore.a(RHHardwareSPI.o)
 .text          0x00000000        0x0 C:\Users\Jose\Documents\rpk2\firmwares\leoencchat\ArduinoSketch1\ArduinoSketch1\ArduinoCore\Debug\libArduinoCore.a(RHHardwareSPI.o)
 .data          0x00000000        0x0 C:\Users\Jose\Documents\rpk2\firmwares\leoencchat\ArduinoSketch1\ArduinoSketch1\ArduinoCore\Debug\libArduinoCore.a(RHHardwareSPI.o)
 .bss           0x00000000        0x0 C:\Users\Jose\Documents\rpk2\firmwares\leoencchat\ArduinoSketch1\ArduinoSketch1\ArduinoCore\Debug\libArduinoCore.a(RHHardwareSPI.o)
 .group         0x00000000        0x8 C:\Users\Jose\Documents\rpk2\firmwares\leoencchat\ArduinoSketch1\ArduinoSketch1\ArduinoCore\Debug\libArduinoCore.a(RH_RF69.o)
 .text          0x00000000        0x0 C:\Users\Jose\Documents\rpk2\firmwares\leoencchat\ArduinoSketch1\ArduinoSketch1\ArduinoCore\Debug\libArduinoCore.a(RH_RF69.o)
 .data          0x00000000        0x0 C:\Users\Jose\Documents\rpk2\firmwares\leoencchat\ArduinoSketch1\ArduinoSketch1\ArduinoCore\Debug\libArduinoCore.a(RH_RF69.o)
 .bss           0x00000000        0x0 C:\Users\Jose\Documents\rpk2\firmwares\leoencchat\ArduinoSketch1\ArduinoSketch1\ArduinoCore\Debug\libArduinoCore.a(RH_RF69.o)
 .text._ZN7RH_RF6911setIdleModeEh
                0x00000000        0x6 C:\Users\Jose\Documents\rpk2\firmwares\leoencchat\ArduinoSketch1\ArduinoSketch1\ArduinoCore\Debug\libArduinoCore.a(RH_RF69.o)
 .text._ZN7RH_RF6915temperatureReadEv
                0x00000000       0x2e C:\Users\Jose\Documents\rpk2\firmwares\leoencchat\ArduinoSketch1\ArduinoSketch1\ArduinoCore\Debug\libArduinoCore.a(RH_RF69.o)
 .text._ZN7RH_RF698rssiReadEv
                0x00000000        0xc C:\Users\Jose\Documents\rpk2\firmwares\leoencchat\ArduinoSketch1\ArduinoSketch1\ArduinoCore\Debug\libArduinoCore.a(RH_RF69.o)
 .rodata.str1.1
                0x00000000        0x2 C:\Users\Jose\Documents\rpk2\firmwares\leoencchat\ArduinoSketch1\ArduinoSketch1\ArduinoCore\Debug\libArduinoCore.a(RH_RF69.o)
 .text._ZN7RH_RF6913printRegisterEh
                0x00000000       0x42 C:\Users\Jose\Documents\rpk2\firmwares\leoencchat\ArduinoSketch1\ArduinoSketch1\ArduinoCore\Debug\libArduinoCore.a(RH_RF69.o)
 .text._ZN7RH_RF6914printRegistersEv
                0x00000000       0x3a C:\Users\Jose\Documents\rpk2\firmwares\leoencchat\ArduinoSketch1\ArduinoSketch1\ArduinoCore\Debug\libArduinoCore.a(RH_RF69.o)
 .text          0x00000000        0x0 C:\Users\Jose\Documents\rpk2\firmwares\leoencchat\ArduinoSketch1\ArduinoSketch1\ArduinoCore\Debug\libArduinoCore.a(SPI.o)
 .data          0x00000000        0x0 C:\Users\Jose\Documents\rpk2\firmwares\leoencchat\ArduinoSketch1\ArduinoSketch1\ArduinoCore\Debug\libArduinoCore.a(SPI.o)
 .bss           0x00000000        0x0 C:\Users\Jose\Documents\rpk2\firmwares\leoencchat\ArduinoSketch1\ArduinoSketch1\ArduinoCore\Debug\libArduinoCore.a(SPI.o)
 .text._ZN8SPIClass14usingInterruptEh
                0x00000000       0x52 C:\Users\Jose\Documents\rpk2\firmwares\leoencchat\ArduinoSketch1\ArduinoSketch1\ArduinoCore\Debug\libArduinoCore.a(SPI.o)
 .text._ZN8SPIClass17notUsingInterruptEh
                0x00000000       0x36 C:\Users\Jose\Documents\rpk2\firmwares\leoencchat\ArduinoSketch1\ArduinoSketch1\ArduinoCore\Debug\libArduinoCore.a(SPI.o)
 .rodata.CSWTCH.20
                0x00000000        0x5 C:\Users\Jose\Documents\rpk2\firmwares\leoencchat\ArduinoSketch1\ArduinoSketch1\ArduinoCore\Debug\libArduinoCore.a(SPI.o)
 .bss.SPI       0x00000000        0x1 C:\Users\Jose\Documents\rpk2\firmwares\leoencchat\ArduinoSketch1\ArduinoSketch1\ArduinoCore\Debug\libArduinoCore.a(SPI.o)
 .text          0x00000000        0x0 C:\Users\Jose\Documents\rpk2\firmwares\leoencchat\ArduinoSketch1\ArduinoSketch1\ArduinoCore\Debug\libArduinoCore.a(abi.o)
 .data          0x00000000        0x0 C:\Users\Jose\Documents\rpk2\firmwares\leoencchat\ArduinoSketch1\ArduinoSketch1\ArduinoCore\Debug\libArduinoCore.a(abi.o)
 .bss           0x00000000        0x0 C:\Users\Jose\Documents\rpk2\firmwares\leoencchat\ArduinoSketch1\ArduinoSketch1\ArduinoCore\Debug\libArduinoCore.a(abi.o)
 .text.__cxa_deleted_virtual
                0x00000000        0x4 C:\Users\Jose\Documents\rpk2\firmwares\leoencchat\ArduinoSketch1\ArduinoSketch1\ArduinoCore\Debug\libArduinoCore.a(abi.o)
 .group         0x00000000        0x8 C:\Users\Jose\Documents\rpk2\firmwares\leoencchat\ArduinoSketch1\ArduinoSketch1\ArduinoCore\Debug\libArduinoCore.a(CDC.o)
 .group         0x00000000        0x8 C:\Users\Jose\Documents\rpk2\firmwares\leoencchat\ArduinoSketch1\ArduinoSketch1\ArduinoCore\Debug\libArduinoCore.a(CDC.o)
 .group         0x00000000        0x8 C:\Users\Jose\Documents\rpk2\firmwares\leoencchat\ArduinoSketch1\ArduinoSketch1\ArduinoCore\Debug\libArduinoCore.a(CDC.o)
 .text          0x00000000        0x0 C:\Users\Jose\Documents\rpk2\firmwares\leoencchat\ArduinoSketch1\ArduinoSketch1\ArduinoCore\Debug\libArduinoCore.a(CDC.o)
 .data          0x00000000        0x0 C:\Users\Jose\Documents\rpk2\firmwares\leoencchat\ArduinoSketch1\ArduinoSketch1\ArduinoCore\Debug\libArduinoCore.a(CDC.o)
 .bss           0x00000000        0x0 C:\Users\Jose\Documents\rpk2\firmwares\leoencchat\ArduinoSketch1\ArduinoSketch1\ArduinoCore\Debug\libArduinoCore.a(CDC.o)
 .text._ZN5Print17availableForWriteEv
                0x00000000        0x6 C:\Users\Jose\Documents\rpk2\firmwares\leoencchat\ArduinoSketch1\ArduinoSketch1\ArduinoCore\Debug\libArduinoCore.a(CDC.o)
 .text._ZN5Print5flushEv
                0x00000000        0x2 C:\Users\Jose\Documents\rpk2\firmwares\leoencchat\ArduinoSketch1\ArduinoSketch1\ArduinoCore\Debug\libArduinoCore.a(CDC.o)
 .text._ZN7Serial_5beginEm
                0x00000000        0xc C:\Users\Jose\Documents\rpk2\firmwares\leoencchat\ArduinoSketch1\ArduinoSketch1\ArduinoCore\Debug\libArduinoCore.a(CDC.o)
 .text._ZN7Serial_5beginEmh
                0x00000000        0xc C:\Users\Jose\Documents\rpk2\firmwares\leoencchat\ArduinoSketch1\ArduinoSketch1\ArduinoCore\Debug\libArduinoCore.a(CDC.o)
 .text._ZN7Serial_3endEv
                0x00000000        0x2 C:\Users\Jose\Documents\rpk2\firmwares\leoencchat\ArduinoSketch1\ArduinoSketch1\ArduinoCore\Debug\libArduinoCore.a(CDC.o)
 .text._ZN7Serial_cvbEv
                0x00000000       0x1e C:\Users\Jose\Documents\rpk2\firmwares\leoencchat\ArduinoSketch1\ArduinoSketch1\ArduinoCore\Debug\libArduinoCore.a(CDC.o)
 .text._ZN7Serial_4baudEv
                0x00000000       0x18 C:\Users\Jose\Documents\rpk2\firmwares\leoencchat\ArduinoSketch1\ArduinoSketch1\ArduinoCore\Debug\libArduinoCore.a(CDC.o)
 .text._ZN7Serial_8stopbitsEv
                0x00000000        0x6 C:\Users\Jose\Documents\rpk2\firmwares\leoencchat\ArduinoSketch1\ArduinoSketch1\ArduinoCore\Debug\libArduinoCore.a(CDC.o)
 .text._ZN7Serial_10paritytypeEv
                0x00000000        0x6 C:\Users\Jose\Documents\rpk2\firmwares\leoencchat\ArduinoSketch1\ArduinoSketch1\ArduinoCore\Debug\libArduinoCore.a(CDC.o)
 .text._ZN7Serial_7numbitsEv
                0x00000000        0x6 C:\Users\Jose\Documents\rpk2\firmwares\leoencchat\ArduinoSketch1\ArduinoSketch1\ArduinoCore\Debug\libArduinoCore.a(CDC.o)
 .text._ZN7Serial_3dtrEv
                0x00000000        0x8 C:\Users\Jose\Documents\rpk2\firmwares\leoencchat\ArduinoSketch1\ArduinoSketch1\ArduinoCore\Debug\libArduinoCore.a(CDC.o)
 .text._ZN7Serial_3rtsEv
                0x00000000        0xa C:\Users\Jose\Documents\rpk2\firmwares\leoencchat\ArduinoSketch1\ArduinoSketch1\ArduinoCore\Debug\libArduinoCore.a(CDC.o)
 .text._ZN7Serial_9readBreakEv
                0x00000000       0x40 C:\Users\Jose\Documents\rpk2\firmwares\leoencchat\ArduinoSketch1\ArduinoSketch1\ArduinoCore\Debug\libArduinoCore.a(CDC.o)
 .text          0x00000000        0x0 C:\Users\Jose\Documents\rpk2\firmwares\leoencchat\ArduinoSketch1\ArduinoSketch1\ArduinoCore\Debug\libArduinoCore.a(hooks.o)
 .data          0x00000000        0x0 C:\Users\Jose\Documents\rpk2\firmwares\leoencchat\ArduinoSketch1\ArduinoSketch1\ArduinoCore\Debug\libArduinoCore.a(hooks.o)
 .bss           0x00000000        0x0 C:\Users\Jose\Documents\rpk2\firmwares\leoencchat\ArduinoSketch1\ArduinoSketch1\ArduinoCore\Debug\libArduinoCore.a(hooks.o)
 .text          0x00000000        0x0 C:\Users\Jose\Documents\rpk2\firmwares\leoencchat\ArduinoSketch1\ArduinoSketch1\ArduinoCore\Debug\libArduinoCore.a(PluggableUSB.o)
 .data          0x00000000        0x0 C:\Users\Jose\Documents\rpk2\firmwares\leoencchat\ArduinoSketch1\ArduinoSketch1\ArduinoCore\Debug\libArduinoCore.a(PluggableUSB.o)
 .bss           0x00000000        0x0 C:\Users\Jose\Documents\rpk2\firmwares\leoencchat\ArduinoSketch1\ArduinoSketch1\ArduinoCore\Debug\libArduinoCore.a(PluggableUSB.o)
 .text._ZN13PluggableUSB_4plugEP18PluggableUSBModule
                0x00000000       0x8e C:\Users\Jose\Documents\rpk2\firmwares\leoencchat\ArduinoSketch1\ArduinoSketch1\ArduinoCore\Debug\libArduinoCore.a(PluggableUSB.o)
 .text._ZN13PluggableUSB_C2Ev
                0x00000000       0x10 C:\Users\Jose\Documents\rpk2\firmwares\leoencchat\ArduinoSketch1\ArduinoSketch1\ArduinoCore\Debug\libArduinoCore.a(PluggableUSB.o)
 .text          0x00000000        0x0 C:\Users\Jose\Documents\rpk2\firmwares\leoencchat\ArduinoSketch1\ArduinoSketch1\ArduinoCore\Debug\libArduinoCore.a(WInterrupts.o)
 .data          0x00000000        0x0 C:\Users\Jose\Documents\rpk2\firmwares\leoencchat\ArduinoSketch1\ArduinoSketch1\ArduinoCore\Debug\libArduinoCore.a(WInterrupts.o)
 .bss           0x00000000        0x0 C:\Users\Jose\Documents\rpk2\firmwares\leoencchat\ArduinoSketch1\ArduinoSketch1\ArduinoCore\Debug\libArduinoCore.a(WInterrupts.o)
 .text.detachInterrupt
                0x00000000       0x40 C:\Users\Jose\Documents\rpk2\firmwares\leoencchat\ArduinoSketch1\ArduinoSketch1\ArduinoCore\Debug\libArduinoCore.a(WInterrupts.o)
 .text          0x00000000        0x0 C:\Users\Jose\Documents\rpk2\firmwares\leoencchat\ArduinoSketch1\ArduinoSketch1\ArduinoCore\Debug\libArduinoCore.a(WMath.o)
 .data          0x00000000        0x0 C:\Users\Jose\Documents\rpk2\firmwares\leoencchat\ArduinoSketch1\ArduinoSketch1\ArduinoCore\Debug\libArduinoCore.a(WMath.o)
 .bss           0x00000000        0x0 C:\Users\Jose\Documents\rpk2\firmwares\leoencchat\ArduinoSketch1\ArduinoSketch1\ArduinoCore\Debug\libArduinoCore.a(WMath.o)
 .text._Z10randomSeedm
                0x00000000       0x10 C:\Users\Jose\Documents\rpk2\firmwares\leoencchat\ArduinoSketch1\ArduinoSketch1\ArduinoCore\Debug\libArduinoCore.a(WMath.o)
 .text._Z3maplllll
                0x00000000       0x82 C:\Users\Jose\Documents\rpk2\firmwares\leoencchat\ArduinoSketch1\ArduinoSketch1\ArduinoCore\Debug\libArduinoCore.a(WMath.o)
 .text._Z8makeWordj
                0x00000000        0x2 C:\Users\Jose\Documents\rpk2\firmwares\leoencchat\ArduinoSketch1\ArduinoSketch1\ArduinoCore\Debug\libArduinoCore.a(WMath.o)
 .text._Z8makeWordhh
                0x00000000        0xa C:\Users\Jose\Documents\rpk2\firmwares\leoencchat\ArduinoSketch1\ArduinoSketch1\ArduinoCore\Debug\libArduinoCore.a(WMath.o)
 .group         0x00000000        0x8 C:\Users\Jose\Documents\rpk2\firmwares\leoencchat\ArduinoSketch1\ArduinoSketch1\ArduinoCore\Debug\libArduinoCore.a(RHGenericSPI.o)
 .group         0x00000000        0x8 C:\Users\Jose\Documents\rpk2\firmwares\leoencchat\ArduinoSketch1\ArduinoSketch1\ArduinoCore\Debug\libArduinoCore.a(RHGenericSPI.o)
 .group         0x00000000        0x8 C:\Users\Jose\Documents\rpk2\firmwares\leoencchat\ArduinoSketch1\ArduinoSketch1\ArduinoCore\Debug\libArduinoCore.a(RHGenericSPI.o)
 .group         0x00000000        0x8 C:\Users\Jose\Documents\rpk2\firmwares\leoencchat\ArduinoSketch1\ArduinoSketch1\ArduinoCore\Debug\libArduinoCore.a(RHGenericSPI.o)
 .group         0x00000000        0x8 C:\Users\Jose\Documents\rpk2\firmwares\leoencchat\ArduinoSketch1\ArduinoSketch1\ArduinoCore\Debug\libArduinoCore.a(RHGenericSPI.o)
 .group         0x00000000        0x8 C:\Users\Jose\Documents\rpk2\firmwares\leoencchat\ArduinoSketch1\ArduinoSketch1\ArduinoCore\Debug\libArduinoCore.a(RHGenericSPI.o)
 .text          0x00000000        0x0 C:\Users\Jose\Documents\rpk2\firmwares\leoencchat\ArduinoSketch1\ArduinoSketch1\ArduinoCore\Debug\libArduinoCore.a(RHGenericSPI.o)
 .data          0x00000000        0x0 C:\Users\Jose\Documents\rpk2\firmwares\leoencchat\ArduinoSketch1\ArduinoSketch1\ArduinoCore\Debug\libArduinoCore.a(RHGenericSPI.o)
 .bss           0x00000000        0x0 C:\Users\Jose\Documents\rpk2\firmwares\leoencchat\ArduinoSketch1\ArduinoSketch1\ArduinoCore\Debug\libArduinoCore.a(RHGenericSPI.o)
 .group         0x00000000        0x8 C:\Users\Jose\Documents\rpk2\firmwares\leoencchat\ArduinoSketch1\ArduinoSketch1\ArduinoCore\Debug\libArduinoCore.a(RHSPIDriver.o)
 .text          0x00000000        0x0 C:\Users\Jose\Documents\rpk2\firmwares\leoencchat\ArduinoSketch1\ArduinoSketch1\ArduinoCore\Debug\libArduinoCore.a(RHSPIDriver.o)
 .data          0x00000000        0x0 C:\Users\Jose\Documents\rpk2\firmwares\leoencchat\ArduinoSketch1\ArduinoSketch1\ArduinoCore\Debug\libArduinoCore.a(RHSPIDriver.o)
 .bss           0x00000000        0x0 C:\Users\Jose\Documents\rpk2\firmwares\leoencchat\ArduinoSketch1\ArduinoSketch1\ArduinoCore\Debug\libArduinoCore.a(RHSPIDriver.o)
 .text._ZN11RHSPIDriver12spiBurstReadEhPhh
                0x00000000       0xaa C:\Users\Jose\Documents\rpk2\firmwares\leoencchat\ArduinoSketch1\ArduinoSketch1\ArduinoCore\Debug\libArduinoCore.a(RHSPIDriver.o)
 .text._ZN11RHSPIDriver17setSlaveSelectPinEh
                0x00000000        0x6 C:\Users\Jose\Documents\rpk2\firmwares\leoencchat\ArduinoSketch1\ArduinoSketch1\ArduinoCore\Debug\libArduinoCore.a(RHSPIDriver.o)
 .text          0x00000000        0x0 c:/program files (x86)/atmel/studio/7.0/toolchain/avr8/avr8-gnu-toolchain/bin/../lib/gcc/avr/5.4.0/../../../../avr/lib/avr5\libm.a(addsf3.o)
 .data          0x00000000        0x0 c:/program files (x86)/atmel/studio/7.0/toolchain/avr8/avr8-gnu-toolchain/bin/../lib/gcc/avr/5.4.0/../../../../avr/lib/avr5\libm.a(addsf3.o)
 .bss           0x00000000        0x0 c:/program files (x86)/atmel/studio/7.0/toolchain/avr8/avr8-gnu-toolchain/bin/../lib/gcc/avr/5.4.0/../../../../avr/lib/avr5\libm.a(addsf3.o)
 .text.avr-libc.fplib
                0x00000000        0xe c:/program files (x86)/atmel/studio/7.0/toolchain/avr8/avr8-gnu-toolchain/bin/../lib/gcc/avr/5.4.0/../../../../avr/lib/avr5\libm.a(addsf3.o)
 .text          0x00000000        0x0 c:/program files (x86)/atmel/studio/7.0/toolchain/avr8/avr8-gnu-toolchain/bin/../lib/gcc/avr/5.4.0/../../../../avr/lib/avr5\libm.a(addsf3x.o)
 .data          0x00000000        0x0 c:/program files (x86)/atmel/studio/7.0/toolchain/avr8/avr8-gnu-toolchain/bin/../lib/gcc/avr/5.4.0/../../../../avr/lib/avr5\libm.a(addsf3x.o)
 .bss           0x00000000        0x0 c:/program files (x86)/atmel/studio/7.0/toolchain/avr8/avr8-gnu-toolchain/bin/../lib/gcc/avr/5.4.0/../../../../avr/lib/avr5\libm.a(addsf3x.o)
 .text.avr-libc.fplib
                0x00000000       0xcc c:/program files (x86)/atmel/studio/7.0/toolchain/avr8/avr8-gnu-toolchain/bin/../lib/gcc/avr/5.4.0/../../../../avr/lib/avr5\libm.a(addsf3x.o)
 .text          0x00000000        0x0 c:/program files (x86)/atmel/studio/7.0/toolchain/avr8/avr8-gnu-toolchain/bin/../lib/gcc/avr/5.4.0/../../../../avr/lib/avr5\libm.a(cmpsf2.o)
 .data          0x00000000        0x0 c:/program files (x86)/atmel/studio/7.0/toolchain/avr8/avr8-gnu-toolchain/bin/../lib/gcc/avr/5.4.0/../../../../avr/lib/avr5\libm.a(cmpsf2.o)
 .bss           0x00000000        0x0 c:/program files (x86)/atmel/studio/7.0/toolchain/avr8/avr8-gnu-toolchain/bin/../lib/gcc/avr/5.4.0/../../../../avr/lib/avr5\libm.a(cmpsf2.o)
 .text.avr-libc.fplib
                0x00000000        0xa c:/program files (x86)/atmel/studio/7.0/toolchain/avr8/avr8-gnu-toolchain/bin/../lib/gcc/avr/5.4.0/../../../../avr/lib/avr5\libm.a(cmpsf2.o)
 .text          0x00000000        0x0 c:/program files (x86)/atmel/studio/7.0/toolchain/avr8/avr8-gnu-toolchain/bin/../lib/gcc/avr/5.4.0/../../../../avr/lib/avr5\libm.a(divsf3.o)
 .data          0x00000000        0x0 c:/program files (x86)/atmel/studio/7.0/toolchain/avr8/avr8-gnu-toolchain/bin/../lib/gcc/avr/5.4.0/../../../../avr/lib/avr5\libm.a(divsf3.o)
 .bss           0x00000000        0x0 c:/program files (x86)/atmel/studio/7.0/toolchain/avr8/avr8-gnu-toolchain/bin/../lib/gcc/avr/5.4.0/../../../../avr/lib/avr5\libm.a(divsf3.o)
 .text          0x00000000        0x0 c:/program files (x86)/atmel/studio/7.0/toolchain/avr8/avr8-gnu-toolchain/bin/../lib/gcc/avr/5.4.0/../../../../avr/lib/avr5\libm.a(divsf3x.o)
 .data          0x00000000        0x0 c:/program files (x86)/atmel/studio/7.0/toolchain/avr8/avr8-gnu-toolchain/bin/../lib/gcc/avr/5.4.0/../../../../avr/lib/avr5\libm.a(divsf3x.o)
 .bss           0x00000000        0x0 c:/program files (x86)/atmel/studio/7.0/toolchain/avr8/avr8-gnu-toolchain/bin/../lib/gcc/avr/5.4.0/../../../../avr/lib/avr5\libm.a(divsf3x.o)
 .text          0x00000000        0x0 c:/program files (x86)/atmel/studio/7.0/toolchain/avr8/avr8-gnu-toolchain/bin/../lib/gcc/avr/5.4.0/../../../../avr/lib/avr5\libm.a(fixunssfsi.o)
 .data          0x00000000        0x0 c:/program files (x86)/atmel/studio/7.0/toolchain/avr8/avr8-gnu-toolchain/bin/../lib/gcc/avr/5.4.0/../../../../avr/lib/avr5\libm.a(fixunssfsi.o)
 .bss           0x00000000        0x0 c:/program files (x86)/atmel/studio/7.0/toolchain/avr8/avr8-gnu-toolchain/bin/../lib/gcc/avr/5.4.0/../../../../avr/lib/avr5\libm.a(fixunssfsi.o)
 .text          0x00000000        0x0 c:/program files (x86)/atmel/studio/7.0/toolchain/avr8/avr8-gnu-toolchain/bin/../lib/gcc/avr/5.4.0/../../../../avr/lib/avr5\libm.a(floatsisf.o)
 .data          0x00000000        0x0 c:/program files (x86)/atmel/studio/7.0/toolchain/avr8/avr8-gnu-toolchain/bin/../lib/gcc/avr/5.4.0/../../../../avr/lib/avr5\libm.a(floatsisf.o)
 .bss           0x00000000        0x0 c:/program files (x86)/atmel/studio/7.0/toolchain/avr8/avr8-gnu-toolchain/bin/../lib/gcc/avr/5.4.0/../../../../avr/lib/avr5\libm.a(floatsisf.o)
 .text.avr-libc.fplib
                0x00000000       0x7a c:/program files (x86)/atmel/studio/7.0/toolchain/avr8/avr8-gnu-toolchain/bin/../lib/gcc/avr/5.4.0/../../../../avr/lib/avr5\libm.a(floatsisf.o)
 .text          0x00000000        0x0 c:/program files (x86)/atmel/studio/7.0/toolchain/avr8/avr8-gnu-toolchain/bin/../lib/gcc/avr/5.4.0/../../../../avr/lib/avr5\libm.a(fp_cmp.o)
 .data          0x00000000        0x0 c:/program files (x86)/atmel/studio/7.0/toolchain/avr8/avr8-gnu-toolchain/bin/../lib/gcc/avr/5.4.0/../../../../avr/lib/avr5\libm.a(fp_cmp.o)
 .bss           0x00000000        0x0 c:/program files (x86)/atmel/studio/7.0/toolchain/avr8/avr8-gnu-toolchain/bin/../lib/gcc/avr/5.4.0/../../../../avr/lib/avr5\libm.a(fp_cmp.o)
 .text.avr-libc.fplib
                0x00000000       0x48 c:/program files (x86)/atmel/studio/7.0/toolchain/avr8/avr8-gnu-toolchain/bin/../lib/gcc/avr/5.4.0/../../../../avr/lib/avr5\libm.a(fp_cmp.o)
 .text          0x00000000        0x0 c:/program files (x86)/atmel/studio/7.0/toolchain/avr8/avr8-gnu-toolchain/bin/../lib/gcc/avr/5.4.0/../../../../avr/lib/avr5\libm.a(fp_inf.o)
 .data          0x00000000        0x0 c:/program files (x86)/atmel/studio/7.0/toolchain/avr8/avr8-gnu-toolchain/bin/../lib/gcc/avr/5.4.0/../../../../avr/lib/avr5\libm.a(fp_inf.o)
 .bss           0x00000000        0x0 c:/program files (x86)/atmel/studio/7.0/toolchain/avr8/avr8-gnu-toolchain/bin/../lib/gcc/avr/5.4.0/../../../../avr/lib/avr5\libm.a(fp_inf.o)
 .text          0x00000000        0x0 c:/program files (x86)/atmel/studio/7.0/toolchain/avr8/avr8-gnu-toolchain/bin/../lib/gcc/avr/5.4.0/../../../../avr/lib/avr5\libm.a(fp_nan.o)
 .data          0x00000000        0x0 c:/program files (x86)/atmel/studio/7.0/toolchain/avr8/avr8-gnu-toolchain/bin/../lib/gcc/avr/5.4.0/../../../../avr/lib/avr5\libm.a(fp_nan.o)
 .bss           0x00000000        0x0 c:/program files (x86)/atmel/studio/7.0/toolchain/avr8/avr8-gnu-toolchain/bin/../lib/gcc/avr/5.4.0/../../../../avr/lib/avr5\libm.a(fp_nan.o)
 .text          0x00000000        0x0 c:/program files (x86)/atmel/studio/7.0/toolchain/avr8/avr8-gnu-toolchain/bin/../lib/gcc/avr/5.4.0/../../../../avr/lib/avr5\libm.a(fp_pscA.o)
 .data          0x00000000        0x0 c:/program files (x86)/atmel/studio/7.0/toolchain/avr8/avr8-gnu-toolchain/bin/../lib/gcc/avr/5.4.0/../../../../avr/lib/avr5\libm.a(fp_pscA.o)
 .bss           0x00000000        0x0 c:/program files (x86)/atmel/studio/7.0/toolchain/avr8/avr8-gnu-toolchain/bin/../lib/gcc/avr/5.4.0/../../../../avr/lib/avr5\libm.a(fp_pscA.o)
 .text          0x00000000        0x0 c:/program files (x86)/atmel/studio/7.0/toolchain/avr8/avr8-gnu-toolchain/bin/../lib/gcc/avr/5.4.0/../../../../avr/lib/avr5\libm.a(fp_pscB.o)
 .data          0x00000000        0x0 c:/program files (x86)/atmel/studio/7.0/toolchain/avr8/avr8-gnu-toolchain/bin/../lib/gcc/avr/5.4.0/../../../../avr/lib/avr5\libm.a(fp_pscB.o)
 .bss           0x00000000        0x0 c:/program files (x86)/atmel/studio/7.0/toolchain/avr8/avr8-gnu-toolchain/bin/../lib/gcc/avr/5.4.0/../../../../avr/lib/avr5\libm.a(fp_pscB.o)
 .text          0x00000000        0x0 c:/program files (x86)/atmel/studio/7.0/toolchain/avr8/avr8-gnu-toolchain/bin/../lib/gcc/avr/5.4.0/../../../../avr/lib/avr5\libm.a(fp_round.o)
 .data          0x00000000        0x0 c:/program files (x86)/atmel/studio/7.0/toolchain/avr8/avr8-gnu-toolchain/bin/../lib/gcc/avr/5.4.0/../../../../avr/lib/avr5\libm.a(fp_round.o)
 .bss           0x00000000        0x0 c:/program files (x86)/atmel/studio/7.0/toolchain/avr8/avr8-gnu-toolchain/bin/../lib/gcc/avr/5.4.0/../../../../avr/lib/avr5\libm.a(fp_round.o)
 .text          0x00000000        0x0 c:/program files (x86)/atmel/studio/7.0/toolchain/avr8/avr8-gnu-toolchain/bin/../lib/gcc/avr/5.4.0/../../../../avr/lib/avr5\libm.a(fp_split3.o)
 .data          0x00000000        0x0 c:/program files (x86)/atmel/studio/7.0/toolchain/avr8/avr8-gnu-toolchain/bin/../lib/gcc/avr/5.4.0/../../../../avr/lib/avr5\libm.a(fp_split3.o)
 .bss           0x00000000        0x0 c:/program files (x86)/atmel/studio/7.0/toolchain/avr8/avr8-gnu-toolchain/bin/../lib/gcc/avr/5.4.0/../../../../avr/lib/avr5\libm.a(fp_split3.o)
 .text          0x00000000        0x0 c:/program files (x86)/atmel/studio/7.0/toolchain/avr8/avr8-gnu-toolchain/bin/../lib/gcc/avr/5.4.0/../../../../avr/lib/avr5\libm.a(fp_zero.o)
 .data          0x00000000        0x0 c:/program files (x86)/atmel/studio/7.0/toolchain/avr8/avr8-gnu-toolchain/bin/../lib/gcc/avr/5.4.0/../../../../avr/lib/avr5\libm.a(fp_zero.o)
 .bss           0x00000000        0x0 c:/program files (x86)/atmel/studio/7.0/toolchain/avr8/avr8-gnu-toolchain/bin/../lib/gcc/avr/5.4.0/../../../../avr/lib/avr5\libm.a(fp_zero.o)
 .text          0x00000000        0x0 c:/program files (x86)/atmel/studio/7.0/toolchain/avr8/avr8-gnu-toolchain/bin/../lib/gcc/avr/5.4.0/../../../../avr/lib/avr5\libm.a(gesf2.o)
 .data          0x00000000        0x0 c:/program files (x86)/atmel/studio/7.0/toolchain/avr8/avr8-gnu-toolchain/bin/../lib/gcc/avr/5.4.0/../../../../avr/lib/avr5\libm.a(gesf2.o)
 .bss           0x00000000        0x0 c:/program files (x86)/atmel/studio/7.0/toolchain/avr8/avr8-gnu-toolchain/bin/../lib/gcc/avr/5.4.0/../../../../avr/lib/avr5\libm.a(gesf2.o)
 .text.avr-libc.fplib
                0x00000000        0xa c:/program files (x86)/atmel/studio/7.0/toolchain/avr8/avr8-gnu-toolchain/bin/../lib/gcc/avr/5.4.0/../../../../avr/lib/avr5\libm.a(gesf2.o)
 .text          0x00000000        0x0 c:/program files (x86)/atmel/studio/7.0/toolchain/avr8/avr8-gnu-toolchain/bin/../lib/gcc/avr/5.4.0/../../../../avr/lib/avr5\libm.a(mulsf3.o)
 .data          0x00000000        0x0 c:/program files (x86)/atmel/studio/7.0/toolchain/avr8/avr8-gnu-toolchain/bin/../lib/gcc/avr/5.4.0/../../../../avr/lib/avr5\libm.a(mulsf3.o)
 .bss           0x00000000        0x0 c:/program files (x86)/atmel/studio/7.0/toolchain/avr8/avr8-gnu-toolchain/bin/../lib/gcc/avr/5.4.0/../../../../avr/lib/avr5\libm.a(mulsf3.o)
 .text          0x00000000        0x0 c:/program files (x86)/atmel/studio/7.0/toolchain/avr8/avr8-gnu-toolchain/bin/../lib/gcc/avr/5.4.0/../../../../avr/lib/avr5\libm.a(mulsf3x.o)
 .data          0x00000000        0x0 c:/program files (x86)/atmel/studio/7.0/toolchain/avr8/avr8-gnu-toolchain/bin/../lib/gcc/avr/5.4.0/../../../../avr/lib/avr5\libm.a(mulsf3x.o)
 .bss           0x00000000        0x0 c:/program files (x86)/atmel/studio/7.0/toolchain/avr8/avr8-gnu-toolchain/bin/../lib/gcc/avr/5.4.0/../../../../avr/lib/avr5\libm.a(mulsf3x.o)
 .text          0x00000000        0x0 c:/program files (x86)/atmel/studio/7.0/toolchain/avr8/avr8-gnu-toolchain/bin/../lib/gcc/avr/5.4.0/../../../../avr/lib/avr5\libm.a(unordsf2.o)
 .data          0x00000000        0x0 c:/program files (x86)/atmel/studio/7.0/toolchain/avr8/avr8-gnu-toolchain/bin/../lib/gcc/avr/5.4.0/../../../../avr/lib/avr5\libm.a(unordsf2.o)
 .bss           0x00000000        0x0 c:/program files (x86)/atmel/studio/7.0/toolchain/avr8/avr8-gnu-toolchain/bin/../lib/gcc/avr/5.4.0/../../../../avr/lib/avr5\libm.a(unordsf2.o)
 .text.avr-libc.fplib
                0x00000000        0xa c:/program files (x86)/atmel/studio/7.0/toolchain/avr8/avr8-gnu-toolchain/bin/../lib/gcc/avr/5.4.0/../../../../avr/lib/avr5\libm.a(unordsf2.o)
 .text          0x00000000        0x0 c:/program files (x86)/atmel/studio/7.0/toolchain/avr8/avr8-gnu-toolchain/bin/../lib/gcc/avr/5.4.0/avr5\libgcc.a(_mulsi3.o)
 .data          0x00000000        0x0 c:/program files (x86)/atmel/studio/7.0/toolchain/avr8/avr8-gnu-toolchain/bin/../lib/gcc/avr/5.4.0/avr5\libgcc.a(_mulsi3.o)
 .bss           0x00000000        0x0 c:/program files (x86)/atmel/studio/7.0/toolchain/avr8/avr8-gnu-toolchain/bin/../lib/gcc/avr/5.4.0/avr5\libgcc.a(_mulsi3.o)
 .text.libgcc.mul
                0x00000000       0x20 c:/program files (x86)/atmel/studio/7.0/toolchain/avr8/avr8-gnu-toolchain/bin/../lib/gcc/avr/5.4.0/avr5\libgcc.a(_mulsi3.o)
 .text.libgcc.div
                0x00000000        0x0 c:/program files (x86)/atmel/studio/7.0/toolchain/avr8/avr8-gnu-toolchain/bin/../lib/gcc/avr/5.4.0/avr5\libgcc.a(_mulsi3.o)
 .text.libgcc   0x00000000        0x0 c:/program files (x86)/atmel/studio/7.0/toolchain/avr8/avr8-gnu-toolchain/bin/../lib/gcc/avr/5.4.0/avr5\libgcc.a(_mulsi3.o)
 .text.libgcc.prologue
                0x00000000        0x0 c:/program files (x86)/atmel/studio/7.0/toolchain/avr8/avr8-gnu-toolchain/bin/../lib/gcc/avr/5.4.0/avr5\libgcc.a(_mulsi3.o)
 .text.libgcc.builtins
                0x00000000        0x0 c:/program files (x86)/atmel/studio/7.0/toolchain/avr8/avr8-gnu-toolchain/bin/../lib/gcc/avr/5.4.0/avr5\libgcc.a(_mulsi3.o)
 .text.libgcc.fmul
                0x00000000        0x0 c:/program files (x86)/atmel/studio/7.0/toolchain/avr8/avr8-gnu-toolchain/bin/../lib/gcc/avr/5.4.0/avr5\libgcc.a(_mulsi3.o)
 .text.libgcc.fixed
                0x00000000        0x0 c:/program files (x86)/atmel/studio/7.0/toolchain/avr8/avr8-gnu-toolchain/bin/../lib/gcc/avr/5.4.0/avr5\libgcc.a(_mulsi3.o)
 .text          0x00000000        0x0 c:/program files (x86)/atmel/studio/7.0/toolchain/avr8/avr8-gnu-toolchain/bin/../lib/gcc/avr/5.4.0/avr5\libgcc.a(_udivmodsi4.o)
 .data          0x00000000        0x0 c:/program files (x86)/atmel/studio/7.0/toolchain/avr8/avr8-gnu-toolchain/bin/../lib/gcc/avr/5.4.0/avr5\libgcc.a(_udivmodsi4.o)
 .bss           0x00000000        0x0 c:/program files (x86)/atmel/studio/7.0/toolchain/avr8/avr8-gnu-toolchain/bin/../lib/gcc/avr/5.4.0/avr5\libgcc.a(_udivmodsi4.o)
 .text.libgcc.mul
                0x00000000        0x0 c:/program files (x86)/atmel/studio/7.0/toolchain/avr8/avr8-gnu-toolchain/bin/../lib/gcc/avr/5.4.0/avr5\libgcc.a(_udivmodsi4.o)
 .text.libgcc   0x00000000        0x0 c:/program files (x86)/atmel/studio/7.0/toolchain/avr8/avr8-gnu-toolchain/bin/../lib/gcc/avr/5.4.0/avr5\libgcc.a(_udivmodsi4.o)
 .text.libgcc.prologue
                0x00000000        0x0 c:/program files (x86)/atmel/studio/7.0/toolchain/avr8/avr8-gnu-toolchain/bin/../lib/gcc/avr/5.4.0/avr5\libgcc.a(_udivmodsi4.o)
 .text.libgcc.builtins
                0x00000000        0x0 c:/program files (x86)/atmel/studio/7.0/toolchain/avr8/avr8-gnu-toolchain/bin/../lib/gcc/avr/5.4.0/avr5\libgcc.a(_udivmodsi4.o)
 .text.libgcc.fmul
                0x00000000        0x0 c:/program files (x86)/atmel/studio/7.0/toolchain/avr8/avr8-gnu-toolchain/bin/../lib/gcc/avr/5.4.0/avr5\libgcc.a(_udivmodsi4.o)
 .text.libgcc.fixed
                0x00000000        0x0 c:/program files (x86)/atmel/studio/7.0/toolchain/avr8/avr8-gnu-toolchain/bin/../lib/gcc/avr/5.4.0/avr5\libgcc.a(_udivmodsi4.o)
 .text          0x00000000        0x0 c:/program files (x86)/atmel/studio/7.0/toolchain/avr8/avr8-gnu-toolchain/bin/../lib/gcc/avr/5.4.0/avr5\libgcc.a(_divmodsi4.o)
 .data          0x00000000        0x0 c:/program files (x86)/atmel/studio/7.0/toolchain/avr8/avr8-gnu-toolchain/bin/../lib/gcc/avr/5.4.0/avr5\libgcc.a(_divmodsi4.o)
 .bss           0x00000000        0x0 c:/program files (x86)/atmel/studio/7.0/toolchain/avr8/avr8-gnu-toolchain/bin/../lib/gcc/avr/5.4.0/avr5\libgcc.a(_divmodsi4.o)
 .text.libgcc.mul
                0x00000000        0x0 c:/program files (x86)/atmel/studio/7.0/toolchain/avr8/avr8-gnu-toolchain/bin/../lib/gcc/avr/5.4.0/avr5\libgcc.a(_divmodsi4.o)
 .text.libgcc   0x00000000        0x0 c:/program files (x86)/atmel/studio/7.0/toolchain/avr8/avr8-gnu-toolchain/bin/../lib/gcc/avr/5.4.0/avr5\libgcc.a(_divmodsi4.o)
 .text.libgcc.prologue
                0x00000000        0x0 c:/program files (x86)/atmel/studio/7.0/toolchain/avr8/avr8-gnu-toolchain/bin/../lib/gcc/avr/5.4.0/avr5\libgcc.a(_divmodsi4.o)
 .text.libgcc.builtins
                0x00000000        0x0 c:/program files (x86)/atmel/studio/7.0/toolchain/avr8/avr8-gnu-toolchain/bin/../lib/gcc/avr/5.4.0/avr5\libgcc.a(_divmodsi4.o)
 .text.libgcc.fmul
                0x00000000        0x0 c:/program files (x86)/atmel/studio/7.0/toolchain/avr8/avr8-gnu-toolchain/bin/../lib/gcc/avr/5.4.0/avr5\libgcc.a(_divmodsi4.o)
 .text.libgcc.fixed
                0x00000000        0x0 c:/program files (x86)/atmel/studio/7.0/toolchain/avr8/avr8-gnu-toolchain/bin/../lib/gcc/avr/5.4.0/avr5\libgcc.a(_divmodsi4.o)
 .text          0x00000000        0x0 c:/program files (x86)/atmel/studio/7.0/toolchain/avr8/avr8-gnu-toolchain/bin/../lib/gcc/avr/5.4.0/avr5\libgcc.a(_negsi2.o)
 .data          0x00000000        0x0 c:/program files (x86)/atmel/studio/7.0/toolchain/avr8/avr8-gnu-toolchain/bin/../lib/gcc/avr/5.4.0/avr5\libgcc.a(_negsi2.o)
 .bss           0x00000000        0x0 c:/program files (x86)/atmel/studio/7.0/toolchain/avr8/avr8-gnu-toolchain/bin/../lib/gcc/avr/5.4.0/avr5\libgcc.a(_negsi2.o)
 .text.libgcc.mul
                0x00000000        0x0 c:/program files (x86)/atmel/studio/7.0/toolchain/avr8/avr8-gnu-toolchain/bin/../lib/gcc/avr/5.4.0/avr5\libgcc.a(_negsi2.o)
 .text.libgcc   0x00000000        0x0 c:/program files (x86)/atmel/studio/7.0/toolchain/avr8/avr8-gnu-toolchain/bin/../lib/gcc/avr/5.4.0/avr5\libgcc.a(_negsi2.o)
 .text.libgcc.prologue
                0x00000000        0x0 c:/program files (x86)/atmel/studio/7.0/toolchain/avr8/avr8-gnu-toolchain/bin/../lib/gcc/avr/5.4.0/avr5\libgcc.a(_negsi2.o)
 .text.libgcc.builtins
                0x00000000        0x0 c:/program files (x86)/atmel/studio/7.0/toolchain/avr8/avr8-gnu-toolchain/bin/../lib/gcc/avr/5.4.0/avr5\libgcc.a(_negsi2.o)
 .text.libgcc.fmul
                0x00000000        0x0 c:/program files (x86)/atmel/studio/7.0/toolchain/avr8/avr8-gnu-toolchain/bin/../lib/gcc/avr/5.4.0/avr5\libgcc.a(_negsi2.o)
 .text.libgcc.fixed
                0x00000000        0x0 c:/program files (x86)/atmel/studio/7.0/toolchain/avr8/avr8-gnu-toolchain/bin/../lib/gcc/avr/5.4.0/avr5\libgcc.a(_negsi2.o)
 .text          0x00000000        0x0 c:/program files (x86)/atmel/studio/7.0/toolchain/avr8/avr8-gnu-toolchain/bin/../lib/gcc/avr/5.4.0/avr5\libgcc.a(_exit.o)
 .data          0x00000000        0x0 c:/program files (x86)/atmel/studio/7.0/toolchain/avr8/avr8-gnu-toolchain/bin/../lib/gcc/avr/5.4.0/avr5\libgcc.a(_exit.o)
 .bss           0x00000000        0x0 c:/program files (x86)/atmel/studio/7.0/toolchain/avr8/avr8-gnu-toolchain/bin/../lib/gcc/avr/5.4.0/avr5\libgcc.a(_exit.o)
 .text.libgcc.mul
                0x00000000        0x0 c:/program files (x86)/atmel/studio/7.0/toolchain/avr8/avr8-gnu-toolchain/bin/../lib/gcc/avr/5.4.0/avr5\libgcc.a(_exit.o)
 .text.libgcc.div
                0x00000000        0x0 c:/program files (x86)/atmel/studio/7.0/toolchain/avr8/avr8-gnu-toolchain/bin/../lib/gcc/avr/5.4.0/avr5\libgcc.a(_exit.o)
 .text.libgcc   0x00000000        0x0 c:/program files (x86)/atmel/studio/7.0/toolchain/avr8/avr8-gnu-toolchain/bin/../lib/gcc/avr/5.4.0/avr5\libgcc.a(_exit.o)
 .text.libgcc.prologue
                0x00000000        0x0 c:/program files (x86)/atmel/studio/7.0/toolchain/avr8/avr8-gnu-toolchain/bin/../lib/gcc/avr/5.4.0/avr5\libgcc.a(_exit.o)
 .text.libgcc.builtins
                0x00000000        0x0 c:/program files (x86)/atmel/studio/7.0/toolchain/avr8/avr8-gnu-toolchain/bin/../lib/gcc/avr/5.4.0/avr5\libgcc.a(_exit.o)
 .text.libgcc.fmul
                0x00000000        0x0 c:/program files (x86)/atmel/studio/7.0/toolchain/avr8/avr8-gnu-toolchain/bin/../lib/gcc/avr/5.4.0/avr5\libgcc.a(_exit.o)
 .text.libgcc.fixed
                0x00000000        0x0 c:/program files (x86)/atmel/studio/7.0/toolchain/avr8/avr8-gnu-toolchain/bin/../lib/gcc/avr/5.4.0/avr5\libgcc.a(_exit.o)
 .text          0x00000000        0x0 c:/program files (x86)/atmel/studio/7.0/toolchain/avr8/avr8-gnu-toolchain/bin/../lib/gcc/avr/5.4.0/avr5\libgcc.a(_tablejump2.o)
 .data          0x00000000        0x0 c:/program files (x86)/atmel/studio/7.0/toolchain/avr8/avr8-gnu-toolchain/bin/../lib/gcc/avr/5.4.0/avr5\libgcc.a(_tablejump2.o)
 .bss           0x00000000        0x0 c:/program files (x86)/atmel/studio/7.0/toolchain/avr8/avr8-gnu-toolchain/bin/../lib/gcc/avr/5.4.0/avr5\libgcc.a(_tablejump2.o)
 .text.libgcc.mul
                0x00000000        0x0 c:/program files (x86)/atmel/studio/7.0/toolchain/avr8/avr8-gnu-toolchain/bin/../lib/gcc/avr/5.4.0/avr5\libgcc.a(_tablejump2.o)
 .text.libgcc.div
                0x00000000        0x0 c:/program files (x86)/atmel/studio/7.0/toolchain/avr8/avr8-gnu-toolchain/bin/../lib/gcc/avr/5.4.0/avr5\libgcc.a(_tablejump2.o)
 .text.libgcc.prologue
                0x00000000        0x0 c:/program files (x86)/atmel/studio/7.0/toolchain/avr8/avr8-gnu-toolchain/bin/../lib/gcc/avr/5.4.0/avr5\libgcc.a(_tablejump2.o)
 .text.libgcc.builtins
                0x00000000        0x0 c:/program files (x86)/atmel/studio/7.0/toolchain/avr8/avr8-gnu-toolchain/bin/../lib/gcc/avr/5.4.0/avr5\libgcc.a(_tablejump2.o)
 .text.libgcc.fmul
                0x00000000        0x0 c:/program files (x86)/atmel/studio/7.0/toolchain/avr8/avr8-gnu-toolchain/bin/../lib/gcc/avr/5.4.0/avr5\libgcc.a(_tablejump2.o)
 .text.libgcc.fixed
                0x00000000        0x0 c:/program files (x86)/atmel/studio/7.0/toolchain/avr8/avr8-gnu-toolchain/bin/../lib/gcc/avr/5.4.0/avr5\libgcc.a(_tablejump2.o)
 .text          0x00000000        0x0 c:/program files (x86)/atmel/studio/7.0/toolchain/avr8/avr8-gnu-toolchain/bin/../lib/gcc/avr/5.4.0/avr5\libgcc.a(_copy_data.o)
 .data          0x00000000        0x0 c:/program files (x86)/atmel/studio/7.0/toolchain/avr8/avr8-gnu-toolchain/bin/../lib/gcc/avr/5.4.0/avr5\libgcc.a(_copy_data.o)
 .bss           0x00000000        0x0 c:/program files (x86)/atmel/studio/7.0/toolchain/avr8/avr8-gnu-toolchain/bin/../lib/gcc/avr/5.4.0/avr5\libgcc.a(_copy_data.o)
 .text.libgcc.mul
                0x00000000        0x0 c:/program files (x86)/atmel/studio/7.0/toolchain/avr8/avr8-gnu-toolchain/bin/../lib/gcc/avr/5.4.0/avr5\libgcc.a(_copy_data.o)
 .text.libgcc.div
                0x00000000        0x0 c:/program files (x86)/atmel/studio/7.0/toolchain/avr8/avr8-gnu-toolchain/bin/../lib/gcc/avr/5.4.0/avr5\libgcc.a(_copy_data.o)
 .text.libgcc   0x00000000        0x0 c:/program files (x86)/atmel/studio/7.0/toolchain/avr8/avr8-gnu-toolchain/bin/../lib/gcc/avr/5.4.0/avr5\libgcc.a(_copy_data.o)
 .text.libgcc.prologue
                0x00000000        0x0 c:/program files (x86)/atmel/studio/7.0/toolchain/avr8/avr8-gnu-toolchain/bin/../lib/gcc/avr/5.4.0/avr5\libgcc.a(_copy_data.o)
 .text.libgcc.builtins
                0x00000000        0x0 c:/program files (x86)/atmel/studio/7.0/toolchain/avr8/avr8-gnu-toolchain/bin/../lib/gcc/avr/5.4.0/avr5\libgcc.a(_copy_data.o)
 .text.libgcc.fmul
                0x00000000        0x0 c:/program files (x86)/atmel/studio/7.0/toolchain/avr8/avr8-gnu-toolchain/bin/../lib/gcc/avr/5.4.0/avr5\libgcc.a(_copy_data.o)
 .text.libgcc.fixed
                0x00000000        0x0 c:/program files (x86)/atmel/studio/7.0/toolchain/avr8/avr8-gnu-toolchain/bin/../lib/gcc/avr/5.4.0/avr5\libgcc.a(_copy_data.o)
 .text          0x00000000        0x0 c:/program files (x86)/atmel/studio/7.0/toolchain/avr8/avr8-gnu-toolchain/bin/../lib/gcc/avr/5.4.0/avr5\libgcc.a(_clear_bss.o)
 .data          0x00000000        0x0 c:/program files (x86)/atmel/studio/7.0/toolchain/avr8/avr8-gnu-toolchain/bin/../lib/gcc/avr/5.4.0/avr5\libgcc.a(_clear_bss.o)
 .bss           0x00000000        0x0 c:/program files (x86)/atmel/studio/7.0/toolchain/avr8/avr8-gnu-toolchain/bin/../lib/gcc/avr/5.4.0/avr5\libgcc.a(_clear_bss.o)
 .text.libgcc.mul
                0x00000000        0x0 c:/program files (x86)/atmel/studio/7.0/toolchain/avr8/avr8-gnu-toolchain/bin/../lib/gcc/avr/5.4.0/avr5\libgcc.a(_clear_bss.o)
 .text.libgcc.div
                0x00000000        0x0 c:/program files (x86)/atmel/studio/7.0/toolchain/avr8/avr8-gnu-toolchain/bin/../lib/gcc/avr/5.4.0/avr5\libgcc.a(_clear_bss.o)
 .text.libgcc   0x00000000        0x0 c:/program files (x86)/atmel/studio/7.0/toolchain/avr8/avr8-gnu-toolchain/bin/../lib/gcc/avr/5.4.0/avr5\libgcc.a(_clear_bss.o)
 .text.libgcc.prologue
                0x00000000        0x0 c:/program files (x86)/atmel/studio/7.0/toolchain/avr8/avr8-gnu-toolchain/bin/../lib/gcc/avr/5.4.0/avr5\libgcc.a(_clear_bss.o)
 .text.libgcc.builtins
                0x00000000        0x0 c:/program files (x86)/atmel/studio/7.0/toolchain/avr8/avr8-gnu-toolchain/bin/../lib/gcc/avr/5.4.0/avr5\libgcc.a(_clear_bss.o)
 .text.libgcc.fmul
                0x00000000        0x0 c:/program files (x86)/atmel/studio/7.0/toolchain/avr8/avr8-gnu-toolchain/bin/../lib/gcc/avr/5.4.0/avr5\libgcc.a(_clear_bss.o)
 .text.libgcc.fixed
                0x00000000        0x0 c:/program files (x86)/atmel/studio/7.0/toolchain/avr8/avr8-gnu-toolchain/bin/../lib/gcc/avr/5.4.0/avr5\libgcc.a(_clear_bss.o)
 .text          0x00000000        0x0 c:/program files (x86)/atmel/studio/7.0/toolchain/avr8/avr8-gnu-toolchain/bin/../lib/gcc/avr/5.4.0/avr5\libgcc.a(_ctors.o)
 .data          0x00000000        0x0 c:/program files (x86)/atmel/studio/7.0/toolchain/avr8/avr8-gnu-toolchain/bin/../lib/gcc/avr/5.4.0/avr5\libgcc.a(_ctors.o)
 .bss           0x00000000        0x0 c:/program files (x86)/atmel/studio/7.0/toolchain/avr8/avr8-gnu-toolchain/bin/../lib/gcc/avr/5.4.0/avr5\libgcc.a(_ctors.o)
 .text.libgcc.mul
                0x00000000        0x0 c:/program files (x86)/atmel/studio/7.0/toolchain/avr8/avr8-gnu-toolchain/bin/../lib/gcc/avr/5.4.0/avr5\libgcc.a(_ctors.o)
 .text.libgcc.div
                0x00000000        0x0 c:/program files (x86)/atmel/studio/7.0/toolchain/avr8/avr8-gnu-toolchain/bin/../lib/gcc/avr/5.4.0/avr5\libgcc.a(_ctors.o)
 .text.libgcc   0x00000000        0x0 c:/program files (x86)/atmel/studio/7.0/toolchain/avr8/avr8-gnu-toolchain/bin/../lib/gcc/avr/5.4.0/avr5\libgcc.a(_ctors.o)
 .text.libgcc.prologue
                0x00000000        0x0 c:/program files (x86)/atmel/studio/7.0/toolchain/avr8/avr8-gnu-toolchain/bin/../lib/gcc/avr/5.4.0/avr5\libgcc.a(_ctors.o)
 .text.libgcc.builtins
                0x00000000        0x0 c:/program files (x86)/atmel/studio/7.0/toolchain/avr8/avr8-gnu-toolchain/bin/../lib/gcc/avr/5.4.0/avr5\libgcc.a(_ctors.o)
 .text.libgcc.fmul
                0x00000000        0x0 c:/program files (x86)/atmel/studio/7.0/toolchain/avr8/avr8-gnu-toolchain/bin/../lib/gcc/avr/5.4.0/avr5\libgcc.a(_ctors.o)
 .text.libgcc.fixed
                0x00000000        0x0 c:/program files (x86)/atmel/studio/7.0/toolchain/avr8/avr8-gnu-toolchain/bin/../lib/gcc/avr/5.4.0/avr5\libgcc.a(_ctors.o)
 .text          0x00000000        0x0 c:/program files (x86)/atmel/studio/7.0/toolchain/avr8/avr8-gnu-toolchain/bin/../lib/gcc/avr/5.4.0/avr5\libgcc.a(_dtors.o)
 .data          0x00000000        0x0 c:/program files (x86)/atmel/studio/7.0/toolchain/avr8/avr8-gnu-toolchain/bin/../lib/gcc/avr/5.4.0/avr5\libgcc.a(_dtors.o)
 .bss           0x00000000        0x0 c:/program files (x86)/atmel/studio/7.0/toolchain/avr8/avr8-gnu-toolchain/bin/../lib/gcc/avr/5.4.0/avr5\libgcc.a(_dtors.o)
 .text.libgcc.mul
                0x00000000        0x0 c:/program files (x86)/atmel/studio/7.0/toolchain/avr8/avr8-gnu-toolchain/bin/../lib/gcc/avr/5.4.0/avr5\libgcc.a(_dtors.o)
 .text.libgcc.div
                0x00000000        0x0 c:/program files (x86)/atmel/studio/7.0/toolchain/avr8/avr8-gnu-toolchain/bin/../lib/gcc/avr/5.4.0/avr5\libgcc.a(_dtors.o)
 .text.libgcc   0x00000000        0x0 c:/program files (x86)/atmel/studio/7.0/toolchain/avr8/avr8-gnu-toolchain/bin/../lib/gcc/avr/5.4.0/avr5\libgcc.a(_dtors.o)
 .text.libgcc.prologue
                0x00000000        0x0 c:/program files (x86)/atmel/studio/7.0/toolchain/avr8/avr8-gnu-toolchain/bin/../lib/gcc/avr/5.4.0/avr5\libgcc.a(_dtors.o)
 .text.libgcc.builtins
                0x00000000        0x0 c:/program files (x86)/atmel/studio/7.0/toolchain/avr8/avr8-gnu-toolchain/bin/../lib/gcc/avr/5.4.0/avr5\libgcc.a(_dtors.o)
 .text.libgcc.fmul
                0x00000000        0x0 c:/program files (x86)/atmel/studio/7.0/toolchain/avr8/avr8-gnu-toolchain/bin/../lib/gcc/avr/5.4.0/avr5\libgcc.a(_dtors.o)
 .text.libgcc.fixed
                0x00000000        0x0 c:/program files (x86)/atmel/studio/7.0/toolchain/avr8/avr8-gnu-toolchain/bin/../lib/gcc/avr/5.4.0/avr5\libgcc.a(_dtors.o)
 .text          0x00000000        0x0 c:/program files (x86)/atmel/studio/7.0/toolchain/avr8/avr8-gnu-toolchain/bin/../lib/gcc/avr/5.4.0/avr5\libgcc.a(_muluhisi3.o)
 .data          0x00000000        0x0 c:/program files (x86)/atmel/studio/7.0/toolchain/avr8/avr8-gnu-toolchain/bin/../lib/gcc/avr/5.4.0/avr5\libgcc.a(_muluhisi3.o)
 .bss           0x00000000        0x0 c:/program files (x86)/atmel/studio/7.0/toolchain/avr8/avr8-gnu-toolchain/bin/../lib/gcc/avr/5.4.0/avr5\libgcc.a(_muluhisi3.o)
 .text.libgcc.div
                0x00000000        0x0 c:/program files (x86)/atmel/studio/7.0/toolchain/avr8/avr8-gnu-toolchain/bin/../lib/gcc/avr/5.4.0/avr5\libgcc.a(_muluhisi3.o)
 .text.libgcc   0x00000000        0x0 c:/program files (x86)/atmel/studio/7.0/toolchain/avr8/avr8-gnu-toolchain/bin/../lib/gcc/avr/5.4.0/avr5\libgcc.a(_muluhisi3.o)
 .text.libgcc.prologue
                0x00000000        0x0 c:/program files (x86)/atmel/studio/7.0/toolchain/avr8/avr8-gnu-toolchain/bin/../lib/gcc/avr/5.4.0/avr5\libgcc.a(_muluhisi3.o)
 .text.libgcc.builtins
                0x00000000        0x0 c:/program files (x86)/atmel/studio/7.0/toolchain/avr8/avr8-gnu-toolchain/bin/../lib/gcc/avr/5.4.0/avr5\libgcc.a(_muluhisi3.o)
 .text.libgcc.fmul
                0x00000000        0x0 c:/program files (x86)/atmel/studio/7.0/toolchain/avr8/avr8-gnu-toolchain/bin/../lib/gcc/avr/5.4.0/avr5\libgcc.a(_muluhisi3.o)
 .text.libgcc.fixed
                0x00000000        0x0 c:/program files (x86)/atmel/studio/7.0/toolchain/avr8/avr8-gnu-toolchain/bin/../lib/gcc/avr/5.4.0/avr5\libgcc.a(_muluhisi3.o)
 .text          0x00000000        0x0 c:/program files (x86)/atmel/studio/7.0/toolchain/avr8/avr8-gnu-toolchain/bin/../lib/gcc/avr/5.4.0/avr5\libgcc.a(_umulhisi3.o)
 .data          0x00000000        0x0 c:/program files (x86)/atmel/studio/7.0/toolchain/avr8/avr8-gnu-toolchain/bin/../lib/gcc/avr/5.4.0/avr5\libgcc.a(_umulhisi3.o)
 .bss           0x00000000        0x0 c:/program files (x86)/atmel/studio/7.0/toolchain/avr8/avr8-gnu-toolchain/bin/../lib/gcc/avr/5.4.0/avr5\libgcc.a(_umulhisi3.o)
 .text.libgcc.div
                0x00000000        0x0 c:/program files (x86)/atmel/studio/7.0/toolchain/avr8/avr8-gnu-toolchain/bin/../lib/gcc/avr/5.4.0/avr5\libgcc.a(_umulhisi3.o)
 .text.libgcc   0x00000000        0x0 c:/program files (x86)/atmel/studio/7.0/toolchain/avr8/avr8-gnu-toolchain/bin/../lib/gcc/avr/5.4.0/avr5\libgcc.a(_umulhisi3.o)
 .text.libgcc.prologue
                0x00000000        0x0 c:/program files (x86)/atmel/studio/7.0/toolchain/avr8/avr8-gnu-toolchain/bin/../lib/gcc/avr/5.4.0/avr5\libgcc.a(_umulhisi3.o)
 .text.libgcc.builtins
                0x00000000        0x0 c:/program files (x86)/atmel/studio/7.0/toolchain/avr8/avr8-gnu-toolchain/bin/../lib/gcc/avr/5.4.0/avr5\libgcc.a(_umulhisi3.o)
 .text.libgcc.fmul
                0x00000000        0x0 c:/program files (x86)/atmel/studio/7.0/toolchain/avr8/avr8-gnu-toolchain/bin/../lib/gcc/avr/5.4.0/avr5\libgcc.a(_umulhisi3.o)
 .text.libgcc.fixed
                0x00000000        0x0 c:/program files (x86)/atmel/studio/7.0/toolchain/avr8/avr8-gnu-toolchain/bin/../lib/gcc/avr/5.4.0/avr5\libgcc.a(_umulhisi3.o)
 .text          0x00000000        0x0 c:/program files (x86)/atmel/studio/7.0/toolchain/avr8/avr8-gnu-toolchain/bin/../lib/gcc/avr/5.4.0/../../../../avr/lib/avr5\libc.a(dtostrf.o)
 .data          0x00000000        0x0 c:/program files (x86)/atmel/studio/7.0/toolchain/avr8/avr8-gnu-toolchain/bin/../lib/gcc/avr/5.4.0/../../../../avr/lib/avr5\libc.a(dtostrf.o)
 .bss           0x00000000        0x0 c:/program files (x86)/atmel/studio/7.0/toolchain/avr8/avr8-gnu-toolchain/bin/../lib/gcc/avr/5.4.0/../../../../avr/lib/avr5\libc.a(dtostrf.o)
 .text.avr-libc
                0x00000000       0x40 c:/program files (x86)/atmel/studio/7.0/toolchain/avr8/avr8-gnu-toolchain/bin/../lib/gcc/avr/5.4.0/../../../../avr/lib/avr5\libc.a(dtostrf.o)
 .comment       0x00000000       0x31 c:/program files (x86)/atmel/studio/7.0/toolchain/avr8/avr8-gnu-toolchain/bin/../lib/gcc/avr/5.4.0/../../../../avr/lib/avr5\libc.a(dtostrf.o)
 .text          0x00000000        0x0 c:/program files (x86)/atmel/studio/7.0/toolchain/avr8/avr8-gnu-toolchain/bin/../lib/gcc/avr/5.4.0/../../../../avr/lib/avr5\libc.a(malloc.o)
 .bss           0x00000000        0x0 c:/program files (x86)/atmel/studio/7.0/toolchain/avr8/avr8-gnu-toolchain/bin/../lib/gcc/avr/5.4.0/../../../../avr/lib/avr5\libc.a(malloc.o)
 .text          0x00000000        0x0 c:/program files (x86)/atmel/studio/7.0/toolchain/avr8/avr8-gnu-toolchain/bin/../lib/gcc/avr/5.4.0/../../../../avr/lib/avr5\libc.a(random.o)
 .bss           0x00000000        0x0 c:/program files (x86)/atmel/studio/7.0/toolchain/avr8/avr8-gnu-toolchain/bin/../lib/gcc/avr/5.4.0/../../../../avr/lib/avr5\libc.a(random.o)
 .text          0x00000000        0x0 c:/program files (x86)/atmel/studio/7.0/toolchain/avr8/avr8-gnu-toolchain/bin/../lib/gcc/avr/5.4.0/../../../../avr/lib/avr5\libc.a(realloc.o)
 .data          0x00000000        0x0 c:/program files (x86)/atmel/studio/7.0/toolchain/avr8/avr8-gnu-toolchain/bin/../lib/gcc/avr/5.4.0/../../../../avr/lib/avr5\libc.a(realloc.o)
 .bss           0x00000000        0x0 c:/program files (x86)/atmel/studio/7.0/toolchain/avr8/avr8-gnu-toolchain/bin/../lib/gcc/avr/5.4.0/../../../../avr/lib/avr5\libc.a(realloc.o)
 .text          0x00000000        0x0 c:/program files (x86)/atmel/studio/7.0/toolchain/avr8/avr8-gnu-toolchain/bin/../lib/gcc/avr/5.4.0/../../../../avr/lib/avr5\libc.a(abort.o)
 .data          0x00000000        0x0 c:/program files (x86)/atmel/studio/7.0/toolchain/avr8/avr8-gnu-toolchain/bin/../lib/gcc/avr/5.4.0/../../../../avr/lib/avr5\libc.a(abort.o)
 .bss           0x00000000        0x0 c:/program files (x86)/atmel/studio/7.0/toolchain/avr8/avr8-gnu-toolchain/bin/../lib/gcc/avr/5.4.0/../../../../avr/lib/avr5\libc.a(abort.o)
 .text          0x00000000        0x0 c:/program files (x86)/atmel/studio/7.0/toolchain/avr8/avr8-gnu-toolchain/bin/../lib/gcc/avr/5.4.0/../../../../avr/lib/avr5\libc.a(atof.o)
 .data          0x00000000        0x0 c:/program files (x86)/atmel/studio/7.0/toolchain/avr8/avr8-gnu-toolchain/bin/../lib/gcc/avr/5.4.0/../../../../avr/lib/avr5\libc.a(atof.o)
 .bss           0x00000000        0x0 c:/program files (x86)/atmel/studio/7.0/toolchain/avr8/avr8-gnu-toolchain/bin/../lib/gcc/avr/5.4.0/../../../../avr/lib/avr5\libc.a(atof.o)
 .text.avr-libc
                0x00000000        0x8 c:/program files (x86)/atmel/studio/7.0/toolchain/avr8/avr8-gnu-toolchain/bin/../lib/gcc/avr/5.4.0/../../../../avr/lib/avr5\libc.a(atof.o)
 .text          0x00000000        0x0 c:/program files (x86)/atmel/studio/7.0/toolchain/avr8/avr8-gnu-toolchain/bin/../lib/gcc/avr/5.4.0/../../../../avr/lib/avr5\libc.a(atol.o)
 .data          0x00000000        0x0 c:/program files (x86)/atmel/studio/7.0/toolchain/avr8/avr8-gnu-toolchain/bin/../lib/gcc/avr/5.4.0/../../../../avr/lib/avr5\libc.a(atol.o)
 .bss           0x00000000        0x0 c:/program files (x86)/atmel/studio/7.0/toolchain/avr8/avr8-gnu-toolchain/bin/../lib/gcc/avr/5.4.0/../../../../avr/lib/avr5\libc.a(atol.o)
 .text.avr-libc
                0x00000000       0x4e c:/program files (x86)/atmel/studio/7.0/toolchain/avr8/avr8-gnu-toolchain/bin/../lib/gcc/avr/5.4.0/../../../../avr/lib/avr5\libc.a(atol.o)
 .text          0x00000000        0x0 c:/program files (x86)/atmel/studio/7.0/toolchain/avr8/avr8-gnu-toolchain/bin/../lib/gcc/avr/5.4.0/../../../../avr/lib/avr5\libc.a(isspace.o)
 .data          0x00000000        0x0 c:/program files (x86)/atmel/studio/7.0/toolchain/avr8/avr8-gnu-toolchain/bin/../lib/gcc/avr/5.4.0/../../../../avr/lib/avr5\libc.a(isspace.o)
 .bss           0x00000000        0x0 c:/program files (x86)/atmel/studio/7.0/toolchain/avr8/avr8-gnu-toolchain/bin/../lib/gcc/avr/5.4.0/../../../../avr/lib/avr5\libc.a(isspace.o)
 .text.avr-libc
                0x00000000       0x12 c:/program files (x86)/atmel/studio/7.0/toolchain/avr8/avr8-gnu-toolchain/bin/../lib/gcc/avr/5.4.0/../../../../avr/lib/avr5\libc.a(isspace.o)
 .text          0x00000000        0x0 c:/program files (x86)/atmel/studio/7.0/toolchain/avr8/avr8-gnu-toolchain/bin/../lib/gcc/avr/5.4.0/../../../../avr/lib/avr5\libc.a(tolower.o)
 .data          0x00000000        0x0 c:/program files (x86)/atmel/studio/7.0/toolchain/avr8/avr8-gnu-toolchain/bin/../lib/gcc/avr/5.4.0/../../../../avr/lib/avr5\libc.a(tolower.o)
 .bss           0x00000000        0x0 c:/program files (x86)/atmel/studio/7.0/toolchain/avr8/avr8-gnu-toolchain/bin/../lib/gcc/avr/5.4.0/../../../../avr/lib/avr5\libc.a(tolower.o)
 .text.avr-libc
                0x00000000       0x10 c:/program files (x86)/atmel/studio/7.0/toolchain/avr8/avr8-gnu-toolchain/bin/../lib/gcc/avr/5.4.0/../../../../avr/lib/avr5\libc.a(tolower.o)
 .text          0x00000000        0x0 c:/program files (x86)/atmel/studio/7.0/toolchain/avr8/avr8-gnu-toolchain/bin/../lib/gcc/avr/5.4.0/../../../../avr/lib/avr5\libc.a(toupper.o)
 .data          0x00000000        0x0 c:/program files (x86)/atmel/studio/7.0/toolchain/avr8/avr8-gnu-toolchain/bin/../lib/gcc/avr/5.4.0/../../../../avr/lib/avr5\libc.a(toupper.o)
 .bss           0x00000000        0x0 c:/program files (x86)/atmel/studio/7.0/toolchain/avr8/avr8-gnu-toolchain/bin/../lib/gcc/avr/5.4.0/../../../../avr/lib/avr5\libc.a(toupper.o)
 .text.avr-libc
                0x00000000       0x10 c:/program files (x86)/atmel/studio/7.0/toolchain/avr8/avr8-gnu-toolchain/bin/../lib/gcc/avr/5.4.0/../../../../avr/lib/avr5\libc.a(toupper.o)
 .text          0x00000000        0x0 c:/program files (x86)/atmel/studio/7.0/toolchain/avr8/avr8-gnu-toolchain/bin/../lib/gcc/avr/5.4.0/../../../../avr/lib/avr5\libc.a(memcpy_P.o)
 .data          0x00000000        0x0 c:/program files (x86)/atmel/studio/7.0/toolchain/avr8/avr8-gnu-toolchain/bin/../lib/gcc/avr/5.4.0/../../../../avr/lib/avr5\libc.a(memcpy_P.o)
 .bss           0x00000000        0x0 c:/program files (x86)/atmel/studio/7.0/toolchain/avr8/avr8-gnu-toolchain/bin/../lib/gcc/avr/5.4.0/../../../../avr/lib/avr5\libc.a(memcpy_P.o)
 .text          0x00000000        0x0 c:/program files (x86)/atmel/studio/7.0/toolchain/avr8/avr8-gnu-toolchain/bin/../lib/gcc/avr/5.4.0/../../../../avr/lib/avr5\libc.a(strcpy_P.o)
 .data          0x00000000        0x0 c:/program files (x86)/atmel/studio/7.0/toolchain/avr8/avr8-gnu-toolchain/bin/../lib/gcc/avr/5.4.0/../../../../avr/lib/avr5\libc.a(strcpy_P.o)
 .bss           0x00000000        0x0 c:/program files (x86)/atmel/studio/7.0/toolchain/avr8/avr8-gnu-toolchain/bin/../lib/gcc/avr/5.4.0/../../../../avr/lib/avr5\libc.a(strcpy_P.o)
 .text.avr-libc
                0x00000000        0xe c:/program files (x86)/atmel/studio/7.0/toolchain/avr8/avr8-gnu-toolchain/bin/../lib/gcc/avr/5.4.0/../../../../avr/lib/avr5\libc.a(strcpy_P.o)
 .text          0x00000000        0x0 c:/program files (x86)/atmel/studio/7.0/toolchain/avr8/avr8-gnu-toolchain/bin/../lib/gcc/avr/5.4.0/../../../../avr/lib/avr5\libc.a(strlen_P.o)
 .data          0x00000000        0x0 c:/program files (x86)/atmel/studio/7.0/toolchain/avr8/avr8-gnu-toolchain/bin/../lib/gcc/avr/5.4.0/../../../../avr/lib/avr5\libc.a(strlen_P.o)
 .bss           0x00000000        0x0 c:/program files (x86)/atmel/studio/7.0/toolchain/avr8/avr8-gnu-toolchain/bin/../lib/gcc/avr/5.4.0/../../../../avr/lib/avr5\libc.a(strlen_P.o)
 .text.avr-libc
                0x00000000       0x12 c:/program files (x86)/atmel/studio/7.0/toolchain/avr8/avr8-gnu-toolchain/bin/../lib/gcc/avr/5.4.0/../../../../avr/lib/avr5\libc.a(strlen_P.o)
 .text          0x00000000        0x0 c:/program files (x86)/atmel/studio/7.0/toolchain/avr8/avr8-gnu-toolchain/bin/../lib/gcc/avr/5.4.0/../../../../avr/lib/avr5\libc.a(memcpy.o)
 .data          0x00000000        0x0 c:/program files (x86)/atmel/studio/7.0/toolchain/avr8/avr8-gnu-toolchain/bin/../lib/gcc/avr/5.4.0/../../../../avr/lib/avr5\libc.a(memcpy.o)
 .bss           0x00000000        0x0 c:/program files (x86)/atmel/studio/7.0/toolchain/avr8/avr8-gnu-toolchain/bin/../lib/gcc/avr/5.4.0/../../../../avr/lib/avr5\libc.a(memcpy.o)
 .text          0x00000000        0x0 c:/program files (x86)/atmel/studio/7.0/toolchain/avr8/avr8-gnu-toolchain/bin/../lib/gcc/avr/5.4.0/../../../../avr/lib/avr5\libc.a(memmove.o)
 .data          0x00000000        0x0 c:/program files (x86)/atmel/studio/7.0/toolchain/avr8/avr8-gnu-toolchain/bin/../lib/gcc/avr/5.4.0/../../../../avr/lib/avr5\libc.a(memmove.o)
 .bss           0x00000000        0x0 c:/program files (x86)/atmel/studio/7.0/toolchain/avr8/avr8-gnu-toolchain/bin/../lib/gcc/avr/5.4.0/../../../../avr/lib/avr5\libc.a(memmove.o)
 .text.avr-libc
                0x00000000       0x24 c:/program files (x86)/atmel/studio/7.0/toolchain/avr8/avr8-gnu-toolchain/bin/../lib/gcc/avr/5.4.0/../../../../avr/lib/avr5\libc.a(memmove.o)
 .text          0x00000000        0x0 c:/program files (x86)/atmel/studio/7.0/toolchain/avr8/avr8-gnu-toolchain/bin/../lib/gcc/avr/5.4.0/../../../../avr/lib/avr5\libc.a(strchr.o)
 .data          0x00000000        0x0 c:/program files (x86)/atmel/studio/7.0/toolchain/avr8/avr8-gnu-toolchain/bin/../lib/gcc/avr/5.4.0/../../../../avr/lib/avr5\libc.a(strchr.o)
 .bss           0x00000000        0x0 c:/program files (x86)/atmel/studio/7.0/toolchain/avr8/avr8-gnu-toolchain/bin/../lib/gcc/avr/5.4.0/../../../../avr/lib/avr5\libc.a(strchr.o)
 .text.avr-libc
                0x00000000       0x16 c:/program files (x86)/atmel/studio/7.0/toolchain/avr8/avr8-gnu-toolchain/bin/../lib/gcc/avr/5.4.0/../../../../avr/lib/avr5\libc.a(strchr.o)
 .text          0x00000000        0x0 c:/program files (x86)/atmel/studio/7.0/toolchain/avr8/avr8-gnu-toolchain/bin/../lib/gcc/avr/5.4.0/../../../../avr/lib/avr5\libc.a(strcmp.o)
 .data          0x00000000        0x0 c:/program files (x86)/atmel/studio/7.0/toolchain/avr8/avr8-gnu-toolchain/bin/../lib/gcc/avr/5.4.0/../../../../avr/lib/avr5\libc.a(strcmp.o)
 .bss           0x00000000        0x0 c:/program files (x86)/atmel/studio/7.0/toolchain/avr8/avr8-gnu-toolchain/bin/../lib/gcc/avr/5.4.0/../../../../avr/lib/avr5\libc.a(strcmp.o)
 .text.avr-libc
                0x00000000       0x12 c:/program files (x86)/atmel/studio/7.0/toolchain/avr8/avr8-gnu-toolchain/bin/../lib/gcc/avr/5.4.0/../../../../avr/lib/avr5\libc.a(strcmp.o)
 .text          0x00000000        0x0 c:/program files (x86)/atmel/studio/7.0/toolchain/avr8/avr8-gnu-toolchain/bin/../lib/gcc/avr/5.4.0/../../../../avr/lib/avr5\libc.a(strcpy.o)
 .data          0x00000000        0x0 c:/program files (x86)/atmel/studio/7.0/toolchain/avr8/avr8-gnu-toolchain/bin/../lib/gcc/avr/5.4.0/../../../../avr/lib/avr5\libc.a(strcpy.o)
 .bss           0x00000000        0x0 c:/program files (x86)/atmel/studio/7.0/toolchain/avr8/avr8-gnu-toolchain/bin/../lib/gcc/avr/5.4.0/../../../../avr/lib/avr5\libc.a(strcpy.o)
 .text          0x00000000        0x0 c:/program files (x86)/atmel/studio/7.0/toolchain/avr8/avr8-gnu-toolchain/bin/../lib/gcc/avr/5.4.0/../../../../avr/lib/avr5\libc.a(strncmp.o)
 .data          0x00000000        0x0 c:/program files (x86)/atmel/studio/7.0/toolchain/avr8/avr8-gnu-toolchain/bin/../lib/gcc/avr/5.4.0/../../../../avr/lib/avr5\libc.a(strncmp.o)
 .bss           0x00000000        0x0 c:/program files (x86)/atmel/studio/7.0/toolchain/avr8/avr8-gnu-toolchain/bin/../lib/gcc/avr/5.4.0/../../../../avr/lib/avr5\libc.a(strncmp.o)
 .text.avr-libc
                0x00000000       0x1c c:/program files (x86)/atmel/studio/7.0/toolchain/avr8/avr8-gnu-toolchain/bin/../lib/gcc/avr/5.4.0/../../../../avr/lib/avr5\libc.a(strncmp.o)
 .text          0x00000000        0x0 c:/program files (x86)/atmel/studio/7.0/toolchain/avr8/avr8-gnu-toolchain/bin/../lib/gcc/avr/5.4.0/../../../../avr/lib/avr5\libc.a(strncpy.o)
 .data          0x00000000        0x0 c:/program files (x86)/atmel/studio/7.0/toolchain/avr8/avr8-gnu-toolchain/bin/../lib/gcc/avr/5.4.0/../../../../avr/lib/avr5\libc.a(strncpy.o)
 .bss           0x00000000        0x0 c:/program files (x86)/atmel/studio/7.0/toolchain/avr8/avr8-gnu-toolchain/bin/../lib/gcc/avr/5.4.0/../../../../avr/lib/avr5\libc.a(strncpy.o)
 .text          0x00000000        0x0 c:/program files (x86)/atmel/studio/7.0/toolchain/avr8/avr8-gnu-toolchain/bin/../lib/gcc/avr/5.4.0/../../../../avr/lib/avr5\libc.a(strrchr.o)
 .data          0x00000000        0x0 c:/program files (x86)/atmel/studio/7.0/toolchain/avr8/avr8-gnu-toolchain/bin/../lib/gcc/avr/5.4.0/../../../../avr/lib/avr5\libc.a(strrchr.o)
 .bss           0x00000000        0x0 c:/program files (x86)/atmel/studio/7.0/toolchain/avr8/avr8-gnu-toolchain/bin/../lib/gcc/avr/5.4.0/../../../../avr/lib/avr5\libc.a(strrchr.o)
 .text.avr-libc
                0x00000000       0x16 c:/program files (x86)/atmel/studio/7.0/toolchain/avr8/avr8-gnu-toolchain/bin/../lib/gcc/avr/5.4.0/../../../../avr/lib/avr5\libc.a(strrchr.o)
 .text          0x00000000        0x0 c:/program files (x86)/atmel/studio/7.0/toolchain/avr8/avr8-gnu-toolchain/bin/../lib/gcc/avr/5.4.0/../../../../avr/lib/avr5\libc.a(strstr.o)
 .data          0x00000000        0x0 c:/program files (x86)/atmel/studio/7.0/toolchain/avr8/avr8-gnu-toolchain/bin/../lib/gcc/avr/5.4.0/../../../../avr/lib/avr5\libc.a(strstr.o)
 .bss           0x00000000        0x0 c:/program files (x86)/atmel/studio/7.0/toolchain/avr8/avr8-gnu-toolchain/bin/../lib/gcc/avr/5.4.0/../../../../avr/lib/avr5\libc.a(strstr.o)
 .text.avr-libc
                0x00000000       0x34 c:/program files (x86)/atmel/studio/7.0/toolchain/avr8/avr8-gnu-toolchain/bin/../lib/gcc/avr/5.4.0/../../../../avr/lib/avr5\libc.a(strstr.o)
 .text          0x00000000        0x0 c:/program files (x86)/atmel/studio/7.0/toolchain/avr8/avr8-gnu-toolchain/bin/../lib/gcc/avr/5.4.0/../../../../avr/lib/avr5\libc.a(itoa.o)
 .data          0x00000000        0x0 c:/program files (x86)/atmel/studio/7.0/toolchain/avr8/avr8-gnu-toolchain/bin/../lib/gcc/avr/5.4.0/../../../../avr/lib/avr5\libc.a(itoa.o)
 .bss           0x00000000        0x0 c:/program files (x86)/atmel/studio/7.0/toolchain/avr8/avr8-gnu-toolchain/bin/../lib/gcc/avr/5.4.0/../../../../avr/lib/avr5\libc.a(itoa.o)
 .text.avr-libc
                0x00000000       0x16 c:/program files (x86)/atmel/studio/7.0/toolchain/avr8/avr8-gnu-toolchain/bin/../lib/gcc/avr/5.4.0/../../../../avr/lib/avr5\libc.a(itoa.o)
 .text          0x00000000        0x0 c:/program files (x86)/atmel/studio/7.0/toolchain/avr8/avr8-gnu-toolchain/bin/../lib/gcc/avr/5.4.0/../../../../avr/lib/avr5\libc.a(itoa_ncheck.o)
 .data          0x00000000        0x0 c:/program files (x86)/atmel/studio/7.0/toolchain/avr8/avr8-gnu-toolchain/bin/../lib/gcc/avr/5.4.0/../../../../avr/lib/avr5\libc.a(itoa_ncheck.o)
 .bss           0x00000000        0x0 c:/program files (x86)/atmel/studio/7.0/toolchain/avr8/avr8-gnu-toolchain/bin/../lib/gcc/avr/5.4.0/../../../../avr/lib/avr5\libc.a(itoa_ncheck.o)
 .text.avr-libc
                0x00000000       0x16 c:/program files (x86)/atmel/studio/7.0/toolchain/avr8/avr8-gnu-toolchain/bin/../lib/gcc/avr/5.4.0/../../../../avr/lib/avr5\libc.a(itoa_ncheck.o)
 .text          0x00000000        0x0 c:/program files (x86)/atmel/studio/7.0/toolchain/avr8/avr8-gnu-toolchain/bin/../lib/gcc/avr/5.4.0/../../../../avr/lib/avr5\libc.a(ltoa.o)
 .data          0x00000000        0x0 c:/program files (x86)/atmel/studio/7.0/toolchain/avr8/avr8-gnu-toolchain/bin/../lib/gcc/avr/5.4.0/../../../../avr/lib/avr5\libc.a(ltoa.o)
 .bss           0x00000000        0x0 c:/program files (x86)/atmel/studio/7.0/toolchain/avr8/avr8-gnu-toolchain/bin/../lib/gcc/avr/5.4.0/../../../../avr/lib/avr5\libc.a(ltoa.o)
 .text.avr-libc
                0x00000000       0x16 c:/program files (x86)/atmel/studio/7.0/toolchain/avr8/avr8-gnu-toolchain/bin/../lib/gcc/avr/5.4.0/../../../../avr/lib/avr5\libc.a(ltoa.o)
 .text          0x00000000        0x0 c:/program files (x86)/atmel/studio/7.0/toolchain/avr8/avr8-gnu-toolchain/bin/../lib/gcc/avr/5.4.0/../../../../avr/lib/avr5\libc.a(ltoa_ncheck.o)
 .data          0x00000000        0x0 c:/program files (x86)/atmel/studio/7.0/toolchain/avr8/avr8-gnu-toolchain/bin/../lib/gcc/avr/5.4.0/../../../../avr/lib/avr5\libc.a(ltoa_ncheck.o)
 .bss           0x00000000        0x0 c:/program files (x86)/atmel/studio/7.0/toolchain/avr8/avr8-gnu-toolchain/bin/../lib/gcc/avr/5.4.0/../../../../avr/lib/avr5\libc.a(ltoa_ncheck.o)
 .text.avr-libc
                0x00000000       0x1e c:/program files (x86)/atmel/studio/7.0/toolchain/avr8/avr8-gnu-toolchain/bin/../lib/gcc/avr/5.4.0/../../../../avr/lib/avr5\libc.a(ltoa_ncheck.o)
 .text          0x00000000        0x0 c:/program files (x86)/atmel/studio/7.0/toolchain/avr8/avr8-gnu-toolchain/bin/../lib/gcc/avr/5.4.0/../../../../avr/lib/avr5\libc.a(mulsi10.o)
 .data          0x00000000        0x0 c:/program files (x86)/atmel/studio/7.0/toolchain/avr8/avr8-gnu-toolchain/bin/../lib/gcc/avr/5.4.0/../../../../avr/lib/avr5\libc.a(mulsi10.o)
 .bss           0x00000000        0x0 c:/program files (x86)/atmel/studio/7.0/toolchain/avr8/avr8-gnu-toolchain/bin/../lib/gcc/avr/5.4.0/../../../../avr/lib/avr5\libc.a(mulsi10.o)
 .text.avr-libc
                0x00000000       0x2a c:/program files (x86)/atmel/studio/7.0/toolchain/avr8/avr8-gnu-toolchain/bin/../lib/gcc/avr/5.4.0/../../../../avr/lib/avr5\libc.a(mulsi10.o)
 .text          0x00000000        0x0 c:/program files (x86)/atmel/studio/7.0/toolchain/avr8/avr8-gnu-toolchain/bin/../lib/gcc/avr/5.4.0/../../../../avr/lib/avr5\libc.a(ultoa.o)
 .data          0x00000000        0x0 c:/program files (x86)/atmel/studio/7.0/toolchain/avr8/avr8-gnu-toolchain/bin/../lib/gcc/avr/5.4.0/../../../../avr/lib/avr5\libc.a(ultoa.o)
 .bss           0x00000000        0x0 c:/program files (x86)/atmel/studio/7.0/toolchain/avr8/avr8-gnu-toolchain/bin/../lib/gcc/avr/5.4.0/../../../../avr/lib/avr5\libc.a(ultoa.o)
 .text.avr-libc
                0x00000000       0x16 c:/program files (x86)/atmel/studio/7.0/toolchain/avr8/avr8-gnu-toolchain/bin/../lib/gcc/avr/5.4.0/../../../../avr/lib/avr5\libc.a(ultoa.o)
 .text          0x00000000        0x0 c:/program files (x86)/atmel/studio/7.0/toolchain/avr8/avr8-gnu-toolchain/bin/../lib/gcc/avr/5.4.0/../../../../avr/lib/avr5\libc.a(ultoa_ncheck.o)
 .data          0x00000000        0x0 c:/program files (x86)/atmel/studio/7.0/toolchain/avr8/avr8-gnu-toolchain/bin/../lib/gcc/avr/5.4.0/../../../../avr/lib/avr5\libc.a(ultoa_ncheck.o)
 .bss           0x00000000        0x0 c:/program files (x86)/atmel/studio/7.0/toolchain/avr8/avr8-gnu-toolchain/bin/../lib/gcc/avr/5.4.0/../../../../avr/lib/avr5\libc.a(ultoa_ncheck.o)
 .text.avr-libc
                0x00000000       0x44 c:/program files (x86)/atmel/studio/7.0/toolchain/avr8/avr8-gnu-toolchain/bin/../lib/gcc/avr/5.4.0/../../../../avr/lib/avr5\libc.a(ultoa_ncheck.o)
 .text          0x00000000        0x0 c:/program files (x86)/atmel/studio/7.0/toolchain/avr8/avr8-gnu-toolchain/bin/../lib/gcc/avr/5.4.0/../../../../avr/lib/avr5\libc.a(utoa.o)
 .data          0x00000000        0x0 c:/program files (x86)/atmel/studio/7.0/toolchain/avr8/avr8-gnu-toolchain/bin/../lib/gcc/avr/5.4.0/../../../../avr/lib/avr5\libc.a(utoa.o)
 .bss           0x00000000        0x0 c:/program files (x86)/atmel/studio/7.0/toolchain/avr8/avr8-gnu-toolchain/bin/../lib/gcc/avr/5.4.0/../../../../avr/lib/avr5\libc.a(utoa.o)
 .text.avr-libc
                0x00000000       0x16 c:/program files (x86)/atmel/studio/7.0/toolchain/avr8/avr8-gnu-toolchain/bin/../lib/gcc/avr/5.4.0/../../../../avr/lib/avr5\libc.a(utoa.o)
 .text          0x00000000        0x0 c:/program files (x86)/atmel/studio/7.0/toolchain/avr8/avr8-gnu-toolchain/bin/../lib/gcc/avr/5.4.0/../../../../avr/lib/avr5\libc.a(utoa_ncheck.o)
 .data          0x00000000        0x0 c:/program files (x86)/atmel/studio/7.0/toolchain/avr8/avr8-gnu-toolchain/bin/../lib/gcc/avr/5.4.0/../../../../avr/lib/avr5\libc.a(utoa_ncheck.o)
 .bss           0x00000000        0x0 c:/program files (x86)/atmel/studio/7.0/toolchain/avr8/avr8-gnu-toolchain/bin/../lib/gcc/avr/5.4.0/../../../../avr/lib/avr5\libc.a(utoa_ncheck.o)
 .text.avr-libc
                0x00000000       0x34 c:/program files (x86)/atmel/studio/7.0/toolchain/avr8/avr8-gnu-toolchain/bin/../lib/gcc/avr/5.4.0/../../../../avr/lib/avr5\libc.a(utoa_ncheck.o)
 .text          0x00000000        0x0 c:/program files (x86)/atmel/studio/7.0/toolchain/avr8/avr8-gnu-toolchain/bin/../lib/gcc/avr/5.4.0/../../../../avr/lib/avr5\libc.a(dtoa_prf.o)
 .data          0x00000000        0x0 c:/program files (x86)/atmel/studio/7.0/toolchain/avr8/avr8-gnu-toolchain/bin/../lib/gcc/avr/5.4.0/../../../../avr/lib/avr5\libc.a(dtoa_prf.o)
 .bss           0x00000000        0x0 c:/program files (x86)/atmel/studio/7.0/toolchain/avr8/avr8-gnu-toolchain/bin/../lib/gcc/avr/5.4.0/../../../../avr/lib/avr5\libc.a(dtoa_prf.o)
 .text.avr-libc
                0x00000000      0x2b4 c:/program files (x86)/atmel/studio/7.0/toolchain/avr8/avr8-gnu-toolchain/bin/../lib/gcc/avr/5.4.0/../../../../avr/lib/avr5\libc.a(dtoa_prf.o)
 .comment       0x00000000       0x31 c:/program files (x86)/atmel/studio/7.0/toolchain/avr8/avr8-gnu-toolchain/bin/../lib/gcc/avr/5.4.0/../../../../avr/lib/avr5\libc.a(dtoa_prf.o)
 .text          0x00000000        0x0 c:/program files (x86)/atmel/studio/7.0/toolchain/avr8/avr8-gnu-toolchain/bin/../lib/gcc/avr/5.4.0/../../../../avr/lib/avr5\libc.a(strtod.o)
 .data          0x00000000        0x0 c:/program files (x86)/atmel/studio/7.0/toolchain/avr8/avr8-gnu-toolchain/bin/../lib/gcc/avr/5.4.0/../../../../avr/lib/avr5\libc.a(strtod.o)
 .bss           0x00000000        0x0 c:/program files (x86)/atmel/studio/7.0/toolchain/avr8/avr8-gnu-toolchain/bin/../lib/gcc/avr/5.4.0/../../../../avr/lib/avr5\libc.a(strtod.o)
 .text.avr-libc
                0x00000000      0x29c c:/program files (x86)/atmel/studio/7.0/toolchain/avr8/avr8-gnu-toolchain/bin/../lib/gcc/avr/5.4.0/../../../../avr/lib/avr5\libc.a(strtod.o)
 .progmem.data  0x00000000       0x3b c:/program files (x86)/atmel/studio/7.0/toolchain/avr8/avr8-gnu-toolchain/bin/../lib/gcc/avr/5.4.0/../../../../avr/lib/avr5\libc.a(strtod.o)
 .comment       0x00000000       0x31 c:/program files (x86)/atmel/studio/7.0/toolchain/avr8/avr8-gnu-toolchain/bin/../lib/gcc/avr/5.4.0/../../../../avr/lib/avr5\libc.a(strtod.o)
 .text          0x00000000        0x0 c:/program files (x86)/atmel/studio/7.0/toolchain/avr8/avr8-gnu-toolchain/bin/../lib/gcc/avr/5.4.0/../../../../avr/lib/avr5\libc.a(ftoa_engine.o)
 .data          0x00000000        0x0 c:/program files (x86)/atmel/studio/7.0/toolchain/avr8/avr8-gnu-toolchain/bin/../lib/gcc/avr/5.4.0/../../../../avr/lib/avr5\libc.a(ftoa_engine.o)
 .bss           0x00000000        0x0 c:/program files (x86)/atmel/studio/7.0/toolchain/avr8/avr8-gnu-toolchain/bin/../lib/gcc/avr/5.4.0/../../../../avr/lib/avr5\libc.a(ftoa_engine.o)
 .text.avr-libc
                0x00000000      0x1b0 c:/program files (x86)/atmel/studio/7.0/toolchain/avr8/avr8-gnu-toolchain/bin/../lib/gcc/avr/5.4.0/../../../../avr/lib/avr5\libc.a(ftoa_engine.o)
 .progmem.data  0x00000000       0xfa c:/program files (x86)/atmel/studio/7.0/toolchain/avr8/avr8-gnu-toolchain/bin/../lib/gcc/avr/5.4.0/../../../../avr/lib/avr5\libc.a(ftoa_engine.o)
 .text          0x00000000        0x0 c:/program files (x86)/atmel/studio/7.0/toolchain/avr8/avr8-gnu-toolchain/bin/../lib/gcc/avr/5.4.0/../../../../avr/lib/avr5\libc.a(cty_isfalse.o)
 .data          0x00000000        0x0 c:/program files (x86)/atmel/studio/7.0/toolchain/avr8/avr8-gnu-toolchain/bin/../lib/gcc/avr/5.4.0/../../../../avr/lib/avr5\libc.a(cty_isfalse.o)
 .bss           0x00000000        0x0 c:/program files (x86)/atmel/studio/7.0/toolchain/avr8/avr8-gnu-toolchain/bin/../lib/gcc/avr/5.4.0/../../../../avr/lib/avr5\libc.a(cty_isfalse.o)
 .text.avr-libc
                0x00000000        0x6 c:/program files (x86)/atmel/studio/7.0/toolchain/avr8/avr8-gnu-toolchain/bin/../lib/gcc/avr/5.4.0/../../../../avr/lib/avr5\libc.a(cty_isfalse.o)
 .text          0x00000000        0x0 c:/program files (x86)/atmel/studio/7.0/toolchain/avr8/avr8-gnu-toolchain/bin/../lib/gcc/avr/5.4.0/../../../../avr/lib/avr5\libc.a(strncasecmp_P.o)
 .data          0x00000000        0x0 c:/program files (x86)/atmel/studio/7.0/toolchain/avr8/avr8-gnu-toolchain/bin/../lib/gcc/avr/5.4.0/../../../../avr/lib/avr5\libc.a(strncasecmp_P.o)
 .bss           0x00000000        0x0 c:/program files (x86)/atmel/studio/7.0/toolchain/avr8/avr8-gnu-toolchain/bin/../lib/gcc/avr/5.4.0/../../../../avr/lib/avr5\libc.a(strncasecmp_P.o)
 .text.avr-libc
                0x00000000       0x30 c:/program files (x86)/atmel/studio/7.0/toolchain/avr8/avr8-gnu-toolchain/bin/../lib/gcc/avr/5.4.0/../../../../avr/lib/avr5\libc.a(strncasecmp_P.o)
 .text          0x00000000        0x0 c:/program files (x86)/atmel/studio/7.0/toolchain/avr8/avr8-gnu-toolchain/bin/../lib/gcc/avr/5.4.0/../../../../avr/lib/avr5\libc.a(strrev.o)
 .data          0x00000000        0x0 c:/program files (x86)/atmel/studio/7.0/toolchain/avr8/avr8-gnu-toolchain/bin/../lib/gcc/avr/5.4.0/../../../../avr/lib/avr5\libc.a(strrev.o)
 .bss           0x00000000        0x0 c:/program files (x86)/atmel/studio/7.0/toolchain/avr8/avr8-gnu-toolchain/bin/../lib/gcc/avr/5.4.0/../../../../avr/lib/avr5\libc.a(strrev.o)
 .text.avr-libc
                0x00000000       0x20 c:/program files (x86)/atmel/studio/7.0/toolchain/avr8/avr8-gnu-toolchain/bin/../lib/gcc/avr/5.4.0/../../../../avr/lib/avr5\libc.a(strrev.o)
 .text          0x00000000        0x0 c:/program files (x86)/atmel/studio/7.0/toolchain/avr8/avr8-gnu-toolchain/bin/../lib/gcc/avr/5.4.0/../../../../avr/lib/avr5\libc.a(errno.o)
 .data          0x00000000        0x0 c:/program files (x86)/atmel/studio/7.0/toolchain/avr8/avr8-gnu-toolchain/bin/../lib/gcc/avr/5.4.0/../../../../avr/lib/avr5\libc.a(errno.o)
 .bss           0x00000000        0x0 c:/program files (x86)/atmel/studio/7.0/toolchain/avr8/avr8-gnu-toolchain/bin/../lib/gcc/avr/5.4.0/../../../../avr/lib/avr5\libc.a(errno.o)
 .comment       0x00000000       0x2d c:/program files (x86)/atmel/studio/7.0/toolchain/avr8/avr8-gnu-toolchain/bin/../lib/gcc/avr/5.4.0/../../../../avr/lib/avr5\libc.a(errno.o)
 COMMON         0x00000000        0x2 c:/program files (x86)/atmel/studio/7.0/toolchain/avr8/avr8-gnu-toolchain/bin/../lib/gcc/avr/5.4.0/../../../../avr/lib/avr5\libc.a(errno.o)
 .text          0x00000000        0x0 c:/program files (x86)/atmel/studio/7.0/toolchain/avr8/avr8-gnu-toolchain/bin/../lib/gcc/avr/5.4.0/avr5\libgcc.a(_mulshisi3.o)
 .data          0x00000000        0x0 c:/program files (x86)/atmel/studio/7.0/toolchain/avr8/avr8-gnu-toolchain/bin/../lib/gcc/avr/5.4.0/avr5\libgcc.a(_mulshisi3.o)
 .bss           0x00000000        0x0 c:/program files (x86)/atmel/studio/7.0/toolchain/avr8/avr8-gnu-toolchain/bin/../lib/gcc/avr/5.4.0/avr5\libgcc.a(_mulshisi3.o)
 .text.libgcc.div
                0x00000000        0x0 c:/program files (x86)/atmel/studio/7.0/toolchain/avr8/avr8-gnu-toolchain/bin/../lib/gcc/avr/5.4.0/avr5\libgcc.a(_mulshisi3.o)
 .text.libgcc   0x00000000        0x0 c:/program files (x86)/atmel/studio/7.0/toolchain/avr8/avr8-gnu-toolchain/bin/../lib/gcc/avr/5.4.0/avr5\libgcc.a(_mulshisi3.o)
 .text.libgcc.prologue
                0x00000000        0x0 c:/program files (x86)/atmel/studio/7.0/toolchain/avr8/avr8-gnu-toolchain/bin/../lib/gcc/avr/5.4.0/avr5\libgcc.a(_mulshisi3.o)
 .text.libgcc.builtins
                0x00000000        0x0 c:/program files (x86)/atmel/studio/7.0/toolchain/avr8/avr8-gnu-toolchain/bin/../lib/gcc/avr/5.4.0/avr5\libgcc.a(_mulshisi3.o)
 .text.libgcc.fmul
                0x00000000        0x0 c:/program files (x86)/atmel/studio/7.0/toolchain/avr8/avr8-gnu-toolchain/bin/../lib/gcc/avr/5.4.0/avr5\libgcc.a(_mulshisi3.o)
 .text.libgcc.fixed
                0x00000000        0x0 c:/program files (x86)/atmel/studio/7.0/toolchain/avr8/avr8-gnu-toolchain/bin/../lib/gcc/avr/5.4.0/avr5\libgcc.a(_mulshisi3.o)
 .text          0x00000000        0x0 c:/program files (x86)/atmel/studio/7.0/toolchain/avr8/avr8-gnu-toolchain/bin/../lib/gcc/avr/5.4.0/avr5\libgcc.a(_prologue.o)
 .data          0x00000000        0x0 c:/program files (x86)/atmel/studio/7.0/toolchain/avr8/avr8-gnu-toolchain/bin/../lib/gcc/avr/5.4.0/avr5\libgcc.a(_prologue.o)
 .bss           0x00000000        0x0 c:/program files (x86)/atmel/studio/7.0/toolchain/avr8/avr8-gnu-toolchain/bin/../lib/gcc/avr/5.4.0/avr5\libgcc.a(_prologue.o)
 .text.libgcc.mul
                0x00000000        0x0 c:/program files (x86)/atmel/studio/7.0/toolchain/avr8/avr8-gnu-toolchain/bin/../lib/gcc/avr/5.4.0/avr5\libgcc.a(_prologue.o)
 .text.libgcc.div
                0x00000000        0x0 c:/program files (x86)/atmel/studio/7.0/toolchain/avr8/avr8-gnu-toolchain/bin/../lib/gcc/avr/5.4.0/avr5\libgcc.a(_prologue.o)
 .text.libgcc   0x00000000        0x0 c:/program files (x86)/atmel/studio/7.0/toolchain/avr8/avr8-gnu-toolchain/bin/../lib/gcc/avr/5.4.0/avr5\libgcc.a(_prologue.o)
 .text.libgcc.builtins
                0x00000000        0x0 c:/program files (x86)/atmel/studio/7.0/toolchain/avr8/avr8-gnu-toolchain/bin/../lib/gcc/avr/5.4.0/avr5\libgcc.a(_prologue.o)
 .text.libgcc.fmul
                0x00000000        0x0 c:/program files (x86)/atmel/studio/7.0/toolchain/avr8/avr8-gnu-toolchain/bin/../lib/gcc/avr/5.4.0/avr5\libgcc.a(_prologue.o)
 .text.libgcc.fixed
                0x00000000        0x0 c:/program files (x86)/atmel/studio/7.0/toolchain/avr8/avr8-gnu-toolchain/bin/../lib/gcc/avr/5.4.0/avr5\libgcc.a(_prologue.o)
 .text          0x00000000        0x0 c:/program files (x86)/atmel/studio/7.0/toolchain/avr8/avr8-gnu-toolchain/bin/../lib/gcc/avr/5.4.0/avr5\libgcc.a(_epilogue.o)
 .data          0x00000000        0x0 c:/program files (x86)/atmel/studio/7.0/toolchain/avr8/avr8-gnu-toolchain/bin/../lib/gcc/avr/5.4.0/avr5\libgcc.a(_epilogue.o)
 .bss           0x00000000        0x0 c:/program files (x86)/atmel/studio/7.0/toolchain/avr8/avr8-gnu-toolchain/bin/../lib/gcc/avr/5.4.0/avr5\libgcc.a(_epilogue.o)
 .text.libgcc.mul
                0x00000000        0x0 c:/program files (x86)/atmel/studio/7.0/toolchain/avr8/avr8-gnu-toolchain/bin/../lib/gcc/avr/5.4.0/avr5\libgcc.a(_epilogue.o)
 .text.libgcc.div
                0x00000000        0x0 c:/program files (x86)/atmel/studio/7.0/toolchain/avr8/avr8-gnu-toolchain/bin/../lib/gcc/avr/5.4.0/avr5\libgcc.a(_epilogue.o)
 .text.libgcc   0x00000000        0x0 c:/program files (x86)/atmel/studio/7.0/toolchain/avr8/avr8-gnu-toolchain/bin/../lib/gcc/avr/5.4.0/avr5\libgcc.a(_epilogue.o)
 .text.libgcc.builtins
                0x00000000        0x0 c:/program files (x86)/atmel/studio/7.0/toolchain/avr8/avr8-gnu-toolchain/bin/../lib/gcc/avr/5.4.0/avr5\libgcc.a(_epilogue.o)
 .text.libgcc.fmul
                0x00000000        0x0 c:/program files (x86)/atmel/studio/7.0/toolchain/avr8/avr8-gnu-toolchain/bin/../lib/gcc/avr/5.4.0/avr5\libgcc.a(_epilogue.o)
 .text.libgcc.fixed
                0x00000000        0x0 c:/program files (x86)/atmel/studio/7.0/toolchain/avr8/avr8-gnu-toolchain/bin/../lib/gcc/avr/5.4.0/avr5\libgcc.a(_epilogue.o)

Memory Configuration

Name             Origin             Length             Attributes
text             0x00000000         0x00008000         xr
data             0x00800100         0x00000a00         rw !x
eeprom           0x00810000         0x00000400         rw !x
fuse             0x00820000         0x00000003         rw !x
lock             0x00830000         0x00000400         rw !x
signature        0x00840000         0x00000400         rw !x
user_signatures  0x00850000         0x00000400         rw !x
*default*        0x00000000         0xffffffff

Linker script and memory map

Address of section .data set to 0x800100
LOAD C:/Program Files (x86)/Atmel/Studio/7.0/Packs/Atmel/ATmega_DFP/1.7.374/gcc/dev/atmega32u4/avr5/crtatmega32u4.o
LOAD main.o
START GROUP
LOAD c:/program files (x86)/atmel/studio/7.0/toolchain/avr8/avr8-gnu-toolchain/bin/../lib/gcc/avr/5.4.0/../../../../avr/lib/avr5\libm.a
LOAD C:\Users\Jose\Documents\rpk2\firmwares\leoencchat\ArduinoSketch1\ArduinoSketch1\ArduinoCore\Debug\libArduinoCore.a
END GROUP
LOAD c:/program files (x86)/atmel/studio/7.0/toolchain/avr8/avr8-gnu-toolchain/bin/../lib/gcc/avr/5.4.0/avr5\libgcc.a
LOAD c:/program files (x86)/atmel/studio/7.0/toolchain/avr8/avr8-gnu-toolchain/bin/../lib/gcc/avr/5.4.0/../../../../avr/lib/avr5\libm.a
START GROUP
LOAD c:/program files (x86)/atmel/studio/7.0/toolchain/avr8/avr8-gnu-toolchain/bin/../lib/gcc/avr/5.4.0/avr5\libgcc.a
LOAD c:/program files (x86)/atmel/studio/7.0/toolchain/avr8/avr8-gnu-toolchain/bin/../lib/gcc/avr/5.4.0/../../../../avr/lib/avr5\libm.a
LOAD c:/program files (x86)/atmel/studio/7.0/toolchain/avr8/avr8-gnu-toolchain/bin/../lib/gcc/avr/5.4.0/../../../../avr/lib/avr5\libc.a
LOAD C:/Program Files (x86)/Atmel/Studio/7.0/Packs/Atmel/ATmega_DFP/1.7.374/gcc/dev/atmega32u4/avr5\libatmega32u4.a
END GROUP
                0x00000000                __TEXT_REGION_ORIGIN__ = DEFINED (__TEXT_REGION_ORIGIN__)?__TEXT_REGION_ORIGIN__:0x0
                [0x00800100]                __DATA_REGION_ORIGIN__ = DEFINED (__DATA_REGION_ORIGIN__)?__DATA_REGION_ORIGIN__:0x800060
                [0x00008000]                __TEXT_REGION_LENGTH__ = DEFINED (__TEXT_REGION_LENGTH__)?__TEXT_REGION_LENGTH__:0x20000
                [0x00000a00]                __DATA_REGION_LENGTH__ = DEFINED (__DATA_REGION_LENGTH__)?__DATA_REGION_LENGTH__:0xffa0
                [0x00000400]                __EEPROM_REGION_LENGTH__ = DEFINED (__EEPROM_REGION_LENGTH__)?__EEPROM_REGION_LENGTH__:0x10000
                [0x00000003]                __FUSE_REGION_LENGTH__ = DEFINED (__FUSE_REGION_LENGTH__)?__FUSE_REGION_LENGTH__:0x400
                0x00000400                __LOCK_REGION_LENGTH__ = DEFINED (__LOCK_REGION_LENGTH__)?__LOCK_REGION_LENGTH__:0x400
                0x00000400                __SIGNATURE_REGION_LENGTH__ = DEFINED (__SIGNATURE_REGION_LENGTH__)?__SIGNATURE_REGION_LENGTH__:0x400
                0x00000400                __USER_SIGNATURE_REGION_LENGTH__ = DEFINED (__USER_SIGNATURE_REGION_LENGTH__)?__USER_SIGNATURE_REGION_LENGTH__:0x400

.hash
 *(.hash)

.dynsym
 *(.dynsym)

.dynstr
 *(.dynstr)

.gnu.version
 *(.gnu.version)

.gnu.version_d
 *(.gnu.version_d)

.gnu.version_r
 *(.gnu.version_r)

.rel.init
 *(.rel.init)

.rela.init
 *(.rela.init)

.rel.text
 *(.rel.text)
 *(.rel.text.*)
 *(.rel.gnu.linkonce.t*)

.rela.text
 *(.rela.text)
 *(.rela.text.*)
 *(.rela.gnu.linkonce.t*)

.rel.fini
 *(.rel.fini)

.rela.fini
 *(.rela.fini)

.rel.rodata
 *(.rel.rodata)
 *(.rel.rodata.*)
 *(.rel.gnu.linkonce.r*)

.rela.rodata
 *(.rela.rodata)
 *(.rela.rodata.*)
 *(.rela.gnu.linkonce.r*)

.rel.data
 *(.rel.data)
 *(.rel.data.*)
 *(.rel.gnu.linkonce.d*)

.rela.data
 *(.rela.data)
 *(.rela.data.*)
 *(.rela.gnu.linkonce.d*)

.rel.ctors
 *(.rel.ctors)

.rela.ctors
 *(.rela.ctors)

.rel.dtors
 *(.rel.dtors)

.rela.dtors
 *(.rela.dtors)

.rel.got
 *(.rel.got)

.rela.got
 *(.rela.got)

.rel.bss
 *(.rel.bss)

.rela.bss
 *(.rela.bss)

.rel.plt
 *(.rel.plt)

.rela.plt
 *(.rela.plt)

.text           0x00000000     0x3852
 *(.vectors)
 .vectors       0x00000000       0xac C:/Program Files (x86)/Atmel/Studio/7.0/Packs/Atmel/ATmega_DFP/1.7.374/gcc/dev/atmega32u4/avr5/crtatmega32u4.o
                0x00000000                __vector_default
                0x00000000                __vectors
 *(.vectors)
 *(.progmem.gcc*)
 .progmem.gcc_sw_table.turnOffPWM
                0x000000ac       0x1e C:\Users\Jose\Documents\rpk2\firmwares\leoencchat\ArduinoSketch1\ArduinoSketch1\ArduinoCore\Debug\libArduinoCore.a(wiring_digital.o)
                0x000000ca                . = ALIGN (0x2)
                0x000000ca                __trampolines_start = .
 *(.trampolines)
 .trampolines   0x000000ca        0x0 linker stubs
 *(.trampolines*)
                0x000000ca                __trampolines_end = .
 *libprintf_flt.a:*(.progmem.data)
 *libc.a:*(.progmem.data)
 *(.progmem*)
 .progmem.data.USB_DeviceDescriptorIAD
                0x000000ca       0x12 C:\Users\Jose\Documents\rpk2\firmwares\leoencchat\ArduinoSketch1\ArduinoSketch1\ArduinoCore\Debug\libArduinoCore.a(USBCore.o)
                0x000000ca                USB_DeviceDescriptorIAD
 .progmem.data.STRING_MANUFACTURER
                0x000000dc        0xc C:\Users\Jose\Documents\rpk2\firmwares\leoencchat\ArduinoSketch1\ArduinoSketch1\ArduinoCore\Debug\libArduinoCore.a(USBCore.o)
                0x000000dc                STRING_MANUFACTURER
 .progmem.data.STRING_PRODUCT
                0x000000e8       0x11 C:\Users\Jose\Documents\rpk2\firmwares\leoencchat\ArduinoSketch1\ArduinoSketch1\ArduinoCore\Debug\libArduinoCore.a(USBCore.o)
                0x000000e8                STRING_PRODUCT
 .progmem.data.STRING_LANGUAGE
                0x000000f9        0x4 C:\Users\Jose\Documents\rpk2\firmwares\leoencchat\ArduinoSketch1\ArduinoSketch1\ArduinoCore\Debug\libArduinoCore.a(USBCore.o)
                0x000000f9                STRING_LANGUAGE
 .progmem.data.digital_pin_to_timer_PGM
                0x000000fd       0x1f C:\Users\Jose\Documents\rpk2\firmwares\leoencchat\ArduinoSketch1\ArduinoSketch1\ArduinoCore\Debug\libArduinoCore.a(wiring_digital.o)
                0x000000fd                digital_pin_to_timer_PGM
 .progmem.data.digital_pin_to_bit_mask_PGM
                0x0000011c       0x1f C:\Users\Jose\Documents\rpk2\firmwares\leoencchat\ArduinoSketch1\ArduinoSketch1\ArduinoCore\Debug\libArduinoCore.a(wiring_digital.o)
                0x0000011c                digital_pin_to_bit_mask_PGM
 .progmem.data.digital_pin_to_port_PGM
                0x0000013b       0x1f C:\Users\Jose\Documents\rpk2\firmwares\leoencchat\ArduinoSketch1\ArduinoSketch1\ArduinoCore\Debug\libArduinoCore.a(wiring_digital.o)
                0x0000013b                digital_pin_to_port_PGM
 .progmem.data.port_to_output_PGM
                0x0000015a        0xe C:\Users\Jose\Documents\rpk2\firmwares\leoencchat\ArduinoSketch1\ArduinoSketch1\ArduinoCore\Debug\libArduinoCore.a(wiring_digital.o)
                0x0000015a                port_to_output_PGM
 .progmem.data.port_to_mode_PGM
                0x00000168        0xe C:\Users\Jose\Documents\rpk2\firmwares\leoencchat\ArduinoSketch1\ArduinoSketch1\ArduinoCore\Debug\libArduinoCore.a(wiring_digital.o)
                0x00000168                port_to_mode_PGM
 .progmem.data._ZL18MODEM_CONFIG_TABLE
                0x00000176       0xd8 C:\Users\Jose\Documents\rpk2\firmwares\leoencchat\ArduinoSketch1\ArduinoSketch1\ArduinoCore\Debug\libArduinoCore.a(RH_RF69.o)
 .progmem.data._cdcInterface
                0x0000024e       0x42 C:\Users\Jose\Documents\rpk2\firmwares\leoencchat\ArduinoSketch1\ArduinoSketch1\ArduinoCore\Debug\libArduinoCore.a(CDC.o)
                0x0000024e                _cdcInterface
                0x00000290                . = ALIGN (0x2)
 *(.jumptables)
 *(.jumptables*)
 *(.lowtext)
 *(.lowtext*)
                0x00000290                __ctors_start = .
 *(.ctors)
 .ctors         0x00000290        0x2 main.o
 .ctors         0x00000292        0x2 C:\Users\Jose\Documents\rpk2\firmwares\leoencchat\ArduinoSketch1\ArduinoSketch1\ArduinoCore\Debug\libArduinoCore.a(HardwareSerial1.o)
 .ctors         0x00000294        0x2 C:\Users\Jose\Documents\rpk2\firmwares\leoencchat\ArduinoSketch1\ArduinoSketch1\ArduinoCore\Debug\libArduinoCore.a(RHHardwareSPI.o)
 .ctors         0x00000296        0x2 C:\Users\Jose\Documents\rpk2\firmwares\leoencchat\ArduinoSketch1\ArduinoSketch1\ArduinoCore\Debug\libArduinoCore.a(CDC.o)
                0x00000298                __ctors_end = .
                0x00000298                __dtors_start = .
 *(.dtors)
 .dtors         0x00000298        0x2 main.o
                0x0000029a                __dtors_end = .
 SORT(*)(.ctors)
 SORT(*)(.dtors)
 *(.init0)
 .init0         0x0000029a        0x0 C:/Program Files (x86)/Atmel/Studio/7.0/Packs/Atmel/ATmega_DFP/1.7.374/gcc/dev/atmega32u4/avr5/crtatmega32u4.o
                0x0000029a                __init
 *(.init0)
 *(.init1)
 *(.init1)
 *(.init2)
 .init2         0x0000029a        0xc C:/Program Files (x86)/Atmel/Studio/7.0/Packs/Atmel/ATmega_DFP/1.7.374/gcc/dev/atmega32u4/avr5/crtatmega32u4.o
 *(.init2)
 *(.init3)
 *(.init3)
 *(.init4)
 .init4         0x000002a6       0x16 c:/program files (x86)/atmel/studio/7.0/toolchain/avr8/avr8-gnu-toolchain/bin/../lib/gcc/avr/5.4.0/avr5\libgcc.a(_copy_data.o)
                0x000002a6                __do_copy_data
 .init4         0x000002bc       0x10 c:/program files (x86)/atmel/studio/7.0/toolchain/avr8/avr8-gnu-toolchain/bin/../lib/gcc/avr/5.4.0/avr5\libgcc.a(_clear_bss.o)
                0x000002bc                __do_clear_bss
 *(.init4)
 *(.init5)
 *(.init5)
 *(.init6)
 .init6         0x000002cc       0x16 c:/program files (x86)/atmel/studio/7.0/toolchain/avr8/avr8-gnu-toolchain/bin/../lib/gcc/avr/5.4.0/avr5\libgcc.a(_ctors.o)
                0x000002cc                __do_global_ctors
 *(.init6)
 *(.init7)
 *(.init7)
 *(.init8)
 *(.init8)
 *(.init9)
 .init9         0x000002e2        0x8 C:/Program Files (x86)/Atmel/Studio/7.0/Packs/Atmel/ATmega_DFP/1.7.374/gcc/dev/atmega32u4/avr5/crtatmega32u4.o
 *(.init9)
 *(.text)
 .text          0x000002ea        0x4 C:/Program Files (x86)/Atmel/Studio/7.0/Packs/Atmel/ATmega_DFP/1.7.374/gcc/dev/atmega32u4/avr5/crtatmega32u4.o
                0x000002ea                __vector_38
                0x000002ea                __vector_22
                0x000002ea                __vector_28
                0x000002ea                __vector_32
                0x000002ea                __vector_34
                0x000002ea                __vector_24
                0x000002ea                __vector_12
                0x000002ea                __bad_interrupt
                0x000002ea                __vector_6
                0x000002ea                __vector_31
                0x000002ea                __vector_35
                0x000002ea                __vector_39
                0x000002ea                __vector_30
                0x000002ea                __vector_13
                0x000002ea                __vector_17
                0x000002ea                __vector_19
                0x000002ea                __vector_41
                0x000002ea                __vector_27
                0x000002ea                __vector_5
                0x000002ea                __vector_33
                0x000002ea                __vector_37
                0x000002ea                __vector_9
                0x000002ea                __vector_21
                0x000002ea                __vector_15
                0x000002ea                __vector_36
                0x000002ea                __vector_29
                0x000002ea                __vector_40
                0x000002ea                __vector_8
                0x000002ea                __vector_14
                0x000002ea                __vector_16
                0x000002ea                __vector_18
                0x000002ea                __vector_20
                0x000002ea                __vector_42
                0x000002ee                . = ALIGN (0x2)
 *(.text.*)
 .text._Z18switch_usb_to_at90v
                0x000002ee       0x62 main.o
                0x000002ee                _Z18switch_usb_to_at90v
 .text.startup._GLOBAL__sub_I_rf69
                0x00000350       0x1c main.o
 .text.exit._GLOBAL__sub_D_rf69
                0x0000036c        0x8 main.o
 .text.setup    0x00000374      0x152 main.o
                0x00000374                setup
 .text.loop     0x000004c6      0x10e main.o
                0x000004c6                loop
 .text._ZN14HardwareSerial9availableEv
                0x000005d4       0x18 C:\Users\Jose\Documents\rpk2\firmwares\leoencchat\ArduinoSketch1\ArduinoSketch1\ArduinoCore\Debug\libArduinoCore.a(HardwareSerial.o)
                0x000005d4                _ZN14HardwareSerial9availableEv
 .text._ZN14HardwareSerial4peekEv
                0x000005ec       0x1c C:\Users\Jose\Documents\rpk2\firmwares\leoencchat\ArduinoSketch1\ArduinoSketch1\ArduinoCore\Debug\libArduinoCore.a(HardwareSerial.o)
                0x000005ec                _ZN14HardwareSerial4peekEv
 .text._ZN14HardwareSerial4readEv
                0x00000608       0x28 C:\Users\Jose\Documents\rpk2\firmwares\leoencchat\ArduinoSketch1\ArduinoSketch1\ArduinoCore\Debug\libArduinoCore.a(HardwareSerial.o)
                0x00000608                _ZN14HardwareSerial4readEv
 .text._ZN14HardwareSerial17availableForWriteEv
                0x00000630       0x1e C:\Users\Jose\Documents\rpk2\firmwares\leoencchat\ArduinoSketch1\ArduinoSketch1\ArduinoCore\Debug\libArduinoCore.a(HardwareSerial.o)
                0x00000630                _ZN14HardwareSerial17availableForWriteEv
 .text._Z14serialEventRunv
                0x0000064e       0x1c C:\Users\Jose\Documents\rpk2\firmwares\leoencchat\ArduinoSketch1\ArduinoSketch1\ArduinoCore\Debug\libArduinoCore.a(HardwareSerial.o)
                0x0000064e                _Z14serialEventRunv
 .text._ZN14HardwareSerial17_tx_udr_empty_irqEv
                0x0000066a       0x42 C:\Users\Jose\Documents\rpk2\firmwares\leoencchat\ArduinoSketch1\ArduinoSketch1\ArduinoCore\Debug\libArduinoCore.a(HardwareSerial.o)
                0x0000066a                _ZN14HardwareSerial17_tx_udr_empty_irqEv
 .text._ZN14HardwareSerial5writeEh
                0x000006ac       0x98 C:\Users\Jose\Documents\rpk2\firmwares\leoencchat\ArduinoSketch1\ArduinoSketch1\ArduinoCore\Debug\libArduinoCore.a(HardwareSerial.o)
                0x000006ac                _ZN14HardwareSerial5writeEh
 .text._ZN14HardwareSerial5flushEv
                0x00000744       0x44 C:\Users\Jose\Documents\rpk2\firmwares\leoencchat\ArduinoSketch1\ArduinoSketch1\ArduinoCore\Debug\libArduinoCore.a(HardwareSerial.o)
                0x00000744                _ZN14HardwareSerial5flushEv
 .text._ZN14HardwareSerial5beginEmh
                0x00000788       0xca C:\Users\Jose\Documents\rpk2\firmwares\leoencchat\ArduinoSketch1\ArduinoSketch1\ArduinoCore\Debug\libArduinoCore.a(HardwareSerial.o)
                0x00000788                _ZN14HardwareSerial5beginEmh
 .text.__vector_25
                0x00000852       0x64 C:\Users\Jose\Documents\rpk2\firmwares\leoencchat\ArduinoSketch1\ArduinoSketch1\ArduinoCore\Debug\libArduinoCore.a(HardwareSerial1.o)
                0x00000852                __vector_25
 .text.__vector_26
                0x000008b6       0x4c C:\Users\Jose\Documents\rpk2\firmwares\leoencchat\ArduinoSketch1\ArduinoSketch1\ArduinoCore\Debug\libArduinoCore.a(HardwareSerial1.o)
                0x000008b6                __vector_26
 .text._Z17Serial1_availablev
                0x00000902       0x14 C:\Users\Jose\Documents\rpk2\firmwares\leoencchat\ArduinoSketch1\ArduinoSketch1\ArduinoCore\Debug\libArduinoCore.a(HardwareSerial1.o)
                0x00000902                _Z17Serial1_availablev
 .text.startup._GLOBAL__sub_I___vector_25
                0x00000916       0x5a C:\Users\Jose\Documents\rpk2\firmwares\leoencchat\ArduinoSketch1\ArduinoSketch1\ArduinoCore\Debug\libArduinoCore.a(HardwareSerial1.o)
 .text.initVariant
                0x00000970        0x2 C:\Users\Jose\Documents\rpk2\firmwares\leoencchat\ArduinoSketch1\ArduinoSketch1\ArduinoCore\Debug\libArduinoCore.a(main.o)
                0x00000970                initVariant
 .text.startup.main
                0x00000972       0x26 C:\Users\Jose\Documents\rpk2\firmwares\leoencchat\ArduinoSketch1\ArduinoSketch1\ArduinoCore\Debug\libArduinoCore.a(main.o)
                0x00000972                main
 .text._ZN5Print5writeEPKhj
                0x00000998       0x54 C:\Users\Jose\Documents\rpk2\firmwares\leoencchat\ArduinoSketch1\ArduinoSketch1\ArduinoCore\Debug\libArduinoCore.a(Print.o)
                0x00000998                _ZN5Print5writeEPKhj
 .text._ZN5Print5writeEPKc
                0x000009ec       0x2a C:\Users\Jose\Documents\rpk2\firmwares\leoencchat\ArduinoSketch1\ArduinoSketch1\ArduinoCore\Debug\libArduinoCore.a(Print.o)
                0x000009ec                _ZN5Print5writeEPKc
 .text._ZN5Print5printERK6String
                0x00000a16       0x1c C:\Users\Jose\Documents\rpk2\firmwares\leoencchat\ArduinoSketch1\ArduinoSketch1\ArduinoCore\Debug\libArduinoCore.a(Print.o)
                0x00000a16                _ZN5Print5printERK6String
 .text._ZN5Print5printEPKc
                0x00000a32        0x4 C:\Users\Jose\Documents\rpk2\firmwares\leoencchat\ArduinoSketch1\ArduinoSketch1\ArduinoCore\Debug\libArduinoCore.a(Print.o)
                0x00000a32                _ZN5Print5printEPKc
 .text._ZN5Print5printEc
                0x00000a36        0xe C:\Users\Jose\Documents\rpk2\firmwares\leoencchat\ArduinoSketch1\ArduinoSketch1\ArduinoCore\Debug\libArduinoCore.a(Print.o)
                0x00000a36                _ZN5Print5printEc
 .text._ZN5Print7printlnEv
                0x00000a44        0x8 C:\Users\Jose\Documents\rpk2\firmwares\leoencchat\ArduinoSketch1\ArduinoSketch1\ArduinoCore\Debug\libArduinoCore.a(Print.o)
                0x00000a44                _ZN5Print7printlnEv
 .text._ZN5Print7printlnERK6String
                0x00000a4c       0x24 C:\Users\Jose\Documents\rpk2\firmwares\leoencchat\ArduinoSketch1\ArduinoSketch1\ArduinoCore\Debug\libArduinoCore.a(Print.o)
                0x00000a4c                _ZN5Print7printlnERK6String
 .text._ZN5Print7printlnEPKc
                0x00000a70       0x24 C:\Users\Jose\Documents\rpk2\firmwares\leoencchat\ArduinoSketch1\ArduinoSketch1\ArduinoCore\Debug\libArduinoCore.a(Print.o)
                0x00000a70                _ZN5Print7printlnEPKc
 .text._ZN5Print11printNumberEmh
                0x00000a94       0x92 C:\Users\Jose\Documents\rpk2\firmwares\leoencchat\ArduinoSketch1\ArduinoSketch1\ArduinoCore\Debug\libArduinoCore.a(Print.o)
                0x00000a94                _ZN5Print11printNumberEmh
 .text._ZN5Print5printEli
                0x00000b26       0x90 C:\Users\Jose\Documents\rpk2\firmwares\leoencchat\ArduinoSketch1\ArduinoSketch1\ArduinoCore\Debug\libArduinoCore.a(Print.o)
                0x00000b26                _ZN5Print5printEli
 .text._ZN5Print5printEii
                0x00000bb6        0xe C:\Users\Jose\Documents\rpk2\firmwares\leoencchat\ArduinoSketch1\ArduinoSketch1\ArduinoCore\Debug\libArduinoCore.a(Print.o)
                0x00000bb6                _ZN5Print5printEii
 .text._ZL4RecvPVhh
                0x00000bc4       0x1a C:\Users\Jose\Documents\rpk2\firmwares\leoencchat\ArduinoSketch1\ArduinoSketch1\ArduinoCore\Debug\libArduinoCore.a(USBCore.o)
 .text._ZL11SendControlh
                0x00000bde       0x5c C:\Users\Jose\Documents\rpk2\firmwares\leoencchat\ArduinoSketch1\ArduinoSketch1\ArduinoCore\Debug\libArduinoCore.a(USBCore.o)
 .text._ZL24USB_SendStringDescriptorPKhhh
                0x00000c3a       0x6a C:\Users\Jose\Documents\rpk2\firmwares\leoencchat\ArduinoSketch1\ArduinoSketch1\ArduinoCore\Debug\libArduinoCore.a(USBCore.o)
 .text._ZL15USB_ClockEnablev
                0x00000ca4       0x46 C:\Users\Jose\Documents\rpk2\firmwares\leoencchat\ArduinoSketch1\ArduinoSketch1\ArduinoCore\Debug\libArduinoCore.a(USBCore.o)
 .text._ZL14SendInterfacesv
                0x00000cea       0x2c C:\Users\Jose\Documents\rpk2\firmwares\leoencchat\ArduinoSketch1\ArduinoSketch1\ArduinoCore\Debug\libArduinoCore.a(USBCore.o)
 .text._ZN6LockEPC2Eh
                0x00000d16       0x10 C:\Users\Jose\Documents\rpk2\firmwares\leoencchat\ArduinoSketch1\ArduinoSketch1\ArduinoCore\Debug\libArduinoCore.a(USBCore.o)
                0x00000d16                _ZN6LockEPC2Eh
                0x00000d16                _ZN6LockEPC1Eh
 .text._Z13USB_Availableh
                0x00000d26       0x24 C:\Users\Jose\Documents\rpk2\firmwares\leoencchat\ArduinoSketch1\ArduinoSketch1\ArduinoCore\Debug\libArduinoCore.a(USBCore.o)
                0x00000d26                _Z13USB_Availableh
 .text._Z8USB_RecvhPvi
                0x00000d4a       0x86 C:\Users\Jose\Documents\rpk2\firmwares\leoencchat\ArduinoSketch1\ArduinoSketch1\ArduinoCore\Debug\libArduinoCore.a(USBCore.o)
                0x00000d4a                _Z8USB_RecvhPvi
 .text._Z8USB_Recvh
                0x00000dd0       0x2e C:\Users\Jose\Documents\rpk2\firmwares\leoencchat\ArduinoSketch1\ArduinoSketch1\ArduinoCore\Debug\libArduinoCore.a(USBCore.o)
                0x00000dd0                _Z8USB_Recvh
 .text._Z13USB_SendSpaceh
                0x00000dfe       0x34 C:\Users\Jose\Documents\rpk2\firmwares\leoencchat\ArduinoSketch1\ArduinoSketch1\ArduinoCore\Debug\libArduinoCore.a(USBCore.o)
                0x00000dfe                _Z13USB_SendSpaceh
 .text._Z8USB_SendhPKvi
                0x00000e32      0x14a C:\Users\Jose\Documents\rpk2\firmwares\leoencchat\ArduinoSketch1\ArduinoSketch1\ArduinoCore\Debug\libArduinoCore.a(USBCore.o)
                0x00000e32                _Z8USB_SendhPKvi
 .text._Z11InitControli
                0x00000f7c       0x16 C:\Users\Jose\Documents\rpk2\firmwares\leoencchat\ArduinoSketch1\ArduinoSketch1\ArduinoCore\Debug\libArduinoCore.a(USBCore.o)
                0x00000f7c                _Z11InitControli
 .text._Z15USB_SendControlhPKvi
                0x00000f92       0x4e C:\Users\Jose\Documents\rpk2\firmwares\leoencchat\ArduinoSketch1\ArduinoSketch1\ArduinoCore\Debug\libArduinoCore.a(USBCore.o)
                0x00000f92                _Z15USB_SendControlhPKvi
 .text._Z15USB_RecvControlPvi
                0x00000fe0       0x66 C:\Users\Jose\Documents\rpk2\firmwares\leoencchat\ArduinoSketch1\ArduinoSketch1\ArduinoCore\Debug\libArduinoCore.a(USBCore.o)
                0x00000fe0                _Z15USB_RecvControlPvi
 .text.__vector_11
                0x00001046      0x2b4 C:\Users\Jose\Documents\rpk2\firmwares\leoencchat\ArduinoSketch1\ArduinoSketch1\ArduinoCore\Debug\libArduinoCore.a(USBCore.o)
                0x00001046                __vector_11
 .text._Z9USB_Flushh
                0x000012fa       0x14 C:\Users\Jose\Documents\rpk2\firmwares\leoencchat\ArduinoSketch1\ArduinoSketch1\ArduinoCore\Debug\libArduinoCore.a(USBCore.o)
                0x000012fa                _Z9USB_Flushh
 .text.__vector_10
                0x0000130e      0x102 C:\Users\Jose\Documents\rpk2\firmwares\leoencchat\ArduinoSketch1\ArduinoSketch1\ArduinoCore\Debug\libArduinoCore.a(USBCore.o)
                0x0000130e                __vector_10
 .text._ZN10USBDevice_6attachEv
                0x00001410       0x26 C:\Users\Jose\Documents\rpk2\firmwares\leoencchat\ArduinoSketch1\ArduinoSketch1\ArduinoCore\Debug\libArduinoCore.a(USBCore.o)
                0x00001410                _ZN10USBDevice_6attachEv
 .text.__vector_23
                0x00001436       0x94 C:\Users\Jose\Documents\rpk2\firmwares\leoencchat\ArduinoSketch1\ArduinoSketch1\ArduinoCore\Debug\libArduinoCore.a(wiring.o)
                0x00001436                __vector_23
 .text.millis   0x000014ca       0x18 C:\Users\Jose\Documents\rpk2\firmwares\leoencchat\ArduinoSketch1\ArduinoSketch1\ArduinoCore\Debug\libArduinoCore.a(wiring.o)
                0x000014ca                millis
 .text.micros   0x000014e2       0x4a C:\Users\Jose\Documents\rpk2\firmwares\leoencchat\ArduinoSketch1\ArduinoSketch1\ArduinoCore\Debug\libArduinoCore.a(wiring.o)
                0x000014e2                micros
 .text.delay    0x0000152c       0x78 C:\Users\Jose\Documents\rpk2\firmwares\leoencchat\ArduinoSketch1\ArduinoSketch1\ArduinoCore\Debug\libArduinoCore.a(wiring.o)
                0x0000152c                delay
 .text.init     0x000015a4       0xac C:\Users\Jose\Documents\rpk2\firmwares\leoencchat\ArduinoSketch1\ArduinoSketch1\ArduinoCore\Debug\libArduinoCore.a(wiring.o)
                0x000015a4                init
 .text.turnOffPWM
                0x00001650       0x7a C:\Users\Jose\Documents\rpk2\firmwares\leoencchat\ArduinoSketch1\ArduinoSketch1\ArduinoCore\Debug\libArduinoCore.a(wiring_digital.o)
 .text.pinMode  0x000016ca       0x78 C:\Users\Jose\Documents\rpk2\firmwares\leoencchat\ArduinoSketch1\ArduinoSketch1\ArduinoCore\Debug\libArduinoCore.a(wiring_digital.o)
                0x000016ca                pinMode
 .text.digitalWrite
                0x00001742       0x5e C:\Users\Jose\Documents\rpk2\firmwares\leoencchat\ArduinoSketch1\ArduinoSketch1\ArduinoCore\Debug\libArduinoCore.a(wiring_digital.o)
                0x00001742                digitalWrite
 .text._ZN6StringD2Ev
                0x000017a0       0x10 C:\Users\Jose\Documents\rpk2\firmwares\leoencchat\ArduinoSketch1\ArduinoSketch1\ArduinoCore\Debug\libArduinoCore.a(WString.o)
                0x000017a0                _ZN6StringD2Ev
                0x000017a0                _ZN6StringD1Ev
 .text._ZN6String10invalidateEv
                0x000017b0       0x24 C:\Users\Jose\Documents\rpk2\firmwares\leoencchat\ArduinoSketch1\ArduinoSketch1\ArduinoCore\Debug\libArduinoCore.a(WString.o)
                0x000017b0                _ZN6String10invalidateEv
 .text._ZN6String12changeBufferEj
                0x000017d4       0x34 C:\Users\Jose\Documents\rpk2\firmwares\leoencchat\ArduinoSketch1\ArduinoSketch1\ArduinoCore\Debug\libArduinoCore.a(WString.o)
                0x000017d4                _ZN6String12changeBufferEj
 .text._ZN6String7reserveEj
                0x00001808       0x38 C:\Users\Jose\Documents\rpk2\firmwares\leoencchat\ArduinoSketch1\ArduinoSketch1\ArduinoCore\Debug\libArduinoCore.a(WString.o)
                0x00001808                _ZN6String7reserveEj
 .text._ZN6String4copyEPKcj
                0x00001840       0x42 C:\Users\Jose\Documents\rpk2\firmwares\leoencchat\ArduinoSketch1\ArduinoSketch1\ArduinoCore\Debug\libArduinoCore.a(WString.o)
                0x00001840                _ZN6String4copyEPKcj
 .text._ZN6StringC2EPKc
                0x00001882       0x2a C:\Users\Jose\Documents\rpk2\firmwares\leoencchat\ArduinoSketch1\ArduinoSketch1\ArduinoCore\Debug\libArduinoCore.a(WString.o)
                0x00001882                _ZN6StringC2EPKc
                0x00001882                _ZN6StringC1EPKc
 .text._ZN6StringaSEPKc
                0x000018ac       0x2e C:\Users\Jose\Documents\rpk2\firmwares\leoencchat\ArduinoSketch1\ArduinoSketch1\ArduinoCore\Debug\libArduinoCore.a(WString.o)
                0x000018ac                _ZN6StringaSEPKc
 .text._ZN6String6concatEPKcj
                0x000018da       0x5c C:\Users\Jose\Documents\rpk2\firmwares\leoencchat\ArduinoSketch1\ArduinoSketch1\ArduinoCore\Debug\libArduinoCore.a(WString.o)
                0x000018da                _ZN6String6concatEPKcj
 .text._ZN6String6concatEc
                0x00001936       0x26 C:\Users\Jose\Documents\rpk2\firmwares\leoencchat\ArduinoSketch1\ArduinoSketch1\ArduinoCore\Debug\libArduinoCore.a(WString.o)
                0x00001936                _ZN6String6concatEc
 .text._ZNK6String8getBytesEPhjj
                0x0000195c       0x5e C:\Users\Jose\Documents\rpk2\firmwares\leoencchat\ArduinoSketch1\ArduinoSketch1\ArduinoCore\Debug\libArduinoCore.a(WString.o)
                0x0000195c                _ZNK6String8getBytesEPhjj
 .text._ZN15RHGenericDriver4initEv
                0x000019ba        0x4 C:\Users\Jose\Documents\rpk2\firmwares\leoencchat\ArduinoSketch1\ArduinoSketch1\ArduinoCore\Debug\libArduinoCore.a(RHGenericDriver.o)
                0x000019ba                _ZN15RHGenericDriver4initEv
 .text._ZN15RHGenericDriver14setPromiscuousEb
                0x000019be        0x6 C:\Users\Jose\Documents\rpk2\firmwares\leoencchat\ArduinoSketch1\ArduinoSketch1\ArduinoCore\Debug\libArduinoCore.a(RHGenericDriver.o)
                0x000019be                _ZN15RHGenericDriver14setPromiscuousEb
 .text._ZN15RHGenericDriver14setThisAddressEh
                0x000019c4        0x6 C:\Users\Jose\Documents\rpk2\firmwares\leoencchat\ArduinoSketch1\ArduinoSketch1\ArduinoCore\Debug\libArduinoCore.a(RHGenericDriver.o)
                0x000019c4                _ZN15RHGenericDriver14setThisAddressEh
 .text._ZN15RHGenericDriver11setHeaderToEh
                0x000019ca        0x6 C:\Users\Jose\Documents\rpk2\firmwares\leoencchat\ArduinoSketch1\ArduinoSketch1\ArduinoCore\Debug\libArduinoCore.a(RHGenericDriver.o)
                0x000019ca                _ZN15RHGenericDriver11setHeaderToEh
 .text._ZN15RHGenericDriver13setHeaderFromEh
                0x000019d0        0x6 C:\Users\Jose\Documents\rpk2\firmwares\leoencchat\ArduinoSketch1\ArduinoSketch1\ArduinoCore\Debug\libArduinoCore.a(RHGenericDriver.o)
                0x000019d0                _ZN15RHGenericDriver13setHeaderFromEh
 .text._ZN15RHGenericDriver11setHeaderIdEh
                0x000019d6        0x6 C:\Users\Jose\Documents\rpk2\firmwares\leoencchat\ArduinoSketch1\ArduinoSketch1\ArduinoCore\Debug\libArduinoCore.a(RHGenericDriver.o)
                0x000019d6                _ZN15RHGenericDriver11setHeaderIdEh
 .text._ZN15RHGenericDriver14setHeaderFlagsEhh
                0x000019dc        0xe C:\Users\Jose\Documents\rpk2\firmwares\leoencchat\ArduinoSketch1\ArduinoSketch1\ArduinoCore\Debug\libArduinoCore.a(RHGenericDriver.o)
                0x000019dc                _ZN15RHGenericDriver14setHeaderFlagsEhh
 .text._ZN15RHGenericDriver8headerToEv
                0x000019ea        0x6 C:\Users\Jose\Documents\rpk2\firmwares\leoencchat\ArduinoSketch1\ArduinoSketch1\ArduinoCore\Debug\libArduinoCore.a(RHGenericDriver.o)
                0x000019ea                _ZN15RHGenericDriver8headerToEv
 .text._ZN15RHGenericDriver10headerFromEv
                0x000019f0        0x6 C:\Users\Jose\Documents\rpk2\firmwares\leoencchat\ArduinoSketch1\ArduinoSketch1\ArduinoCore\Debug\libArduinoCore.a(RHGenericDriver.o)
                0x000019f0                _ZN15RHGenericDriver10headerFromEv
 .text._ZN15RHGenericDriver8headerIdEv
                0x000019f6        0x6 C:\Users\Jose\Documents\rpk2\firmwares\leoencchat\ArduinoSketch1\ArduinoSketch1\ArduinoCore\Debug\libArduinoCore.a(RHGenericDriver.o)
                0x000019f6                _ZN15RHGenericDriver8headerIdEv
 .text._ZN15RHGenericDriver11headerFlagsEv
                0x000019fc        0x6 C:\Users\Jose\Documents\rpk2\firmwares\leoencchat\ArduinoSketch1\ArduinoSketch1\ArduinoCore\Debug\libArduinoCore.a(RHGenericDriver.o)
                0x000019fc                _ZN15RHGenericDriver11headerFlagsEv
 .text._ZN15RHGenericDriver8lastRssiEv
                0x00001a02        0x8 C:\Users\Jose\Documents\rpk2\firmwares\leoencchat\ArduinoSketch1\ArduinoSketch1\ArduinoCore\Debug\libArduinoCore.a(RHGenericDriver.o)
                0x00001a02                _ZN15RHGenericDriver8lastRssiEv
 .text._ZN15RHGenericDriver4modeEv
                0x00001a0a        0x6 C:\Users\Jose\Documents\rpk2\firmwares\leoencchat\ArduinoSketch1\ArduinoSketch1\ArduinoCore\Debug\libArduinoCore.a(RHGenericDriver.o)
                0x00001a0a                _ZN15RHGenericDriver4modeEv
 .text._ZN15RHGenericDriver7setModeENS_6RHModeE
                0x00001a10        0x6 C:\Users\Jose\Documents\rpk2\firmwares\leoencchat\ArduinoSketch1\ArduinoSketch1\ArduinoCore\Debug\libArduinoCore.a(RHGenericDriver.o)
                0x00001a10                _ZN15RHGenericDriver7setModeENS_6RHModeE
 .text._ZN15RHGenericDriver5sleepEv
                0x00001a16        0x4 C:\Users\Jose\Documents\rpk2\firmwares\leoencchat\ArduinoSketch1\ArduinoSketch1\ArduinoCore\Debug\libArduinoCore.a(RHGenericDriver.o)
                0x00001a16                _ZN15RHGenericDriver15isChannelActiveEv
                0x00001a16                _ZN15RHGenericDriver5sleepEv
 .text._ZN15RHGenericDriver5rxBadEv
                0x00001a1a        0x8 C:\Users\Jose\Documents\rpk2\firmwares\leoencchat\ArduinoSketch1\ArduinoSketch1\ArduinoCore\Debug\libArduinoCore.a(RHGenericDriver.o)
                0x00001a1a                _ZN15RHGenericDriver5rxBadEv
 .text._ZN15RHGenericDriver6rxGoodEv
                0x00001a22        0x8 C:\Users\Jose\Documents\rpk2\firmwares\leoencchat\ArduinoSketch1\ArduinoSketch1\ArduinoCore\Debug\libArduinoCore.a(RHGenericDriver.o)
                0x00001a22                _ZN15RHGenericDriver6rxGoodEv
 .text._ZN15RHGenericDriver6txGoodEv
                0x00001a2a        0x8 C:\Users\Jose\Documents\rpk2\firmwares\leoencchat\ArduinoSketch1\ArduinoSketch1\ArduinoCore\Debug\libArduinoCore.a(RHGenericDriver.o)
                0x00001a2a                _ZN15RHGenericDriver6txGoodEv
 .text._ZN15RHGenericDriver13waitAvailableEv
                0x00001a32       0x24 C:\Users\Jose\Documents\rpk2\firmwares\leoencchat\ArduinoSketch1\ArduinoSketch1\ArduinoCore\Debug\libArduinoCore.a(RHGenericDriver.o)
                0x00001a32                _ZN15RHGenericDriver13waitAvailableEv
 .text._ZN15RHGenericDriver14waitPacketSentEv
                0x00001a56       0x1a C:\Users\Jose\Documents\rpk2\firmwares\leoencchat\ArduinoSketch1\ArduinoSketch1\ArduinoCore\Debug\libArduinoCore.a(RHGenericDriver.o)
                0x00001a56                _ZN15RHGenericDriver14waitPacketSentEv
 .text._ZN15RHGenericDriver20waitAvailableTimeoutEj
                0x00001a70       0x6e C:\Users\Jose\Documents\rpk2\firmwares\leoencchat\ArduinoSketch1\ArduinoSketch1\ArduinoCore\Debug\libArduinoCore.a(RHGenericDriver.o)
                0x00001a70                _ZN15RHGenericDriver20waitAvailableTimeoutEj
 .text._ZN15RHGenericDriver14waitPacketSentEj
                0x00001ade       0x66 C:\Users\Jose\Documents\rpk2\firmwares\leoencchat\ArduinoSketch1\ArduinoSketch1\ArduinoCore\Debug\libArduinoCore.a(RHGenericDriver.o)
                0x00001ade                _ZN15RHGenericDriver14waitPacketSentEj
 .text._ZN15RHGenericDriver7waitCADEv
                0x00001b44       0x8e C:\Users\Jose\Documents\rpk2\firmwares\leoencchat\ArduinoSketch1\ArduinoSketch1\ArduinoCore\Debug\libArduinoCore.a(RHGenericDriver.o)
                0x00001b44                _ZN15RHGenericDriver7waitCADEv
 .text._ZN15RHGenericDriverC2Ev
                0x00001bd2       0x2a C:\Users\Jose\Documents\rpk2\firmwares\leoencchat\ArduinoSketch1\ArduinoSketch1\ArduinoCore\Debug\libArduinoCore.a(RHGenericDriver.o)
                0x00001bd2                _ZN15RHGenericDriverC1Ev
                0x00001bd2                _ZN15RHGenericDriverC2Ev
 .text._ZN13RHHardwareSPI8transferEh
                0x00001bfc        0xe C:\Users\Jose\Documents\rpk2\firmwares\leoencchat\ArduinoSketch1\ArduinoSketch1\ArduinoCore\Debug\libArduinoCore.a(RHHardwareSPI.o)
                0x00001bfc                _ZN13RHHardwareSPI8transferEh
 .text._ZN13RHHardwareSPI15attachInterruptEv
                0x00001c0a        0x8 C:\Users\Jose\Documents\rpk2\firmwares\leoencchat\ArduinoSketch1\ArduinoSketch1\ArduinoCore\Debug\libArduinoCore.a(RHHardwareSPI.o)
                0x00001c0a                _ZN13RHHardwareSPI15attachInterruptEv
 .text._ZN13RHHardwareSPI15detachInterruptEv
                0x00001c12        0x8 C:\Users\Jose\Documents\rpk2\firmwares\leoencchat\ArduinoSketch1\ArduinoSketch1\ArduinoCore\Debug\libArduinoCore.a(RHHardwareSPI.o)
                0x00001c12                _ZN13RHHardwareSPI15detachInterruptEv
 .text._ZN13RHHardwareSPI16beginTransactionEv
                0x00001c1a       0x3a C:\Users\Jose\Documents\rpk2\firmwares\leoencchat\ArduinoSketch1\ArduinoSketch1\ArduinoCore\Debug\libArduinoCore.a(RHHardwareSPI.o)
                0x00001c1a                _ZN13RHHardwareSPI16beginTransactionEv
 .text._ZN13RHHardwareSPI14usingInterruptEh
                0x00001c54        0x2 C:\Users\Jose\Documents\rpk2\firmwares\leoencchat\ArduinoSketch1\ArduinoSketch1\ArduinoCore\Debug\libArduinoCore.a(RHHardwareSPI.o)
                0x00001c54                _ZN13RHHardwareSPI14usingInterruptEh
 .text._ZN13RHHardwareSPI5beginEv
                0x00001c56       0xb2 C:\Users\Jose\Documents\rpk2\firmwares\leoencchat\ArduinoSketch1\ArduinoSketch1\ArduinoCore\Debug\libArduinoCore.a(RHHardwareSPI.o)
                0x00001c56                _ZN13RHHardwareSPI5beginEv
 .text._ZN13RHHardwareSPI3endEv
                0x00001d08        0x4 C:\Users\Jose\Documents\rpk2\firmwares\leoencchat\ArduinoSketch1\ArduinoSketch1\ArduinoCore\Debug\libArduinoCore.a(RHHardwareSPI.o)
                0x00001d08                _ZN13RHHardwareSPI3endEv
 .text._ZN13RHHardwareSPI14endTransactionEv
                0x00001d0c       0x22 C:\Users\Jose\Documents\rpk2\firmwares\leoencchat\ArduinoSketch1\ArduinoSketch1\ArduinoCore\Debug\libArduinoCore.a(RHHardwareSPI.o)
                0x00001d0c                _ZN13RHHardwareSPI14endTransactionEv
 .text._ZN13RHHardwareSPIC2EN12RHGenericSPI9FrequencyENS0_8BitOrderENS0_8DataModeE
                0x00001d2e       0x1e C:\Users\Jose\Documents\rpk2\firmwares\leoencchat\ArduinoSketch1\ArduinoSketch1\ArduinoCore\Debug\libArduinoCore.a(RHHardwareSPI.o)
                0x00001d2e                _ZN13RHHardwareSPIC2EN12RHGenericSPI9FrequencyENS0_8BitOrderENS0_8DataModeE
                0x00001d2e                _ZN13RHHardwareSPIC1EN12RHGenericSPI9FrequencyENS0_8BitOrderENS0_8DataModeE
 .text.startup._GLOBAL__sub_I_hardware_spi
                0x00001d4c        0xe C:\Users\Jose\Documents\rpk2\firmwares\leoencchat\ArduinoSketch1\ArduinoSketch1\ArduinoCore\Debug\libArduinoCore.a(RHHardwareSPI.o)
 .text._ZN7RH_RF6916maxMessageLengthEv
                0x00001d5a        0x4 C:\Users\Jose\Documents\rpk2\firmwares\leoencchat\ArduinoSketch1\ArduinoSketch1\ArduinoCore\Debug\libArduinoCore.a(RH_RF69.o)
                0x00001d5a                _ZN7RH_RF6916maxMessageLengthEv
 .text._ZN7RH_RF6916setEncryptionKeyEPh.part.4.constprop.5
                0x00001d5e       0x1c C:\Users\Jose\Documents\rpk2\firmwares\leoencchat\ArduinoSketch1\ArduinoSketch1\ArduinoCore\Debug\libArduinoCore.a(RH_RF69.o)
 .text._ZN7RH_RF694recvEPhS0_
                0x00001d7a       0x74 C:\Users\Jose\Documents\rpk2\firmwares\leoencchat\ArduinoSketch1\ArduinoSketch1\ArduinoCore\Debug\libArduinoCore.a(RH_RF69.o)
                0x00001d7a                _ZN7RH_RF694recvEPhS0_
 .text._ZN7RH_RF695sleepEv
                0x00001dee       0x22 C:\Users\Jose\Documents\rpk2\firmwares\leoencchat\ArduinoSketch1\ArduinoSketch1\ArduinoCore\Debug\libArduinoCore.a(RH_RF69.o)
                0x00001dee                _ZN7RH_RF695sleepEv
 .text._ZN7RH_RF69C2EhhR12RHGenericSPI
                0x00001e10       0x2a C:\Users\Jose\Documents\rpk2\firmwares\leoencchat\ArduinoSketch1\ArduinoSketch1\ArduinoCore\Debug\libArduinoCore.a(RH_RF69.o)
                0x00001e10                _ZN7RH_RF69C2EhhR12RHGenericSPI
                0x00001e10                _ZN7RH_RF69C1EhhR12RHGenericSPI
 .text._ZN7RH_RF698readFifoEv
                0x00001e3a      0x144 C:\Users\Jose\Documents\rpk2\firmwares\leoencchat\ArduinoSketch1\ArduinoSketch1\ArduinoCore\Debug\libArduinoCore.a(RH_RF69.o)
                0x00001e3a                _ZN7RH_RF698readFifoEv
 .text._ZN7RH_RF6912setFrequencyEff
                0x00001f7e       0x6a C:\Users\Jose\Documents\rpk2\firmwares\leoencchat\ArduinoSketch1\ArduinoSketch1\ArduinoCore\Debug\libArduinoCore.a(RH_RF69.o)
                0x00001f7e                _ZN7RH_RF6912setFrequencyEff
 .text._ZN7RH_RF699setOpModeEh
                0x00001fe8       0x34 C:\Users\Jose\Documents\rpk2\firmwares\leoencchat\ArduinoSketch1\ArduinoSketch1\ArduinoCore\Debug\libArduinoCore.a(RH_RF69.o)
                0x00001fe8                _ZN7RH_RF699setOpModeEh
 .text._ZN7RH_RF6911setModeIdleEv
                0x0000201c       0x3a C:\Users\Jose\Documents\rpk2\firmwares\leoencchat\ArduinoSketch1\ArduinoSketch1\ArduinoCore\Debug\libArduinoCore.a(RH_RF69.o)
                0x0000201c                _ZN7RH_RF6911setModeIdleEv
 .text._ZN7RH_RF6915handleInterruptEv
                0x00002056       0x7a C:\Users\Jose\Documents\rpk2\firmwares\leoencchat\ArduinoSketch1\ArduinoSketch1\ArduinoCore\Debug\libArduinoCore.a(RH_RF69.o)
                0x00002056                _ZN7RH_RF6915handleInterruptEv
 .text._ZN7RH_RF694isr0Ev
                0x000020d0       0x12 C:\Users\Jose\Documents\rpk2\firmwares\leoencchat\ArduinoSketch1\ArduinoSketch1\ArduinoCore\Debug\libArduinoCore.a(RH_RF69.o)
                0x000020d0                _ZN7RH_RF694isr0Ev
 .text._ZN7RH_RF694isr1Ev
                0x000020e2       0x12 C:\Users\Jose\Documents\rpk2\firmwares\leoencchat\ArduinoSketch1\ArduinoSketch1\ArduinoCore\Debug\libArduinoCore.a(RH_RF69.o)
                0x000020e2                _ZN7RH_RF694isr1Ev
 .text._ZN7RH_RF694isr2Ev
                0x000020f4       0x12 C:\Users\Jose\Documents\rpk2\firmwares\leoencchat\ArduinoSketch1\ArduinoSketch1\ArduinoCore\Debug\libArduinoCore.a(RH_RF69.o)
                0x000020f4                _ZN7RH_RF694isr2Ev
 .text._ZN7RH_RF699setModeRxEv
                0x00002106       0x44 C:\Users\Jose\Documents\rpk2\firmwares\leoencchat\ArduinoSketch1\ArduinoSketch1\ArduinoCore\Debug\libArduinoCore.a(RH_RF69.o)
                0x00002106                _ZN7RH_RF699setModeRxEv
 .text._ZN7RH_RF699availableEv
                0x0000214a       0x22 C:\Users\Jose\Documents\rpk2\firmwares\leoencchat\ArduinoSketch1\ArduinoSketch1\ArduinoCore\Debug\libArduinoCore.a(RH_RF69.o)
                0x0000214a                _ZN7RH_RF699availableEv
 .text._ZN7RH_RF699setModeTxEv
                0x0000216c       0x44 C:\Users\Jose\Documents\rpk2\firmwares\leoencchat\ArduinoSketch1\ArduinoSketch1\ArduinoCore\Debug\libArduinoCore.a(RH_RF69.o)
                0x0000216c                _ZN7RH_RF699setModeTxEv
 .text._ZN7RH_RF694sendEPKhh
                0x000021b0      0x116 C:\Users\Jose\Documents\rpk2\firmwares\leoencchat\ArduinoSketch1\ArduinoSketch1\ArduinoCore\Debug\libArduinoCore.a(RH_RF69.o)
                0x000021b0                _ZN7RH_RF694sendEPKhh
 .text._ZN7RH_RF6910setTxPowerEab
                0x000022c6       0x50 C:\Users\Jose\Documents\rpk2\firmwares\leoencchat\ArduinoSketch1\ArduinoSketch1\ArduinoCore\Debug\libArduinoCore.a(RH_RF69.o)
                0x000022c6                _ZN7RH_RF6910setTxPowerEab
 .text._ZN7RH_RF6917setModemRegistersEPKNS_11ModemConfigE
                0x00002316       0x3a C:\Users\Jose\Documents\rpk2\firmwares\leoencchat\ArduinoSketch1\ArduinoSketch1\ArduinoCore\Debug\libArduinoCore.a(RH_RF69.o)
                0x00002316                _ZN7RH_RF6917setModemRegistersEPKNS_11ModemConfigE
 .text._ZN7RH_RF6914setModemConfigENS_17ModemConfigChoiceE
                0x00002350       0x64 C:\Users\Jose\Documents\rpk2\firmwares\leoencchat\ArduinoSketch1\ArduinoSketch1\ArduinoCore\Debug\libArduinoCore.a(RH_RF69.o)
                0x00002350                _ZN7RH_RF6914setModemConfigENS_17ModemConfigChoiceE
 .text._ZN7RH_RF6917setPreambleLengthEj
                0x000023b4       0x22 C:\Users\Jose\Documents\rpk2\firmwares\leoencchat\ArduinoSketch1\ArduinoSketch1\ArduinoCore\Debug\libArduinoCore.a(RH_RF69.o)
                0x000023b4                _ZN7RH_RF6917setPreambleLengthEj
 .text._ZN7RH_RF6912setSyncWordsEPKhh
                0x000023d6       0x66 C:\Users\Jose\Documents\rpk2\firmwares\leoencchat\ArduinoSketch1\ArduinoSketch1\ArduinoCore\Debug\libArduinoCore.a(RH_RF69.o)
                0x000023d6                _ZN7RH_RF6912setSyncWordsEPKhh
 .text._ZN7RH_RF6916setEncryptionKeyEPh
                0x0000243c       0x36 C:\Users\Jose\Documents\rpk2\firmwares\leoencchat\ArduinoSketch1\ArduinoSketch1\ArduinoCore\Debug\libArduinoCore.a(RH_RF69.o)
                0x0000243c                _ZN7RH_RF6916setEncryptionKeyEPh
 .text._ZN7RH_RF694initEv
                0x00002472      0x162 C:\Users\Jose\Documents\rpk2\firmwares\leoencchat\ArduinoSketch1\ArduinoSketch1\ArduinoCore\Debug\libArduinoCore.a(RH_RF69.o)
                0x00002472                _ZN7RH_RF694initEv
 .text._ZN8SPIClass5beginEv
                0x000025d4       0x6c C:\Users\Jose\Documents\rpk2\firmwares\leoencchat\ArduinoSketch1\ArduinoSketch1\ArduinoCore\Debug\libArduinoCore.a(SPI.o)
                0x000025d4                _ZN8SPIClass5beginEv
 .text._ZN8SPIClass3endEv
                0x00002640       0x28 C:\Users\Jose\Documents\rpk2\firmwares\leoencchat\ArduinoSketch1\ArduinoSketch1\ArduinoCore\Debug\libArduinoCore.a(SPI.o)
                0x00002640                _ZN8SPIClass3endEv
 .text.__cxa_pure_virtual
                0x00002668        0x4 C:\Users\Jose\Documents\rpk2\firmwares\leoencchat\ArduinoSketch1\ArduinoSketch1\ArduinoCore\Debug\libArduinoCore.a(abi.o)
                0x00002668                __cxa_pure_virtual
 .text._ZN7Serial_5writeEh
                0x0000266c       0x2c C:\Users\Jose\Documents\rpk2\firmwares\leoencchat\ArduinoSketch1\ArduinoSketch1\ArduinoCore\Debug\libArduinoCore.a(CDC.o)
                0x0000266c                _ZN7Serial_5writeEh
 .text._ZN7Serial_4peekEv
                0x00002698       0x22 C:\Users\Jose\Documents\rpk2\firmwares\leoencchat\ArduinoSketch1\ArduinoSketch1\ArduinoCore\Debug\libArduinoCore.a(CDC.o)
                0x00002698                _ZN7Serial_4peekEv
 .text._ZN7Serial_17availableForWriteEv
                0x000026ba        0xa C:\Users\Jose\Documents\rpk2\firmwares\leoencchat\ArduinoSketch1\ArduinoSketch1\ArduinoCore\Debug\libArduinoCore.a(CDC.o)
                0x000026ba                _ZN7Serial_17availableForWriteEv
 .text._ZN7Serial_5flushEv
                0x000026c4        0x6 C:\Users\Jose\Documents\rpk2\firmwares\leoencchat\ArduinoSketch1\ArduinoSketch1\ArduinoCore\Debug\libArduinoCore.a(CDC.o)
                0x000026c4                _ZN7Serial_5flushEv
 .text._ZN7Serial_9availableEv
                0x000026ca       0x20 C:\Users\Jose\Documents\rpk2\firmwares\leoencchat\ArduinoSketch1\ArduinoSketch1\ArduinoCore\Debug\libArduinoCore.a(CDC.o)
                0x000026ca                _ZN7Serial_9availableEv
 .text._ZN7Serial_4readEv
                0x000026ea       0x1a C:\Users\Jose\Documents\rpk2\firmwares\leoencchat\ArduinoSketch1\ArduinoSketch1\ArduinoCore\Debug\libArduinoCore.a(CDC.o)
                0x000026ea                _ZN7Serial_4readEv
 .text._ZN7Serial_5writeEPKhj
                0x00002704       0x2c C:\Users\Jose\Documents\rpk2\firmwares\leoencchat\ArduinoSketch1\ArduinoSketch1\ArduinoCore\Debug\libArduinoCore.a(CDC.o)
                0x00002704                _ZN7Serial_5writeEPKhj
 .text._Z16isLUFAbootloaderv
                0x00002730       0x14 C:\Users\Jose\Documents\rpk2\firmwares\leoencchat\ArduinoSketch1\ArduinoSketch1\ArduinoCore\Debug\libArduinoCore.a(CDC.o)
                0x00002730                _Z16isLUFAbootloaderv
 .text._Z16CDC_GetInterfacePh
                0x00002744       0x16 C:\Users\Jose\Documents\rpk2\firmwares\leoencchat\ArduinoSketch1\ArduinoSketch1\ArduinoCore\Debug\libArduinoCore.a(CDC.o)
                0x00002744                _Z16CDC_GetInterfacePh
 .text._Z9CDC_SetupR8USBSetup
                0x0000275a      0x11c C:\Users\Jose\Documents\rpk2\firmwares\leoencchat\ArduinoSketch1\ArduinoSketch1\ArduinoCore\Debug\libArduinoCore.a(CDC.o)
                0x0000275a                _Z9CDC_SetupR8USBSetup
 .text.startup._GLOBAL__sub_I__cdcInterface
                0x00002876       0x2a C:\Users\Jose\Documents\rpk2\firmwares\leoencchat\ArduinoSketch1\ArduinoSketch1\ArduinoCore\Debug\libArduinoCore.a(CDC.o)
 .text.__empty  0x000028a0        0x2 C:\Users\Jose\Documents\rpk2\firmwares\leoencchat\ArduinoSketch1\ArduinoSketch1\ArduinoCore\Debug\libArduinoCore.a(hooks.o)
                0x000028a0                yield
 .text._ZN13PluggableUSB_12getInterfaceEPh
                0x000028a2       0x52 C:\Users\Jose\Documents\rpk2\firmwares\leoencchat\ArduinoSketch1\ArduinoSketch1\ArduinoCore\Debug\libArduinoCore.a(PluggableUSB.o)
                0x000028a2                _ZN13PluggableUSB_12getInterfaceEPh
 .text._ZN13PluggableUSB_13getDescriptorER8USBSetup
                0x000028f4       0x3e C:\Users\Jose\Documents\rpk2\firmwares\leoencchat\ArduinoSketch1\ArduinoSketch1\ArduinoCore\Debug\libArduinoCore.a(PluggableUSB.o)
                0x000028f4                _ZN13PluggableUSB_13getDescriptorER8USBSetup
 .text._ZN13PluggableUSB_12getShortNameEPc
                0x00002932       0x3e C:\Users\Jose\Documents\rpk2\firmwares\leoencchat\ArduinoSketch1\ArduinoSketch1\ArduinoCore\Debug\libArduinoCore.a(PluggableUSB.o)
                0x00002932                _ZN13PluggableUSB_12getShortNameEPc
 .text._ZN13PluggableUSB_5setupER8USBSetup
                0x00002970       0x3c C:\Users\Jose\Documents\rpk2\firmwares\leoencchat\ArduinoSketch1\ArduinoSketch1\ArduinoCore\Debug\libArduinoCore.a(PluggableUSB.o)
                0x00002970                _ZN13PluggableUSB_5setupER8USBSetup
 .text._Z12PluggableUSBv
                0x000029ac       0x28 C:\Users\Jose\Documents\rpk2\firmwares\leoencchat\ArduinoSketch1\ArduinoSketch1\ArduinoCore\Debug\libArduinoCore.a(PluggableUSB.o)
                0x000029ac                _Z12PluggableUSBv
 .text.nothing  0x000029d4        0x2 C:\Users\Jose\Documents\rpk2\firmwares\leoencchat\ArduinoSketch1\ArduinoSketch1\ArduinoCore\Debug\libArduinoCore.a(WInterrupts.o)
 .text.attachInterrupt
                0x000029d6       0xa0 C:\Users\Jose\Documents\rpk2\firmwares\leoencchat\ArduinoSketch1\ArduinoSketch1\ArduinoCore\Debug\libArduinoCore.a(WInterrupts.o)
                0x000029d6                attachInterrupt
 .text.__vector_1
                0x00002a76       0x4e C:\Users\Jose\Documents\rpk2\firmwares\leoencchat\ArduinoSketch1\ArduinoSketch1\ArduinoCore\Debug\libArduinoCore.a(WInterrupts.o)
                0x00002a76                __vector_1
 .text.__vector_2
                0x00002ac4       0x4e C:\Users\Jose\Documents\rpk2\firmwares\leoencchat\ArduinoSketch1\ArduinoSketch1\ArduinoCore\Debug\libArduinoCore.a(WInterrupts.o)
                0x00002ac4                __vector_2
 .text.__vector_3
                0x00002b12       0x4e C:\Users\Jose\Documents\rpk2\firmwares\leoencchat\ArduinoSketch1\ArduinoSketch1\ArduinoCore\Debug\libArduinoCore.a(WInterrupts.o)
                0x00002b12                __vector_3
 .text.__vector_4
                0x00002b60       0x4e C:\Users\Jose\Documents\rpk2\firmwares\leoencchat\ArduinoSketch1\ArduinoSketch1\ArduinoCore\Debug\libArduinoCore.a(WInterrupts.o)
                0x00002b60                __vector_4
 .text.__vector_7
                0x00002bae       0x4e C:\Users\Jose\Documents\rpk2\firmwares\leoencchat\ArduinoSketch1\ArduinoSketch1\ArduinoCore\Debug\libArduinoCore.a(WInterrupts.o)
                0x00002bae                __vector_7
 .text._Z6randoml
                0x00002bfc       0x34 C:\Users\Jose\Documents\rpk2\firmwares\leoencchat\ArduinoSketch1\ArduinoSketch1\ArduinoCore\Debug\libArduinoCore.a(WMath.o)
                0x00002bfc                _Z6randoml
 .text._Z6randomll
                0x00002c30       0x44 C:\Users\Jose\Documents\rpk2\firmwares\leoencchat\ArduinoSketch1\ArduinoSketch1\ArduinoCore\Debug\libArduinoCore.a(WMath.o)
                0x00002c30                _Z6randomll
 .text._ZN12RHGenericSPI15attachInterruptEv
                0x00002c74        0x2 C:\Users\Jose\Documents\rpk2\firmwares\leoencchat\ArduinoSketch1\ArduinoSketch1\ArduinoCore\Debug\libArduinoCore.a(RHGenericSPI.o)
                0x00002c74                _ZN12RHGenericSPI15attachInterruptEv
 .text._ZN12RHGenericSPI15detachInterruptEv
                0x00002c76        0x2 C:\Users\Jose\Documents\rpk2\firmwares\leoencchat\ArduinoSketch1\ArduinoSketch1\ArduinoCore\Debug\libArduinoCore.a(RHGenericSPI.o)
                0x00002c76                _ZN12RHGenericSPI15detachInterruptEv
 .text._ZN12RHGenericSPI16beginTransactionEv
                0x00002c78        0x2 C:\Users\Jose\Documents\rpk2\firmwares\leoencchat\ArduinoSketch1\ArduinoSketch1\ArduinoCore\Debug\libArduinoCore.a(RHGenericSPI.o)
                0x00002c78                _ZN12RHGenericSPI16beginTransactionEv
 .text._ZN12RHGenericSPI14endTransactionEv
                0x00002c7a        0x2 C:\Users\Jose\Documents\rpk2\firmwares\leoencchat\ArduinoSketch1\ArduinoSketch1\ArduinoCore\Debug\libArduinoCore.a(RHGenericSPI.o)
                0x00002c7a                _ZN12RHGenericSPI14endTransactionEv
 .text._ZN12RHGenericSPI14usingInterruptEh
                0x00002c7c        0x2 C:\Users\Jose\Documents\rpk2\firmwares\leoencchat\ArduinoSketch1\ArduinoSketch1\ArduinoCore\Debug\libArduinoCore.a(RHGenericSPI.o)
                0x00002c7c                _ZN12RHGenericSPI14usingInterruptEh
 .text._ZN12RHGenericSPI11setBitOrderENS_8BitOrderE
                0x00002c7e        0x6 C:\Users\Jose\Documents\rpk2\firmwares\leoencchat\ArduinoSketch1\ArduinoSketch1\ArduinoCore\Debug\libArduinoCore.a(RHGenericSPI.o)
                0x00002c7e                _ZN12RHGenericSPI11setBitOrderENS_8BitOrderE
 .text._ZN12RHGenericSPI11setDataModeENS_8DataModeE
                0x00002c84        0x6 C:\Users\Jose\Documents\rpk2\firmwares\leoencchat\ArduinoSketch1\ArduinoSketch1\ArduinoCore\Debug\libArduinoCore.a(RHGenericSPI.o)
                0x00002c84                _ZN12RHGenericSPI11setDataModeENS_8DataModeE
 .text._ZN12RHGenericSPI12setFrequencyENS_9FrequencyE
                0x00002c8a        0x6 C:\Users\Jose\Documents\rpk2\firmwares\leoencchat\ArduinoSketch1\ArduinoSketch1\ArduinoCore\Debug\libArduinoCore.a(RHGenericSPI.o)
                0x00002c8a                _ZN12RHGenericSPI12setFrequencyENS_9FrequencyE
 .text._ZN12RHGenericSPIC2ENS_9FrequencyENS_8BitOrderENS_8DataModeE
                0x00002c90       0x12 C:\Users\Jose\Documents\rpk2\firmwares\leoencchat\ArduinoSketch1\ArduinoSketch1\ArduinoCore\Debug\libArduinoCore.a(RHGenericSPI.o)
                0x00002c90                _ZN12RHGenericSPIC1ENS_9FrequencyENS_8BitOrderENS_8DataModeE
                0x00002c90                _ZN12RHGenericSPIC2ENS_9FrequencyENS_8BitOrderENS_8DataModeE
 .text._ZN11RHSPIDriver4initEv
                0x00002ca2       0x3c C:\Users\Jose\Documents\rpk2\firmwares\leoencchat\ArduinoSketch1\ArduinoSketch1\ArduinoCore\Debug\libArduinoCore.a(RHSPIDriver.o)
                0x00002ca2                _ZN11RHSPIDriver4initEv
 .text._ZN11RHSPIDriverC2EhR12RHGenericSPI
                0x00002cde       0x2e C:\Users\Jose\Documents\rpk2\firmwares\leoencchat\ArduinoSketch1\ArduinoSketch1\ArduinoCore\Debug\libArduinoCore.a(RHSPIDriver.o)
                0x00002cde                _ZN11RHSPIDriverC1EhR12RHGenericSPI
                0x00002cde                _ZN11RHSPIDriverC2EhR12RHGenericSPI
 .text._ZN11RHSPIDriver7spiReadEh
                0x00002d0c       0x7e C:\Users\Jose\Documents\rpk2\firmwares\leoencchat\ArduinoSketch1\ArduinoSketch1\ArduinoCore\Debug\libArduinoCore.a(RHSPIDriver.o)
                0x00002d0c                _ZN11RHSPIDriver7spiReadEh
 .text._ZN11RHSPIDriver8spiWriteEhh
                0x00002d8a       0x84 C:\Users\Jose\Documents\rpk2\firmwares\leoencchat\ArduinoSketch1\ArduinoSketch1\ArduinoCore\Debug\libArduinoCore.a(RHSPIDriver.o)
                0x00002d8a                _ZN11RHSPIDriver8spiWriteEhh
 .text._ZN11RHSPIDriver13spiBurstWriteEhPKhh
                0x00002e0e       0xa8 C:\Users\Jose\Documents\rpk2\firmwares\leoencchat\ArduinoSketch1\ArduinoSketch1\ArduinoCore\Debug\libArduinoCore.a(RHSPIDriver.o)
                0x00002e0e                _ZN11RHSPIDriver13spiBurstWriteEhPKhh
 .text._ZN11RHSPIDriver17spiUsingInterruptEh
                0x00002eb6       0x18 C:\Users\Jose\Documents\rpk2\firmwares\leoencchat\ArduinoSketch1\ArduinoSketch1\ArduinoCore\Debug\libArduinoCore.a(RHSPIDriver.o)
                0x00002eb6                _ZN11RHSPIDriver17spiUsingInterruptEh
 .text.avr-libc.fplib
                0x00002ece        0x8 c:/program files (x86)/atmel/studio/7.0/toolchain/avr8/avr8-gnu-toolchain/bin/../lib/gcc/avr/5.4.0/../../../../avr/lib/avr5\libm.a(divsf3.o)
                0x00002ece                __divsf3
 .text.avr-libc.fplib
                0x00002ed6       0xdc c:/program files (x86)/atmel/studio/7.0/toolchain/avr8/avr8-gnu-toolchain/bin/../lib/gcc/avr/5.4.0/../../../../avr/lib/avr5\libm.a(divsf3x.o)
                0x00002ef6                __divsf3x
                0x00002efc                __divsf3_pse
 .text.avr-libc.fplib
                0x00002fb2       0x5e c:/program files (x86)/atmel/studio/7.0/toolchain/avr8/avr8-gnu-toolchain/bin/../lib/gcc/avr/5.4.0/../../../../avr/lib/avr5\libm.a(fixunssfsi.o)
                0x00002fb2                __fixunssfsi
 .text.avr-libc.fplib
                0x00003010        0xc c:/program files (x86)/atmel/studio/7.0/toolchain/avr8/avr8-gnu-toolchain/bin/../lib/gcc/avr/5.4.0/../../../../avr/lib/avr5\libm.a(fp_inf.o)
                0x00003010                __fp_inf
 .text.avr-libc.fplib
                0x0000301c        0x6 c:/program files (x86)/atmel/studio/7.0/toolchain/avr8/avr8-gnu-toolchain/bin/../lib/gcc/avr/5.4.0/../../../../avr/lib/avr5\libm.a(fp_nan.o)
                0x0000301c                __fp_nan
 .text.avr-libc.fplib
                0x00003022        0xe c:/program files (x86)/atmel/studio/7.0/toolchain/avr8/avr8-gnu-toolchain/bin/../lib/gcc/avr/5.4.0/../../../../avr/lib/avr5\libm.a(fp_pscA.o)
                0x00003022                __fp_pscA
 .text.avr-libc.fplib
                0x00003030        0xe c:/program files (x86)/atmel/studio/7.0/toolchain/avr8/avr8-gnu-toolchain/bin/../lib/gcc/avr/5.4.0/../../../../avr/lib/avr5\libm.a(fp_pscB.o)
                0x00003030                __fp_pscB
 .text.avr-libc.fplib
                0x0000303e       0x22 c:/program files (x86)/atmel/studio/7.0/toolchain/avr8/avr8-gnu-toolchain/bin/../lib/gcc/avr/5.4.0/../../../../avr/lib/avr5\libm.a(fp_round.o)
                0x0000303e                __fp_round
 .text.avr-libc.fplib
                0x00003060       0x44 c:/program files (x86)/atmel/studio/7.0/toolchain/avr8/avr8-gnu-toolchain/bin/../lib/gcc/avr/5.4.0/../../../../avr/lib/avr5\libm.a(fp_split3.o)
                0x00003060                __fp_split3
                0x00003070                __fp_splitA
 .text.avr-libc.fplib
                0x000030a4        0xe c:/program files (x86)/atmel/studio/7.0/toolchain/avr8/avr8-gnu-toolchain/bin/../lib/gcc/avr/5.4.0/../../../../avr/lib/avr5\libm.a(fp_zero.o)
                0x000030a4                __fp_zero
                0x000030a6                __fp_szero
 .text.avr-libc.fplib
                0x000030b2        0x8 c:/program files (x86)/atmel/studio/7.0/toolchain/avr8/avr8-gnu-toolchain/bin/../lib/gcc/avr/5.4.0/../../../../avr/lib/avr5\libm.a(mulsf3.o)
                0x000030b2                __mulsf3
 .text.avr-libc.fplib
                0x000030ba       0xd2 c:/program files (x86)/atmel/studio/7.0/toolchain/avr8/avr8-gnu-toolchain/bin/../lib/gcc/avr/5.4.0/../../../../avr/lib/avr5\libm.a(mulsf3x.o)
                0x000030d8                __mulsf3x
                0x000030de                __mulsf3_pse
 .text.libgcc.div
                0x0000318c       0x44 c:/program files (x86)/atmel/studio/7.0/toolchain/avr8/avr8-gnu-toolchain/bin/../lib/gcc/avr/5.4.0/avr5\libgcc.a(_udivmodsi4.o)
                0x0000318c                __udivmodsi4
 .text.libgcc.div
                0x000031d0       0x2e c:/program files (x86)/atmel/studio/7.0/toolchain/avr8/avr8-gnu-toolchain/bin/../lib/gcc/avr/5.4.0/avr5\libgcc.a(_divmodsi4.o)
                0x000031d0                __divmodsi4
 .text.libgcc.div
                0x000031fe       0x10 c:/program files (x86)/atmel/studio/7.0/toolchain/avr8/avr8-gnu-toolchain/bin/../lib/gcc/avr/5.4.0/avr5\libgcc.a(_negsi2.o)
                0x000031fe                __negsi2
 .text.libgcc   0x0000320e        0xc c:/program files (x86)/atmel/studio/7.0/toolchain/avr8/avr8-gnu-toolchain/bin/../lib/gcc/avr/5.4.0/avr5\libgcc.a(_tablejump2.o)
                0x0000320e                __tablejump2__
 .text.libgcc.mul
                0x0000321a       0x16 c:/program files (x86)/atmel/studio/7.0/toolchain/avr8/avr8-gnu-toolchain/bin/../lib/gcc/avr/5.4.0/avr5\libgcc.a(_muluhisi3.o)
                0x0000321a                __muluhisi3
 .text.libgcc.mul
                0x00003230       0x1e c:/program files (x86)/atmel/studio/7.0/toolchain/avr8/avr8-gnu-toolchain/bin/../lib/gcc/avr/5.4.0/avr5\libgcc.a(_umulhisi3.o)
                0x00003230                __umulhisi3
 .text.avr-libc
                0x0000324e      0x242 c:/program files (x86)/atmel/studio/7.0/toolchain/avr8/avr8-gnu-toolchain/bin/../lib/gcc/avr/5.4.0/../../../../avr/lib/avr5\libc.a(malloc.o)
                0x0000324e                malloc
                0x0000337e                free
 .text.avr-libc
                0x00003490      0x144 c:/program files (x86)/atmel/studio/7.0/toolchain/avr8/avr8-gnu-toolchain/bin/../lib/gcc/avr/5.4.0/../../../../avr/lib/avr5\libc.a(random.o)
                0x00003490                random_r
                0x00003526                random
                0x000035c2                srandom
 .text.avr-libc
                0x000035d4      0x18c c:/program files (x86)/atmel/studio/7.0/toolchain/avr8/avr8-gnu-toolchain/bin/../lib/gcc/avr/5.4.0/../../../../avr/lib/avr5\libc.a(realloc.o)
                0x000035d4                realloc
 .text.avr-libc
                0x00003760        0xa c:/program files (x86)/atmel/studio/7.0/toolchain/avr8/avr8-gnu-toolchain/bin/../lib/gcc/avr/5.4.0/../../../../avr/lib/avr5\libc.a(abort.o)
                0x00003760                abort
 .text.avr-libc
                0x0000376a       0x12 c:/program files (x86)/atmel/studio/7.0/toolchain/avr8/avr8-gnu-toolchain/bin/../lib/gcc/avr/5.4.0/../../../../avr/lib/avr5\libc.a(memcpy_P.o)
                0x0000376a                memcpy_P
 .text.avr-libc
                0x0000377c       0x12 c:/program files (x86)/atmel/studio/7.0/toolchain/avr8/avr8-gnu-toolchain/bin/../lib/gcc/avr/5.4.0/../../../../avr/lib/avr5\libc.a(memcpy.o)
                0x0000377c                memcpy
 .text.avr-libc
                0x0000378e        0xe c:/program files (x86)/atmel/studio/7.0/toolchain/avr8/avr8-gnu-toolchain/bin/../lib/gcc/avr/5.4.0/../../../../avr/lib/avr5\libc.a(strcpy.o)
                0x0000378e                strcpy
 .text.avr-libc
                0x0000379c       0x1e c:/program files (x86)/atmel/studio/7.0/toolchain/avr8/avr8-gnu-toolchain/bin/../lib/gcc/avr/5.4.0/../../../../avr/lib/avr5\libc.a(strncpy.o)
                0x0000379c                strncpy
 .text.libgcc.mul
                0x000037ba       0x10 c:/program files (x86)/atmel/studio/7.0/toolchain/avr8/avr8-gnu-toolchain/bin/../lib/gcc/avr/5.4.0/avr5\libgcc.a(_mulshisi3.o)
                0x000037ba                __mulshisi3
                0x000037c0                __mulohisi3
 .text.libgcc.prologue
                0x000037ca       0x38 c:/program files (x86)/atmel/studio/7.0/toolchain/avr8/avr8-gnu-toolchain/bin/../lib/gcc/avr/5.4.0/avr5\libgcc.a(_prologue.o)
                0x000037ca                __prologue_saves__
 .text.libgcc.prologue
                0x00003802       0x36 c:/program files (x86)/atmel/studio/7.0/toolchain/avr8/avr8-gnu-toolchain/bin/../lib/gcc/avr/5.4.0/avr5\libgcc.a(_epilogue.o)
                0x00003802                __epilogue_restores__
                0x00003838                . = ALIGN (0x2)
 *(.fini9)
 .fini9         0x00003838        0x0 c:/program files (x86)/atmel/studio/7.0/toolchain/avr8/avr8-gnu-toolchain/bin/../lib/gcc/avr/5.4.0/avr5\libgcc.a(_exit.o)
                0x00003838                _exit
                0x00003838                exit
 *(.fini9)
 *(.fini8)
 *(.fini8)
 *(.fini7)
 *(.fini7)
 *(.fini6)
 .fini6         0x00003838       0x16 c:/program files (x86)/atmel/studio/7.0/toolchain/avr8/avr8-gnu-toolchain/bin/../lib/gcc/avr/5.4.0/avr5\libgcc.a(_dtors.o)
                0x00003838                __do_global_dtors
 *(.fini6)
 *(.fini5)
 *(.fini5)
 *(.fini4)
 *(.fini4)
 *(.fini3)
 *(.fini3)
 *(.fini2)
 *(.fini2)
 *(.fini1)
 *(.fini1)
 *(.fini0)
 .fini0         0x0000384e        0x4 c:/program files (x86)/atmel/studio/7.0/toolchain/avr8/avr8-gnu-toolchain/bin/../lib/gcc/avr/5.4.0/avr5\libgcc.a(_exit.o)
 *(.fini0)
                0x00003852                _etext = .

.data           0x00800100      0x206 load address 0x00003852
                0x00800100                PROVIDE (__data_start, .)
 *(.data)
 .data          0x00800100        0x6 c:/program files (x86)/atmel/studio/7.0/toolchain/avr8/avr8-gnu-toolchain/bin/../lib/gcc/avr/5.4.0/../../../../avr/lib/avr5\libc.a(malloc.o)
                0x00800100                __malloc_heap_end
                0x00800102                __malloc_heap_start
                0x00800104                __malloc_margin
 .data          0x00800106        0x4 c:/program files (x86)/atmel/studio/7.0/toolchain/avr8/avr8-gnu-toolchain/bin/../lib/gcc/avr/5.4.0/../../../../avr/lib/avr5\libc.a(random.o)
 *(.data*)
 .data._initEndpoints
                0x0080010a        0x7 C:\Users\Jose\Documents\rpk2\firmwares\leoencchat\ArduinoSketch1\ArduinoSketch1\ArduinoCore\Debug\libArduinoCore.a(USBCore.o)
                0x0080010a                _initEndpoints
 .data._ZL10breakValue
                0x00800111        0x4 C:\Users\Jose\Documents\rpk2\firmwares\leoencchat\ArduinoSketch1\ArduinoSketch1\ArduinoCore\Debug\libArduinoCore.a(CDC.o)
 .data._ZL12_usbLineInfo
                0x00800115        0x8 C:\Users\Jose\Documents\rpk2\firmwares\leoencchat\ArduinoSketch1\ArduinoSketch1\ArduinoCore\Debug\libArduinoCore.a(CDC.o)
 .data.intFunc  0x0080011d        0xa C:\Users\Jose\Documents\rpk2\firmwares\leoencchat\ArduinoSketch1\ArduinoSketch1\ArduinoCore\Debug\libArduinoCore.a(WInterrupts.o)
 *(.gnu.linkonce.d*)
 *(.rodata)
 .rodata        0x00800127       0x10 main.o
 *(.rodata*)
 .rodata.str1.1
                0x00800137       0xb4 main.o
                                 0xb5 (size before relaxing)
 .rodata._ZTV14HardwareSerial
                0x008001eb       0x12 C:\Users\Jose\Documents\rpk2\firmwares\leoencchat\ArduinoSketch1\ArduinoSketch1\ArduinoCore\Debug\libArduinoCore.a(HardwareSerial.o)
                0x008001eb                _ZTV14HardwareSerial
 .rodata.str1.1
                0x008001fd        0xf C:\Users\Jose\Documents\rpk2\firmwares\leoencchat\ArduinoSketch1\ArduinoSketch1\ArduinoCore\Debug\libArduinoCore.a(Print.o)
 .rodata._ZTV15RHGenericDriver
                0x0080020c       0x3c C:\Users\Jose\Documents\rpk2\firmwares\leoencchat\ArduinoSketch1\ArduinoSketch1\ArduinoCore\Debug\libArduinoCore.a(RHGenericDriver.o)
                0x0080020c                _ZTV15RHGenericDriver
 .rodata._ZTV13RHHardwareSPI
                0x00800248       0x1a C:\Users\Jose\Documents\rpk2\firmwares\leoencchat\ArduinoSketch1\ArduinoSketch1\ArduinoCore\Debug\libArduinoCore.a(RHHardwareSPI.o)
                0x00800248                _ZTV13RHHardwareSPI
 .rodata._ZTV7RH_RF69
                0x00800262       0x3c C:\Users\Jose\Documents\rpk2\firmwares\leoencchat\ArduinoSketch1\ArduinoSketch1\ArduinoCore\Debug\libArduinoCore.a(RH_RF69.o)
                0x00800262                _ZTV7RH_RF69
 .rodata._ZTV7Serial_
                0x0080029e       0x12 C:\Users\Jose\Documents\rpk2\firmwares\leoencchat\ArduinoSketch1\ArduinoSketch1\ArduinoCore\Debug\libArduinoCore.a(CDC.o)
                0x0080029e                _ZTV7Serial_
 .rodata._ZTV12RHGenericSPI
                0x008002b0       0x1a C:\Users\Jose\Documents\rpk2\firmwares\leoencchat\ArduinoSketch1\ArduinoSketch1\ArduinoCore\Debug\libArduinoCore.a(RHGenericSPI.o)
                0x008002b0                _ZTV12RHGenericSPI
 .rodata._ZTV11RHSPIDriver
                0x008002ca       0x3c C:\Users\Jose\Documents\rpk2\firmwares\leoencchat\ArduinoSketch1\ArduinoSketch1\ArduinoCore\Debug\libArduinoCore.a(RHSPIDriver.o)
                0x008002ca                _ZTV11RHSPIDriver
 *(.gnu.linkonce.r*)
                0x00800306                . = ALIGN (0x2)
                0x00800306                _edata = .
                0x00800306                PROVIDE (__data_end, .)

.bss            0x00800306      0x18c
                0x00800306                PROVIDE (__bss_start, .)
 *(.bss)
 *(.bss*)
 .bss.serial_input
                0x00800306        0x6 main.o
                0x00800306                serial_input
 .bss.rf69      0x0080030c       0x63 main.o
                0x0080030c                rf69
 .bss.Serial1   0x0080036f       0x9d C:\Users\Jose\Documents\rpk2\firmwares\leoencchat\ArduinoSketch1\ArduinoSketch1\ArduinoCore\Debug\libArduinoCore.a(HardwareSerial1.o)
                0x0080036f                Serial1
 .bss.USBDevice
                0x0080040c        0x1 C:\Users\Jose\Documents\rpk2\firmwares\leoencchat\ArduinoSketch1\ArduinoSketch1\ArduinoCore\Debug\libArduinoCore.a(USBCore.o)
                0x0080040c                USBDevice
 .bss._ZL5_cend
                0x0080040d        0x2 C:\Users\Jose\Documents\rpk2\firmwares\leoencchat\ArduinoSketch1\ArduinoSketch1\ArduinoCore\Debug\libArduinoCore.a(USBCore.o)
 .bss._ZL6_cmark
                0x0080040f        0x2 C:\Users\Jose\Documents\rpk2\firmwares\leoencchat\ArduinoSketch1\ArduinoSketch1\ArduinoCore\Debug\libArduinoCore.a(USBCore.o)
 .bss._usbSuspendState
                0x00800411        0x1 C:\Users\Jose\Documents\rpk2\firmwares\leoencchat\ArduinoSketch1\ArduinoSketch1\ArduinoCore\Debug\libArduinoCore.a(USBCore.o)
                0x00800411                _usbSuspendState
 .bss._usbCurrentStatus
                0x00800412        0x1 C:\Users\Jose\Documents\rpk2\firmwares\leoencchat\ArduinoSketch1\ArduinoSketch1\ArduinoCore\Debug\libArduinoCore.a(USBCore.o)
                0x00800412                _usbCurrentStatus
 .bss._usbConfiguration
                0x00800413        0x1 C:\Users\Jose\Documents\rpk2\firmwares\leoencchat\ArduinoSketch1\ArduinoSketch1\ArduinoCore\Debug\libArduinoCore.a(USBCore.o)
                0x00800413                _usbConfiguration
 .bss.RxLEDPulse
                0x00800414        0x1 C:\Users\Jose\Documents\rpk2\firmwares\leoencchat\ArduinoSketch1\ArduinoSketch1\ArduinoCore\Debug\libArduinoCore.a(USBCore.o)
                0x00800414                RxLEDPulse
 .bss.TxLEDPulse
                0x00800415        0x1 C:\Users\Jose\Documents\rpk2\firmwares\leoencchat\ArduinoSketch1\ArduinoSketch1\ArduinoCore\Debug\libArduinoCore.a(USBCore.o)
                0x00800415                TxLEDPulse
 .bss.timer0_fract
                0x00800416        0x1 C:\Users\Jose\Documents\rpk2\firmwares\leoencchat\ArduinoSketch1\ArduinoSketch1\ArduinoCore\Debug\libArduinoCore.a(wiring.o)
 .bss.timer0_millis
                0x00800417        0x4 C:\Users\Jose\Documents\rpk2\firmwares\leoencchat\ArduinoSketch1\ArduinoSketch1\ArduinoCore\Debug\libArduinoCore.a(wiring.o)
                0x00800417                timer0_millis
 .bss.timer0_overflow_count
                0x0080041b        0x4 C:\Users\Jose\Documents\rpk2\firmwares\leoencchat\ArduinoSketch1\ArduinoSketch1\ArduinoCore\Debug\libArduinoCore.a(wiring.o)
                0x0080041b                timer0_overflow_count
 .bss.hardware_spi
                0x0080041f        0x7 C:\Users\Jose\Documents\rpk2\firmwares\leoencchat\ArduinoSketch1\ArduinoSketch1\ArduinoCore\Debug\libArduinoCore.a(RHHardwareSPI.o)
                0x0080041f                hardware_spi
 .bss._ZN7RH_RF6915_interruptCountE
                0x00800426        0x1 C:\Users\Jose\Documents\rpk2\firmwares\leoencchat\ArduinoSketch1\ArduinoSketch1\ArduinoCore\Debug\libArduinoCore.a(RH_RF69.o)
                0x00800426                _ZN7RH_RF6915_interruptCountE
 .bss._ZN7RH_RF6919_deviceForInterruptE
                0x00800427        0x6 C:\Users\Jose\Documents\rpk2\firmwares\leoencchat\ArduinoSketch1\ArduinoSketch1\ArduinoCore\Debug\libArduinoCore.a(RH_RF69.o)
                0x00800427                _ZN7RH_RF6919_deviceForInterruptE
 .bss._ZN8SPIClass13interruptSaveE
                0x0080042d        0x1 C:\Users\Jose\Documents\rpk2\firmwares\leoencchat\ArduinoSketch1\ArduinoSketch1\ArduinoCore\Debug\libArduinoCore.a(SPI.o)
                0x0080042d                _ZN8SPIClass13interruptSaveE
 .bss._ZN8SPIClass13interruptMaskE
                0x0080042e        0x1 C:\Users\Jose\Documents\rpk2\firmwares\leoencchat\ArduinoSketch1\ArduinoSketch1\ArduinoCore\Debug\libArduinoCore.a(SPI.o)
                0x0080042e                _ZN8SPIClass13interruptMaskE
 .bss._ZN8SPIClass13interruptModeE
                0x0080042f        0x1 C:\Users\Jose\Documents\rpk2\firmwares\leoencchat\ArduinoSketch1\ArduinoSketch1\ArduinoCore\Debug\libArduinoCore.a(SPI.o)
                0x0080042f                _ZN8SPIClass13interruptModeE
 .bss._ZN8SPIClass11initializedE
                0x00800430        0x1 C:\Users\Jose\Documents\rpk2\firmwares\leoencchat\ArduinoSketch1\ArduinoSketch1\ArduinoCore\Debug\libArduinoCore.a(SPI.o)
                0x00800430                _ZN8SPIClass11initializedE
 .bss.Serial    0x00800431       0x50 C:\Users\Jose\Documents\rpk2\firmwares\leoencchat\ArduinoSketch1\ArduinoSketch1\ArduinoCore\Debug\libArduinoCore.a(CDC.o)
                0x00800431                Serial
 .bss._ZL11wdtcsr_save
                0x00800481        0x1 C:\Users\Jose\Documents\rpk2\firmwares\leoencchat\ArduinoSketch1\ArduinoSketch1\ArduinoCore\Debug\libArduinoCore.a(CDC.o)
 .bss._ZZ12PluggableUSBvE3obj
                0x00800482        0x4 C:\Users\Jose\Documents\rpk2\firmwares\leoencchat\ArduinoSketch1\ArduinoSketch1\ArduinoCore\Debug\libArduinoCore.a(PluggableUSB.o)
 .bss._ZGVZ12PluggableUSBvE3obj
                0x00800486        0x8 C:\Users\Jose\Documents\rpk2\firmwares\leoencchat\ArduinoSketch1\ArduinoSketch1\ArduinoCore\Debug\libArduinoCore.a(PluggableUSB.o)
 *(COMMON)
 COMMON         0x0080048e        0x4 c:/program files (x86)/atmel/studio/7.0/toolchain/avr8/avr8-gnu-toolchain/bin/../lib/gcc/avr/5.4.0/../../../../avr/lib/avr5\libc.a(malloc.o)
                0x0080048e                __brkval
                0x00800490                __flp
                0x00800492                PROVIDE (__bss_end, .)
                0x00003852                __data_load_start = LOADADDR (.data)
                0x00003a58                __data_load_end = (__data_load_start + SIZEOF (.data))

.noinit         0x00800492        0x0
                [!provide]                PROVIDE (__noinit_start, .)
 *(.noinit*)
                [!provide]                PROVIDE (__noinit_end, .)
                0x00800492                _end = .
                0x00800492                PROVIDE (__heap_start, .)

.eeprom         0x00810000        0x0
 *(.eeprom*)
                0x00810000                __eeprom_end = .

.fuse
 *(.fuse)
 *(.lfuse)
 *(.hfuse)
 *(.efuse)

.lock
 *(.lock*)

.signature
 *(.signature*)

.user_signatures
 *(.user_signatures*)

.stab
 *(.stab)

.stabstr
 *(.stabstr)

.stab.excl
 *(.stab.excl)

.stab.exclstr
 *(.stab.exclstr)

.stab.index
 *(.stab.index)

.stab.indexstr
 *(.stab.indexstr)

.comment        0x00000000       0x30
 *(.comment)
 .comment       0x00000000       0x30 main.o
                                 0x31 (size before relaxing)
 .comment       0x00000030       0x31 C:\Users\Jose\Documents\rpk2\firmwares\leoencchat\ArduinoSketch1\ArduinoSketch1\ArduinoCore\Debug\libArduinoCore.a(HardwareSerial.o)
 .comment       0x00000030       0x31 C:\Users\Jose\Documents\rpk2\firmwares\leoencchat\ArduinoSketch1\ArduinoSketch1\ArduinoCore\Debug\libArduinoCore.a(HardwareSerial1.o)
 .comment       0x00000030       0x31 C:\Users\Jose\Documents\rpk2\firmwares\leoencchat\ArduinoSketch1\ArduinoSketch1\ArduinoCore\Debug\libArduinoCore.a(main.o)
 .comment       0x00000030       0x31 C:\Users\Jose\Documents\rpk2\firmwares\leoencchat\ArduinoSketch1\ArduinoSketch1\ArduinoCore\Debug\libArduinoCore.a(Print.o)
 .comment       0x00000030       0x31 C:\Users\Jose\Documents\rpk2\firmwares\leoencchat\ArduinoSketch1\ArduinoSketch1\ArduinoCore\Debug\libArduinoCore.a(USBCore.o)
 .comment       0x00000030       0x31 C:\Users\Jose\Documents\rpk2\firmwares\leoencchat\ArduinoSketch1\ArduinoSketch1\ArduinoCore\Debug\libArduinoCore.a(wiring.o)
 .comment       0x00000030       0x31 C:\Users\Jose\Documents\rpk2\firmwares\leoencchat\ArduinoSketch1\ArduinoSketch1\ArduinoCore\Debug\libArduinoCore.a(wiring_digital.o)
 .comment       0x00000030       0x31 C:\Users\Jose\Documents\rpk2\firmwares\leoencchat\ArduinoSketch1\ArduinoSketch1\ArduinoCore\Debug\libArduinoCore.a(WString.o)
 .comment       0x00000030       0x31 C:\Users\Jose\Documents\rpk2\firmwares\leoencchat\ArduinoSketch1\ArduinoSketch1\ArduinoCore\Debug\libArduinoCore.a(RHGenericDriver.o)
 .comment       0x00000030       0x31 C:\Users\Jose\Documents\rpk2\firmwares\leoencchat\ArduinoSketch1\ArduinoSketch1\ArduinoCore\Debug\libArduinoCore.a(RHHardwareSPI.o)
 .comment       0x00000030       0x31 C:\Users\Jose\Documents\rpk2\firmwares\leoencchat\ArduinoSketch1\ArduinoSketch1\ArduinoCore\Debug\libArduinoCore.a(RH_RF69.o)
 .comment       0x00000030       0x31 C:\Users\Jose\Documents\rpk2\firmwares\leoencchat\ArduinoSketch1\ArduinoSketch1\ArduinoCore\Debug\libArduinoCore.a(SPI.o)
 .comment       0x00000030       0x31 C:\Users\Jose\Documents\rpk2\firmwares\leoencchat\ArduinoSketch1\ArduinoSketch1\ArduinoCore\Debug\libArduinoCore.a(abi.o)
 .comment       0x00000030       0x31 C:\Users\Jose\Documents\rpk2\firmwares\leoencchat\ArduinoSketch1\ArduinoSketch1\ArduinoCore\Debug\libArduinoCore.a(CDC.o)
 .comment       0x00000030       0x31 C:\Users\Jose\Documents\rpk2\firmwares\leoencchat\ArduinoSketch1\ArduinoSketch1\ArduinoCore\Debug\libArduinoCore.a(hooks.o)
 .comment       0x00000030       0x31 C:\Users\Jose\Documents\rpk2\firmwares\leoencchat\ArduinoSketch1\ArduinoSketch1\ArduinoCore\Debug\libArduinoCore.a(PluggableUSB.o)
 .comment       0x00000030       0x31 C:\Users\Jose\Documents\rpk2\firmwares\leoencchat\ArduinoSketch1\ArduinoSketch1\ArduinoCore\Debug\libArduinoCore.a(WInterrupts.o)
 .comment       0x00000030       0x31 C:\Users\Jose\Documents\rpk2\firmwares\leoencchat\ArduinoSketch1\ArduinoSketch1\ArduinoCore\Debug\libArduinoCore.a(WMath.o)
 .comment       0x00000030       0x31 C:\Users\Jose\Documents\rpk2\firmwares\leoencchat\ArduinoSketch1\ArduinoSketch1\ArduinoCore\Debug\libArduinoCore.a(RHGenericSPI.o)
 .comment       0x00000030       0x31 C:\Users\Jose\Documents\rpk2\firmwares\leoencchat\ArduinoSketch1\ArduinoSketch1\ArduinoCore\Debug\libArduinoCore.a(RHSPIDriver.o)
 .comment       0x00000030       0x31 c:/program files (x86)/atmel/studio/7.0/toolchain/avr8/avr8-gnu-toolchain/bin/../lib/gcc/avr/5.4.0/../../../../avr/lib/avr5\libc.a(malloc.o)
 .comment       0x00000030       0x31 c:/program files (x86)/atmel/studio/7.0/toolchain/avr8/avr8-gnu-toolchain/bin/../lib/gcc/avr/5.4.0/../../../../avr/lib/avr5\libc.a(random.o)
 .comment       0x00000030       0x31 c:/program files (x86)/atmel/studio/7.0/toolchain/avr8/avr8-gnu-toolchain/bin/../lib/gcc/avr/5.4.0/../../../../avr/lib/avr5\libc.a(realloc.o)

.note.gnu.avr.deviceinfo
                0x00000000       0x40
 .note.gnu.avr.deviceinfo
                0x00000000       0x40 C:/Program Files (x86)/Atmel/Studio/7.0/Packs/Atmel/ATmega_DFP/1.7.374/gcc/dev/atmega32u4/avr5/crtatmega32u4.o

.note.gnu.build-id
 *(.note.gnu.build-id)

.debug
 *(.debug)

.line
 *(.line)

.debug_srcinfo
 *(.debug_srcinfo)

.debug_sfnames
 *(.debug_sfnames)

.debug_aranges  0x00000000      0xb98
 *(.debug_aranges)
 .debug_aranges
                0x00000000       0x58 main.o
 .debug_aranges
                0x00000058       0x68 C:\Users\Jose\Documents\rpk2\firmwares\leoencchat\ArduinoSketch1\ArduinoSketch1\ArduinoCore\Debug\libArduinoCore.a(HardwareSerial.o)
 .debug_aranges
                0x000000c0       0x48 C:\Users\Jose\Documents\rpk2\firmwares\leoencchat\ArduinoSketch1\ArduinoSketch1\ArduinoCore\Debug\libArduinoCore.a(HardwareSerial1.o)
 .debug_aranges
                0x00000108       0x30 C:\Users\Jose\Documents\rpk2\firmwares\leoencchat\ArduinoSketch1\ArduinoSketch1\ArduinoCore\Debug\libArduinoCore.a(main.o)
 .debug_aranges
                0x00000138      0x100 C:\Users\Jose\Documents\rpk2\firmwares\leoencchat\ArduinoSketch1\ArduinoSketch1\ArduinoCore\Debug\libArduinoCore.a(Print.o)
 .debug_aranges
                0x00000238       0xe0 C:\Users\Jose\Documents\rpk2\firmwares\leoencchat\ArduinoSketch1\ArduinoSketch1\ArduinoCore\Debug\libArduinoCore.a(USBCore.o)
 .debug_aranges
                0x00000318       0x48 C:\Users\Jose\Documents\rpk2\firmwares\leoencchat\ArduinoSketch1\ArduinoSketch1\ArduinoCore\Debug\libArduinoCore.a(wiring.o)
 .debug_aranges
                0x00000360       0x38 C:\Users\Jose\Documents\rpk2\firmwares\leoencchat\ArduinoSketch1\ArduinoSketch1\ArduinoCore\Debug\libArduinoCore.a(wiring_digital.o)
 .debug_aranges
                0x00000398      0x2b8 C:\Users\Jose\Documents\rpk2\firmwares\leoencchat\ArduinoSketch1\ArduinoSketch1\ArduinoCore\Debug\libArduinoCore.a(WString.o)
 .debug_aranges
                0x00000650       0xe8 C:\Users\Jose\Documents\rpk2\firmwares\leoencchat\ArduinoSketch1\ArduinoSketch1\ArduinoCore\Debug\libArduinoCore.a(RHGenericDriver.o)
 .debug_aranges
                0x00000738       0x68 C:\Users\Jose\Documents\rpk2\firmwares\leoencchat\ArduinoSketch1\ArduinoSketch1\ArduinoCore\Debug\libArduinoCore.a(RHHardwareSPI.o)
 .debug_aranges
                0x000007a0      0x100 C:\Users\Jose\Documents\rpk2\firmwares\leoencchat\ArduinoSketch1\ArduinoSketch1\ArduinoCore\Debug\libArduinoCore.a(RH_RF69.o)
 .debug_aranges
                0x000008a0       0x38 C:\Users\Jose\Documents\rpk2\firmwares\leoencchat\ArduinoSketch1\ArduinoSketch1\ArduinoCore\Debug\libArduinoCore.a(SPI.o)
 .debug_aranges
                0x000008d8       0x20 C:\Users\Jose\Documents\rpk2\firmwares\leoencchat\ArduinoSketch1\ArduinoSketch1\ArduinoCore\Debug\libArduinoCore.a(abi.o)
 .debug_aranges
                0x000008f8       0xd8 C:\Users\Jose\Documents\rpk2\firmwares\leoencchat\ArduinoSketch1\ArduinoSketch1\ArduinoCore\Debug\libArduinoCore.a(CDC.o)
 .debug_aranges
                0x000009d0       0x20 C:\Users\Jose\Documents\rpk2\firmwares\leoencchat\ArduinoSketch1\ArduinoSketch1\ArduinoCore\Debug\libArduinoCore.a(hooks.o)
 .debug_aranges
                0x000009f0       0x50 C:\Users\Jose\Documents\rpk2\firmwares\leoencchat\ArduinoSketch1\ArduinoSketch1\ArduinoCore\Debug\libArduinoCore.a(PluggableUSB.o)
 .debug_aranges
                0x00000a40       0x58 C:\Users\Jose\Documents\rpk2\firmwares\leoencchat\ArduinoSketch1\ArduinoSketch1\ArduinoCore\Debug\libArduinoCore.a(WInterrupts.o)
 .debug_aranges
                0x00000a98       0x48 C:\Users\Jose\Documents\rpk2\firmwares\leoencchat\ArduinoSketch1\ArduinoSketch1\ArduinoCore\Debug\libArduinoCore.a(WMath.o)
 .debug_aranges
                0x00000ae0       0x60 C:\Users\Jose\Documents\rpk2\firmwares\leoencchat\ArduinoSketch1\ArduinoSketch1\ArduinoCore\Debug\libArduinoCore.a(RHGenericSPI.o)
 .debug_aranges
                0x00000b40       0x58 C:\Users\Jose\Documents\rpk2\firmwares\leoencchat\ArduinoSketch1\ArduinoSketch1\ArduinoCore\Debug\libArduinoCore.a(RHSPIDriver.o)

.debug_pubnames
 *(.debug_pubnames)

.debug_info     0x00000000    0x1843e
 *(.debug_info .gnu.linkonce.wi.*)
 .debug_info    0x00000000      0x9f4 C:/Program Files (x86)/Atmel/Studio/7.0/Packs/Atmel/ATmega_DFP/1.7.374/gcc/dev/atmega32u4/avr5/crtatmega32u4.o
 .debug_info    0x000009f4     0x24ce main.o
 .debug_info    0x00002ec2     0x1f92 C:\Users\Jose\Documents\rpk2\firmwares\leoencchat\ArduinoSketch1\ArduinoSketch1\ArduinoCore\Debug\libArduinoCore.a(HardwareSerial.o)
 .debug_info    0x00004e54     0x1b44 C:\Users\Jose\Documents\rpk2\firmwares\leoencchat\ArduinoSketch1\ArduinoSketch1\ArduinoCore\Debug\libArduinoCore.a(HardwareSerial1.o)
 .debug_info    0x00006998      0x35a C:\Users\Jose\Documents\rpk2\firmwares\leoencchat\ArduinoSketch1\ArduinoSketch1\ArduinoCore\Debug\libArduinoCore.a(main.o)
 .debug_info    0x00006cf2     0x292d C:\Users\Jose\Documents\rpk2\firmwares\leoencchat\ArduinoSketch1\ArduinoSketch1\ArduinoCore\Debug\libArduinoCore.a(Print.o)
 .debug_info    0x0000961f     0x1a3a C:\Users\Jose\Documents\rpk2\firmwares\leoencchat\ArduinoSketch1\ArduinoSketch1\ArduinoCore\Debug\libArduinoCore.a(USBCore.o)
 .debug_info    0x0000b059      0x2f9 C:\Users\Jose\Documents\rpk2\firmwares\leoencchat\ArduinoSketch1\ArduinoSketch1\ArduinoCore\Debug\libArduinoCore.a(wiring.o)
 .debug_info    0x0000b352      0x633 C:\Users\Jose\Documents\rpk2\firmwares\leoencchat\ArduinoSketch1\ArduinoSketch1\ArduinoCore\Debug\libArduinoCore.a(wiring_digital.o)
 .debug_info    0x0000b985     0x4338 C:\Users\Jose\Documents\rpk2\firmwares\leoencchat\ArduinoSketch1\ArduinoSketch1\ArduinoCore\Debug\libArduinoCore.a(WString.o)
 .debug_info    0x0000fcbd     0x1038 C:\Users\Jose\Documents\rpk2\firmwares\leoencchat\ArduinoSketch1\ArduinoSketch1\ArduinoCore\Debug\libArduinoCore.a(RHGenericDriver.o)
 .debug_info    0x00010cf5      0xc1f C:\Users\Jose\Documents\rpk2\firmwares\leoencchat\ArduinoSketch1\ArduinoSketch1\ArduinoCore\Debug\libArduinoCore.a(RHHardwareSPI.o)
 .debug_info    0x00011914     0x1db3 C:\Users\Jose\Documents\rpk2\firmwares\leoencchat\ArduinoSketch1\ArduinoSketch1\ArduinoCore\Debug\libArduinoCore.a(RH_RF69.o)
 .debug_info    0x000136c7      0x699 C:\Users\Jose\Documents\rpk2\firmwares\leoencchat\ArduinoSketch1\ArduinoSketch1\ArduinoCore\Debug\libArduinoCore.a(SPI.o)
 .debug_info    0x00013d60       0x76 C:\Users\Jose\Documents\rpk2\firmwares\leoencchat\ArduinoSketch1\ArduinoSketch1\ArduinoCore\Debug\libArduinoCore.a(abi.o)
 .debug_info    0x00013dd6     0x29f0 C:\Users\Jose\Documents\rpk2\firmwares\leoencchat\ArduinoSketch1\ArduinoSketch1\ArduinoCore\Debug\libArduinoCore.a(CDC.o)
 .debug_info    0x000167c6       0x3e C:\Users\Jose\Documents\rpk2\firmwares\leoencchat\ArduinoSketch1\ArduinoSketch1\ArduinoCore\Debug\libArduinoCore.a(hooks.o)
 .debug_info    0x00016804      0x79f C:\Users\Jose\Documents\rpk2\firmwares\leoencchat\ArduinoSketch1\ArduinoSketch1\ArduinoCore\Debug\libArduinoCore.a(PluggableUSB.o)
 .debug_info    0x00016fa3      0x28c C:\Users\Jose\Documents\rpk2\firmwares\leoencchat\ArduinoSketch1\ArduinoSketch1\ArduinoCore\Debug\libArduinoCore.a(WInterrupts.o)
 .debug_info    0x0001722f      0x230 C:\Users\Jose\Documents\rpk2\firmwares\leoencchat\ArduinoSketch1\ArduinoSketch1\ArduinoCore\Debug\libArduinoCore.a(WMath.o)
 .debug_info    0x0001745f      0x6c4 C:\Users\Jose\Documents\rpk2\firmwares\leoencchat\ArduinoSketch1\ArduinoSketch1\ArduinoCore\Debug\libArduinoCore.a(RHGenericSPI.o)
 .debug_info    0x00017b23      0x91b C:\Users\Jose\Documents\rpk2\firmwares\leoencchat\ArduinoSketch1\ArduinoSketch1\ArduinoCore\Debug\libArduinoCore.a(RHSPIDriver.o)

.debug_abbrev   0x00000000     0x49ca
 *(.debug_abbrev)
 .debug_abbrev  0x00000000      0x96a C:/Program Files (x86)/Atmel/Studio/7.0/Packs/Atmel/ATmega_DFP/1.7.374/gcc/dev/atmega32u4/avr5/crtatmega32u4.o
 .debug_abbrev  0x0000096a      0x470 main.o
 .debug_abbrev  0x00000dda      0x4b7 C:\Users\Jose\Documents\rpk2\firmwares\leoencchat\ArduinoSketch1\ArduinoSketch1\ArduinoCore\Debug\libArduinoCore.a(HardwareSerial.o)
 .debug_abbrev  0x00001291      0x3ce C:\Users\Jose\Documents\rpk2\firmwares\leoencchat\ArduinoSketch1\ArduinoSketch1\ArduinoCore\Debug\libArduinoCore.a(HardwareSerial1.o)
 .debug_abbrev  0x0000165f      0x19a C:\Users\Jose\Documents\rpk2\firmwares\leoencchat\ArduinoSketch1\ArduinoSketch1\ArduinoCore\Debug\libArduinoCore.a(main.o)
 .debug_abbrev  0x000017f9      0x47a C:\Users\Jose\Documents\rpk2\firmwares\leoencchat\ArduinoSketch1\ArduinoSketch1\ArduinoCore\Debug\libArduinoCore.a(Print.o)
 .debug_abbrev  0x00001c73      0x5e0 C:\Users\Jose\Documents\rpk2\firmwares\leoencchat\ArduinoSketch1\ArduinoSketch1\ArduinoCore\Debug\libArduinoCore.a(USBCore.o)
 .debug_abbrev  0x00002253      0x146 C:\Users\Jose\Documents\rpk2\firmwares\leoencchat\ArduinoSketch1\ArduinoSketch1\ArduinoCore\Debug\libArduinoCore.a(wiring.o)
 .debug_abbrev  0x00002399      0x15a C:\Users\Jose\Documents\rpk2\firmwares\leoencchat\ArduinoSketch1\ArduinoSketch1\ArduinoCore\Debug\libArduinoCore.a(wiring_digital.o)
 .debug_abbrev  0x000024f3      0x4c2 C:\Users\Jose\Documents\rpk2\firmwares\leoencchat\ArduinoSketch1\ArduinoSketch1\ArduinoCore\Debug\libArduinoCore.a(WString.o)
 .debug_abbrev  0x000029b5      0x36b C:\Users\Jose\Documents\rpk2\firmwares\leoencchat\ArduinoSketch1\ArduinoSketch1\ArduinoCore\Debug\libArduinoCore.a(RHGenericDriver.o)
 .debug_abbrev  0x00002d20      0x44b C:\Users\Jose\Documents\rpk2\firmwares\leoencchat\ArduinoSketch1\ArduinoSketch1\ArduinoCore\Debug\libArduinoCore.a(RHHardwareSPI.o)
 .debug_abbrev  0x0000316b      0x572 C:\Users\Jose\Documents\rpk2\firmwares\leoencchat\ArduinoSketch1\ArduinoSketch1\ArduinoCore\Debug\libArduinoCore.a(RH_RF69.o)
 .debug_abbrev  0x000036dd      0x283 C:\Users\Jose\Documents\rpk2\firmwares\leoencchat\ArduinoSketch1\ArduinoSketch1\ArduinoCore\Debug\libArduinoCore.a(SPI.o)
 .debug_abbrev  0x00003960       0x6d C:\Users\Jose\Documents\rpk2\firmwares\leoencchat\ArduinoSketch1\ArduinoSketch1\ArduinoCore\Debug\libArduinoCore.a(abi.o)
 .debug_abbrev  0x000039cd      0x602 C:\Users\Jose\Documents\rpk2\firmwares\leoencchat\ArduinoSketch1\ArduinoSketch1\ArduinoCore\Debug\libArduinoCore.a(CDC.o)
 .debug_abbrev  0x00003fcf       0x2a C:\Users\Jose\Documents\rpk2\firmwares\leoencchat\ArduinoSketch1\ArduinoSketch1\ArduinoCore\Debug\libArduinoCore.a(hooks.o)
 .debug_abbrev  0x00003ff9      0x2c5 C:\Users\Jose\Documents\rpk2\firmwares\leoencchat\ArduinoSketch1\ArduinoSketch1\ArduinoCore\Debug\libArduinoCore.a(PluggableUSB.o)
 .debug_abbrev  0x000042be       0xed C:\Users\Jose\Documents\rpk2\firmwares\leoencchat\ArduinoSketch1\ArduinoSketch1\ArduinoCore\Debug\libArduinoCore.a(WInterrupts.o)
 .debug_abbrev  0x000043ab      0x12b C:\Users\Jose\Documents\rpk2\firmwares\leoencchat\ArduinoSketch1\ArduinoSketch1\ArduinoCore\Debug\libArduinoCore.a(WMath.o)
 .debug_abbrev  0x000044d6      0x213 C:\Users\Jose\Documents\rpk2\firmwares\leoencchat\ArduinoSketch1\ArduinoSketch1\ArduinoCore\Debug\libArduinoCore.a(RHGenericSPI.o)
 .debug_abbrev  0x000046e9      0x2e1 C:\Users\Jose\Documents\rpk2\firmwares\leoencchat\ArduinoSketch1\ArduinoSketch1\ArduinoCore\Debug\libArduinoCore.a(RHSPIDriver.o)

.debug_line     0x00000000     0x6221
 *(.debug_line .debug_line.* .debug_line_end)
 .debug_line    0x00000000      0x19a C:/Program Files (x86)/Atmel/Studio/7.0/Packs/Atmel/ATmega_DFP/1.7.374/gcc/dev/atmega32u4/avr5/crtatmega32u4.o
 .debug_line    0x0000019a      0x4af main.o
 .debug_line    0x00000649      0x4c4 C:\Users\Jose\Documents\rpk2\firmwares\leoencchat\ArduinoSketch1\ArduinoSketch1\ArduinoCore\Debug\libArduinoCore.a(HardwareSerial.o)
 .debug_line    0x00000b0d      0x28c C:\Users\Jose\Documents\rpk2\firmwares\leoencchat\ArduinoSketch1\ArduinoSketch1\ArduinoCore\Debug\libArduinoCore.a(HardwareSerial1.o)
 .debug_line    0x00000d99      0x177 C:\Users\Jose\Documents\rpk2\firmwares\leoencchat\ArduinoSketch1\ArduinoSketch1\ArduinoCore\Debug\libArduinoCore.a(main.o)
 .debug_line    0x00000f10      0x685 C:\Users\Jose\Documents\rpk2\firmwares\leoencchat\ArduinoSketch1\ArduinoSketch1\ArduinoCore\Debug\libArduinoCore.a(Print.o)
 .debug_line    0x00001595      0x9e7 C:\Users\Jose\Documents\rpk2\firmwares\leoencchat\ArduinoSketch1\ArduinoSketch1\ArduinoCore\Debug\libArduinoCore.a(USBCore.o)
 .debug_line    0x00001f7c      0x2bd C:\Users\Jose\Documents\rpk2\firmwares\leoencchat\ArduinoSketch1\ArduinoSketch1\ArduinoCore\Debug\libArduinoCore.a(wiring.o)
 .debug_line    0x00002239      0x26a C:\Users\Jose\Documents\rpk2\firmwares\leoencchat\ArduinoSketch1\ArduinoSketch1\ArduinoCore\Debug\libArduinoCore.a(wiring_digital.o)
 .debug_line    0x000024a3     0x1360 C:\Users\Jose\Documents\rpk2\firmwares\leoencchat\ArduinoSketch1\ArduinoSketch1\ArduinoCore\Debug\libArduinoCore.a(WString.o)
 .debug_line    0x00003803      0x533 C:\Users\Jose\Documents\rpk2\firmwares\leoencchat\ArduinoSketch1\ArduinoSketch1\ArduinoCore\Debug\libArduinoCore.a(RHGenericDriver.o)
 .debug_line    0x00003d36      0x3ed C:\Users\Jose\Documents\rpk2\firmwares\leoencchat\ArduinoSketch1\ArduinoSketch1\ArduinoCore\Debug\libArduinoCore.a(RHHardwareSPI.o)
 .debug_line    0x00004123      0xaa0 C:\Users\Jose\Documents\rpk2\firmwares\leoencchat\ArduinoSketch1\ArduinoSketch1\ArduinoCore\Debug\libArduinoCore.a(RH_RF69.o)
 .debug_line    0x00004bc3      0x2e3 C:\Users\Jose\Documents\rpk2\firmwares\leoencchat\ArduinoSketch1\ArduinoSketch1\ArduinoCore\Debug\libArduinoCore.a(SPI.o)
 .debug_line    0x00004ea6       0xa9 C:\Users\Jose\Documents\rpk2\firmwares\leoencchat\ArduinoSketch1\ArduinoSketch1\ArduinoCore\Debug\libArduinoCore.a(abi.o)
 .debug_line    0x00004f4f      0x68b C:\Users\Jose\Documents\rpk2\firmwares\leoencchat\ArduinoSketch1\ArduinoSketch1\ArduinoCore\Debug\libArduinoCore.a(CDC.o)
 .debug_line    0x000055da       0x41 C:\Users\Jose\Documents\rpk2\firmwares\leoencchat\ArduinoSketch1\ArduinoSketch1\ArduinoCore\Debug\libArduinoCore.a(hooks.o)
 .debug_line    0x0000561b      0x2de C:\Users\Jose\Documents\rpk2\firmwares\leoencchat\ArduinoSketch1\ArduinoSketch1\ArduinoCore\Debug\libArduinoCore.a(PluggableUSB.o)
 .debug_line    0x000058f9      0x240 C:\Users\Jose\Documents\rpk2\firmwares\leoencchat\ArduinoSketch1\ArduinoSketch1\ArduinoCore\Debug\libArduinoCore.a(WInterrupts.o)
 .debug_line    0x00005b39      0x143 C:\Users\Jose\Documents\rpk2\firmwares\leoencchat\ArduinoSketch1\ArduinoSketch1\ArduinoCore\Debug\libArduinoCore.a(WMath.o)
 .debug_line    0x00005c7c      0x1da C:\Users\Jose\Documents\rpk2\firmwares\leoencchat\ArduinoSketch1\ArduinoSketch1\ArduinoCore\Debug\libArduinoCore.a(RHGenericSPI.o)
 .debug_line    0x00005e56      0x3cb C:\Users\Jose\Documents\rpk2\firmwares\leoencchat\ArduinoSketch1\ArduinoSketch1\ArduinoCore\Debug\libArduinoCore.a(RHSPIDriver.o)

.debug_frame    0x00000000     0x2590
 *(.debug_frame)
 .debug_frame   0x00000000      0x108 main.o
 .debug_frame   0x00000108      0x110 C:\Users\Jose\Documents\rpk2\firmwares\leoencchat\ArduinoSketch1\ArduinoSketch1\ArduinoCore\Debug\libArduinoCore.a(HardwareSerial.o)
 .debug_frame   0x00000218       0xe0 C:\Users\Jose\Documents\rpk2\firmwares\leoencchat\ArduinoSketch1\ArduinoSketch1\ArduinoCore\Debug\libArduinoCore.a(HardwareSerial1.o)
 .debug_frame   0x000002f8       0x54 C:\Users\Jose\Documents\rpk2\firmwares\leoencchat\ArduinoSketch1\ArduinoSketch1\ArduinoCore\Debug\libArduinoCore.a(main.o)
 .debug_frame   0x0000034c      0x3ac C:\Users\Jose\Documents\rpk2\firmwares\leoencchat\ArduinoSketch1\ArduinoSketch1\ArduinoCore\Debug\libArduinoCore.a(Print.o)
 .debug_frame   0x000006f8      0x3ac C:\Users\Jose\Documents\rpk2\firmwares\leoencchat\ArduinoSketch1\ArduinoSketch1\ArduinoCore\Debug\libArduinoCore.a(USBCore.o)
 .debug_frame   0x00000aa4       0xc4 C:\Users\Jose\Documents\rpk2\firmwares\leoencchat\ArduinoSketch1\ArduinoSketch1\ArduinoCore\Debug\libArduinoCore.a(wiring.o)
 .debug_frame   0x00000b68       0x7c C:\Users\Jose\Documents\rpk2\firmwares\leoencchat\ArduinoSketch1\ArduinoSketch1\ArduinoCore\Debug\libArduinoCore.a(wiring_digital.o)
 .debug_frame   0x00000be4      0xa60 C:\Users\Jose\Documents\rpk2\firmwares\leoencchat\ArduinoSketch1\ArduinoSketch1\ArduinoCore\Debug\libArduinoCore.a(WString.o)
 .debug_frame   0x00001644      0x270 C:\Users\Jose\Documents\rpk2\firmwares\leoencchat\ArduinoSketch1\ArduinoSketch1\ArduinoCore\Debug\libArduinoCore.a(RHGenericDriver.o)
 .debug_frame   0x000018b4       0xcc C:\Users\Jose\Documents\rpk2\firmwares\leoencchat\ArduinoSketch1\ArduinoSketch1\ArduinoCore\Debug\libArduinoCore.a(RHHardwareSPI.o)
 .debug_frame   0x00001980      0x3b8 C:\Users\Jose\Documents\rpk2\firmwares\leoencchat\ArduinoSketch1\ArduinoSketch1\ArduinoCore\Debug\libArduinoCore.a(RH_RF69.o)
 .debug_frame   0x00001d38       0x5c C:\Users\Jose\Documents\rpk2\firmwares\leoencchat\ArduinoSketch1\ArduinoSketch1\ArduinoCore\Debug\libArduinoCore.a(SPI.o)
 .debug_frame   0x00001d94       0x34 C:\Users\Jose\Documents\rpk2\firmwares\leoencchat\ArduinoSketch1\ArduinoSketch1\ArduinoCore\Debug\libArduinoCore.a(abi.o)
 .debug_frame   0x00001dc8      0x1d8 C:\Users\Jose\Documents\rpk2\firmwares\leoencchat\ArduinoSketch1\ArduinoSketch1\ArduinoCore\Debug\libArduinoCore.a(CDC.o)
 .debug_frame   0x00001fa0       0x24 C:\Users\Jose\Documents\rpk2\firmwares\leoencchat\ArduinoSketch1\ArduinoSketch1\ArduinoCore\Debug\libArduinoCore.a(hooks.o)
 .debug_frame   0x00001fc4       0xec C:\Users\Jose\Documents\rpk2\firmwares\leoencchat\ArduinoSketch1\ArduinoSketch1\ArduinoCore\Debug\libArduinoCore.a(PluggableUSB.o)
 .debug_frame   0x000020b0      0x1fc C:\Users\Jose\Documents\rpk2\firmwares\leoencchat\ArduinoSketch1\ArduinoSketch1\ArduinoCore\Debug\libArduinoCore.a(WInterrupts.o)
 .debug_frame   0x000022ac       0xf4 C:\Users\Jose\Documents\rpk2\firmwares\leoencchat\ArduinoSketch1\ArduinoSketch1\ArduinoCore\Debug\libArduinoCore.a(WMath.o)
 .debug_frame   0x000023a0       0xa4 C:\Users\Jose\Documents\rpk2\firmwares\leoencchat\ArduinoSketch1\ArduinoSketch1\ArduinoCore\Debug\libArduinoCore.a(RHGenericSPI.o)
 .debug_frame   0x00002444      0x14c C:\Users\Jose\Documents\rpk2\firmwares\leoencchat\ArduinoSketch1\ArduinoSketch1\ArduinoCore\Debug\libArduinoCore.a(RHSPIDriver.o)

.debug_str      0x00000000     0x4f2c
 *(.debug_str)
 .debug_str     0x00000000      0x371 C:/Program Files (x86)/Atmel/Studio/7.0/Packs/Atmel/ATmega_DFP/1.7.374/gcc/dev/atmega32u4/avr5/crtatmega32u4.o
 .debug_str     0x00000371     0x1523 main.o
                               0x160e (size before relaxing)
 .debug_str     0x00001894      0x3e9 C:\Users\Jose\Documents\rpk2\firmwares\leoencchat\ArduinoSketch1\ArduinoSketch1\ArduinoCore\Debug\libArduinoCore.a(HardwareSerial.o)
                               0x1624 (size before relaxing)
 .debug_str     0x00001c7d       0x86 C:\Users\Jose\Documents\rpk2\firmwares\leoencchat\ArduinoSketch1\ArduinoSketch1\ArduinoCore\Debug\libArduinoCore.a(HardwareSerial1.o)
                               0x1416 (size before relaxing)
 .debug_str     0x00001d03      0x139 C:\Users\Jose\Documents\rpk2\firmwares\leoencchat\ArduinoSketch1\ArduinoSketch1\ArduinoCore\Debug\libArduinoCore.a(main.o)
                                0x3c3 (size before relaxing)
 .debug_str     0x00001e3c      0x349 C:\Users\Jose\Documents\rpk2\firmwares\leoencchat\ArduinoSketch1\ArduinoSketch1\ArduinoCore\Debug\libArduinoCore.a(Print.o)
                               0x124f (size before relaxing)
 .debug_str     0x00002185      0x80b C:\Users\Jose\Documents\rpk2\firmwares\leoencchat\ArduinoSketch1\ArduinoSketch1\ArduinoCore\Debug\libArduinoCore.a(USBCore.o)
                                0xc83 (size before relaxing)
 .debug_str     0x00002990      0x15c C:\Users\Jose\Documents\rpk2\firmwares\leoencchat\ArduinoSketch1\ArduinoSketch1\ArduinoCore\Debug\libArduinoCore.a(wiring.o)
                                0x257 (size before relaxing)
 .debug_str     0x00002aec       0xdc C:\Users\Jose\Documents\rpk2\firmwares\leoencchat\ArduinoSketch1\ArduinoSketch1\ArduinoCore\Debug\libArduinoCore.a(wiring_digital.o)
                                0x2d6 (size before relaxing)
 .debug_str     0x00002bc8      0x3f1 C:\Users\Jose\Documents\rpk2\firmwares\leoencchat\ArduinoSketch1\ArduinoSketch1\ArduinoCore\Debug\libArduinoCore.a(WString.o)
                               0x11a2 (size before relaxing)
 .debug_str     0x00002fb9      0x6d7 C:\Users\Jose\Documents\rpk2\firmwares\leoencchat\ArduinoSketch1\ArduinoSketch1\ArduinoCore\Debug\libArduinoCore.a(RHGenericDriver.o)
                                0xabc (size before relaxing)
 .debug_str     0x00003690      0x651 C:\Users\Jose\Documents\rpk2\firmwares\leoencchat\ArduinoSketch1\ArduinoSketch1\ArduinoCore\Debug\libArduinoCore.a(RHHardwareSPI.o)
                                0x98f (size before relaxing)
 .debug_str     0x00003ce1      0x7af C:\Users\Jose\Documents\rpk2\firmwares\leoencchat\ArduinoSketch1\ArduinoSketch1\ArduinoCore\Debug\libArduinoCore.a(RH_RF69.o)
                                0xe22 (size before relaxing)
 .debug_str     0x00004490       0x94 C:\Users\Jose\Documents\rpk2\firmwares\leoencchat\ArduinoSketch1\ArduinoSketch1\ArduinoCore\Debug\libArduinoCore.a(SPI.o)
                                0x6ba (size before relaxing)
 .debug_str     0x00004524       0x30 C:\Users\Jose\Documents\rpk2\firmwares\leoencchat\ArduinoSketch1\ArduinoSketch1\ArduinoCore\Debug\libArduinoCore.a(abi.o)
                                0x1ab (size before relaxing)
 .debug_str     0x00004554      0x479 C:\Users\Jose\Documents\rpk2\firmwares\leoencchat\ArduinoSketch1\ArduinoSketch1\ArduinoCore\Debug\libArduinoCore.a(CDC.o)
                               0x1a36 (size before relaxing)
 .debug_str     0x000049cd       0x1c C:\Users\Jose\Documents\rpk2\firmwares\leoencchat\ArduinoSketch1\ArduinoSketch1\ArduinoCore\Debug\libArduinoCore.a(hooks.o)
                                0x14c (size before relaxing)
 .debug_str     0x000049e9       0x4c C:\Users\Jose\Documents\rpk2\firmwares\leoencchat\ArduinoSketch1\ArduinoSketch1\ArduinoCore\Debug\libArduinoCore.a(PluggableUSB.o)
                                0x5c8 (size before relaxing)
 .debug_str     0x00004a35       0x83 C:\Users\Jose\Documents\rpk2\firmwares\leoencchat\ArduinoSketch1\ArduinoSketch1\ArduinoCore\Debug\libArduinoCore.a(WInterrupts.o)
                                0x265 (size before relaxing)
 .debug_str     0x00004ab8       0xa7 C:\Users\Jose\Documents\rpk2\firmwares\leoencchat\ArduinoSketch1\ArduinoSketch1\ArduinoCore\Debug\libArduinoCore.a(WMath.o)
                                0x25a (size before relaxing)
 .debug_str     0x00004b5f      0x299 C:\Users\Jose\Documents\rpk2\firmwares\leoencchat\ArduinoSketch1\ArduinoSketch1\ArduinoCore\Debug\libArduinoCore.a(RHGenericSPI.o)
                                0x6bd (size before relaxing)
 .debug_str     0x00004df8      0x134 C:\Users\Jose\Documents\rpk2\firmwares\leoencchat\ArduinoSketch1\ArduinoSketch1\ArduinoCore\Debug\libArduinoCore.a(RHSPIDriver.o)
                                0x50e (size before relaxing)

.debug_loc      0x00000000     0xc0fd
 *(.debug_loc)
 .debug_loc     0x00000000      0x28f main.o
 .debug_loc     0x0000028f      0x4dc C:\Users\Jose\Documents\rpk2\firmwares\leoencchat\ArduinoSketch1\ArduinoSketch1\ArduinoCore\Debug\libArduinoCore.a(HardwareSerial.o)
 .debug_loc     0x0000076b      0x1b0 C:\Users\Jose\Documents\rpk2\firmwares\leoencchat\ArduinoSketch1\ArduinoSketch1\ArduinoCore\Debug\libArduinoCore.a(HardwareSerial1.o)
 .debug_loc     0x0000091b     0x1c87 C:\Users\Jose\Documents\rpk2\firmwares\leoencchat\ArduinoSketch1\ArduinoSketch1\ArduinoCore\Debug\libArduinoCore.a(Print.o)
 .debug_loc     0x000025a2     0x1277 C:\Users\Jose\Documents\rpk2\firmwares\leoencchat\ArduinoSketch1\ArduinoSketch1\ArduinoCore\Debug\libArduinoCore.a(USBCore.o)
 .debug_loc     0x00003819      0x28d C:\Users\Jose\Documents\rpk2\firmwares\leoencchat\ArduinoSketch1\ArduinoSketch1\ArduinoCore\Debug\libArduinoCore.a(wiring.o)
 .debug_loc     0x00003aa6      0x665 C:\Users\Jose\Documents\rpk2\firmwares\leoencchat\ArduinoSketch1\ArduinoSketch1\ArduinoCore\Debug\libArduinoCore.a(wiring_digital.o)
 .debug_loc     0x0000410b     0x423d C:\Users\Jose\Documents\rpk2\firmwares\leoencchat\ArduinoSketch1\ArduinoSketch1\ArduinoCore\Debug\libArduinoCore.a(WString.o)
 .debug_loc     0x00008348      0x758 C:\Users\Jose\Documents\rpk2\firmwares\leoencchat\ArduinoSketch1\ArduinoSketch1\ArduinoCore\Debug\libArduinoCore.a(RHGenericDriver.o)
 .debug_loc     0x00008aa0      0x398 C:\Users\Jose\Documents\rpk2\firmwares\leoencchat\ArduinoSketch1\ArduinoSketch1\ArduinoCore\Debug\libArduinoCore.a(RHHardwareSPI.o)
 .debug_loc     0x00008e38     0x1361 C:\Users\Jose\Documents\rpk2\firmwares\leoencchat\ArduinoSketch1\ArduinoSketch1\ArduinoCore\Debug\libArduinoCore.a(RH_RF69.o)
 .debug_loc     0x0000a199      0x22f C:\Users\Jose\Documents\rpk2\firmwares\leoencchat\ArduinoSketch1\ArduinoSketch1\ArduinoCore\Debug\libArduinoCore.a(SPI.o)
 .debug_loc     0x0000a3c8      0x790 C:\Users\Jose\Documents\rpk2\firmwares\leoencchat\ArduinoSketch1\ArduinoSketch1\ArduinoCore\Debug\libArduinoCore.a(CDC.o)
 .debug_loc     0x0000ab58      0x445 C:\Users\Jose\Documents\rpk2\firmwares\leoencchat\ArduinoSketch1\ArduinoSketch1\ArduinoCore\Debug\libArduinoCore.a(PluggableUSB.o)
 .debug_loc     0x0000af9d      0x57d C:\Users\Jose\Documents\rpk2\firmwares\leoencchat\ArduinoSketch1\ArduinoSketch1\ArduinoCore\Debug\libArduinoCore.a(WInterrupts.o)
 .debug_loc     0x0000b51a      0x3d6 C:\Users\Jose\Documents\rpk2\firmwares\leoencchat\ArduinoSketch1\ArduinoSketch1\ArduinoCore\Debug\libArduinoCore.a(WMath.o)
 .debug_loc     0x0000b8f0       0x28 C:\Users\Jose\Documents\rpk2\firmwares\leoencchat\ArduinoSketch1\ArduinoSketch1\ArduinoCore\Debug\libArduinoCore.a(RHGenericSPI.o)
 .debug_loc     0x0000b918      0x7e5 C:\Users\Jose\Documents\rpk2\firmwares\leoencchat\ArduinoSketch1\ArduinoSketch1\ArduinoCore\Debug\libArduinoCore.a(RHSPIDriver.o)

.debug_macinfo
 *(.debug_macinfo)

.debug_weaknames
 *(.debug_weaknames)

.debug_funcnames
 *(.debug_funcnames)

.debug_typenames
 *(.debug_typenames)

.debug_varnames
 *(.debug_varnames)

.debug_pubtypes
 *(.debug_pubtypes)

.debug_ranges   0x00000000      0xc68
 *(.debug_ranges)
 .debug_ranges  0x00000000       0x80 main.o
 .debug_ranges  0x00000080       0x58 C:\Users\Jose\Documents\rpk2\firmwares\leoencchat\ArduinoSketch1\ArduinoSketch1\ArduinoCore\Debug\libArduinoCore.a(HardwareSerial.o)
 .debug_ranges  0x000000d8       0x38 C:\Users\Jose\Documents\rpk2\firmwares\leoencchat\ArduinoSketch1\ArduinoSketch1\ArduinoCore\Debug\libArduinoCore.a(HardwareSerial1.o)
 .debug_ranges  0x00000110       0x20 C:\Users\Jose\Documents\rpk2\firmwares\leoencchat\ArduinoSketch1\ArduinoSketch1\ArduinoCore\Debug\libArduinoCore.a(main.o)
 .debug_ranges  0x00000130      0x120 C:\Users\Jose\Documents\rpk2\firmwares\leoencchat\ArduinoSketch1\ArduinoSketch1\ArduinoCore\Debug\libArduinoCore.a(Print.o)
 .debug_ranges  0x00000250      0x1c0 C:\Users\Jose\Documents\rpk2\firmwares\leoencchat\ArduinoSketch1\ArduinoSketch1\ArduinoCore\Debug\libArduinoCore.a(USBCore.o)
 .debug_ranges  0x00000410       0x38 C:\Users\Jose\Documents\rpk2\firmwares\leoencchat\ArduinoSketch1\ArduinoSketch1\ArduinoCore\Debug\libArduinoCore.a(wiring.o)
 .debug_ranges  0x00000448       0x28 C:\Users\Jose\Documents\rpk2\firmwares\leoencchat\ArduinoSketch1\ArduinoSketch1\ArduinoCore\Debug\libArduinoCore.a(wiring_digital.o)
 .debug_ranges  0x00000470      0x2f8 C:\Users\Jose\Documents\rpk2\firmwares\leoencchat\ArduinoSketch1\ArduinoSketch1\ArduinoCore\Debug\libArduinoCore.a(WString.o)
 .debug_ranges  0x00000768       0xf0 C:\Users\Jose\Documents\rpk2\firmwares\leoencchat\ArduinoSketch1\ArduinoSketch1\ArduinoCore\Debug\libArduinoCore.a(RHGenericDriver.o)
 .debug_ranges  0x00000858       0x58 C:\Users\Jose\Documents\rpk2\firmwares\leoencchat\ArduinoSketch1\ArduinoSketch1\ArduinoCore\Debug\libArduinoCore.a(RHHardwareSPI.o)
 .debug_ranges  0x000008b0      0x120 C:\Users\Jose\Documents\rpk2\firmwares\leoencchat\ArduinoSketch1\ArduinoSketch1\ArduinoCore\Debug\libArduinoCore.a(RH_RF69.o)
 .debug_ranges  0x000009d0       0x28 C:\Users\Jose\Documents\rpk2\firmwares\leoencchat\ArduinoSketch1\ArduinoSketch1\ArduinoCore\Debug\libArduinoCore.a(SPI.o)
 .debug_ranges  0x000009f8       0x10 C:\Users\Jose\Documents\rpk2\firmwares\leoencchat\ArduinoSketch1\ArduinoSketch1\ArduinoCore\Debug\libArduinoCore.a(abi.o)
 .debug_ranges  0x00000a08       0xe0 C:\Users\Jose\Documents\rpk2\firmwares\leoencchat\ArduinoSketch1\ArduinoSketch1\ArduinoCore\Debug\libArduinoCore.a(CDC.o)
 .debug_ranges  0x00000ae8       0x10 C:\Users\Jose\Documents\rpk2\firmwares\leoencchat\ArduinoSketch1\ArduinoSketch1\ArduinoCore\Debug\libArduinoCore.a(hooks.o)
 .debug_ranges  0x00000af8       0x58 C:\Users\Jose\Documents\rpk2\firmwares\leoencchat\ArduinoSketch1\ArduinoSketch1\ArduinoCore\Debug\libArduinoCore.a(PluggableUSB.o)
 .debug_ranges  0x00000b50       0x48 C:\Users\Jose\Documents\rpk2\firmwares\leoencchat\ArduinoSketch1\ArduinoSketch1\ArduinoCore\Debug\libArduinoCore.a(WInterrupts.o)
 .debug_ranges  0x00000b98       0x38 C:\Users\Jose\Documents\rpk2\firmwares\leoencchat\ArduinoSketch1\ArduinoSketch1\ArduinoCore\Debug\libArduinoCore.a(WMath.o)
 .debug_ranges  0x00000bd0       0x50 C:\Users\Jose\Documents\rpk2\firmwares\leoencchat\ArduinoSketch1\ArduinoSketch1\ArduinoCore\Debug\libArduinoCore.a(RHGenericSPI.o)
 .debug_ranges  0x00000c20       0x48 C:\Users\Jose\Documents\rpk2\firmwares\leoencchat\ArduinoSketch1\ArduinoSketch1\ArduinoCore\Debug\libArduinoCore.a(RHSPIDriver.o)

.debug_macro
 *(.debug_macro)
OUTPUT(leoencchat.elf elf32-avr)
LOAD linker stubs
