Archive member included to satisfy reference by file (symbol)

C:\Users\Jose\DOCUME~1\rkt\rpk2\FIRMWA~1\LEOENC~1\ARDUIN~1\ARDUIN~1\ARDUIN~1\Debug\libArduinoCore.a(CDC.o)
                              Sketch.o (Serial)
C:\Users\Jose\DOCUME~1\rkt\rpk2\FIRMWA~1\LEOENC~1\ARDUIN~1\ARDUIN~1\ARDUIN~1\Debug\libArduinoCore.a(HardwareSerial.o)
                              Sketch.o (_ZN14HardwareSerial9availableEv)
C:\Users\Jose\DOCUME~1\rkt\rpk2\FIRMWA~1\LEOENC~1\ARDUIN~1\ARDUIN~1\ARDUIN~1\Debug\libArduinoCore.a(HardwareSerial1.o)
                              Sketch.o (Serial1)
C:\Users\Jose\DOCUME~1\rkt\rpk2\FIRMWA~1\LEOENC~1\ARDUIN~1\ARDUIN~1\ARDUIN~1\Debug\libArduinoCore.a(main.o)
                              C:/Program Files (x86)/Atmel/Studio/7.0/Packs/Atmel/ATmega_DFP/1.7.374/gcc/dev/atmega32u4/avr5/crtatmega32u4.o (main)
C:\Users\Jose\DOCUME~1\rkt\rpk2\FIRMWA~1\LEOENC~1\ARDUIN~1\ARDUIN~1\ARDUIN~1\Debug\libArduinoCore.a(Print.o)
                              C:\Users\Jose\DOCUME~1\rkt\rpk2\FIRMWA~1\LEOENC~1\ARDUIN~1\ARDUIN~1\ARDUIN~1\Debug\libArduinoCore.a(HardwareSerial.o) (_ZN5Print5writeEPKhj)
C:\Users\Jose\DOCUME~1\rkt\rpk2\FIRMWA~1\LEOENC~1\ARDUIN~1\ARDUIN~1\ARDUIN~1\Debug\libArduinoCore.a(Stream.o)
                              Sketch.o (_ZN6Stream10readStringEv)
C:\Users\Jose\DOCUME~1\rkt\rpk2\FIRMWA~1\LEOENC~1\ARDUIN~1\ARDUIN~1\ARDUIN~1\Debug\libArduinoCore.a(USBCore.o)
                              C:\Users\Jose\DOCUME~1\rkt\rpk2\FIRMWA~1\LEOENC~1\ARDUIN~1\ARDUIN~1\ARDUIN~1\Debug\libArduinoCore.a(CDC.o) (_Z13USB_Availableh)
C:\Users\Jose\DOCUME~1\rkt\rpk2\FIRMWA~1\LEOENC~1\ARDUIN~1\ARDUIN~1\ARDUIN~1\Debug\libArduinoCore.a(wiring.o)
                              C:\Users\Jose\DOCUME~1\rkt\rpk2\FIRMWA~1\LEOENC~1\ARDUIN~1\ARDUIN~1\ARDUIN~1\Debug\libArduinoCore.a(Stream.o) (millis)
C:\Users\Jose\DOCUME~1\rkt\rpk2\FIRMWA~1\LEOENC~1\ARDUIN~1\ARDUIN~1\ARDUIN~1\Debug\libArduinoCore.a(wiring_digital.o)
                              Sketch.o (pinMode)
C:\Users\Jose\DOCUME~1\rkt\rpk2\FIRMWA~1\LEOENC~1\ARDUIN~1\ARDUIN~1\ARDUIN~1\Debug\libArduinoCore.a(WString.o)
                              Sketch.o (_ZN6StringD1Ev)
C:\Users\Jose\DOCUME~1\rkt\rpk2\FIRMWA~1\LEOENC~1\ARDUIN~1\ARDUIN~1\ARDUIN~1\Debug\libArduinoCore.a(RHGenericDriver.o)
                              Sketch.o (_ZN15RHGenericDriver8lastRssiEv)
C:\Users\Jose\DOCUME~1\rkt\rpk2\FIRMWA~1\LEOENC~1\ARDUIN~1\ARDUIN~1\ARDUIN~1\Debug\libArduinoCore.a(RHHardwareSPI.o)
                              Sketch.o (hardware_spi)
C:\Users\Jose\DOCUME~1\rkt\rpk2\FIRMWA~1\LEOENC~1\ARDUIN~1\ARDUIN~1\ARDUIN~1\Debug\libArduinoCore.a(RH_RF69.o)
                              Sketch.o (_ZN7RH_RF694recvEPhS0_)
C:\Users\Jose\DOCUME~1\rkt\rpk2\FIRMWA~1\LEOENC~1\ARDUIN~1\ARDUIN~1\ARDUIN~1\Debug\libArduinoCore.a(SPI.o)
                              C:\Users\Jose\DOCUME~1\rkt\rpk2\FIRMWA~1\LEOENC~1\ARDUIN~1\ARDUIN~1\ARDUIN~1\Debug\libArduinoCore.a(RHHardwareSPI.o) (_ZN8SPIClass5beginEv)
C:\Users\Jose\DOCUME~1\rkt\rpk2\FIRMWA~1\LEOENC~1\ARDUIN~1\ARDUIN~1\ARDUIN~1\Debug\libArduinoCore.a(abi.o)
                              C:\Users\Jose\DOCUME~1\rkt\rpk2\FIRMWA~1\LEOENC~1\ARDUIN~1\ARDUIN~1\ARDUIN~1\Debug\libArduinoCore.a(Print.o) (__cxa_pure_virtual)
C:\Users\Jose\DOCUME~1\rkt\rpk2\FIRMWA~1\LEOENC~1\ARDUIN~1\ARDUIN~1\ARDUIN~1\Debug\libArduinoCore.a(hooks.o)
                              C:\Users\Jose\DOCUME~1\rkt\rpk2\FIRMWA~1\LEOENC~1\ARDUIN~1\ARDUIN~1\ARDUIN~1\Debug\libArduinoCore.a(wiring.o) (yield)
C:\Users\Jose\DOCUME~1\rkt\rpk2\FIRMWA~1\LEOENC~1\ARDUIN~1\ARDUIN~1\ARDUIN~1\Debug\libArduinoCore.a(PluggableUSB.o)
                              C:\Users\Jose\DOCUME~1\rkt\rpk2\FIRMWA~1\LEOENC~1\ARDUIN~1\ARDUIN~1\ARDUIN~1\Debug\libArduinoCore.a(USBCore.o) (_ZN13PluggableUSB_12getInterfaceEPh)
C:\Users\Jose\DOCUME~1\rkt\rpk2\FIRMWA~1\LEOENC~1\ARDUIN~1\ARDUIN~1\ARDUIN~1\Debug\libArduinoCore.a(WInterrupts.o)
                              C:\Users\Jose\DOCUME~1\rkt\rpk2\FIRMWA~1\LEOENC~1\ARDUIN~1\ARDUIN~1\ARDUIN~1\Debug\libArduinoCore.a(RH_RF69.o) (attachInterrupt)
C:\Users\Jose\DOCUME~1\rkt\rpk2\FIRMWA~1\LEOENC~1\ARDUIN~1\ARDUIN~1\ARDUIN~1\Debug\libArduinoCore.a(WMath.o)
                              C:\Users\Jose\DOCUME~1\rkt\rpk2\FIRMWA~1\LEOENC~1\ARDUIN~1\ARDUIN~1\ARDUIN~1\Debug\libArduinoCore.a(RHGenericDriver.o) (_Z6randomll)
C:\Users\Jose\DOCUME~1\rkt\rpk2\FIRMWA~1\LEOENC~1\ARDUIN~1\ARDUIN~1\ARDUIN~1\Debug\libArduinoCore.a(RHGenericSPI.o)
                              C:\Users\Jose\DOCUME~1\rkt\rpk2\FIRMWA~1\LEOENC~1\ARDUIN~1\ARDUIN~1\ARDUIN~1\Debug\libArduinoCore.a(RHHardwareSPI.o) (_ZN12RHGenericSPI11setBitOrderENS_8BitOrderE)
C:\Users\Jose\DOCUME~1\rkt\rpk2\FIRMWA~1\LEOENC~1\ARDUIN~1\ARDUIN~1\ARDUIN~1\Debug\libArduinoCore.a(RHSPIDriver.o)
                              C:\Users\Jose\DOCUME~1\rkt\rpk2\FIRMWA~1\LEOENC~1\ARDUIN~1\ARDUIN~1\ARDUIN~1\Debug\libArduinoCore.a(RH_RF69.o) (_ZN11RHSPIDriver4initEv)
c:/program files (x86)/atmel/studio/7.0/toolchain/avr8/avr8-gnu-toolchain/bin/../lib/gcc/avr/5.4.0/../../../../avr/lib/avr5\libm.a(addsf3.o)
                              C:\Users\Jose\DOCUME~1\rkt\rpk2\FIRMWA~1\LEOENC~1\ARDUIN~1\ARDUIN~1\ARDUIN~1\Debug\libArduinoCore.a(Print.o) (__subsf3)
c:/program files (x86)/atmel/studio/7.0/toolchain/avr8/avr8-gnu-toolchain/bin/../lib/gcc/avr/5.4.0/../../../../avr/lib/avr5\libm.a(addsf3x.o)
                              c:/program files (x86)/atmel/studio/7.0/toolchain/avr8/avr8-gnu-toolchain/bin/../lib/gcc/avr/5.4.0/../../../../avr/lib/avr5\libm.a(addsf3.o) (__addsf3x)
c:/program files (x86)/atmel/studio/7.0/toolchain/avr8/avr8-gnu-toolchain/bin/../lib/gcc/avr/5.4.0/../../../../avr/lib/avr5\libm.a(cmpsf2.o)
                              C:\Users\Jose\DOCUME~1\rkt\rpk2\FIRMWA~1\LEOENC~1\ARDUIN~1\ARDUIN~1\ARDUIN~1\Debug\libArduinoCore.a(Print.o) (__ltsf2)
c:/program files (x86)/atmel/studio/7.0/toolchain/avr8/avr8-gnu-toolchain/bin/../lib/gcc/avr/5.4.0/../../../../avr/lib/avr5\libm.a(divsf3.o)
                              C:\Users\Jose\DOCUME~1\rkt\rpk2\FIRMWA~1\LEOENC~1\ARDUIN~1\ARDUIN~1\ARDUIN~1\Debug\libArduinoCore.a(Print.o) (__divsf3)
c:/program files (x86)/atmel/studio/7.0/toolchain/avr8/avr8-gnu-toolchain/bin/../lib/gcc/avr/5.4.0/../../../../avr/lib/avr5\libm.a(divsf3x.o)
                              c:/program files (x86)/atmel/studio/7.0/toolchain/avr8/avr8-gnu-toolchain/bin/../lib/gcc/avr/5.4.0/../../../../avr/lib/avr5\libm.a(divsf3.o) (__divsf3x)
c:/program files (x86)/atmel/studio/7.0/toolchain/avr8/avr8-gnu-toolchain/bin/../lib/gcc/avr/5.4.0/../../../../avr/lib/avr5\libm.a(fixunssfsi.o)
                              C:\Users\Jose\DOCUME~1\rkt\rpk2\FIRMWA~1\LEOENC~1\ARDUIN~1\ARDUIN~1\ARDUIN~1\Debug\libArduinoCore.a(Print.o) (__fixunssfsi)
c:/program files (x86)/atmel/studio/7.0/toolchain/avr8/avr8-gnu-toolchain/bin/../lib/gcc/avr/5.4.0/../../../../avr/lib/avr5\libm.a(floatsisf.o)
                              C:\Users\Jose\DOCUME~1\rkt\rpk2\FIRMWA~1\LEOENC~1\ARDUIN~1\ARDUIN~1\ARDUIN~1\Debug\libArduinoCore.a(Print.o) (__floatunsisf)
c:/program files (x86)/atmel/studio/7.0/toolchain/avr8/avr8-gnu-toolchain/bin/../lib/gcc/avr/5.4.0/../../../../avr/lib/avr5\libm.a(fp_cmp.o)
                              c:/program files (x86)/atmel/studio/7.0/toolchain/avr8/avr8-gnu-toolchain/bin/../lib/gcc/avr/5.4.0/../../../../avr/lib/avr5\libm.a(cmpsf2.o) (__fp_cmp)
c:/program files (x86)/atmel/studio/7.0/toolchain/avr8/avr8-gnu-toolchain/bin/../lib/gcc/avr/5.4.0/../../../../avr/lib/avr5\libm.a(fp_inf.o)
                              c:/program files (x86)/atmel/studio/7.0/toolchain/avr8/avr8-gnu-toolchain/bin/../lib/gcc/avr/5.4.0/../../../../avr/lib/avr5\libm.a(addsf3x.o) (__fp_inf)
c:/program files (x86)/atmel/studio/7.0/toolchain/avr8/avr8-gnu-toolchain/bin/../lib/gcc/avr/5.4.0/../../../../avr/lib/avr5\libm.a(fp_nan.o)
                              c:/program files (x86)/atmel/studio/7.0/toolchain/avr8/avr8-gnu-toolchain/bin/../lib/gcc/avr/5.4.0/../../../../avr/lib/avr5\libm.a(addsf3x.o) (__fp_nan)
c:/program files (x86)/atmel/studio/7.0/toolchain/avr8/avr8-gnu-toolchain/bin/../lib/gcc/avr/5.4.0/../../../../avr/lib/avr5\libm.a(fp_pscA.o)
                              c:/program files (x86)/atmel/studio/7.0/toolchain/avr8/avr8-gnu-toolchain/bin/../lib/gcc/avr/5.4.0/../../../../avr/lib/avr5\libm.a(addsf3x.o) (__fp_pscA)
c:/program files (x86)/atmel/studio/7.0/toolchain/avr8/avr8-gnu-toolchain/bin/../lib/gcc/avr/5.4.0/../../../../avr/lib/avr5\libm.a(fp_pscB.o)
                              c:/program files (x86)/atmel/studio/7.0/toolchain/avr8/avr8-gnu-toolchain/bin/../lib/gcc/avr/5.4.0/../../../../avr/lib/avr5\libm.a(addsf3x.o) (__fp_pscB)
c:/program files (x86)/atmel/studio/7.0/toolchain/avr8/avr8-gnu-toolchain/bin/../lib/gcc/avr/5.4.0/../../../../avr/lib/avr5\libm.a(fp_round.o)
                              c:/program files (x86)/atmel/studio/7.0/toolchain/avr8/avr8-gnu-toolchain/bin/../lib/gcc/avr/5.4.0/../../../../avr/lib/avr5\libm.a(addsf3.o) (__fp_round)
c:/program files (x86)/atmel/studio/7.0/toolchain/avr8/avr8-gnu-toolchain/bin/../lib/gcc/avr/5.4.0/../../../../avr/lib/avr5\libm.a(fp_split3.o)
                              c:/program files (x86)/atmel/studio/7.0/toolchain/avr8/avr8-gnu-toolchain/bin/../lib/gcc/avr/5.4.0/../../../../avr/lib/avr5\libm.a(addsf3x.o) (__fp_split3)
c:/program files (x86)/atmel/studio/7.0/toolchain/avr8/avr8-gnu-toolchain/bin/../lib/gcc/avr/5.4.0/../../../../avr/lib/avr5\libm.a(fp_zero.o)
                              c:/program files (x86)/atmel/studio/7.0/toolchain/avr8/avr8-gnu-toolchain/bin/../lib/gcc/avr/5.4.0/../../../../avr/lib/avr5\libm.a(addsf3x.o) (__fp_zero)
c:/program files (x86)/atmel/studio/7.0/toolchain/avr8/avr8-gnu-toolchain/bin/../lib/gcc/avr/5.4.0/../../../../avr/lib/avr5\libm.a(gesf2.o)
                              C:\Users\Jose\DOCUME~1\rkt\rpk2\FIRMWA~1\LEOENC~1\ARDUIN~1\ARDUIN~1\ARDUIN~1\Debug\libArduinoCore.a(Print.o) (__gtsf2)
c:/program files (x86)/atmel/studio/7.0/toolchain/avr8/avr8-gnu-toolchain/bin/../lib/gcc/avr/5.4.0/../../../../avr/lib/avr5\libm.a(mulsf3.o)
                              C:\Users\Jose\DOCUME~1\rkt\rpk2\FIRMWA~1\LEOENC~1\ARDUIN~1\ARDUIN~1\ARDUIN~1\Debug\libArduinoCore.a(Print.o) (__mulsf3)
c:/program files (x86)/atmel/studio/7.0/toolchain/avr8/avr8-gnu-toolchain/bin/../lib/gcc/avr/5.4.0/../../../../avr/lib/avr5\libm.a(mulsf3x.o)
                              c:/program files (x86)/atmel/studio/7.0/toolchain/avr8/avr8-gnu-toolchain/bin/../lib/gcc/avr/5.4.0/../../../../avr/lib/avr5\libm.a(mulsf3.o) (__mulsf3x)
c:/program files (x86)/atmel/studio/7.0/toolchain/avr8/avr8-gnu-toolchain/bin/../lib/gcc/avr/5.4.0/../../../../avr/lib/avr5\libm.a(unordsf2.o)
                              C:\Users\Jose\DOCUME~1\rkt\rpk2\FIRMWA~1\LEOENC~1\ARDUIN~1\ARDUIN~1\ARDUIN~1\Debug\libArduinoCore.a(Print.o) (__unordsf2)
c:/program files (x86)/atmel/studio/7.0/toolchain/avr8/avr8-gnu-toolchain/bin/../lib/gcc/avr/5.4.0/avr5\libgcc.a(_mulsi3.o)
                              C:\Users\Jose\DOCUME~1\rkt\rpk2\FIRMWA~1\LEOENC~1\ARDUIN~1\ARDUIN~1\ARDUIN~1\Debug\libArduinoCore.a(WMath.o) (__mulsi3)
c:/program files (x86)/atmel/studio/7.0/toolchain/avr8/avr8-gnu-toolchain/bin/../lib/gcc/avr/5.4.0/avr5\libgcc.a(_udivmodsi4.o)
                              C:\Users\Jose\DOCUME~1\rkt\rpk2\FIRMWA~1\LEOENC~1\ARDUIN~1\ARDUIN~1\ARDUIN~1\Debug\libArduinoCore.a(HardwareSerial.o) (__udivmodsi4)
c:/program files (x86)/atmel/studio/7.0/toolchain/avr8/avr8-gnu-toolchain/bin/../lib/gcc/avr/5.4.0/avr5\libgcc.a(_divmodsi4.o)
                              C:\Users\Jose\DOCUME~1\rkt\rpk2\FIRMWA~1\LEOENC~1\ARDUIN~1\ARDUIN~1\ARDUIN~1\Debug\libArduinoCore.a(WMath.o) (__divmodsi4)
c:/program files (x86)/atmel/studio/7.0/toolchain/avr8/avr8-gnu-toolchain/bin/../lib/gcc/avr/5.4.0/avr5\libgcc.a(_negsi2.o)
                              c:/program files (x86)/atmel/studio/7.0/toolchain/avr8/avr8-gnu-toolchain/bin/../lib/gcc/avr/5.4.0/avr5\libgcc.a(_divmodsi4.o) (__negsi2)
c:/program files (x86)/atmel/studio/7.0/toolchain/avr8/avr8-gnu-toolchain/bin/../lib/gcc/avr/5.4.0/avr5\libgcc.a(_exit.o)
                              C:/Program Files (x86)/Atmel/Studio/7.0/Packs/Atmel/ATmega_DFP/1.7.374/gcc/dev/atmega32u4/avr5/crtatmega32u4.o (exit)
c:/program files (x86)/atmel/studio/7.0/toolchain/avr8/avr8-gnu-toolchain/bin/../lib/gcc/avr/5.4.0/avr5\libgcc.a(_tablejump2.o)
                              C:\Users\Jose\DOCUME~1\rkt\rpk2\FIRMWA~1\LEOENC~1\ARDUIN~1\ARDUIN~1\ARDUIN~1\Debug\libArduinoCore.a(wiring_digital.o) (__tablejump2__)
c:/program files (x86)/atmel/studio/7.0/toolchain/avr8/avr8-gnu-toolchain/bin/../lib/gcc/avr/5.4.0/avr5\libgcc.a(_copy_data.o)
                              Sketch.o (__do_copy_data)
c:/program files (x86)/atmel/studio/7.0/toolchain/avr8/avr8-gnu-toolchain/bin/../lib/gcc/avr/5.4.0/avr5\libgcc.a(_clear_bss.o)
                              Sketch.o (__do_clear_bss)
c:/program files (x86)/atmel/studio/7.0/toolchain/avr8/avr8-gnu-toolchain/bin/../lib/gcc/avr/5.4.0/avr5\libgcc.a(_ctors.o)
                              Sketch.o (__do_global_ctors)
c:/program files (x86)/atmel/studio/7.0/toolchain/avr8/avr8-gnu-toolchain/bin/../lib/gcc/avr/5.4.0/avr5\libgcc.a(_muluhisi3.o)
                              C:\Users\Jose\DOCUME~1\rkt\rpk2\FIRMWA~1\LEOENC~1\ARDUIN~1\ARDUIN~1\ARDUIN~1\Debug\libArduinoCore.a(Stream.o) (__muluhisi3)
c:/program files (x86)/atmel/studio/7.0/toolchain/avr8/avr8-gnu-toolchain/bin/../lib/gcc/avr/5.4.0/avr5\libgcc.a(_umulhisi3.o)
                              c:/program files (x86)/atmel/studio/7.0/toolchain/avr8/avr8-gnu-toolchain/bin/../lib/gcc/avr/5.4.0/avr5\libgcc.a(_muluhisi3.o) (__umulhisi3)
c:/program files (x86)/atmel/studio/7.0/toolchain/avr8/avr8-gnu-toolchain/bin/../lib/gcc/avr/5.4.0/../../../../avr/lib/avr5\libc.a(dtostrf.o)
                              C:\Users\Jose\DOCUME~1\rkt\rpk2\FIRMWA~1\LEOENC~1\ARDUIN~1\ARDUIN~1\ARDUIN~1\Debug\libArduinoCore.a(WString.o) (dtostrf)
c:/program files (x86)/atmel/studio/7.0/toolchain/avr8/avr8-gnu-toolchain/bin/../lib/gcc/avr/5.4.0/../../../../avr/lib/avr5\libc.a(malloc.o)
                              C:\Users\Jose\DOCUME~1\rkt\rpk2\FIRMWA~1\LEOENC~1\ARDUIN~1\ARDUIN~1\ARDUIN~1\Debug\libArduinoCore.a(WString.o) (free)
c:/program files (x86)/atmel/studio/7.0/toolchain/avr8/avr8-gnu-toolchain/bin/../lib/gcc/avr/5.4.0/../../../../avr/lib/avr5\libc.a(random.o)
                              C:\Users\Jose\DOCUME~1\rkt\rpk2\FIRMWA~1\LEOENC~1\ARDUIN~1\ARDUIN~1\ARDUIN~1\Debug\libArduinoCore.a(WMath.o) (random)
c:/program files (x86)/atmel/studio/7.0/toolchain/avr8/avr8-gnu-toolchain/bin/../lib/gcc/avr/5.4.0/../../../../avr/lib/avr5\libc.a(realloc.o)
                              C:\Users\Jose\DOCUME~1\rkt\rpk2\FIRMWA~1\LEOENC~1\ARDUIN~1\ARDUIN~1\ARDUIN~1\Debug\libArduinoCore.a(WString.o) (realloc)
c:/program files (x86)/atmel/studio/7.0/toolchain/avr8/avr8-gnu-toolchain/bin/../lib/gcc/avr/5.4.0/../../../../avr/lib/avr5\libc.a(abort.o)
                              C:\Users\Jose\DOCUME~1\rkt\rpk2\FIRMWA~1\LEOENC~1\ARDUIN~1\ARDUIN~1\ARDUIN~1\Debug\libArduinoCore.a(abi.o) (abort)
c:/program files (x86)/atmel/studio/7.0/toolchain/avr8/avr8-gnu-toolchain/bin/../lib/gcc/avr/5.4.0/../../../../avr/lib/avr5\libc.a(atof.o)
                              C:\Users\Jose\DOCUME~1\rkt\rpk2\FIRMWA~1\LEOENC~1\ARDUIN~1\ARDUIN~1\ARDUIN~1\Debug\libArduinoCore.a(WString.o) (atof)
c:/program files (x86)/atmel/studio/7.0/toolchain/avr8/avr8-gnu-toolchain/bin/../lib/gcc/avr/5.4.0/../../../../avr/lib/avr5\libc.a(atol.o)
                              C:\Users\Jose\DOCUME~1\rkt\rpk2\FIRMWA~1\LEOENC~1\ARDUIN~1\ARDUIN~1\ARDUIN~1\Debug\libArduinoCore.a(WString.o) (atol)
c:/program files (x86)/atmel/studio/7.0/toolchain/avr8/avr8-gnu-toolchain/bin/../lib/gcc/avr/5.4.0/../../../../avr/lib/avr5\libc.a(isspace.o)
                              C:\Users\Jose\DOCUME~1\rkt\rpk2\FIRMWA~1\LEOENC~1\ARDUIN~1\ARDUIN~1\ARDUIN~1\Debug\libArduinoCore.a(WString.o) (isspace)
c:/program files (x86)/atmel/studio/7.0/toolchain/avr8/avr8-gnu-toolchain/bin/../lib/gcc/avr/5.4.0/../../../../avr/lib/avr5\libc.a(tolower.o)
                              C:\Users\Jose\DOCUME~1\rkt\rpk2\FIRMWA~1\LEOENC~1\ARDUIN~1\ARDUIN~1\ARDUIN~1\Debug\libArduinoCore.a(WString.o) (tolower)
c:/program files (x86)/atmel/studio/7.0/toolchain/avr8/avr8-gnu-toolchain/bin/../lib/gcc/avr/5.4.0/../../../../avr/lib/avr5\libc.a(toupper.o)
                              C:\Users\Jose\DOCUME~1\rkt\rpk2\FIRMWA~1\LEOENC~1\ARDUIN~1\ARDUIN~1\ARDUIN~1\Debug\libArduinoCore.a(WString.o) (toupper)
c:/program files (x86)/atmel/studio/7.0/toolchain/avr8/avr8-gnu-toolchain/bin/../lib/gcc/avr/5.4.0/../../../../avr/lib/avr5\libc.a(memcpy_P.o)
                              C:\Users\Jose\DOCUME~1\rkt\rpk2\FIRMWA~1\LEOENC~1\ARDUIN~1\ARDUIN~1\ARDUIN~1\Debug\libArduinoCore.a(RH_RF69.o) (memcpy_P)
c:/program files (x86)/atmel/studio/7.0/toolchain/avr8/avr8-gnu-toolchain/bin/../lib/gcc/avr/5.4.0/../../../../avr/lib/avr5\libc.a(strcpy_P.o)
                              C:\Users\Jose\DOCUME~1\rkt\rpk2\FIRMWA~1\LEOENC~1\ARDUIN~1\ARDUIN~1\ARDUIN~1\Debug\libArduinoCore.a(WString.o) (strcpy_P)
c:/program files (x86)/atmel/studio/7.0/toolchain/avr8/avr8-gnu-toolchain/bin/../lib/gcc/avr/5.4.0/../../../../avr/lib/avr5\libc.a(strlen_P.o)
                              C:\Users\Jose\DOCUME~1\rkt\rpk2\FIRMWA~1\LEOENC~1\ARDUIN~1\ARDUIN~1\ARDUIN~1\Debug\libArduinoCore.a(WString.o) (__strlen_P)
c:/program files (x86)/atmel/studio/7.0/toolchain/avr8/avr8-gnu-toolchain/bin/../lib/gcc/avr/5.4.0/../../../../avr/lib/avr5\libc.a(memcpy.o)
                              C:\Users\Jose\DOCUME~1\rkt\rpk2\FIRMWA~1\LEOENC~1\ARDUIN~1\ARDUIN~1\ARDUIN~1\Debug\libArduinoCore.a(WString.o) (memcpy)
c:/program files (x86)/atmel/studio/7.0/toolchain/avr8/avr8-gnu-toolchain/bin/../lib/gcc/avr/5.4.0/../../../../avr/lib/avr5\libc.a(memmove.o)
                              C:\Users\Jose\DOCUME~1\rkt\rpk2\FIRMWA~1\LEOENC~1\ARDUIN~1\ARDUIN~1\ARDUIN~1\Debug\libArduinoCore.a(WString.o) (memmove)
c:/program files (x86)/atmel/studio/7.0/toolchain/avr8/avr8-gnu-toolchain/bin/../lib/gcc/avr/5.4.0/../../../../avr/lib/avr5\libc.a(strchr.o)
                              C:\Users\Jose\DOCUME~1\rkt\rpk2\FIRMWA~1\LEOENC~1\ARDUIN~1\ARDUIN~1\ARDUIN~1\Debug\libArduinoCore.a(WString.o) (strchr)
c:/program files (x86)/atmel/studio/7.0/toolchain/avr8/avr8-gnu-toolchain/bin/../lib/gcc/avr/5.4.0/../../../../avr/lib/avr5\libc.a(strcmp.o)
                              C:\Users\Jose\DOCUME~1\rkt\rpk2\FIRMWA~1\LEOENC~1\ARDUIN~1\ARDUIN~1\ARDUIN~1\Debug\libArduinoCore.a(WString.o) (strcmp)
c:/program files (x86)/atmel/studio/7.0/toolchain/avr8/avr8-gnu-toolchain/bin/../lib/gcc/avr/5.4.0/../../../../avr/lib/avr5\libc.a(strcpy.o)
                              C:\Users\Jose\DOCUME~1\rkt\rpk2\FIRMWA~1\LEOENC~1\ARDUIN~1\ARDUIN~1\ARDUIN~1\Debug\libArduinoCore.a(WString.o) (strcpy)
c:/program files (x86)/atmel/studio/7.0/toolchain/avr8/avr8-gnu-toolchain/bin/../lib/gcc/avr/5.4.0/../../../../avr/lib/avr5\libc.a(strncmp.o)
                              C:\Users\Jose\DOCUME~1\rkt\rpk2\FIRMWA~1\LEOENC~1\ARDUIN~1\ARDUIN~1\ARDUIN~1\Debug\libArduinoCore.a(WString.o) (strncmp)
c:/program files (x86)/atmel/studio/7.0/toolchain/avr8/avr8-gnu-toolchain/bin/../lib/gcc/avr/5.4.0/../../../../avr/lib/avr5\libc.a(strncpy.o)
                              C:\Users\Jose\DOCUME~1\rkt\rpk2\FIRMWA~1\LEOENC~1\ARDUIN~1\ARDUIN~1\ARDUIN~1\Debug\libArduinoCore.a(WString.o) (strncpy)
c:/program files (x86)/atmel/studio/7.0/toolchain/avr8/avr8-gnu-toolchain/bin/../lib/gcc/avr/5.4.0/../../../../avr/lib/avr5\libc.a(strrchr.o)
                              C:\Users\Jose\DOCUME~1\rkt\rpk2\FIRMWA~1\LEOENC~1\ARDUIN~1\ARDUIN~1\ARDUIN~1\Debug\libArduinoCore.a(WString.o) (strrchr)
c:/program files (x86)/atmel/studio/7.0/toolchain/avr8/avr8-gnu-toolchain/bin/../lib/gcc/avr/5.4.0/../../../../avr/lib/avr5\libc.a(strstr.o)
                              C:\Users\Jose\DOCUME~1\rkt\rpk2\FIRMWA~1\LEOENC~1\ARDUIN~1\ARDUIN~1\ARDUIN~1\Debug\libArduinoCore.a(WString.o) (strstr)
c:/program files (x86)/atmel/studio/7.0/toolchain/avr8/avr8-gnu-toolchain/bin/../lib/gcc/avr/5.4.0/../../../../avr/lib/avr5\libc.a(itoa.o)
                              C:\Users\Jose\DOCUME~1\rkt\rpk2\FIRMWA~1\LEOENC~1\ARDUIN~1\ARDUIN~1\ARDUIN~1\Debug\libArduinoCore.a(WString.o) (__itoa)
c:/program files (x86)/atmel/studio/7.0/toolchain/avr8/avr8-gnu-toolchain/bin/../lib/gcc/avr/5.4.0/../../../../avr/lib/avr5\libc.a(itoa_ncheck.o)
                              C:\Users\Jose\DOCUME~1\rkt\rpk2\FIRMWA~1\LEOENC~1\ARDUIN~1\ARDUIN~1\ARDUIN~1\Debug\libArduinoCore.a(WString.o) (__itoa_ncheck)
c:/program files (x86)/atmel/studio/7.0/toolchain/avr8/avr8-gnu-toolchain/bin/../lib/gcc/avr/5.4.0/../../../../avr/lib/avr5\libc.a(ltoa.o)
                              C:\Users\Jose\DOCUME~1\rkt\rpk2\FIRMWA~1\LEOENC~1\ARDUIN~1\ARDUIN~1\ARDUIN~1\Debug\libArduinoCore.a(WString.o) (__ltoa)
c:/program files (x86)/atmel/studio/7.0/toolchain/avr8/avr8-gnu-toolchain/bin/../lib/gcc/avr/5.4.0/../../../../avr/lib/avr5\libc.a(ltoa_ncheck.o)
                              C:\Users\Jose\DOCUME~1\rkt\rpk2\FIRMWA~1\LEOENC~1\ARDUIN~1\ARDUIN~1\ARDUIN~1\Debug\libArduinoCore.a(WString.o) (__ltoa_ncheck)
c:/program files (x86)/atmel/studio/7.0/toolchain/avr8/avr8-gnu-toolchain/bin/../lib/gcc/avr/5.4.0/../../../../avr/lib/avr5\libc.a(mulsi10.o)
                              c:/program files (x86)/atmel/studio/7.0/toolchain/avr8/avr8-gnu-toolchain/bin/../lib/gcc/avr/5.4.0/../../../../avr/lib/avr5\libc.a(atol.o) (__mulsi_const_10)
c:/program files (x86)/atmel/studio/7.0/toolchain/avr8/avr8-gnu-toolchain/bin/../lib/gcc/avr/5.4.0/../../../../avr/lib/avr5\libc.a(ultoa.o)
                              C:\Users\Jose\DOCUME~1\rkt\rpk2\FIRMWA~1\LEOENC~1\ARDUIN~1\ARDUIN~1\ARDUIN~1\Debug\libArduinoCore.a(WString.o) (__ultoa)
c:/program files (x86)/atmel/studio/7.0/toolchain/avr8/avr8-gnu-toolchain/bin/../lib/gcc/avr/5.4.0/../../../../avr/lib/avr5\libc.a(ultoa_ncheck.o)
                              C:\Users\Jose\DOCUME~1\rkt\rpk2\FIRMWA~1\LEOENC~1\ARDUIN~1\ARDUIN~1\ARDUIN~1\Debug\libArduinoCore.a(WString.o) (__ultoa_ncheck)
c:/program files (x86)/atmel/studio/7.0/toolchain/avr8/avr8-gnu-toolchain/bin/../lib/gcc/avr/5.4.0/../../../../avr/lib/avr5\libc.a(utoa.o)
                              C:\Users\Jose\DOCUME~1\rkt\rpk2\FIRMWA~1\LEOENC~1\ARDUIN~1\ARDUIN~1\ARDUIN~1\Debug\libArduinoCore.a(WString.o) (__utoa)
c:/program files (x86)/atmel/studio/7.0/toolchain/avr8/avr8-gnu-toolchain/bin/../lib/gcc/avr/5.4.0/../../../../avr/lib/avr5\libc.a(utoa_ncheck.o)
                              C:\Users\Jose\DOCUME~1\rkt\rpk2\FIRMWA~1\LEOENC~1\ARDUIN~1\ARDUIN~1\ARDUIN~1\Debug\libArduinoCore.a(WString.o) (__utoa_ncheck)
c:/program files (x86)/atmel/studio/7.0/toolchain/avr8/avr8-gnu-toolchain/bin/../lib/gcc/avr/5.4.0/../../../../avr/lib/avr5\libc.a(dtoa_prf.o)
                              c:/program files (x86)/atmel/studio/7.0/toolchain/avr8/avr8-gnu-toolchain/bin/../lib/gcc/avr/5.4.0/../../../../avr/lib/avr5\libc.a(dtostrf.o) (dtoa_prf)
c:/program files (x86)/atmel/studio/7.0/toolchain/avr8/avr8-gnu-toolchain/bin/../lib/gcc/avr/5.4.0/../../../../avr/lib/avr5\libc.a(strtod.o)
                              c:/program files (x86)/atmel/studio/7.0/toolchain/avr8/avr8-gnu-toolchain/bin/../lib/gcc/avr/5.4.0/../../../../avr/lib/avr5\libc.a(atof.o) (strtod)
c:/program files (x86)/atmel/studio/7.0/toolchain/avr8/avr8-gnu-toolchain/bin/../lib/gcc/avr/5.4.0/../../../../avr/lib/avr5\libc.a(ftoa_engine.o)
                              c:/program files (x86)/atmel/studio/7.0/toolchain/avr8/avr8-gnu-toolchain/bin/../lib/gcc/avr/5.4.0/../../../../avr/lib/avr5\libc.a(dtoa_prf.o) (__ftoa_engine)
c:/program files (x86)/atmel/studio/7.0/toolchain/avr8/avr8-gnu-toolchain/bin/../lib/gcc/avr/5.4.0/../../../../avr/lib/avr5\libc.a(cty_isfalse.o)
                              c:/program files (x86)/atmel/studio/7.0/toolchain/avr8/avr8-gnu-toolchain/bin/../lib/gcc/avr/5.4.0/../../../../avr/lib/avr5\libc.a(isspace.o) (__ctype_isfalse)
c:/program files (x86)/atmel/studio/7.0/toolchain/avr8/avr8-gnu-toolchain/bin/../lib/gcc/avr/5.4.0/../../../../avr/lib/avr5\libc.a(strncasecmp_P.o)
                              c:/program files (x86)/atmel/studio/7.0/toolchain/avr8/avr8-gnu-toolchain/bin/../lib/gcc/avr/5.4.0/../../../../avr/lib/avr5\libc.a(strtod.o) (strncasecmp_P)
c:/program files (x86)/atmel/studio/7.0/toolchain/avr8/avr8-gnu-toolchain/bin/../lib/gcc/avr/5.4.0/../../../../avr/lib/avr5\libc.a(strrev.o)
                              c:/program files (x86)/atmel/studio/7.0/toolchain/avr8/avr8-gnu-toolchain/bin/../lib/gcc/avr/5.4.0/../../../../avr/lib/avr5\libc.a(ultoa_ncheck.o) (strrev)
c:/program files (x86)/atmel/studio/7.0/toolchain/avr8/avr8-gnu-toolchain/bin/../lib/gcc/avr/5.4.0/../../../../avr/lib/avr5\libc.a(errno.o)
                              c:/program files (x86)/atmel/studio/7.0/toolchain/avr8/avr8-gnu-toolchain/bin/../lib/gcc/avr/5.4.0/../../../../avr/lib/avr5\libc.a(strtod.o) (errno)
c:/program files (x86)/atmel/studio/7.0/toolchain/avr8/avr8-gnu-toolchain/bin/../lib/gcc/avr/5.4.0/avr5\libgcc.a(_mulshisi3.o)
                              c:/program files (x86)/atmel/studio/7.0/toolchain/avr8/avr8-gnu-toolchain/bin/../lib/gcc/avr/5.4.0/../../../../avr/lib/avr5\libc.a(random.o) (__mulohisi3)
c:/program files (x86)/atmel/studio/7.0/toolchain/avr8/avr8-gnu-toolchain/bin/../lib/gcc/avr/5.4.0/avr5\libgcc.a(_prologue.o)
                              c:/program files (x86)/atmel/studio/7.0/toolchain/avr8/avr8-gnu-toolchain/bin/../lib/gcc/avr/5.4.0/../../../../avr/lib/avr5\libc.a(realloc.o) (__prologue_saves__)
c:/program files (x86)/atmel/studio/7.0/toolchain/avr8/avr8-gnu-toolchain/bin/../lib/gcc/avr/5.4.0/avr5\libgcc.a(_epilogue.o)
                              c:/program files (x86)/atmel/studio/7.0/toolchain/avr8/avr8-gnu-toolchain/bin/../lib/gcc/avr/5.4.0/../../../../avr/lib/avr5\libc.a(realloc.o) (__epilogue_restores__)

Allocating common symbols
Common symbol       size              file

errno               0x2               c:/program files (x86)/atmel/studio/7.0/toolchain/avr8/avr8-gnu-toolchain/bin/../lib/gcc/avr/5.4.0/../../../../avr/lib/avr5\libc.a(errno.o)
__brkval            0x2               c:/program files (x86)/atmel/studio/7.0/toolchain/avr8/avr8-gnu-toolchain/bin/../lib/gcc/avr/5.4.0/../../../../avr/lib/avr5\libc.a(malloc.o)
__flp               0x2               c:/program files (x86)/atmel/studio/7.0/toolchain/avr8/avr8-gnu-toolchain/bin/../lib/gcc/avr/5.4.0/../../../../avr/lib/avr5\libc.a(malloc.o)

Discarded input sections

 .data          0x00000000        0x0 C:/Program Files (x86)/Atmel/Studio/7.0/Packs/Atmel/ATmega_DFP/1.7.374/gcc/dev/atmega32u4/avr5/crtatmega32u4.o
 .bss           0x00000000        0x0 C:/Program Files (x86)/Atmel/Studio/7.0/Packs/Atmel/ATmega_DFP/1.7.374/gcc/dev/atmega32u4/avr5/crtatmega32u4.o
 .text          0x00000000        0x0 Sketch.o
 .data          0x00000000        0x0 Sketch.o
 .bss           0x00000000        0x0 Sketch.o
 .text._Z5Blinkhhhh
                0x00000000       0x7a Sketch.o
 .group         0x00000000        0x8 C:\Users\Jose\DOCUME~1\rkt\rpk2\FIRMWA~1\LEOENC~1\ARDUIN~1\ARDUIN~1\ARDUIN~1\Debug\libArduinoCore.a(CDC.o)
 .group         0x00000000        0x8 C:\Users\Jose\DOCUME~1\rkt\rpk2\FIRMWA~1\LEOENC~1\ARDUIN~1\ARDUIN~1\ARDUIN~1\Debug\libArduinoCore.a(CDC.o)
 .group         0x00000000        0x8 C:\Users\Jose\DOCUME~1\rkt\rpk2\FIRMWA~1\LEOENC~1\ARDUIN~1\ARDUIN~1\ARDUIN~1\Debug\libArduinoCore.a(CDC.o)
 .text          0x00000000        0x0 C:\Users\Jose\DOCUME~1\rkt\rpk2\FIRMWA~1\LEOENC~1\ARDUIN~1\ARDUIN~1\ARDUIN~1\Debug\libArduinoCore.a(CDC.o)
 .data          0x00000000        0x0 C:\Users\Jose\DOCUME~1\rkt\rpk2\FIRMWA~1\LEOENC~1\ARDUIN~1\ARDUIN~1\ARDUIN~1\Debug\libArduinoCore.a(CDC.o)
 .bss           0x00000000        0x0 C:\Users\Jose\DOCUME~1\rkt\rpk2\FIRMWA~1\LEOENC~1\ARDUIN~1\ARDUIN~1\ARDUIN~1\Debug\libArduinoCore.a(CDC.o)
 .text._ZN5Print17availableForWriteEv
                0x00000000        0x6 C:\Users\Jose\DOCUME~1\rkt\rpk2\FIRMWA~1\LEOENC~1\ARDUIN~1\ARDUIN~1\ARDUIN~1\Debug\libArduinoCore.a(CDC.o)
 .text._ZN5Print5flushEv
                0x00000000        0x2 C:\Users\Jose\DOCUME~1\rkt\rpk2\FIRMWA~1\LEOENC~1\ARDUIN~1\ARDUIN~1\ARDUIN~1\Debug\libArduinoCore.a(CDC.o)
 .text._ZN7Serial_5beginEm
                0x00000000        0xc C:\Users\Jose\DOCUME~1\rkt\rpk2\FIRMWA~1\LEOENC~1\ARDUIN~1\ARDUIN~1\ARDUIN~1\Debug\libArduinoCore.a(CDC.o)
 .text._ZN7Serial_5beginEmh
                0x00000000        0xc C:\Users\Jose\DOCUME~1\rkt\rpk2\FIRMWA~1\LEOENC~1\ARDUIN~1\ARDUIN~1\ARDUIN~1\Debug\libArduinoCore.a(CDC.o)
 .text._ZN7Serial_3endEv
                0x00000000        0x2 C:\Users\Jose\DOCUME~1\rkt\rpk2\FIRMWA~1\LEOENC~1\ARDUIN~1\ARDUIN~1\ARDUIN~1\Debug\libArduinoCore.a(CDC.o)
 .text._ZN7Serial_cvbEv
                0x00000000       0x1e C:\Users\Jose\DOCUME~1\rkt\rpk2\FIRMWA~1\LEOENC~1\ARDUIN~1\ARDUIN~1\ARDUIN~1\Debug\libArduinoCore.a(CDC.o)
 .text._ZN7Serial_4baudEv
                0x00000000       0x18 C:\Users\Jose\DOCUME~1\rkt\rpk2\FIRMWA~1\LEOENC~1\ARDUIN~1\ARDUIN~1\ARDUIN~1\Debug\libArduinoCore.a(CDC.o)
 .text._ZN7Serial_8stopbitsEv
                0x00000000        0x6 C:\Users\Jose\DOCUME~1\rkt\rpk2\FIRMWA~1\LEOENC~1\ARDUIN~1\ARDUIN~1\ARDUIN~1\Debug\libArduinoCore.a(CDC.o)
 .text._ZN7Serial_10paritytypeEv
                0x00000000        0x6 C:\Users\Jose\DOCUME~1\rkt\rpk2\FIRMWA~1\LEOENC~1\ARDUIN~1\ARDUIN~1\ARDUIN~1\Debug\libArduinoCore.a(CDC.o)
 .text._ZN7Serial_7numbitsEv
                0x00000000        0x6 C:\Users\Jose\DOCUME~1\rkt\rpk2\FIRMWA~1\LEOENC~1\ARDUIN~1\ARDUIN~1\ARDUIN~1\Debug\libArduinoCore.a(CDC.o)
 .text._ZN7Serial_3dtrEv
                0x00000000        0x8 C:\Users\Jose\DOCUME~1\rkt\rpk2\FIRMWA~1\LEOENC~1\ARDUIN~1\ARDUIN~1\ARDUIN~1\Debug\libArduinoCore.a(CDC.o)
 .text._ZN7Serial_3rtsEv
                0x00000000        0xa C:\Users\Jose\DOCUME~1\rkt\rpk2\FIRMWA~1\LEOENC~1\ARDUIN~1\ARDUIN~1\ARDUIN~1\Debug\libArduinoCore.a(CDC.o)
 .text._ZN7Serial_9readBreakEv
                0x00000000       0x40 C:\Users\Jose\DOCUME~1\rkt\rpk2\FIRMWA~1\LEOENC~1\ARDUIN~1\ARDUIN~1\ARDUIN~1\Debug\libArduinoCore.a(CDC.o)
 .group         0x00000000        0x8 C:\Users\Jose\DOCUME~1\rkt\rpk2\FIRMWA~1\LEOENC~1\ARDUIN~1\ARDUIN~1\ARDUIN~1\Debug\libArduinoCore.a(HardwareSerial.o)
 .text          0x00000000        0x0 C:\Users\Jose\DOCUME~1\rkt\rpk2\FIRMWA~1\LEOENC~1\ARDUIN~1\ARDUIN~1\ARDUIN~1\Debug\libArduinoCore.a(HardwareSerial.o)
 .data          0x00000000        0x0 C:\Users\Jose\DOCUME~1\rkt\rpk2\FIRMWA~1\LEOENC~1\ARDUIN~1\ARDUIN~1\ARDUIN~1\Debug\libArduinoCore.a(HardwareSerial.o)
 .bss           0x00000000        0x0 C:\Users\Jose\DOCUME~1\rkt\rpk2\FIRMWA~1\LEOENC~1\ARDUIN~1\ARDUIN~1\ARDUIN~1\Debug\libArduinoCore.a(HardwareSerial.o)
 .text._ZN14HardwareSerial3endEv
                0x00000000       0x44 C:\Users\Jose\DOCUME~1\rkt\rpk2\FIRMWA~1\LEOENC~1\ARDUIN~1\ARDUIN~1\ARDUIN~1\Debug\libArduinoCore.a(HardwareSerial.o)
 .group         0x00000000        0x8 C:\Users\Jose\DOCUME~1\rkt\rpk2\FIRMWA~1\LEOENC~1\ARDUIN~1\ARDUIN~1\ARDUIN~1\Debug\libArduinoCore.a(HardwareSerial1.o)
 .group         0x00000000        0x8 C:\Users\Jose\DOCUME~1\rkt\rpk2\FIRMWA~1\LEOENC~1\ARDUIN~1\ARDUIN~1\ARDUIN~1\Debug\libArduinoCore.a(HardwareSerial1.o)
 .text          0x00000000        0x0 C:\Users\Jose\DOCUME~1\rkt\rpk2\FIRMWA~1\LEOENC~1\ARDUIN~1\ARDUIN~1\ARDUIN~1\Debug\libArduinoCore.a(HardwareSerial1.o)
 .data          0x00000000        0x0 C:\Users\Jose\DOCUME~1\rkt\rpk2\FIRMWA~1\LEOENC~1\ARDUIN~1\ARDUIN~1\ARDUIN~1\Debug\libArduinoCore.a(HardwareSerial1.o)
 .bss           0x00000000        0x0 C:\Users\Jose\DOCUME~1\rkt\rpk2\FIRMWA~1\LEOENC~1\ARDUIN~1\ARDUIN~1\ARDUIN~1\Debug\libArduinoCore.a(HardwareSerial1.o)
 .text._ZN5Print17availableForWriteEv
                0x00000000        0x6 C:\Users\Jose\DOCUME~1\rkt\rpk2\FIRMWA~1\LEOENC~1\ARDUIN~1\ARDUIN~1\ARDUIN~1\Debug\libArduinoCore.a(HardwareSerial1.o)
 .text._ZN5Print5flushEv
                0x00000000        0x2 C:\Users\Jose\DOCUME~1\rkt\rpk2\FIRMWA~1\LEOENC~1\ARDUIN~1\ARDUIN~1\ARDUIN~1\Debug\libArduinoCore.a(HardwareSerial1.o)
 .text          0x00000000        0x0 C:\Users\Jose\DOCUME~1\rkt\rpk2\FIRMWA~1\LEOENC~1\ARDUIN~1\ARDUIN~1\ARDUIN~1\Debug\libArduinoCore.a(main.o)
 .data          0x00000000        0x0 C:\Users\Jose\DOCUME~1\rkt\rpk2\FIRMWA~1\LEOENC~1\ARDUIN~1\ARDUIN~1\ARDUIN~1\Debug\libArduinoCore.a(main.o)
 .bss           0x00000000        0x0 C:\Users\Jose\DOCUME~1\rkt\rpk2\FIRMWA~1\LEOENC~1\ARDUIN~1\ARDUIN~1\ARDUIN~1\Debug\libArduinoCore.a(main.o)
 .text.atexit   0x00000000        0x6 C:\Users\Jose\DOCUME~1\rkt\rpk2\FIRMWA~1\LEOENC~1\ARDUIN~1\ARDUIN~1\ARDUIN~1\Debug\libArduinoCore.a(main.o)
 .text._Z8setupUSBv
                0x00000000        0x2 C:\Users\Jose\DOCUME~1\rkt\rpk2\FIRMWA~1\LEOENC~1\ARDUIN~1\ARDUIN~1\ARDUIN~1\Debug\libArduinoCore.a(main.o)
 .group         0x00000000        0x8 C:\Users\Jose\DOCUME~1\rkt\rpk2\FIRMWA~1\LEOENC~1\ARDUIN~1\ARDUIN~1\ARDUIN~1\Debug\libArduinoCore.a(Print.o)
 .group         0x00000000        0x8 C:\Users\Jose\DOCUME~1\rkt\rpk2\FIRMWA~1\LEOENC~1\ARDUIN~1\ARDUIN~1\ARDUIN~1\Debug\libArduinoCore.a(Print.o)
 .group         0x00000000        0x8 C:\Users\Jose\DOCUME~1\rkt\rpk2\FIRMWA~1\LEOENC~1\ARDUIN~1\ARDUIN~1\ARDUIN~1\Debug\libArduinoCore.a(Print.o)
 .group         0x00000000        0x8 C:\Users\Jose\DOCUME~1\rkt\rpk2\FIRMWA~1\LEOENC~1\ARDUIN~1\ARDUIN~1\ARDUIN~1\Debug\libArduinoCore.a(Print.o)
 .text          0x00000000        0x0 C:\Users\Jose\DOCUME~1\rkt\rpk2\FIRMWA~1\LEOENC~1\ARDUIN~1\ARDUIN~1\ARDUIN~1\Debug\libArduinoCore.a(Print.o)
 .data          0x00000000        0x0 C:\Users\Jose\DOCUME~1\rkt\rpk2\FIRMWA~1\LEOENC~1\ARDUIN~1\ARDUIN~1\ARDUIN~1\Debug\libArduinoCore.a(Print.o)
 .bss           0x00000000        0x0 C:\Users\Jose\DOCUME~1\rkt\rpk2\FIRMWA~1\LEOENC~1\ARDUIN~1\ARDUIN~1\ARDUIN~1\Debug\libArduinoCore.a(Print.o)
 .text._ZN5Print17availableForWriteEv
                0x00000000        0x6 C:\Users\Jose\DOCUME~1\rkt\rpk2\FIRMWA~1\LEOENC~1\ARDUIN~1\ARDUIN~1\ARDUIN~1\Debug\libArduinoCore.a(Print.o)
 .text._ZN5Print5flushEv
                0x00000000        0x2 C:\Users\Jose\DOCUME~1\rkt\rpk2\FIRMWA~1\LEOENC~1\ARDUIN~1\ARDUIN~1\ARDUIN~1\Debug\libArduinoCore.a(Print.o)
 .text._ZN5Print5printEPK19__FlashStringHelper
                0x00000000       0x48 C:\Users\Jose\DOCUME~1\rkt\rpk2\FIRMWA~1\LEOENC~1\ARDUIN~1\ARDUIN~1\ARDUIN~1\Debug\libArduinoCore.a(Print.o)
 .text._ZN5Print5printERK9Printable
                0x00000000       0x14 C:\Users\Jose\DOCUME~1\rkt\rpk2\FIRMWA~1\LEOENC~1\ARDUIN~1\ARDUIN~1\ARDUIN~1\Debug\libArduinoCore.a(Print.o)
 .text._ZN5Print7printlnEPK19__FlashStringHelper
                0x00000000       0x24 C:\Users\Jose\DOCUME~1\rkt\rpk2\FIRMWA~1\LEOENC~1\ARDUIN~1\ARDUIN~1\ARDUIN~1\Debug\libArduinoCore.a(Print.o)
 .text._ZN5Print7printlnEc
                0x00000000       0x24 C:\Users\Jose\DOCUME~1\rkt\rpk2\FIRMWA~1\LEOENC~1\ARDUIN~1\ARDUIN~1\ARDUIN~1\Debug\libArduinoCore.a(Print.o)
 .text._ZN5Print7printlnERK9Printable
                0x00000000       0x24 C:\Users\Jose\DOCUME~1\rkt\rpk2\FIRMWA~1\LEOENC~1\ARDUIN~1\ARDUIN~1\ARDUIN~1\Debug\libArduinoCore.a(Print.o)
 .text._ZN5Print7printlnEhi
                0x00000000       0x24 C:\Users\Jose\DOCUME~1\rkt\rpk2\FIRMWA~1\LEOENC~1\ARDUIN~1\ARDUIN~1\ARDUIN~1\Debug\libArduinoCore.a(Print.o)
 .text._ZN5Print5printEji
                0x00000000        0xc C:\Users\Jose\DOCUME~1\rkt\rpk2\FIRMWA~1\LEOENC~1\ARDUIN~1\ARDUIN~1\ARDUIN~1\Debug\libArduinoCore.a(Print.o)
 .text._ZN5Print7printlnEji
                0x00000000       0x24 C:\Users\Jose\DOCUME~1\rkt\rpk2\FIRMWA~1\LEOENC~1\ARDUIN~1\ARDUIN~1\ARDUIN~1\Debug\libArduinoCore.a(Print.o)
 .text._ZN5Print7printlnEmi
                0x00000000       0x24 C:\Users\Jose\DOCUME~1\rkt\rpk2\FIRMWA~1\LEOENC~1\ARDUIN~1\ARDUIN~1\ARDUIN~1\Debug\libArduinoCore.a(Print.o)
 .text._ZN5Print7printlnEli
                0x00000000       0x24 C:\Users\Jose\DOCUME~1\rkt\rpk2\FIRMWA~1\LEOENC~1\ARDUIN~1\ARDUIN~1\ARDUIN~1\Debug\libArduinoCore.a(Print.o)
 .text._ZN5Print10printFloatEdh
                0x00000000      0x1b6 C:\Users\Jose\DOCUME~1\rkt\rpk2\FIRMWA~1\LEOENC~1\ARDUIN~1\ARDUIN~1\ARDUIN~1\Debug\libArduinoCore.a(Print.o)
 .text._ZN5Print5printEdi
                0x00000000        0x4 C:\Users\Jose\DOCUME~1\rkt\rpk2\FIRMWA~1\LEOENC~1\ARDUIN~1\ARDUIN~1\ARDUIN~1\Debug\libArduinoCore.a(Print.o)
 .text._ZN5Print7printlnEdi
                0x00000000       0x24 C:\Users\Jose\DOCUME~1\rkt\rpk2\FIRMWA~1\LEOENC~1\ARDUIN~1\ARDUIN~1\ARDUIN~1\Debug\libArduinoCore.a(Print.o)
 .rodata._ZTV5Print
                0x00000000        0xc C:\Users\Jose\DOCUME~1\rkt\rpk2\FIRMWA~1\LEOENC~1\ARDUIN~1\ARDUIN~1\ARDUIN~1\Debug\libArduinoCore.a(Print.o)
 .text          0x00000000        0x0 C:\Users\Jose\DOCUME~1\rkt\rpk2\FIRMWA~1\LEOENC~1\ARDUIN~1\ARDUIN~1\ARDUIN~1\Debug\libArduinoCore.a(Stream.o)
 .data          0x00000000        0x0 C:\Users\Jose\DOCUME~1\rkt\rpk2\FIRMWA~1\LEOENC~1\ARDUIN~1\ARDUIN~1\ARDUIN~1\Debug\libArduinoCore.a(Stream.o)
 .bss           0x00000000        0x0 C:\Users\Jose\DOCUME~1\rkt\rpk2\FIRMWA~1\LEOENC~1\ARDUIN~1\ARDUIN~1\ARDUIN~1\Debug\libArduinoCore.a(Stream.o)
 .text._ZN6Stream9timedPeekEv
                0x00000000       0x60 C:\Users\Jose\DOCUME~1\rkt\rpk2\FIRMWA~1\LEOENC~1\ARDUIN~1\ARDUIN~1\ARDUIN~1\Debug\libArduinoCore.a(Stream.o)
 .text._ZN6Stream13peekNextDigitE13LookaheadModeb
                0x00000000       0x78 C:\Users\Jose\DOCUME~1\rkt\rpk2\FIRMWA~1\LEOENC~1\ARDUIN~1\ARDUIN~1\ARDUIN~1\Debug\libArduinoCore.a(Stream.o)
 .text._ZN6Stream10setTimeoutEm
                0x00000000        0xc C:\Users\Jose\DOCUME~1\rkt\rpk2\FIRMWA~1\LEOENC~1\ARDUIN~1\ARDUIN~1\ARDUIN~1\Debug\libArduinoCore.a(Stream.o)
 .text._ZN6Stream8parseIntE13LookaheadModec
                0x00000000       0xcc C:\Users\Jose\DOCUME~1\rkt\rpk2\FIRMWA~1\LEOENC~1\ARDUIN~1\ARDUIN~1\ARDUIN~1\Debug\libArduinoCore.a(Stream.o)
 .text._ZN6Stream10parseFloatE13LookaheadModec
                0x00000000      0x12a C:\Users\Jose\DOCUME~1\rkt\rpk2\FIRMWA~1\LEOENC~1\ARDUIN~1\ARDUIN~1\ARDUIN~1\Debug\libArduinoCore.a(Stream.o)
 .text._ZN6Stream9readBytesEPcj
                0x00000000       0x4a C:\Users\Jose\DOCUME~1\rkt\rpk2\FIRMWA~1\LEOENC~1\ARDUIN~1\ARDUIN~1\ARDUIN~1\Debug\libArduinoCore.a(Stream.o)
 .text._ZN6Stream14readBytesUntilEcPcj
                0x00000000       0x5a C:\Users\Jose\DOCUME~1\rkt\rpk2\FIRMWA~1\LEOENC~1\ARDUIN~1\ARDUIN~1\ARDUIN~1\Debug\libArduinoCore.a(Stream.o)
 .text._ZN6Stream15readStringUntilEc
                0x00000000       0x4c C:\Users\Jose\DOCUME~1\rkt\rpk2\FIRMWA~1\LEOENC~1\ARDUIN~1\ARDUIN~1\ARDUIN~1\Debug\libArduinoCore.a(Stream.o)
 .text._ZN6Stream9findMultiEPNS_11MultiTargetEi
                0x00000000      0x132 C:\Users\Jose\DOCUME~1\rkt\rpk2\FIRMWA~1\LEOENC~1\ARDUIN~1\ARDUIN~1\ARDUIN~1\Debug\libArduinoCore.a(Stream.o)
 .text._ZN6Stream9findUntilEPcjS0_j.part.0.constprop.1
                0x00000000       0x4a C:\Users\Jose\DOCUME~1\rkt\rpk2\FIRMWA~1\LEOENC~1\ARDUIN~1\ARDUIN~1\ARDUIN~1\Debug\libArduinoCore.a(Stream.o)
 .text._ZN6Stream4findEPcj
                0x00000000        0x4 C:\Users\Jose\DOCUME~1\rkt\rpk2\FIRMWA~1\LEOENC~1\ARDUIN~1\ARDUIN~1\ARDUIN~1\Debug\libArduinoCore.a(Stream.o)
 .text._ZN6Stream4findEPc
                0x00000000       0x14 C:\Users\Jose\DOCUME~1\rkt\rpk2\FIRMWA~1\LEOENC~1\ARDUIN~1\ARDUIN~1\ARDUIN~1\Debug\libArduinoCore.a(Stream.o)
 .text._ZN6Stream9findUntilEPcjS0_j
                0x00000000       0x74 C:\Users\Jose\DOCUME~1\rkt\rpk2\FIRMWA~1\LEOENC~1\ARDUIN~1\ARDUIN~1\ARDUIN~1\Debug\libArduinoCore.a(Stream.o)
 .text._ZN6Stream9findUntilEPcS0_
                0x00000000       0x30 C:\Users\Jose\DOCUME~1\rkt\rpk2\FIRMWA~1\LEOENC~1\ARDUIN~1\ARDUIN~1\ARDUIN~1\Debug\libArduinoCore.a(Stream.o)
 .group         0x00000000        0x8 C:\Users\Jose\DOCUME~1\rkt\rpk2\FIRMWA~1\LEOENC~1\ARDUIN~1\ARDUIN~1\ARDUIN~1\Debug\libArduinoCore.a(USBCore.o)
 .text          0x00000000        0x0 C:\Users\Jose\DOCUME~1\rkt\rpk2\FIRMWA~1\LEOENC~1\ARDUIN~1\ARDUIN~1\ARDUIN~1\Debug\libArduinoCore.a(USBCore.o)
 .data          0x00000000        0x0 C:\Users\Jose\DOCUME~1\rkt\rpk2\FIRMWA~1\LEOENC~1\ARDUIN~1\ARDUIN~1\ARDUIN~1\Debug\libArduinoCore.a(USBCore.o)
 .bss           0x00000000        0x0 C:\Users\Jose\DOCUME~1\rkt\rpk2\FIRMWA~1\LEOENC~1\ARDUIN~1\ARDUIN~1\ARDUIN~1\Debug\libArduinoCore.a(USBCore.o)
 .text._Z19USBGetConfigurationv
                0x00000000        0x6 C:\Users\Jose\DOCUME~1\rkt\rpk2\FIRMWA~1\LEOENC~1\ARDUIN~1\ARDUIN~1\ARDUIN~1\Debug\libArduinoCore.a(USBCore.o)
 .text._Z12USBConnectedv
                0x00000000       0x22 C:\Users\Jose\DOCUME~1\rkt\rpk2\FIRMWA~1\LEOENC~1\ARDUIN~1\ARDUIN~1\ARDUIN~1\Debug\libArduinoCore.a(USBCore.o)
 .text._ZN10USBDevice_C2Ev
                0x00000000        0x2 C:\Users\Jose\DOCUME~1\rkt\rpk2\FIRMWA~1\LEOENC~1\ARDUIN~1\ARDUIN~1\ARDUIN~1\Debug\libArduinoCore.a(USBCore.o)
 .text._ZN10USBDevice_6detachEv
                0x00000000        0x2 C:\Users\Jose\DOCUME~1\rkt\rpk2\FIRMWA~1\LEOENC~1\ARDUIN~1\ARDUIN~1\ARDUIN~1\Debug\libArduinoCore.a(USBCore.o)
 .text._ZN10USBDevice_10configuredEv
                0x00000000        0xe C:\Users\Jose\DOCUME~1\rkt\rpk2\FIRMWA~1\LEOENC~1\ARDUIN~1\ARDUIN~1\ARDUIN~1\Debug\libArduinoCore.a(USBCore.o)
 .text._ZN10USBDevice_4pollEv
                0x00000000        0x2 C:\Users\Jose\DOCUME~1\rkt\rpk2\FIRMWA~1\LEOENC~1\ARDUIN~1\ARDUIN~1\ARDUIN~1\Debug\libArduinoCore.a(USBCore.o)
 .text._ZN10USBDevice_10wakeupHostEv
                0x00000000       0x38 C:\Users\Jose\DOCUME~1\rkt\rpk2\FIRMWA~1\LEOENC~1\ARDUIN~1\ARDUIN~1\ARDUIN~1\Debug\libArduinoCore.a(USBCore.o)
 .text._ZN10USBDevice_11isSuspendedEv
                0x00000000        0x8 C:\Users\Jose\DOCUME~1\rkt\rpk2\FIRMWA~1\LEOENC~1\ARDUIN~1\ARDUIN~1\ARDUIN~1\Debug\libArduinoCore.a(USBCore.o)
 .text          0x00000000        0x0 C:\Users\Jose\DOCUME~1\rkt\rpk2\FIRMWA~1\LEOENC~1\ARDUIN~1\ARDUIN~1\ARDUIN~1\Debug\libArduinoCore.a(wiring.o)
 .data          0x00000000        0x0 C:\Users\Jose\DOCUME~1\rkt\rpk2\FIRMWA~1\LEOENC~1\ARDUIN~1\ARDUIN~1\ARDUIN~1\Debug\libArduinoCore.a(wiring.o)
 .bss           0x00000000        0x0 C:\Users\Jose\DOCUME~1\rkt\rpk2\FIRMWA~1\LEOENC~1\ARDUIN~1\ARDUIN~1\ARDUIN~1\Debug\libArduinoCore.a(wiring.o)
 .text.delayMicroseconds
                0x00000000       0x16 C:\Users\Jose\DOCUME~1\rkt\rpk2\FIRMWA~1\LEOENC~1\ARDUIN~1\ARDUIN~1\ARDUIN~1\Debug\libArduinoCore.a(wiring.o)
 .text          0x00000000        0x0 C:\Users\Jose\DOCUME~1\rkt\rpk2\FIRMWA~1\LEOENC~1\ARDUIN~1\ARDUIN~1\ARDUIN~1\Debug\libArduinoCore.a(wiring_digital.o)
 .data          0x00000000        0x0 C:\Users\Jose\DOCUME~1\rkt\rpk2\FIRMWA~1\LEOENC~1\ARDUIN~1\ARDUIN~1\ARDUIN~1\Debug\libArduinoCore.a(wiring_digital.o)
 .bss           0x00000000        0x0 C:\Users\Jose\DOCUME~1\rkt\rpk2\FIRMWA~1\LEOENC~1\ARDUIN~1\ARDUIN~1\ARDUIN~1\Debug\libArduinoCore.a(wiring_digital.o)
 .text.digitalRead
                0x00000000       0x52 C:\Users\Jose\DOCUME~1\rkt\rpk2\FIRMWA~1\LEOENC~1\ARDUIN~1\ARDUIN~1\ARDUIN~1\Debug\libArduinoCore.a(wiring_digital.o)
 .progmem.data.analog_pin_to_channel_PGM
                0x00000000        0xc C:\Users\Jose\DOCUME~1\rkt\rpk2\FIRMWA~1\LEOENC~1\ARDUIN~1\ARDUIN~1\ARDUIN~1\Debug\libArduinoCore.a(wiring_digital.o)
 .progmem.data.port_to_input_PGM
                0x00000000        0xe C:\Users\Jose\DOCUME~1\rkt\rpk2\FIRMWA~1\LEOENC~1\ARDUIN~1\ARDUIN~1\ARDUIN~1\Debug\libArduinoCore.a(wiring_digital.o)
 .group         0x00000000        0x8 C:\Users\Jose\DOCUME~1\rkt\rpk2\FIRMWA~1\LEOENC~1\ARDUIN~1\ARDUIN~1\ARDUIN~1\Debug\libArduinoCore.a(WString.o)
 .text          0x00000000        0x0 C:\Users\Jose\DOCUME~1\rkt\rpk2\FIRMWA~1\LEOENC~1\ARDUIN~1\ARDUIN~1\ARDUIN~1\Debug\libArduinoCore.a(WString.o)
 .data          0x00000000        0x0 C:\Users\Jose\DOCUME~1\rkt\rpk2\FIRMWA~1\LEOENC~1\ARDUIN~1\ARDUIN~1\ARDUIN~1\Debug\libArduinoCore.a(WString.o)
 .bss           0x00000000        0x0 C:\Users\Jose\DOCUME~1\rkt\rpk2\FIRMWA~1\LEOENC~1\ARDUIN~1\ARDUIN~1\ARDUIN~1\Debug\libArduinoCore.a(WString.o)
 .text._ZNK6String14StringIfHelperEv
                0x00000000        0x2 C:\Users\Jose\DOCUME~1\rkt\rpk2\FIRMWA~1\LEOENC~1\ARDUIN~1\ARDUIN~1\ARDUIN~1\Debug\libArduinoCore.a(WString.o)
 .text._ZN6String4copyEPK19__FlashStringHelperj
                0x00000000       0x42 C:\Users\Jose\DOCUME~1\rkt\rpk2\FIRMWA~1\LEOENC~1\ARDUIN~1\ARDUIN~1\ARDUIN~1\Debug\libArduinoCore.a(WString.o)
 .text._ZN6String4moveERS_
                0x00000000       0x7a C:\Users\Jose\DOCUME~1\rkt\rpk2\FIRMWA~1\LEOENC~1\ARDUIN~1\ARDUIN~1\ARDUIN~1\Debug\libArduinoCore.a(WString.o)
 .text._ZN6StringC2EOS_
                0x00000000       0x12 C:\Users\Jose\DOCUME~1\rkt\rpk2\FIRMWA~1\LEOENC~1\ARDUIN~1\ARDUIN~1\ARDUIN~1\Debug\libArduinoCore.a(WString.o)
 .text._ZN6StringC2EO15StringSumHelper
                0x00000000       0x12 C:\Users\Jose\DOCUME~1\rkt\rpk2\FIRMWA~1\LEOENC~1\ARDUIN~1\ARDUIN~1\ARDUIN~1\Debug\libArduinoCore.a(WString.o)
 .text._ZN6StringaSERKS_
                0x00000000       0x2e C:\Users\Jose\DOCUME~1\rkt\rpk2\FIRMWA~1\LEOENC~1\ARDUIN~1\ARDUIN~1\ARDUIN~1\Debug\libArduinoCore.a(WString.o)
 .text._ZN6StringC2ERKS_
                0x00000000       0x12 C:\Users\Jose\DOCUME~1\rkt\rpk2\FIRMWA~1\LEOENC~1\ARDUIN~1\ARDUIN~1\ARDUIN~1\Debug\libArduinoCore.a(WString.o)
 .text._ZN6StringaSEOS_
                0x00000000       0x18 C:\Users\Jose\DOCUME~1\rkt\rpk2\FIRMWA~1\LEOENC~1\ARDUIN~1\ARDUIN~1\ARDUIN~1\Debug\libArduinoCore.a(WString.o)
 .text._ZN6StringaSEO15StringSumHelper
                0x00000000       0x18 C:\Users\Jose\DOCUME~1\rkt\rpk2\FIRMWA~1\LEOENC~1\ARDUIN~1\ARDUIN~1\ARDUIN~1\Debug\libArduinoCore.a(WString.o)
 .text._ZN6StringaSEPKc
                0x00000000       0x2e C:\Users\Jose\DOCUME~1\rkt\rpk2\FIRMWA~1\LEOENC~1\ARDUIN~1\ARDUIN~1\ARDUIN~1\Debug\libArduinoCore.a(WString.o)
 .text._ZN6StringC2Ec
                0x00000000       0x30 C:\Users\Jose\DOCUME~1\rkt\rpk2\FIRMWA~1\LEOENC~1\ARDUIN~1\ARDUIN~1\ARDUIN~1\Debug\libArduinoCore.a(WString.o)
 .text._ZN6StringC2Ehh
                0x00000000       0x5a C:\Users\Jose\DOCUME~1\rkt\rpk2\FIRMWA~1\LEOENC~1\ARDUIN~1\ARDUIN~1\ARDUIN~1\Debug\libArduinoCore.a(WString.o)
 .text._ZN6StringC2Eih
                0x00000000       0x58 C:\Users\Jose\DOCUME~1\rkt\rpk2\FIRMWA~1\LEOENC~1\ARDUIN~1\ARDUIN~1\ARDUIN~1\Debug\libArduinoCore.a(WString.o)
 .text._ZN6StringC2Ejh
                0x00000000       0x58 C:\Users\Jose\DOCUME~1\rkt\rpk2\FIRMWA~1\LEOENC~1\ARDUIN~1\ARDUIN~1\ARDUIN~1\Debug\libArduinoCore.a(WString.o)
 .text._ZN6StringC2Elh
                0x00000000       0x5a C:\Users\Jose\DOCUME~1\rkt\rpk2\FIRMWA~1\LEOENC~1\ARDUIN~1\ARDUIN~1\ARDUIN~1\Debug\libArduinoCore.a(WString.o)
 .text._ZN6StringC2Emh
                0x00000000       0x5a C:\Users\Jose\DOCUME~1\rkt\rpk2\FIRMWA~1\LEOENC~1\ARDUIN~1\ARDUIN~1\ARDUIN~1\Debug\libArduinoCore.a(WString.o)
 .text._ZN6StringC2Efh
                0x00000000       0x60 C:\Users\Jose\DOCUME~1\rkt\rpk2\FIRMWA~1\LEOENC~1\ARDUIN~1\ARDUIN~1\ARDUIN~1\Debug\libArduinoCore.a(WString.o)
 .text._ZN6StringC2Edh
                0x00000000       0x60 C:\Users\Jose\DOCUME~1\rkt\rpk2\FIRMWA~1\LEOENC~1\ARDUIN~1\ARDUIN~1\ARDUIN~1\Debug\libArduinoCore.a(WString.o)
 .text._ZN6StringaSEPK19__FlashStringHelper
                0x00000000       0x34 C:\Users\Jose\DOCUME~1\rkt\rpk2\FIRMWA~1\LEOENC~1\ARDUIN~1\ARDUIN~1\ARDUIN~1\Debug\libArduinoCore.a(WString.o)
 .text._ZN6StringC2EPK19__FlashStringHelper
                0x00000000       0x12 C:\Users\Jose\DOCUME~1\rkt\rpk2\FIRMWA~1\LEOENC~1\ARDUIN~1\ARDUIN~1\ARDUIN~1\Debug\libArduinoCore.a(WString.o)
 .text._ZN6String6concatERKS_
                0x00000000        0xe C:\Users\Jose\DOCUME~1\rkt\rpk2\FIRMWA~1\LEOENC~1\ARDUIN~1\ARDUIN~1\ARDUIN~1\Debug\libArduinoCore.a(WString.o)
 .text._ZN6String6concatEPKc
                0x00000000       0x1e C:\Users\Jose\DOCUME~1\rkt\rpk2\FIRMWA~1\LEOENC~1\ARDUIN~1\ARDUIN~1\ARDUIN~1\Debug\libArduinoCore.a(WString.o)
 .text._ZN6String6concatEh
                0x00000000       0x56 C:\Users\Jose\DOCUME~1\rkt\rpk2\FIRMWA~1\LEOENC~1\ARDUIN~1\ARDUIN~1\ARDUIN~1\Debug\libArduinoCore.a(WString.o)
 .text._ZN6String6concatEi
                0x00000000       0x60 C:\Users\Jose\DOCUME~1\rkt\rpk2\FIRMWA~1\LEOENC~1\ARDUIN~1\ARDUIN~1\ARDUIN~1\Debug\libArduinoCore.a(WString.o)
 .text._ZN6String6concatEj
                0x00000000       0x60 C:\Users\Jose\DOCUME~1\rkt\rpk2\FIRMWA~1\LEOENC~1\ARDUIN~1\ARDUIN~1\ARDUIN~1\Debug\libArduinoCore.a(WString.o)
 .text._ZN6String6concatEl
                0x00000000       0x62 C:\Users\Jose\DOCUME~1\rkt\rpk2\FIRMWA~1\LEOENC~1\ARDUIN~1\ARDUIN~1\ARDUIN~1\Debug\libArduinoCore.a(WString.o)
 .text._ZN6String6concatEm
                0x00000000       0x62 C:\Users\Jose\DOCUME~1\rkt\rpk2\FIRMWA~1\LEOENC~1\ARDUIN~1\ARDUIN~1\ARDUIN~1\Debug\libArduinoCore.a(WString.o)
 .text._ZN6String6concatEf
                0x00000000       0x62 C:\Users\Jose\DOCUME~1\rkt\rpk2\FIRMWA~1\LEOENC~1\ARDUIN~1\ARDUIN~1\ARDUIN~1\Debug\libArduinoCore.a(WString.o)
 .text._ZN6String6concatEd
                0x00000000       0x62 C:\Users\Jose\DOCUME~1\rkt\rpk2\FIRMWA~1\LEOENC~1\ARDUIN~1\ARDUIN~1\ARDUIN~1\Debug\libArduinoCore.a(WString.o)
 .text._ZN6String6concatEPK19__FlashStringHelper
                0x00000000       0x60 C:\Users\Jose\DOCUME~1\rkt\rpk2\FIRMWA~1\LEOENC~1\ARDUIN~1\ARDUIN~1\ARDUIN~1\Debug\libArduinoCore.a(WString.o)
 .text._ZplRK15StringSumHelperRK6String
                0x00000000       0x26 C:\Users\Jose\DOCUME~1\rkt\rpk2\FIRMWA~1\LEOENC~1\ARDUIN~1\ARDUIN~1\ARDUIN~1\Debug\libArduinoCore.a(WString.o)
 .text._ZplRK15StringSumHelperPKc
                0x00000000       0x32 C:\Users\Jose\DOCUME~1\rkt\rpk2\FIRMWA~1\LEOENC~1\ARDUIN~1\ARDUIN~1\ARDUIN~1\Debug\libArduinoCore.a(WString.o)
 .text._ZplRK15StringSumHelperc
                0x00000000       0x1c C:\Users\Jose\DOCUME~1\rkt\rpk2\FIRMWA~1\LEOENC~1\ARDUIN~1\ARDUIN~1\ARDUIN~1\Debug\libArduinoCore.a(WString.o)
 .text._ZplRK15StringSumHelperh
                0x00000000       0x1c C:\Users\Jose\DOCUME~1\rkt\rpk2\FIRMWA~1\LEOENC~1\ARDUIN~1\ARDUIN~1\ARDUIN~1\Debug\libArduinoCore.a(WString.o)
 .text._ZplRK15StringSumHelperi
                0x00000000       0x1c C:\Users\Jose\DOCUME~1\rkt\rpk2\FIRMWA~1\LEOENC~1\ARDUIN~1\ARDUIN~1\ARDUIN~1\Debug\libArduinoCore.a(WString.o)
 .text._ZplRK15StringSumHelperj
                0x00000000       0x1c C:\Users\Jose\DOCUME~1\rkt\rpk2\FIRMWA~1\LEOENC~1\ARDUIN~1\ARDUIN~1\ARDUIN~1\Debug\libArduinoCore.a(WString.o)
 .text._ZplRK15StringSumHelperl
                0x00000000       0x1c C:\Users\Jose\DOCUME~1\rkt\rpk2\FIRMWA~1\LEOENC~1\ARDUIN~1\ARDUIN~1\ARDUIN~1\Debug\libArduinoCore.a(WString.o)
 .text._ZplRK15StringSumHelperm
                0x00000000       0x1c C:\Users\Jose\DOCUME~1\rkt\rpk2\FIRMWA~1\LEOENC~1\ARDUIN~1\ARDUIN~1\ARDUIN~1\Debug\libArduinoCore.a(WString.o)
 .text._ZplRK15StringSumHelperf
                0x00000000       0x1c C:\Users\Jose\DOCUME~1\rkt\rpk2\FIRMWA~1\LEOENC~1\ARDUIN~1\ARDUIN~1\ARDUIN~1\Debug\libArduinoCore.a(WString.o)
 .text._ZplRK15StringSumHelperd
                0x00000000       0x1c C:\Users\Jose\DOCUME~1\rkt\rpk2\FIRMWA~1\LEOENC~1\ARDUIN~1\ARDUIN~1\ARDUIN~1\Debug\libArduinoCore.a(WString.o)
 .text._ZplRK15StringSumHelperPK19__FlashStringHelper
                0x00000000       0x1c C:\Users\Jose\DOCUME~1\rkt\rpk2\FIRMWA~1\LEOENC~1\ARDUIN~1\ARDUIN~1\ARDUIN~1\Debug\libArduinoCore.a(WString.o)
 .text._ZNK6String9compareToERKS_
                0x00000000       0x60 C:\Users\Jose\DOCUME~1\rkt\rpk2\FIRMWA~1\LEOENC~1\ARDUIN~1\ARDUIN~1\ARDUIN~1\Debug\libArduinoCore.a(WString.o)
 .text._ZNK6String6equalsERKS_
                0x00000000       0x22 C:\Users\Jose\DOCUME~1\rkt\rpk2\FIRMWA~1\LEOENC~1\ARDUIN~1\ARDUIN~1\ARDUIN~1\Debug\libArduinoCore.a(WString.o)
 .text._ZNK6String6equalsEPKc
                0x00000000       0x3e C:\Users\Jose\DOCUME~1\rkt\rpk2\FIRMWA~1\LEOENC~1\ARDUIN~1\ARDUIN~1\ARDUIN~1\Debug\libArduinoCore.a(WString.o)
 .text._ZNK6StringltERKS_
                0x00000000        0xe C:\Users\Jose\DOCUME~1\rkt\rpk2\FIRMWA~1\LEOENC~1\ARDUIN~1\ARDUIN~1\ARDUIN~1\Debug\libArduinoCore.a(WString.o)
 .text._ZNK6StringgtERKS_
                0x00000000       0x12 C:\Users\Jose\DOCUME~1\rkt\rpk2\FIRMWA~1\LEOENC~1\ARDUIN~1\ARDUIN~1\ARDUIN~1\Debug\libArduinoCore.a(WString.o)
 .text._ZNK6StringleERKS_
                0x00000000       0x12 C:\Users\Jose\DOCUME~1\rkt\rpk2\FIRMWA~1\LEOENC~1\ARDUIN~1\ARDUIN~1\ARDUIN~1\Debug\libArduinoCore.a(WString.o)
 .text._ZNK6StringgeERKS_
                0x00000000       0x10 C:\Users\Jose\DOCUME~1\rkt\rpk2\FIRMWA~1\LEOENC~1\ARDUIN~1\ARDUIN~1\ARDUIN~1\Debug\libArduinoCore.a(WString.o)
 .text._ZNK6String16equalsIgnoreCaseERKS_
                0x00000000       0x66 C:\Users\Jose\DOCUME~1\rkt\rpk2\FIRMWA~1\LEOENC~1\ARDUIN~1\ARDUIN~1\ARDUIN~1\Debug\libArduinoCore.a(WString.o)
 .text._ZNK6String10startsWithERKS_j
                0x00000000       0x4c C:\Users\Jose\DOCUME~1\rkt\rpk2\FIRMWA~1\LEOENC~1\ARDUIN~1\ARDUIN~1\ARDUIN~1\Debug\libArduinoCore.a(WString.o)
 .text._ZNK6String10startsWithERKS_
                0x00000000       0x1e C:\Users\Jose\DOCUME~1\rkt\rpk2\FIRMWA~1\LEOENC~1\ARDUIN~1\ARDUIN~1\ARDUIN~1\Debug\libArduinoCore.a(WString.o)
 .text._ZNK6String8endsWithERKS_
                0x00000000       0x40 C:\Users\Jose\DOCUME~1\rkt\rpk2\FIRMWA~1\LEOENC~1\ARDUIN~1\ARDUIN~1\ARDUIN~1\Debug\libArduinoCore.a(WString.o)
 .text._ZN6String9setCharAtEjc
                0x00000000       0x1a C:\Users\Jose\DOCUME~1\rkt\rpk2\FIRMWA~1\LEOENC~1\ARDUIN~1\ARDUIN~1\ARDUIN~1\Debug\libArduinoCore.a(WString.o)
 .text._ZN6StringixEj
                0x00000000       0x24 C:\Users\Jose\DOCUME~1\rkt\rpk2\FIRMWA~1\LEOENC~1\ARDUIN~1\ARDUIN~1\ARDUIN~1\Debug\libArduinoCore.a(WString.o)
 .text._ZNK6StringixEj
                0x00000000       0x22 C:\Users\Jose\DOCUME~1\rkt\rpk2\FIRMWA~1\LEOENC~1\ARDUIN~1\ARDUIN~1\ARDUIN~1\Debug\libArduinoCore.a(WString.o)
 .text._ZNK6String6charAtEj
                0x00000000        0x4 C:\Users\Jose\DOCUME~1\rkt\rpk2\FIRMWA~1\LEOENC~1\ARDUIN~1\ARDUIN~1\ARDUIN~1\Debug\libArduinoCore.a(WString.o)
 .text._ZNK6String7indexOfEcj
                0x00000000       0x34 C:\Users\Jose\DOCUME~1\rkt\rpk2\FIRMWA~1\LEOENC~1\ARDUIN~1\ARDUIN~1\ARDUIN~1\Debug\libArduinoCore.a(WString.o)
 .text._ZNK6String7indexOfEc
                0x00000000        0x8 C:\Users\Jose\DOCUME~1\rkt\rpk2\FIRMWA~1\LEOENC~1\ARDUIN~1\ARDUIN~1\ARDUIN~1\Debug\libArduinoCore.a(WString.o)
 .text._ZNK6String7indexOfERKS_j
                0x00000000       0x3a C:\Users\Jose\DOCUME~1\rkt\rpk2\FIRMWA~1\LEOENC~1\ARDUIN~1\ARDUIN~1\ARDUIN~1\Debug\libArduinoCore.a(WString.o)
 .text._ZNK6String7indexOfERKS_
                0x00000000        0x8 C:\Users\Jose\DOCUME~1\rkt\rpk2\FIRMWA~1\LEOENC~1\ARDUIN~1\ARDUIN~1\ARDUIN~1\Debug\libArduinoCore.a(WString.o)
 .text._ZNK6String11lastIndexOfEcj
                0x00000000       0x6a C:\Users\Jose\DOCUME~1\rkt\rpk2\FIRMWA~1\LEOENC~1\ARDUIN~1\ARDUIN~1\ARDUIN~1\Debug\libArduinoCore.a(WString.o)
 .text._ZNK6String11lastIndexOfEc
                0x00000000        0xe C:\Users\Jose\DOCUME~1\rkt\rpk2\FIRMWA~1\LEOENC~1\ARDUIN~1\ARDUIN~1\ARDUIN~1\Debug\libArduinoCore.a(WString.o)
 .text._ZNK6String11lastIndexOfERKS_j
                0x00000000       0x9c C:\Users\Jose\DOCUME~1\rkt\rpk2\FIRMWA~1\LEOENC~1\ARDUIN~1\ARDUIN~1\ARDUIN~1\Debug\libArduinoCore.a(WString.o)
 .text._ZNK6String11lastIndexOfERKS_
                0x00000000       0x14 C:\Users\Jose\DOCUME~1\rkt\rpk2\FIRMWA~1\LEOENC~1\ARDUIN~1\ARDUIN~1\ARDUIN~1\Debug\libArduinoCore.a(WString.o)
 .rodata.str1.1
                0x00000000        0x1 C:\Users\Jose\DOCUME~1\rkt\rpk2\FIRMWA~1\LEOENC~1\ARDUIN~1\ARDUIN~1\ARDUIN~1\Debug\libArduinoCore.a(WString.o)
 .text._ZNK6String9substringEjj
                0x00000000       0x8a C:\Users\Jose\DOCUME~1\rkt\rpk2\FIRMWA~1\LEOENC~1\ARDUIN~1\ARDUIN~1\ARDUIN~1\Debug\libArduinoCore.a(WString.o)
 .text._ZN6String7replaceEcc
                0x00000000       0x1c C:\Users\Jose\DOCUME~1\rkt\rpk2\FIRMWA~1\LEOENC~1\ARDUIN~1\ARDUIN~1\ARDUIN~1\Debug\libArduinoCore.a(WString.o)
 .text._ZN6String7replaceERKS_S1_
                0x00000000      0x1f4 C:\Users\Jose\DOCUME~1\rkt\rpk2\FIRMWA~1\LEOENC~1\ARDUIN~1\ARDUIN~1\ARDUIN~1\Debug\libArduinoCore.a(WString.o)
 .text._ZN6String6removeEjj
                0x00000000       0x66 C:\Users\Jose\DOCUME~1\rkt\rpk2\FIRMWA~1\LEOENC~1\ARDUIN~1\ARDUIN~1\ARDUIN~1\Debug\libArduinoCore.a(WString.o)
 .text._ZN6String6removeEj
                0x00000000        0x8 C:\Users\Jose\DOCUME~1\rkt\rpk2\FIRMWA~1\LEOENC~1\ARDUIN~1\ARDUIN~1\ARDUIN~1\Debug\libArduinoCore.a(WString.o)
 .text._ZN6String11toLowerCaseEv
                0x00000000       0x24 C:\Users\Jose\DOCUME~1\rkt\rpk2\FIRMWA~1\LEOENC~1\ARDUIN~1\ARDUIN~1\ARDUIN~1\Debug\libArduinoCore.a(WString.o)
 .text._ZN6String11toUpperCaseEv
                0x00000000       0x24 C:\Users\Jose\DOCUME~1\rkt\rpk2\FIRMWA~1\LEOENC~1\ARDUIN~1\ARDUIN~1\ARDUIN~1\Debug\libArduinoCore.a(WString.o)
 .text._ZN6String4trimEv
                0x00000000       0xb8 C:\Users\Jose\DOCUME~1\rkt\rpk2\FIRMWA~1\LEOENC~1\ARDUIN~1\ARDUIN~1\ARDUIN~1\Debug\libArduinoCore.a(WString.o)
 .text._ZNK6String5toIntEv
                0x00000000       0x16 C:\Users\Jose\DOCUME~1\rkt\rpk2\FIRMWA~1\LEOENC~1\ARDUIN~1\ARDUIN~1\ARDUIN~1\Debug\libArduinoCore.a(WString.o)
 .text._ZNK6String8toDoubleEv
                0x00000000       0x16 C:\Users\Jose\DOCUME~1\rkt\rpk2\FIRMWA~1\LEOENC~1\ARDUIN~1\ARDUIN~1\ARDUIN~1\Debug\libArduinoCore.a(WString.o)
 .text._ZNK6String7toFloatEv
                0x00000000        0x4 C:\Users\Jose\DOCUME~1\rkt\rpk2\FIRMWA~1\LEOENC~1\ARDUIN~1\ARDUIN~1\ARDUIN~1\Debug\libArduinoCore.a(WString.o)
 .bss._ZZN6StringixEjE19dummy_writable_char
                0x00000000        0x1 C:\Users\Jose\DOCUME~1\rkt\rpk2\FIRMWA~1\LEOENC~1\ARDUIN~1\ARDUIN~1\ARDUIN~1\Debug\libArduinoCore.a(WString.o)
 .group         0x00000000        0x8 C:\Users\Jose\DOCUME~1\rkt\rpk2\FIRMWA~1\LEOENC~1\ARDUIN~1\ARDUIN~1\ARDUIN~1\Debug\libArduinoCore.a(RHGenericDriver.o)
 .text          0x00000000        0x0 C:\Users\Jose\DOCUME~1\rkt\rpk2\FIRMWA~1\LEOENC~1\ARDUIN~1\ARDUIN~1\ARDUIN~1\Debug\libArduinoCore.a(RHGenericDriver.o)
 .data          0x00000000        0x0 C:\Users\Jose\DOCUME~1\rkt\rpk2\FIRMWA~1\LEOENC~1\ARDUIN~1\ARDUIN~1\ARDUIN~1\Debug\libArduinoCore.a(RHGenericDriver.o)
 .bss           0x00000000        0x0 C:\Users\Jose\DOCUME~1\rkt\rpk2\FIRMWA~1\LEOENC~1\ARDUIN~1\ARDUIN~1\ARDUIN~1\Debug\libArduinoCore.a(RHGenericDriver.o)
 .rodata.str1.1
                0x00000000        0x1 C:\Users\Jose\DOCUME~1\rkt\rpk2\FIRMWA~1\LEOENC~1\ARDUIN~1\ARDUIN~1\ARDUIN~1\Debug\libArduinoCore.a(RHGenericDriver.o)
 .text._ZN15RHGenericDriver11printBufferEPKcPKhh
                0x00000000       0x6a C:\Users\Jose\DOCUME~1\rkt\rpk2\FIRMWA~1\LEOENC~1\ARDUIN~1\ARDUIN~1\ARDUIN~1\Debug\libArduinoCore.a(RHGenericDriver.o)
 .text._ZN15RHGenericDriver13setCADTimeoutEm
                0x00000000        0x8 C:\Users\Jose\DOCUME~1\rkt\rpk2\FIRMWA~1\LEOENC~1\ARDUIN~1\ARDUIN~1\ARDUIN~1\Debug\libArduinoCore.a(RHGenericDriver.o)
 .group         0x00000000        0x8 C:\Users\Jose\DOCUME~1\rkt\rpk2\FIRMWA~1\LEOENC~1\ARDUIN~1\ARDUIN~1\ARDUIN~1\Debug\libArduinoCore.a(RHHardwareSPI.o)
 .text          0x00000000        0x0 C:\Users\Jose\DOCUME~1\rkt\rpk2\FIRMWA~1\LEOENC~1\ARDUIN~1\ARDUIN~1\ARDUIN~1\Debug\libArduinoCore.a(RHHardwareSPI.o)
 .data          0x00000000        0x0 C:\Users\Jose\DOCUME~1\rkt\rpk2\FIRMWA~1\LEOENC~1\ARDUIN~1\ARDUIN~1\ARDUIN~1\Debug\libArduinoCore.a(RHHardwareSPI.o)
 .bss           0x00000000        0x0 C:\Users\Jose\DOCUME~1\rkt\rpk2\FIRMWA~1\LEOENC~1\ARDUIN~1\ARDUIN~1\ARDUIN~1\Debug\libArduinoCore.a(RHHardwareSPI.o)
 .group         0x00000000        0x8 C:\Users\Jose\DOCUME~1\rkt\rpk2\FIRMWA~1\LEOENC~1\ARDUIN~1\ARDUIN~1\ARDUIN~1\Debug\libArduinoCore.a(RH_RF69.o)
 .text          0x00000000        0x0 C:\Users\Jose\DOCUME~1\rkt\rpk2\FIRMWA~1\LEOENC~1\ARDUIN~1\ARDUIN~1\ARDUIN~1\Debug\libArduinoCore.a(RH_RF69.o)
 .data          0x00000000        0x0 C:\Users\Jose\DOCUME~1\rkt\rpk2\FIRMWA~1\LEOENC~1\ARDUIN~1\ARDUIN~1\ARDUIN~1\Debug\libArduinoCore.a(RH_RF69.o)
 .bss           0x00000000        0x0 C:\Users\Jose\DOCUME~1\rkt\rpk2\FIRMWA~1\LEOENC~1\ARDUIN~1\ARDUIN~1\ARDUIN~1\Debug\libArduinoCore.a(RH_RF69.o)
 .text._ZN7RH_RF6911setIdleModeEh
                0x00000000        0x6 C:\Users\Jose\DOCUME~1\rkt\rpk2\FIRMWA~1\LEOENC~1\ARDUIN~1\ARDUIN~1\ARDUIN~1\Debug\libArduinoCore.a(RH_RF69.o)
 .text._ZN7RH_RF6915temperatureReadEv
                0x00000000       0x2e C:\Users\Jose\DOCUME~1\rkt\rpk2\FIRMWA~1\LEOENC~1\ARDUIN~1\ARDUIN~1\ARDUIN~1\Debug\libArduinoCore.a(RH_RF69.o)
 .text._ZN7RH_RF698rssiReadEv
                0x00000000        0xc C:\Users\Jose\DOCUME~1\rkt\rpk2\FIRMWA~1\LEOENC~1\ARDUIN~1\ARDUIN~1\ARDUIN~1\Debug\libArduinoCore.a(RH_RF69.o)
 .rodata.str1.1
                0x00000000        0x2 C:\Users\Jose\DOCUME~1\rkt\rpk2\FIRMWA~1\LEOENC~1\ARDUIN~1\ARDUIN~1\ARDUIN~1\Debug\libArduinoCore.a(RH_RF69.o)
 .text._ZN7RH_RF6913printRegisterEh
                0x00000000       0x42 C:\Users\Jose\DOCUME~1\rkt\rpk2\FIRMWA~1\LEOENC~1\ARDUIN~1\ARDUIN~1\ARDUIN~1\Debug\libArduinoCore.a(RH_RF69.o)
 .text._ZN7RH_RF6914printRegistersEv
                0x00000000       0x3a C:\Users\Jose\DOCUME~1\rkt\rpk2\FIRMWA~1\LEOENC~1\ARDUIN~1\ARDUIN~1\ARDUIN~1\Debug\libArduinoCore.a(RH_RF69.o)
 .text          0x00000000        0x0 C:\Users\Jose\DOCUME~1\rkt\rpk2\FIRMWA~1\LEOENC~1\ARDUIN~1\ARDUIN~1\ARDUIN~1\Debug\libArduinoCore.a(SPI.o)
 .data          0x00000000        0x0 C:\Users\Jose\DOCUME~1\rkt\rpk2\FIRMWA~1\LEOENC~1\ARDUIN~1\ARDUIN~1\ARDUIN~1\Debug\libArduinoCore.a(SPI.o)
 .bss           0x00000000        0x0 C:\Users\Jose\DOCUME~1\rkt\rpk2\FIRMWA~1\LEOENC~1\ARDUIN~1\ARDUIN~1\ARDUIN~1\Debug\libArduinoCore.a(SPI.o)
 .text._ZN8SPIClass14usingInterruptEh
                0x00000000       0x52 C:\Users\Jose\DOCUME~1\rkt\rpk2\FIRMWA~1\LEOENC~1\ARDUIN~1\ARDUIN~1\ARDUIN~1\Debug\libArduinoCore.a(SPI.o)
 .text._ZN8SPIClass17notUsingInterruptEh
                0x00000000       0x36 C:\Users\Jose\DOCUME~1\rkt\rpk2\FIRMWA~1\LEOENC~1\ARDUIN~1\ARDUIN~1\ARDUIN~1\Debug\libArduinoCore.a(SPI.o)
 .rodata.CSWTCH.20
                0x00000000        0x5 C:\Users\Jose\DOCUME~1\rkt\rpk2\FIRMWA~1\LEOENC~1\ARDUIN~1\ARDUIN~1\ARDUIN~1\Debug\libArduinoCore.a(SPI.o)
 .bss.SPI       0x00000000        0x1 C:\Users\Jose\DOCUME~1\rkt\rpk2\FIRMWA~1\LEOENC~1\ARDUIN~1\ARDUIN~1\ARDUIN~1\Debug\libArduinoCore.a(SPI.o)
 .text          0x00000000        0x0 C:\Users\Jose\DOCUME~1\rkt\rpk2\FIRMWA~1\LEOENC~1\ARDUIN~1\ARDUIN~1\ARDUIN~1\Debug\libArduinoCore.a(abi.o)
 .data          0x00000000        0x0 C:\Users\Jose\DOCUME~1\rkt\rpk2\FIRMWA~1\LEOENC~1\ARDUIN~1\ARDUIN~1\ARDUIN~1\Debug\libArduinoCore.a(abi.o)
 .bss           0x00000000        0x0 C:\Users\Jose\DOCUME~1\rkt\rpk2\FIRMWA~1\LEOENC~1\ARDUIN~1\ARDUIN~1\ARDUIN~1\Debug\libArduinoCore.a(abi.o)
 .text.__cxa_deleted_virtual
                0x00000000        0x4 C:\Users\Jose\DOCUME~1\rkt\rpk2\FIRMWA~1\LEOENC~1\ARDUIN~1\ARDUIN~1\ARDUIN~1\Debug\libArduinoCore.a(abi.o)
 .text          0x00000000        0x0 C:\Users\Jose\DOCUME~1\rkt\rpk2\FIRMWA~1\LEOENC~1\ARDUIN~1\ARDUIN~1\ARDUIN~1\Debug\libArduinoCore.a(hooks.o)
 .data          0x00000000        0x0 C:\Users\Jose\DOCUME~1\rkt\rpk2\FIRMWA~1\LEOENC~1\ARDUIN~1\ARDUIN~1\ARDUIN~1\Debug\libArduinoCore.a(hooks.o)
 .bss           0x00000000        0x0 C:\Users\Jose\DOCUME~1\rkt\rpk2\FIRMWA~1\LEOENC~1\ARDUIN~1\ARDUIN~1\ARDUIN~1\Debug\libArduinoCore.a(hooks.o)
 .text          0x00000000        0x0 C:\Users\Jose\DOCUME~1\rkt\rpk2\FIRMWA~1\LEOENC~1\ARDUIN~1\ARDUIN~1\ARDUIN~1\Debug\libArduinoCore.a(PluggableUSB.o)
 .data          0x00000000        0x0 C:\Users\Jose\DOCUME~1\rkt\rpk2\FIRMWA~1\LEOENC~1\ARDUIN~1\ARDUIN~1\ARDUIN~1\Debug\libArduinoCore.a(PluggableUSB.o)
 .bss           0x00000000        0x0 C:\Users\Jose\DOCUME~1\rkt\rpk2\FIRMWA~1\LEOENC~1\ARDUIN~1\ARDUIN~1\ARDUIN~1\Debug\libArduinoCore.a(PluggableUSB.o)
 .text._ZN13PluggableUSB_4plugEP18PluggableUSBModule
                0x00000000       0x8e C:\Users\Jose\DOCUME~1\rkt\rpk2\FIRMWA~1\LEOENC~1\ARDUIN~1\ARDUIN~1\ARDUIN~1\Debug\libArduinoCore.a(PluggableUSB.o)
 .text._ZN13PluggableUSB_C2Ev
                0x00000000       0x10 C:\Users\Jose\DOCUME~1\rkt\rpk2\FIRMWA~1\LEOENC~1\ARDUIN~1\ARDUIN~1\ARDUIN~1\Debug\libArduinoCore.a(PluggableUSB.o)
 .text          0x00000000        0x0 C:\Users\Jose\DOCUME~1\rkt\rpk2\FIRMWA~1\LEOENC~1\ARDUIN~1\ARDUIN~1\ARDUIN~1\Debug\libArduinoCore.a(WInterrupts.o)
 .data          0x00000000        0x0 C:\Users\Jose\DOCUME~1\rkt\rpk2\FIRMWA~1\LEOENC~1\ARDUIN~1\ARDUIN~1\ARDUIN~1\Debug\libArduinoCore.a(WInterrupts.o)
 .bss           0x00000000        0x0 C:\Users\Jose\DOCUME~1\rkt\rpk2\FIRMWA~1\LEOENC~1\ARDUIN~1\ARDUIN~1\ARDUIN~1\Debug\libArduinoCore.a(WInterrupts.o)
 .text.detachInterrupt
                0x00000000       0x40 C:\Users\Jose\DOCUME~1\rkt\rpk2\FIRMWA~1\LEOENC~1\ARDUIN~1\ARDUIN~1\ARDUIN~1\Debug\libArduinoCore.a(WInterrupts.o)
 .text          0x00000000        0x0 C:\Users\Jose\DOCUME~1\rkt\rpk2\FIRMWA~1\LEOENC~1\ARDUIN~1\ARDUIN~1\ARDUIN~1\Debug\libArduinoCore.a(WMath.o)
 .data          0x00000000        0x0 C:\Users\Jose\DOCUME~1\rkt\rpk2\FIRMWA~1\LEOENC~1\ARDUIN~1\ARDUIN~1\ARDUIN~1\Debug\libArduinoCore.a(WMath.o)
 .bss           0x00000000        0x0 C:\Users\Jose\DOCUME~1\rkt\rpk2\FIRMWA~1\LEOENC~1\ARDUIN~1\ARDUIN~1\ARDUIN~1\Debug\libArduinoCore.a(WMath.o)
 .text._Z10randomSeedm
                0x00000000       0x10 C:\Users\Jose\DOCUME~1\rkt\rpk2\FIRMWA~1\LEOENC~1\ARDUIN~1\ARDUIN~1\ARDUIN~1\Debug\libArduinoCore.a(WMath.o)
 .text._Z3maplllll
                0x00000000       0x82 C:\Users\Jose\DOCUME~1\rkt\rpk2\FIRMWA~1\LEOENC~1\ARDUIN~1\ARDUIN~1\ARDUIN~1\Debug\libArduinoCore.a(WMath.o)
 .text._Z8makeWordj
                0x00000000        0x2 C:\Users\Jose\DOCUME~1\rkt\rpk2\FIRMWA~1\LEOENC~1\ARDUIN~1\ARDUIN~1\ARDUIN~1\Debug\libArduinoCore.a(WMath.o)
 .text._Z8makeWordhh
                0x00000000        0xa C:\Users\Jose\DOCUME~1\rkt\rpk2\FIRMWA~1\LEOENC~1\ARDUIN~1\ARDUIN~1\ARDUIN~1\Debug\libArduinoCore.a(WMath.o)
 .group         0x00000000        0x8 C:\Users\Jose\DOCUME~1\rkt\rpk2\FIRMWA~1\LEOENC~1\ARDUIN~1\ARDUIN~1\ARDUIN~1\Debug\libArduinoCore.a(RHGenericSPI.o)
 .group         0x00000000        0x8 C:\Users\Jose\DOCUME~1\rkt\rpk2\FIRMWA~1\LEOENC~1\ARDUIN~1\ARDUIN~1\ARDUIN~1\Debug\libArduinoCore.a(RHGenericSPI.o)
 .group         0x00000000        0x8 C:\Users\Jose\DOCUME~1\rkt\rpk2\FIRMWA~1\LEOENC~1\ARDUIN~1\ARDUIN~1\ARDUIN~1\Debug\libArduinoCore.a(RHGenericSPI.o)
 .group         0x00000000        0x8 C:\Users\Jose\DOCUME~1\rkt\rpk2\FIRMWA~1\LEOENC~1\ARDUIN~1\ARDUIN~1\ARDUIN~1\Debug\libArduinoCore.a(RHGenericSPI.o)
 .group         0x00000000        0x8 C:\Users\Jose\DOCUME~1\rkt\rpk2\FIRMWA~1\LEOENC~1\ARDUIN~1\ARDUIN~1\ARDUIN~1\Debug\libArduinoCore.a(RHGenericSPI.o)
 .group         0x00000000        0x8 C:\Users\Jose\DOCUME~1\rkt\rpk2\FIRMWA~1\LEOENC~1\ARDUIN~1\ARDUIN~1\ARDUIN~1\Debug\libArduinoCore.a(RHGenericSPI.o)
 .text          0x00000000        0x0 C:\Users\Jose\DOCUME~1\rkt\rpk2\FIRMWA~1\LEOENC~1\ARDUIN~1\ARDUIN~1\ARDUIN~1\Debug\libArduinoCore.a(RHGenericSPI.o)
 .data          0x00000000        0x0 C:\Users\Jose\DOCUME~1\rkt\rpk2\FIRMWA~1\LEOENC~1\ARDUIN~1\ARDUIN~1\ARDUIN~1\Debug\libArduinoCore.a(RHGenericSPI.o)
 .bss           0x00000000        0x0 C:\Users\Jose\DOCUME~1\rkt\rpk2\FIRMWA~1\LEOENC~1\ARDUIN~1\ARDUIN~1\ARDUIN~1\Debug\libArduinoCore.a(RHGenericSPI.o)
 .group         0x00000000        0x8 C:\Users\Jose\DOCUME~1\rkt\rpk2\FIRMWA~1\LEOENC~1\ARDUIN~1\ARDUIN~1\ARDUIN~1\Debug\libArduinoCore.a(RHSPIDriver.o)
 .text          0x00000000        0x0 C:\Users\Jose\DOCUME~1\rkt\rpk2\FIRMWA~1\LEOENC~1\ARDUIN~1\ARDUIN~1\ARDUIN~1\Debug\libArduinoCore.a(RHSPIDriver.o)
 .data          0x00000000        0x0 C:\Users\Jose\DOCUME~1\rkt\rpk2\FIRMWA~1\LEOENC~1\ARDUIN~1\ARDUIN~1\ARDUIN~1\Debug\libArduinoCore.a(RHSPIDriver.o)
 .bss           0x00000000        0x0 C:\Users\Jose\DOCUME~1\rkt\rpk2\FIRMWA~1\LEOENC~1\ARDUIN~1\ARDUIN~1\ARDUIN~1\Debug\libArduinoCore.a(RHSPIDriver.o)
 .text._ZN11RHSPIDriver12spiBurstReadEhPhh
                0x00000000       0xaa C:\Users\Jose\DOCUME~1\rkt\rpk2\FIRMWA~1\LEOENC~1\ARDUIN~1\ARDUIN~1\ARDUIN~1\Debug\libArduinoCore.a(RHSPIDriver.o)
 .text._ZN11RHSPIDriver17setSlaveSelectPinEh
                0x00000000        0x6 C:\Users\Jose\DOCUME~1\rkt\rpk2\FIRMWA~1\LEOENC~1\ARDUIN~1\ARDUIN~1\ARDUIN~1\Debug\libArduinoCore.a(RHSPIDriver.o)
 .text          0x00000000        0x0 c:/program files (x86)/atmel/studio/7.0/toolchain/avr8/avr8-gnu-toolchain/bin/../lib/gcc/avr/5.4.0/../../../../avr/lib/avr5\libm.a(addsf3.o)
 .data          0x00000000        0x0 c:/program files (x86)/atmel/studio/7.0/toolchain/avr8/avr8-gnu-toolchain/bin/../lib/gcc/avr/5.4.0/../../../../avr/lib/avr5\libm.a(addsf3.o)
 .bss           0x00000000        0x0 c:/program files (x86)/atmel/studio/7.0/toolchain/avr8/avr8-gnu-toolchain/bin/../lib/gcc/avr/5.4.0/../../../../avr/lib/avr5\libm.a(addsf3.o)
 .text.avr-libc.fplib
                0x00000000        0xe c:/program files (x86)/atmel/studio/7.0/toolchain/avr8/avr8-gnu-toolchain/bin/../lib/gcc/avr/5.4.0/../../../../avr/lib/avr5\libm.a(addsf3.o)
 .text          0x00000000        0x0 c:/program files (x86)/atmel/studio/7.0/toolchain/avr8/avr8-gnu-toolchain/bin/../lib/gcc/avr/5.4.0/../../../../avr/lib/avr5\libm.a(addsf3x.o)
 .data          0x00000000        0x0 c:/program files (x86)/atmel/studio/7.0/toolchain/avr8/avr8-gnu-toolchain/bin/../lib/gcc/avr/5.4.0/../../../../avr/lib/avr5\libm.a(addsf3x.o)
 .bss           0x00000000        0x0 c:/program files (x86)/atmel/studio/7.0/toolchain/avr8/avr8-gnu-toolchain/bin/../lib/gcc/avr/5.4.0/../../../../avr/lib/avr5\libm.a(addsf3x.o)
 .text.avr-libc.fplib
                0x00000000       0xcc c:/program files (x86)/atmel/studio/7.0/toolchain/avr8/avr8-gnu-toolchain/bin/../lib/gcc/avr/5.4.0/../../../../avr/lib/avr5\libm.a(addsf3x.o)
 .text          0x00000000        0x0 c:/program files (x86)/atmel/studio/7.0/toolchain/avr8/avr8-gnu-toolchain/bin/../lib/gcc/avr/5.4.0/../../../../avr/lib/avr5\libm.a(cmpsf2.o)
 .data          0x00000000        0x0 c:/program files (x86)/atmel/studio/7.0/toolchain/avr8/avr8-gnu-toolchain/bin/../lib/gcc/avr/5.4.0/../../../../avr/lib/avr5\libm.a(cmpsf2.o)
 .bss           0x00000000        0x0 c:/program files (x86)/atmel/studio/7.0/toolchain/avr8/avr8-gnu-toolchain/bin/../lib/gcc/avr/5.4.0/../../../../avr/lib/avr5\libm.a(cmpsf2.o)
 .text.avr-libc.fplib
                0x00000000        0xa c:/program files (x86)/atmel/studio/7.0/toolchain/avr8/avr8-gnu-toolchain/bin/../lib/gcc/avr/5.4.0/../../../../avr/lib/avr5\libm.a(cmpsf2.o)
 .text          0x00000000        0x0 c:/program files (x86)/atmel/studio/7.0/toolchain/avr8/avr8-gnu-toolchain/bin/../lib/gcc/avr/5.4.0/../../../../avr/lib/avr5\libm.a(divsf3.o)
 .data          0x00000000        0x0 c:/program files (x86)/atmel/studio/7.0/toolchain/avr8/avr8-gnu-toolchain/bin/../lib/gcc/avr/5.4.0/../../../../avr/lib/avr5\libm.a(divsf3.o)
 .bss           0x00000000        0x0 c:/program files (x86)/atmel/studio/7.0/toolchain/avr8/avr8-gnu-toolchain/bin/../lib/gcc/avr/5.4.0/../../../../avr/lib/avr5\libm.a(divsf3.o)
 .text          0x00000000        0x0 c:/program files (x86)/atmel/studio/7.0/toolchain/avr8/avr8-gnu-toolchain/bin/../lib/gcc/avr/5.4.0/../../../../avr/lib/avr5\libm.a(divsf3x.o)
 .data          0x00000000        0x0 c:/program files (x86)/atmel/studio/7.0/toolchain/avr8/avr8-gnu-toolchain/bin/../lib/gcc/avr/5.4.0/../../../../avr/lib/avr5\libm.a(divsf3x.o)
 .bss           0x00000000        0x0 c:/program files (x86)/atmel/studio/7.0/toolchain/avr8/avr8-gnu-toolchain/bin/../lib/gcc/avr/5.4.0/../../../../avr/lib/avr5\libm.a(divsf3x.o)
 .text          0x00000000        0x0 c:/program files (x86)/atmel/studio/7.0/toolchain/avr8/avr8-gnu-toolchain/bin/../lib/gcc/avr/5.4.0/../../../../avr/lib/avr5\libm.a(fixunssfsi.o)
 .data          0x00000000        0x0 c:/program files (x86)/atmel/studio/7.0/toolchain/avr8/avr8-gnu-toolchain/bin/../lib/gcc/avr/5.4.0/../../../../avr/lib/avr5\libm.a(fixunssfsi.o)
 .bss           0x00000000        0x0 c:/program files (x86)/atmel/studio/7.0/toolchain/avr8/avr8-gnu-toolchain/bin/../lib/gcc/avr/5.4.0/../../../../avr/lib/avr5\libm.a(fixunssfsi.o)
 .text          0x00000000        0x0 c:/program files (x86)/atmel/studio/7.0/toolchain/avr8/avr8-gnu-toolchain/bin/../lib/gcc/avr/5.4.0/../../../../avr/lib/avr5\libm.a(floatsisf.o)
 .data          0x00000000        0x0 c:/program files (x86)/atmel/studio/7.0/toolchain/avr8/avr8-gnu-toolchain/bin/../lib/gcc/avr/5.4.0/../../../../avr/lib/avr5\libm.a(floatsisf.o)
 .bss           0x00000000        0x0 c:/program files (x86)/atmel/studio/7.0/toolchain/avr8/avr8-gnu-toolchain/bin/../lib/gcc/avr/5.4.0/../../../../avr/lib/avr5\libm.a(floatsisf.o)
 .text.avr-libc.fplib
                0x00000000       0x7a c:/program files (x86)/atmel/studio/7.0/toolchain/avr8/avr8-gnu-toolchain/bin/../lib/gcc/avr/5.4.0/../../../../avr/lib/avr5\libm.a(floatsisf.o)
 .text          0x00000000        0x0 c:/program files (x86)/atmel/studio/7.0/toolchain/avr8/avr8-gnu-toolchain/bin/../lib/gcc/avr/5.4.0/../../../../avr/lib/avr5\libm.a(fp_cmp.o)
 .data          0x00000000        0x0 c:/program files (x86)/atmel/studio/7.0/toolchain/avr8/avr8-gnu-toolchain/bin/../lib/gcc/avr/5.4.0/../../../../avr/lib/avr5\libm.a(fp_cmp.o)
 .bss           0x00000000        0x0 c:/program files (x86)/atmel/studio/7.0/toolchain/avr8/avr8-gnu-toolchain/bin/../lib/gcc/avr/5.4.0/../../../../avr/lib/avr5\libm.a(fp_cmp.o)
 .text.avr-libc.fplib
                0x00000000       0x48 c:/program files (x86)/atmel/studio/7.0/toolchain/avr8/avr8-gnu-toolchain/bin/../lib/gcc/avr/5.4.0/../../../../avr/lib/avr5\libm.a(fp_cmp.o)
 .text          0x00000000        0x0 c:/program files (x86)/atmel/studio/7.0/toolchain/avr8/avr8-gnu-toolchain/bin/../lib/gcc/avr/5.4.0/../../../../avr/lib/avr5\libm.a(fp_inf.o)
 .data          0x00000000        0x0 c:/program files (x86)/atmel/studio/7.0/toolchain/avr8/avr8-gnu-toolchain/bin/../lib/gcc/avr/5.4.0/../../../../avr/lib/avr5\libm.a(fp_inf.o)
 .bss           0x00000000        0x0 c:/program files (x86)/atmel/studio/7.0/toolchain/avr8/avr8-gnu-toolchain/bin/../lib/gcc/avr/5.4.0/../../../../avr/lib/avr5\libm.a(fp_inf.o)
 .text          0x00000000        0x0 c:/program files (x86)/atmel/studio/7.0/toolchain/avr8/avr8-gnu-toolchain/bin/../lib/gcc/avr/5.4.0/../../../../avr/lib/avr5\libm.a(fp_nan.o)
 .data          0x00000000        0x0 c:/program files (x86)/atmel/studio/7.0/toolchain/avr8/avr8-gnu-toolchain/bin/../lib/gcc/avr/5.4.0/../../../../avr/lib/avr5\libm.a(fp_nan.o)
 .bss           0x00000000        0x0 c:/program files (x86)/atmel/studio/7.0/toolchain/avr8/avr8-gnu-toolchain/bin/../lib/gcc/avr/5.4.0/../../../../avr/lib/avr5\libm.a(fp_nan.o)
 .text          0x00000000        0x0 c:/program files (x86)/atmel/studio/7.0/toolchain/avr8/avr8-gnu-toolchain/bin/../lib/gcc/avr/5.4.0/../../../../avr/lib/avr5\libm.a(fp_pscA.o)
 .data          0x00000000        0x0 c:/program files (x86)/atmel/studio/7.0/toolchain/avr8/avr8-gnu-toolchain/bin/../lib/gcc/avr/5.4.0/../../../../avr/lib/avr5\libm.a(fp_pscA.o)
 .bss           0x00000000        0x0 c:/program files (x86)/atmel/studio/7.0/toolchain/avr8/avr8-gnu-toolchain/bin/../lib/gcc/avr/5.4.0/../../../../avr/lib/avr5\libm.a(fp_pscA.o)
 .text          0x00000000        0x0 c:/program files (x86)/atmel/studio/7.0/toolchain/avr8/avr8-gnu-toolchain/bin/../lib/gcc/avr/5.4.0/../../../../avr/lib/avr5\libm.a(fp_pscB.o)
 .data          0x00000000        0x0 c:/program files (x86)/atmel/studio/7.0/toolchain/avr8/avr8-gnu-toolchain/bin/../lib/gcc/avr/5.4.0/../../../../avr/lib/avr5\libm.a(fp_pscB.o)
 .bss           0x00000000        0x0 c:/program files (x86)/atmel/studio/7.0/toolchain/avr8/avr8-gnu-toolchain/bin/../lib/gcc/avr/5.4.0/../../../../avr/lib/avr5\libm.a(fp_pscB.o)
 .text          0x00000000        0x0 c:/program files (x86)/atmel/studio/7.0/toolchain/avr8/avr8-gnu-toolchain/bin/../lib/gcc/avr/5.4.0/../../../../avr/lib/avr5\libm.a(fp_round.o)
 .data          0x00000000        0x0 c:/program files (x86)/atmel/studio/7.0/toolchain/avr8/avr8-gnu-toolchain/bin/../lib/gcc/avr/5.4.0/../../../../avr/lib/avr5\libm.a(fp_round.o)
 .bss           0x00000000        0x0 c:/program files (x86)/atmel/studio/7.0/toolchain/avr8/avr8-gnu-toolchain/bin/../lib/gcc/avr/5.4.0/../../../../avr/lib/avr5\libm.a(fp_round.o)
 .text          0x00000000        0x0 c:/program files (x86)/atmel/studio/7.0/toolchain/avr8/avr8-gnu-toolchain/bin/../lib/gcc/avr/5.4.0/../../../../avr/lib/avr5\libm.a(fp_split3.o)
 .data          0x00000000        0x0 c:/program files (x86)/atmel/studio/7.0/toolchain/avr8/avr8-gnu-toolchain/bin/../lib/gcc/avr/5.4.0/../../../../avr/lib/avr5\libm.a(fp_split3.o)
 .bss           0x00000000        0x0 c:/program files (x86)/atmel/studio/7.0/toolchain/avr8/avr8-gnu-toolchain/bin/../lib/gcc/avr/5.4.0/../../../../avr/lib/avr5\libm.a(fp_split3.o)
 .text          0x00000000        0x0 c:/program files (x86)/atmel/studio/7.0/toolchain/avr8/avr8-gnu-toolchain/bin/../lib/gcc/avr/5.4.0/../../../../avr/lib/avr5\libm.a(fp_zero.o)
 .data          0x00000000        0x0 c:/program files (x86)/atmel/studio/7.0/toolchain/avr8/avr8-gnu-toolchain/bin/../lib/gcc/avr/5.4.0/../../../../avr/lib/avr5\libm.a(fp_zero.o)
 .bss           0x00000000        0x0 c:/program files (x86)/atmel/studio/7.0/toolchain/avr8/avr8-gnu-toolchain/bin/../lib/gcc/avr/5.4.0/../../../../avr/lib/avr5\libm.a(fp_zero.o)
 .text          0x00000000        0x0 c:/program files (x86)/atmel/studio/7.0/toolchain/avr8/avr8-gnu-toolchain/bin/../lib/gcc/avr/5.4.0/../../../../avr/lib/avr5\libm.a(gesf2.o)
 .data          0x00000000        0x0 c:/program files (x86)/atmel/studio/7.0/toolchain/avr8/avr8-gnu-toolchain/bin/../lib/gcc/avr/5.4.0/../../../../avr/lib/avr5\libm.a(gesf2.o)
 .bss           0x00000000        0x0 c:/program files (x86)/atmel/studio/7.0/toolchain/avr8/avr8-gnu-toolchain/bin/../lib/gcc/avr/5.4.0/../../../../avr/lib/avr5\libm.a(gesf2.o)
 .text.avr-libc.fplib
                0x00000000        0xa c:/program files (x86)/atmel/studio/7.0/toolchain/avr8/avr8-gnu-toolchain/bin/../lib/gcc/avr/5.4.0/../../../../avr/lib/avr5\libm.a(gesf2.o)
 .text          0x00000000        0x0 c:/program files (x86)/atmel/studio/7.0/toolchain/avr8/avr8-gnu-toolchain/bin/../lib/gcc/avr/5.4.0/../../../../avr/lib/avr5\libm.a(mulsf3.o)
 .data          0x00000000        0x0 c:/program files (x86)/atmel/studio/7.0/toolchain/avr8/avr8-gnu-toolchain/bin/../lib/gcc/avr/5.4.0/../../../../avr/lib/avr5\libm.a(mulsf3.o)
 .bss           0x00000000        0x0 c:/program files (x86)/atmel/studio/7.0/toolchain/avr8/avr8-gnu-toolchain/bin/../lib/gcc/avr/5.4.0/../../../../avr/lib/avr5\libm.a(mulsf3.o)
 .text          0x00000000        0x0 c:/program files (x86)/atmel/studio/7.0/toolchain/avr8/avr8-gnu-toolchain/bin/../lib/gcc/avr/5.4.0/../../../../avr/lib/avr5\libm.a(mulsf3x.o)
 .data          0x00000000        0x0 c:/program files (x86)/atmel/studio/7.0/toolchain/avr8/avr8-gnu-toolchain/bin/../lib/gcc/avr/5.4.0/../../../../avr/lib/avr5\libm.a(mulsf3x.o)
 .bss           0x00000000        0x0 c:/program files (x86)/atmel/studio/7.0/toolchain/avr8/avr8-gnu-toolchain/bin/../lib/gcc/avr/5.4.0/../../../../avr/lib/avr5\libm.a(mulsf3x.o)
 .text          0x00000000        0x0 c:/program files (x86)/atmel/studio/7.0/toolchain/avr8/avr8-gnu-toolchain/bin/../lib/gcc/avr/5.4.0/../../../../avr/lib/avr5\libm.a(unordsf2.o)
 .data          0x00000000        0x0 c:/program files (x86)/atmel/studio/7.0/toolchain/avr8/avr8-gnu-toolchain/bin/../lib/gcc/avr/5.4.0/../../../../avr/lib/avr5\libm.a(unordsf2.o)
 .bss           0x00000000        0x0 c:/program files (x86)/atmel/studio/7.0/toolchain/avr8/avr8-gnu-toolchain/bin/../lib/gcc/avr/5.4.0/../../../../avr/lib/avr5\libm.a(unordsf2.o)
 .text.avr-libc.fplib
                0x00000000        0xa c:/program files (x86)/atmel/studio/7.0/toolchain/avr8/avr8-gnu-toolchain/bin/../lib/gcc/avr/5.4.0/../../../../avr/lib/avr5\libm.a(unordsf2.o)
 .text          0x00000000        0x0 c:/program files (x86)/atmel/studio/7.0/toolchain/avr8/avr8-gnu-toolchain/bin/../lib/gcc/avr/5.4.0/avr5\libgcc.a(_mulsi3.o)
 .data          0x00000000        0x0 c:/program files (x86)/atmel/studio/7.0/toolchain/avr8/avr8-gnu-toolchain/bin/../lib/gcc/avr/5.4.0/avr5\libgcc.a(_mulsi3.o)
 .bss           0x00000000        0x0 c:/program files (x86)/atmel/studio/7.0/toolchain/avr8/avr8-gnu-toolchain/bin/../lib/gcc/avr/5.4.0/avr5\libgcc.a(_mulsi3.o)
 .text.libgcc.mul
                0x00000000       0x20 c:/program files (x86)/atmel/studio/7.0/toolchain/avr8/avr8-gnu-toolchain/bin/../lib/gcc/avr/5.4.0/avr5\libgcc.a(_mulsi3.o)
 .text.libgcc.div
                0x00000000        0x0 c:/program files (x86)/atmel/studio/7.0/toolchain/avr8/avr8-gnu-toolchain/bin/../lib/gcc/avr/5.4.0/avr5\libgcc.a(_mulsi3.o)
 .text.libgcc   0x00000000        0x0 c:/program files (x86)/atmel/studio/7.0/toolchain/avr8/avr8-gnu-toolchain/bin/../lib/gcc/avr/5.4.0/avr5\libgcc.a(_mulsi3.o)
 .text.libgcc.prologue
                0x00000000        0x0 c:/program files (x86)/atmel/studio/7.0/toolchain/avr8/avr8-gnu-toolchain/bin/../lib/gcc/avr/5.4.0/avr5\libgcc.a(_mulsi3.o)
 .text.libgcc.builtins
                0x00000000        0x0 c:/program files (x86)/atmel/studio/7.0/toolchain/avr8/avr8-gnu-toolchain/bin/../lib/gcc/avr/5.4.0/avr5\libgcc.a(_mulsi3.o)
 .text.libgcc.fmul
                0x00000000        0x0 c:/program files (x86)/atmel/studio/7.0/toolchain/avr8/avr8-gnu-toolchain/bin/../lib/gcc/avr/5.4.0/avr5\libgcc.a(_mulsi3.o)
 .text.libgcc.fixed
                0x00000000        0x0 c:/program files (x86)/atmel/studio/7.0/toolchain/avr8/avr8-gnu-toolchain/bin/../lib/gcc/avr/5.4.0/avr5\libgcc.a(_mulsi3.o)
 .text          0x00000000        0x0 c:/program files (x86)/atmel/studio/7.0/toolchain/avr8/avr8-gnu-toolchain/bin/../lib/gcc/avr/5.4.0/avr5\libgcc.a(_udivmodsi4.o)
 .data          0x00000000        0x0 c:/program files (x86)/atmel/studio/7.0/toolchain/avr8/avr8-gnu-toolchain/bin/../lib/gcc/avr/5.4.0/avr5\libgcc.a(_udivmodsi4.o)
 .bss           0x00000000        0x0 c:/program files (x86)/atmel/studio/7.0/toolchain/avr8/avr8-gnu-toolchain/bin/../lib/gcc/avr/5.4.0/avr5\libgcc.a(_udivmodsi4.o)
 .text.libgcc.mul
                0x00000000        0x0 c:/program files (x86)/atmel/studio/7.0/toolchain/avr8/avr8-gnu-toolchain/bin/../lib/gcc/avr/5.4.0/avr5\libgcc.a(_udivmodsi4.o)
 .text.libgcc   0x00000000        0x0 c:/program files (x86)/atmel/studio/7.0/toolchain/avr8/avr8-gnu-toolchain/bin/../lib/gcc/avr/5.4.0/avr5\libgcc.a(_udivmodsi4.o)
 .text.libgcc.prologue
                0x00000000        0x0 c:/program files (x86)/atmel/studio/7.0/toolchain/avr8/avr8-gnu-toolchain/bin/../lib/gcc/avr/5.4.0/avr5\libgcc.a(_udivmodsi4.o)
 .text.libgcc.builtins
                0x00000000        0x0 c:/program files (x86)/atmel/studio/7.0/toolchain/avr8/avr8-gnu-toolchain/bin/../lib/gcc/avr/5.4.0/avr5\libgcc.a(_udivmodsi4.o)
 .text.libgcc.fmul
                0x00000000        0x0 c:/program files (x86)/atmel/studio/7.0/toolchain/avr8/avr8-gnu-toolchain/bin/../lib/gcc/avr/5.4.0/avr5\libgcc.a(_udivmodsi4.o)
 .text.libgcc.fixed
                0x00000000        0x0 c:/program files (x86)/atmel/studio/7.0/toolchain/avr8/avr8-gnu-toolchain/bin/../lib/gcc/avr/5.4.0/avr5\libgcc.a(_udivmodsi4.o)
 .text          0x00000000        0x0 c:/program files (x86)/atmel/studio/7.0/toolchain/avr8/avr8-gnu-toolchain/bin/../lib/gcc/avr/5.4.0/avr5\libgcc.a(_divmodsi4.o)
 .data          0x00000000        0x0 c:/program files (x86)/atmel/studio/7.0/toolchain/avr8/avr8-gnu-toolchain/bin/../lib/gcc/avr/5.4.0/avr5\libgcc.a(_divmodsi4.o)
 .bss           0x00000000        0x0 c:/program files (x86)/atmel/studio/7.0/toolchain/avr8/avr8-gnu-toolchain/bin/../lib/gcc/avr/5.4.0/avr5\libgcc.a(_divmodsi4.o)
 .text.libgcc.mul
                0x00000000        0x0 c:/program files (x86)/atmel/studio/7.0/toolchain/avr8/avr8-gnu-toolchain/bin/../lib/gcc/avr/5.4.0/avr5\libgcc.a(_divmodsi4.o)
 .text.libgcc   0x00000000        0x0 c:/program files (x86)/atmel/studio/7.0/toolchain/avr8/avr8-gnu-toolchain/bin/../lib/gcc/avr/5.4.0/avr5\libgcc.a(_divmodsi4.o)
 .text.libgcc.prologue
                0x00000000        0x0 c:/program files (x86)/atmel/studio/7.0/toolchain/avr8/avr8-gnu-toolchain/bin/../lib/gcc/avr/5.4.0/avr5\libgcc.a(_divmodsi4.o)
 .text.libgcc.builtins
                0x00000000        0x0 c:/program files (x86)/atmel/studio/7.0/toolchain/avr8/avr8-gnu-toolchain/bin/../lib/gcc/avr/5.4.0/avr5\libgcc.a(_divmodsi4.o)
 .text.libgcc.fmul
                0x00000000        0x0 c:/program files (x86)/atmel/studio/7.0/toolchain/avr8/avr8-gnu-toolchain/bin/../lib/gcc/avr/5.4.0/avr5\libgcc.a(_divmodsi4.o)
 .text.libgcc.fixed
                0x00000000        0x0 c:/program files (x86)/atmel/studio/7.0/toolchain/avr8/avr8-gnu-toolchain/bin/../lib/gcc/avr/5.4.0/avr5\libgcc.a(_divmodsi4.o)
 .text          0x00000000        0x0 c:/program files (x86)/atmel/studio/7.0/toolchain/avr8/avr8-gnu-toolchain/bin/../lib/gcc/avr/5.4.0/avr5\libgcc.a(_negsi2.o)
 .data          0x00000000        0x0 c:/program files (x86)/atmel/studio/7.0/toolchain/avr8/avr8-gnu-toolchain/bin/../lib/gcc/avr/5.4.0/avr5\libgcc.a(_negsi2.o)
 .bss           0x00000000        0x0 c:/program files (x86)/atmel/studio/7.0/toolchain/avr8/avr8-gnu-toolchain/bin/../lib/gcc/avr/5.4.0/avr5\libgcc.a(_negsi2.o)
 .text.libgcc.mul
                0x00000000        0x0 c:/program files (x86)/atmel/studio/7.0/toolchain/avr8/avr8-gnu-toolchain/bin/../lib/gcc/avr/5.4.0/avr5\libgcc.a(_negsi2.o)
 .text.libgcc   0x00000000        0x0 c:/program files (x86)/atmel/studio/7.0/toolchain/avr8/avr8-gnu-toolchain/bin/../lib/gcc/avr/5.4.0/avr5\libgcc.a(_negsi2.o)
 .text.libgcc.prologue
                0x00000000        0x0 c:/program files (x86)/atmel/studio/7.0/toolchain/avr8/avr8-gnu-toolchain/bin/../lib/gcc/avr/5.4.0/avr5\libgcc.a(_negsi2.o)
 .text.libgcc.builtins
                0x00000000        0x0 c:/program files (x86)/atmel/studio/7.0/toolchain/avr8/avr8-gnu-toolchain/bin/../lib/gcc/avr/5.4.0/avr5\libgcc.a(_negsi2.o)
 .text.libgcc.fmul
                0x00000000        0x0 c:/program files (x86)/atmel/studio/7.0/toolchain/avr8/avr8-gnu-toolchain/bin/../lib/gcc/avr/5.4.0/avr5\libgcc.a(_negsi2.o)
 .text.libgcc.fixed
                0x00000000        0x0 c:/program files (x86)/atmel/studio/7.0/toolchain/avr8/avr8-gnu-toolchain/bin/../lib/gcc/avr/5.4.0/avr5\libgcc.a(_negsi2.o)
 .text          0x00000000        0x0 c:/program files (x86)/atmel/studio/7.0/toolchain/avr8/avr8-gnu-toolchain/bin/../lib/gcc/avr/5.4.0/avr5\libgcc.a(_exit.o)
 .data          0x00000000        0x0 c:/program files (x86)/atmel/studio/7.0/toolchain/avr8/avr8-gnu-toolchain/bin/../lib/gcc/avr/5.4.0/avr5\libgcc.a(_exit.o)
 .bss           0x00000000        0x0 c:/program files (x86)/atmel/studio/7.0/toolchain/avr8/avr8-gnu-toolchain/bin/../lib/gcc/avr/5.4.0/avr5\libgcc.a(_exit.o)
 .text.libgcc.mul
                0x00000000        0x0 c:/program files (x86)/atmel/studio/7.0/toolchain/avr8/avr8-gnu-toolchain/bin/../lib/gcc/avr/5.4.0/avr5\libgcc.a(_exit.o)
 .text.libgcc.div
                0x00000000        0x0 c:/program files (x86)/atmel/studio/7.0/toolchain/avr8/avr8-gnu-toolchain/bin/../lib/gcc/avr/5.4.0/avr5\libgcc.a(_exit.o)
 .text.libgcc   0x00000000        0x0 c:/program files (x86)/atmel/studio/7.0/toolchain/avr8/avr8-gnu-toolchain/bin/../lib/gcc/avr/5.4.0/avr5\libgcc.a(_exit.o)
 .text.libgcc.prologue
                0x00000000        0x0 c:/program files (x86)/atmel/studio/7.0/toolchain/avr8/avr8-gnu-toolchain/bin/../lib/gcc/avr/5.4.0/avr5\libgcc.a(_exit.o)
 .text.libgcc.builtins
                0x00000000        0x0 c:/program files (x86)/atmel/studio/7.0/toolchain/avr8/avr8-gnu-toolchain/bin/../lib/gcc/avr/5.4.0/avr5\libgcc.a(_exit.o)
 .text.libgcc.fmul
                0x00000000        0x0 c:/program files (x86)/atmel/studio/7.0/toolchain/avr8/avr8-gnu-toolchain/bin/../lib/gcc/avr/5.4.0/avr5\libgcc.a(_exit.o)
 .text.libgcc.fixed
                0x00000000        0x0 c:/program files (x86)/atmel/studio/7.0/toolchain/avr8/avr8-gnu-toolchain/bin/../lib/gcc/avr/5.4.0/avr5\libgcc.a(_exit.o)
 .text          0x00000000        0x0 c:/program files (x86)/atmel/studio/7.0/toolchain/avr8/avr8-gnu-toolchain/bin/../lib/gcc/avr/5.4.0/avr5\libgcc.a(_tablejump2.o)
 .data          0x00000000        0x0 c:/program files (x86)/atmel/studio/7.0/toolchain/avr8/avr8-gnu-toolchain/bin/../lib/gcc/avr/5.4.0/avr5\libgcc.a(_tablejump2.o)
 .bss           0x00000000        0x0 c:/program files (x86)/atmel/studio/7.0/toolchain/avr8/avr8-gnu-toolchain/bin/../lib/gcc/avr/5.4.0/avr5\libgcc.a(_tablejump2.o)
 .text.libgcc.mul
                0x00000000        0x0 c:/program files (x86)/atmel/studio/7.0/toolchain/avr8/avr8-gnu-toolchain/bin/../lib/gcc/avr/5.4.0/avr5\libgcc.a(_tablejump2.o)
 .text.libgcc.div
                0x00000000        0x0 c:/program files (x86)/atmel/studio/7.0/toolchain/avr8/avr8-gnu-toolchain/bin/../lib/gcc/avr/5.4.0/avr5\libgcc.a(_tablejump2.o)
 .text.libgcc.prologue
                0x00000000        0x0 c:/program files (x86)/atmel/studio/7.0/toolchain/avr8/avr8-gnu-toolchain/bin/../lib/gcc/avr/5.4.0/avr5\libgcc.a(_tablejump2.o)
 .text.libgcc.builtins
                0x00000000        0x0 c:/program files (x86)/atmel/studio/7.0/toolchain/avr8/avr8-gnu-toolchain/bin/../lib/gcc/avr/5.4.0/avr5\libgcc.a(_tablejump2.o)
 .text.libgcc.fmul
                0x00000000        0x0 c:/program files (x86)/atmel/studio/7.0/toolchain/avr8/avr8-gnu-toolchain/bin/../lib/gcc/avr/5.4.0/avr5\libgcc.a(_tablejump2.o)
 .text.libgcc.fixed
                0x00000000        0x0 c:/program files (x86)/atmel/studio/7.0/toolchain/avr8/avr8-gnu-toolchain/bin/../lib/gcc/avr/5.4.0/avr5\libgcc.a(_tablejump2.o)
 .text          0x00000000        0x0 c:/program files (x86)/atmel/studio/7.0/toolchain/avr8/avr8-gnu-toolchain/bin/../lib/gcc/avr/5.4.0/avr5\libgcc.a(_copy_data.o)
 .data          0x00000000        0x0 c:/program files (x86)/atmel/studio/7.0/toolchain/avr8/avr8-gnu-toolchain/bin/../lib/gcc/avr/5.4.0/avr5\libgcc.a(_copy_data.o)
 .bss           0x00000000        0x0 c:/program files (x86)/atmel/studio/7.0/toolchain/avr8/avr8-gnu-toolchain/bin/../lib/gcc/avr/5.4.0/avr5\libgcc.a(_copy_data.o)
 .text.libgcc.mul
                0x00000000        0x0 c:/program files (x86)/atmel/studio/7.0/toolchain/avr8/avr8-gnu-toolchain/bin/../lib/gcc/avr/5.4.0/avr5\libgcc.a(_copy_data.o)
 .text.libgcc.div
                0x00000000        0x0 c:/program files (x86)/atmel/studio/7.0/toolchain/avr8/avr8-gnu-toolchain/bin/../lib/gcc/avr/5.4.0/avr5\libgcc.a(_copy_data.o)
 .text.libgcc   0x00000000        0x0 c:/program files (x86)/atmel/studio/7.0/toolchain/avr8/avr8-gnu-toolchain/bin/../lib/gcc/avr/5.4.0/avr5\libgcc.a(_copy_data.o)
 .text.libgcc.prologue
                0x00000000        0x0 c:/program files (x86)/atmel/studio/7.0/toolchain/avr8/avr8-gnu-toolchain/bin/../lib/gcc/avr/5.4.0/avr5\libgcc.a(_copy_data.o)
 .text.libgcc.builtins
                0x00000000        0x0 c:/program files (x86)/atmel/studio/7.0/toolchain/avr8/avr8-gnu-toolchain/bin/../lib/gcc/avr/5.4.0/avr5\libgcc.a(_copy_data.o)
 .text.libgcc.fmul
                0x00000000        0x0 c:/program files (x86)/atmel/studio/7.0/toolchain/avr8/avr8-gnu-toolchain/bin/../lib/gcc/avr/5.4.0/avr5\libgcc.a(_copy_data.o)
 .text.libgcc.fixed
                0x00000000        0x0 c:/program files (x86)/atmel/studio/7.0/toolchain/avr8/avr8-gnu-toolchain/bin/../lib/gcc/avr/5.4.0/avr5\libgcc.a(_copy_data.o)
 .text          0x00000000        0x0 c:/program files (x86)/atmel/studio/7.0/toolchain/avr8/avr8-gnu-toolchain/bin/../lib/gcc/avr/5.4.0/avr5\libgcc.a(_clear_bss.o)
 .data          0x00000000        0x0 c:/program files (x86)/atmel/studio/7.0/toolchain/avr8/avr8-gnu-toolchain/bin/../lib/gcc/avr/5.4.0/avr5\libgcc.a(_clear_bss.o)
 .bss           0x00000000        0x0 c:/program files (x86)/atmel/studio/7.0/toolchain/avr8/avr8-gnu-toolchain/bin/../lib/gcc/avr/5.4.0/avr5\libgcc.a(_clear_bss.o)
 .text.libgcc.mul
                0x00000000        0x0 c:/program files (x86)/atmel/studio/7.0/toolchain/avr8/avr8-gnu-toolchain/bin/../lib/gcc/avr/5.4.0/avr5\libgcc.a(_clear_bss.o)
 .text.libgcc.div
                0x00000000        0x0 c:/program files (x86)/atmel/studio/7.0/toolchain/avr8/avr8-gnu-toolchain/bin/../lib/gcc/avr/5.4.0/avr5\libgcc.a(_clear_bss.o)
 .text.libgcc   0x00000000        0x0 c:/program files (x86)/atmel/studio/7.0/toolchain/avr8/avr8-gnu-toolchain/bin/../lib/gcc/avr/5.4.0/avr5\libgcc.a(_clear_bss.o)
 .text.libgcc.prologue
                0x00000000        0x0 c:/program files (x86)/atmel/studio/7.0/toolchain/avr8/avr8-gnu-toolchain/bin/../lib/gcc/avr/5.4.0/avr5\libgcc.a(_clear_bss.o)
 .text.libgcc.builtins
                0x00000000        0x0 c:/program files (x86)/atmel/studio/7.0/toolchain/avr8/avr8-gnu-toolchain/bin/../lib/gcc/avr/5.4.0/avr5\libgcc.a(_clear_bss.o)
 .text.libgcc.fmul
                0x00000000        0x0 c:/program files (x86)/atmel/studio/7.0/toolchain/avr8/avr8-gnu-toolchain/bin/../lib/gcc/avr/5.4.0/avr5\libgcc.a(_clear_bss.o)
 .text.libgcc.fixed
                0x00000000        0x0 c:/program files (x86)/atmel/studio/7.0/toolchain/avr8/avr8-gnu-toolchain/bin/../lib/gcc/avr/5.4.0/avr5\libgcc.a(_clear_bss.o)
 .text          0x00000000        0x0 c:/program files (x86)/atmel/studio/7.0/toolchain/avr8/avr8-gnu-toolchain/bin/../lib/gcc/avr/5.4.0/avr5\libgcc.a(_ctors.o)
 .data          0x00000000        0x0 c:/program files (x86)/atmel/studio/7.0/toolchain/avr8/avr8-gnu-toolchain/bin/../lib/gcc/avr/5.4.0/avr5\libgcc.a(_ctors.o)
 .bss           0x00000000        0x0 c:/program files (x86)/atmel/studio/7.0/toolchain/avr8/avr8-gnu-toolchain/bin/../lib/gcc/avr/5.4.0/avr5\libgcc.a(_ctors.o)
 .text.libgcc.mul
                0x00000000        0x0 c:/program files (x86)/atmel/studio/7.0/toolchain/avr8/avr8-gnu-toolchain/bin/../lib/gcc/avr/5.4.0/avr5\libgcc.a(_ctors.o)
 .text.libgcc.div
                0x00000000        0x0 c:/program files (x86)/atmel/studio/7.0/toolchain/avr8/avr8-gnu-toolchain/bin/../lib/gcc/avr/5.4.0/avr5\libgcc.a(_ctors.o)
 .text.libgcc   0x00000000        0x0 c:/program files (x86)/atmel/studio/7.0/toolchain/avr8/avr8-gnu-toolchain/bin/../lib/gcc/avr/5.4.0/avr5\libgcc.a(_ctors.o)
 .text.libgcc.prologue
                0x00000000        0x0 c:/program files (x86)/atmel/studio/7.0/toolchain/avr8/avr8-gnu-toolchain/bin/../lib/gcc/avr/5.4.0/avr5\libgcc.a(_ctors.o)
 .text.libgcc.builtins
                0x00000000        0x0 c:/program files (x86)/atmel/studio/7.0/toolchain/avr8/avr8-gnu-toolchain/bin/../lib/gcc/avr/5.4.0/avr5\libgcc.a(_ctors.o)
 .text.libgcc.fmul
                0x00000000        0x0 c:/program files (x86)/atmel/studio/7.0/toolchain/avr8/avr8-gnu-toolchain/bin/../lib/gcc/avr/5.4.0/avr5\libgcc.a(_ctors.o)
 .text.libgcc.fixed
                0x00000000        0x0 c:/program files (x86)/atmel/studio/7.0/toolchain/avr8/avr8-gnu-toolchain/bin/../lib/gcc/avr/5.4.0/avr5\libgcc.a(_ctors.o)
 .text          0x00000000        0x0 c:/program files (x86)/atmel/studio/7.0/toolchain/avr8/avr8-gnu-toolchain/bin/../lib/gcc/avr/5.4.0/avr5\libgcc.a(_muluhisi3.o)
 .data          0x00000000        0x0 c:/program files (x86)/atmel/studio/7.0/toolchain/avr8/avr8-gnu-toolchain/bin/../lib/gcc/avr/5.4.0/avr5\libgcc.a(_muluhisi3.o)
 .bss           0x00000000        0x0 c:/program files (x86)/atmel/studio/7.0/toolchain/avr8/avr8-gnu-toolchain/bin/../lib/gcc/avr/5.4.0/avr5\libgcc.a(_muluhisi3.o)
 .text.libgcc.div
                0x00000000        0x0 c:/program files (x86)/atmel/studio/7.0/toolchain/avr8/avr8-gnu-toolchain/bin/../lib/gcc/avr/5.4.0/avr5\libgcc.a(_muluhisi3.o)
 .text.libgcc   0x00000000        0x0 c:/program files (x86)/atmel/studio/7.0/toolchain/avr8/avr8-gnu-toolchain/bin/../lib/gcc/avr/5.4.0/avr5\libgcc.a(_muluhisi3.o)
 .text.libgcc.prologue
                0x00000000        0x0 c:/program files (x86)/atmel/studio/7.0/toolchain/avr8/avr8-gnu-toolchain/bin/../lib/gcc/avr/5.4.0/avr5\libgcc.a(_muluhisi3.o)
 .text.libgcc.builtins
                0x00000000        0x0 c:/program files (x86)/atmel/studio/7.0/toolchain/avr8/avr8-gnu-toolchain/bin/../lib/gcc/avr/5.4.0/avr5\libgcc.a(_muluhisi3.o)
 .text.libgcc.fmul
                0x00000000        0x0 c:/program files (x86)/atmel/studio/7.0/toolchain/avr8/avr8-gnu-toolchain/bin/../lib/gcc/avr/5.4.0/avr5\libgcc.a(_muluhisi3.o)
 .text.libgcc.fixed
                0x00000000        0x0 c:/program files (x86)/atmel/studio/7.0/toolchain/avr8/avr8-gnu-toolchain/bin/../lib/gcc/avr/5.4.0/avr5\libgcc.a(_muluhisi3.o)
 .text          0x00000000        0x0 c:/program files (x86)/atmel/studio/7.0/toolchain/avr8/avr8-gnu-toolchain/bin/../lib/gcc/avr/5.4.0/avr5\libgcc.a(_umulhisi3.o)
 .data          0x00000000        0x0 c:/program files (x86)/atmel/studio/7.0/toolchain/avr8/avr8-gnu-toolchain/bin/../lib/gcc/avr/5.4.0/avr5\libgcc.a(_umulhisi3.o)
 .bss           0x00000000        0x0 c:/program files (x86)/atmel/studio/7.0/toolchain/avr8/avr8-gnu-toolchain/bin/../lib/gcc/avr/5.4.0/avr5\libgcc.a(_umulhisi3.o)
 .text.libgcc.div
                0x00000000        0x0 c:/program files (x86)/atmel/studio/7.0/toolchain/avr8/avr8-gnu-toolchain/bin/../lib/gcc/avr/5.4.0/avr5\libgcc.a(_umulhisi3.o)
 .text.libgcc   0x00000000        0x0 c:/program files (x86)/atmel/studio/7.0/toolchain/avr8/avr8-gnu-toolchain/bin/../lib/gcc/avr/5.4.0/avr5\libgcc.a(_umulhisi3.o)
 .text.libgcc.prologue
                0x00000000        0x0 c:/program files (x86)/atmel/studio/7.0/toolchain/avr8/avr8-gnu-toolchain/bin/../lib/gcc/avr/5.4.0/avr5\libgcc.a(_umulhisi3.o)
 .text.libgcc.builtins
                0x00000000        0x0 c:/program files (x86)/atmel/studio/7.0/toolchain/avr8/avr8-gnu-toolchain/bin/../lib/gcc/avr/5.4.0/avr5\libgcc.a(_umulhisi3.o)
 .text.libgcc.fmul
                0x00000000        0x0 c:/program files (x86)/atmel/studio/7.0/toolchain/avr8/avr8-gnu-toolchain/bin/../lib/gcc/avr/5.4.0/avr5\libgcc.a(_umulhisi3.o)
 .text.libgcc.fixed
                0x00000000        0x0 c:/program files (x86)/atmel/studio/7.0/toolchain/avr8/avr8-gnu-toolchain/bin/../lib/gcc/avr/5.4.0/avr5\libgcc.a(_umulhisi3.o)
 .text          0x00000000        0x0 c:/program files (x86)/atmel/studio/7.0/toolchain/avr8/avr8-gnu-toolchain/bin/../lib/gcc/avr/5.4.0/../../../../avr/lib/avr5\libc.a(dtostrf.o)
 .data          0x00000000        0x0 c:/program files (x86)/atmel/studio/7.0/toolchain/avr8/avr8-gnu-toolchain/bin/../lib/gcc/avr/5.4.0/../../../../avr/lib/avr5\libc.a(dtostrf.o)
 .bss           0x00000000        0x0 c:/program files (x86)/atmel/studio/7.0/toolchain/avr8/avr8-gnu-toolchain/bin/../lib/gcc/avr/5.4.0/../../../../avr/lib/avr5\libc.a(dtostrf.o)
 .text.avr-libc
                0x00000000       0x40 c:/program files (x86)/atmel/studio/7.0/toolchain/avr8/avr8-gnu-toolchain/bin/../lib/gcc/avr/5.4.0/../../../../avr/lib/avr5\libc.a(dtostrf.o)
 .comment       0x00000000       0x31 c:/program files (x86)/atmel/studio/7.0/toolchain/avr8/avr8-gnu-toolchain/bin/../lib/gcc/avr/5.4.0/../../../../avr/lib/avr5\libc.a(dtostrf.o)
 .text          0x00000000        0x0 c:/program files (x86)/atmel/studio/7.0/toolchain/avr8/avr8-gnu-toolchain/bin/../lib/gcc/avr/5.4.0/../../../../avr/lib/avr5\libc.a(malloc.o)
 .bss           0x00000000        0x0 c:/program files (x86)/atmel/studio/7.0/toolchain/avr8/avr8-gnu-toolchain/bin/../lib/gcc/avr/5.4.0/../../../../avr/lib/avr5\libc.a(malloc.o)
 .text          0x00000000        0x0 c:/program files (x86)/atmel/studio/7.0/toolchain/avr8/avr8-gnu-toolchain/bin/../lib/gcc/avr/5.4.0/../../../../avr/lib/avr5\libc.a(random.o)
 .bss           0x00000000        0x0 c:/program files (x86)/atmel/studio/7.0/toolchain/avr8/avr8-gnu-toolchain/bin/../lib/gcc/avr/5.4.0/../../../../avr/lib/avr5\libc.a(random.o)
 .text          0x00000000        0x0 c:/program files (x86)/atmel/studio/7.0/toolchain/avr8/avr8-gnu-toolchain/bin/../lib/gcc/avr/5.4.0/../../../../avr/lib/avr5\libc.a(realloc.o)
 .data          0x00000000        0x0 c:/program files (x86)/atmel/studio/7.0/toolchain/avr8/avr8-gnu-toolchain/bin/../lib/gcc/avr/5.4.0/../../../../avr/lib/avr5\libc.a(realloc.o)
 .bss           0x00000000        0x0 c:/program files (x86)/atmel/studio/7.0/toolchain/avr8/avr8-gnu-toolchain/bin/../lib/gcc/avr/5.4.0/../../../../avr/lib/avr5\libc.a(realloc.o)
 .text          0x00000000        0x0 c:/program files (x86)/atmel/studio/7.0/toolchain/avr8/avr8-gnu-toolchain/bin/../lib/gcc/avr/5.4.0/../../../../avr/lib/avr5\libc.a(abort.o)
 .data          0x00000000        0x0 c:/program files (x86)/atmel/studio/7.0/toolchain/avr8/avr8-gnu-toolchain/bin/../lib/gcc/avr/5.4.0/../../../../avr/lib/avr5\libc.a(abort.o)
 .bss           0x00000000        0x0 c:/program files (x86)/atmel/studio/7.0/toolchain/avr8/avr8-gnu-toolchain/bin/../lib/gcc/avr/5.4.0/../../../../avr/lib/avr5\libc.a(abort.o)
 .text          0x00000000        0x0 c:/program files (x86)/atmel/studio/7.0/toolchain/avr8/avr8-gnu-toolchain/bin/../lib/gcc/avr/5.4.0/../../../../avr/lib/avr5\libc.a(atof.o)
 .data          0x00000000        0x0 c:/program files (x86)/atmel/studio/7.0/toolchain/avr8/avr8-gnu-toolchain/bin/../lib/gcc/avr/5.4.0/../../../../avr/lib/avr5\libc.a(atof.o)
 .bss           0x00000000        0x0 c:/program files (x86)/atmel/studio/7.0/toolchain/avr8/avr8-gnu-toolchain/bin/../lib/gcc/avr/5.4.0/../../../../avr/lib/avr5\libc.a(atof.o)
 .text.avr-libc
                0x00000000        0x8 c:/program files (x86)/atmel/studio/7.0/toolchain/avr8/avr8-gnu-toolchain/bin/../lib/gcc/avr/5.4.0/../../../../avr/lib/avr5\libc.a(atof.o)
 .text          0x00000000        0x0 c:/program files (x86)/atmel/studio/7.0/toolchain/avr8/avr8-gnu-toolchain/bin/../lib/gcc/avr/5.4.0/../../../../avr/lib/avr5\libc.a(atol.o)
 .data          0x00000000        0x0 c:/program files (x86)/atmel/studio/7.0/toolchain/avr8/avr8-gnu-toolchain/bin/../lib/gcc/avr/5.4.0/../../../../avr/lib/avr5\libc.a(atol.o)
 .bss           0x00000000        0x0 c:/program files (x86)/atmel/studio/7.0/toolchain/avr8/avr8-gnu-toolchain/bin/../lib/gcc/avr/5.4.0/../../../../avr/lib/avr5\libc.a(atol.o)
 .text.avr-libc
                0x00000000       0x4e c:/program files (x86)/atmel/studio/7.0/toolchain/avr8/avr8-gnu-toolchain/bin/../lib/gcc/avr/5.4.0/../../../../avr/lib/avr5\libc.a(atol.o)
 .text          0x00000000        0x0 c:/program files (x86)/atmel/studio/7.0/toolchain/avr8/avr8-gnu-toolchain/bin/../lib/gcc/avr/5.4.0/../../../../avr/lib/avr5\libc.a(isspace.o)
 .data          0x00000000        0x0 c:/program files (x86)/atmel/studio/7.0/toolchain/avr8/avr8-gnu-toolchain/bin/../lib/gcc/avr/5.4.0/../../../../avr/lib/avr5\libc.a(isspace.o)
 .bss           0x00000000        0x0 c:/program files (x86)/atmel/studio/7.0/toolchain/avr8/avr8-gnu-toolchain/bin/../lib/gcc/avr/5.4.0/../../../../avr/lib/avr5\libc.a(isspace.o)
 .text.avr-libc
                0x00000000       0x12 c:/program files (x86)/atmel/studio/7.0/toolchain/avr8/avr8-gnu-toolchain/bin/../lib/gcc/avr/5.4.0/../../../../avr/lib/avr5\libc.a(isspace.o)
 .text          0x00000000        0x0 c:/program files (x86)/atmel/studio/7.0/toolchain/avr8/avr8-gnu-toolchain/bin/../lib/gcc/avr/5.4.0/../../../../avr/lib/avr5\libc.a(tolower.o)
 .data          0x00000000        0x0 c:/program files (x86)/atmel/studio/7.0/toolchain/avr8/avr8-gnu-toolchain/bin/../lib/gcc/avr/5.4.0/../../../../avr/lib/avr5\libc.a(tolower.o)
 .bss           0x00000000        0x0 c:/program files (x86)/atmel/studio/7.0/toolchain/avr8/avr8-gnu-toolchain/bin/../lib/gcc/avr/5.4.0/../../../../avr/lib/avr5\libc.a(tolower.o)
 .text.avr-libc
                0x00000000       0x10 c:/program files (x86)/atmel/studio/7.0/toolchain/avr8/avr8-gnu-toolchain/bin/../lib/gcc/avr/5.4.0/../../../../avr/lib/avr5\libc.a(tolower.o)
 .text          0x00000000        0x0 c:/program files (x86)/atmel/studio/7.0/toolchain/avr8/avr8-gnu-toolchain/bin/../lib/gcc/avr/5.4.0/../../../../avr/lib/avr5\libc.a(toupper.o)
 .data          0x00000000        0x0 c:/program files (x86)/atmel/studio/7.0/toolchain/avr8/avr8-gnu-toolchain/bin/../lib/gcc/avr/5.4.0/../../../../avr/lib/avr5\libc.a(toupper.o)
 .bss           0x00000000        0x0 c:/program files (x86)/atmel/studio/7.0/toolchain/avr8/avr8-gnu-toolchain/bin/../lib/gcc/avr/5.4.0/../../../../avr/lib/avr5\libc.a(toupper.o)
 .text.avr-libc
                0x00000000       0x10 c:/program files (x86)/atmel/studio/7.0/toolchain/avr8/avr8-gnu-toolchain/bin/../lib/gcc/avr/5.4.0/../../../../avr/lib/avr5\libc.a(toupper.o)
 .text          0x00000000        0x0 c:/program files (x86)/atmel/studio/7.0/toolchain/avr8/avr8-gnu-toolchain/bin/../lib/gcc/avr/5.4.0/../../../../avr/lib/avr5\libc.a(memcpy_P.o)
 .data          0x00000000        0x0 c:/program files (x86)/atmel/studio/7.0/toolchain/avr8/avr8-gnu-toolchain/bin/../lib/gcc/avr/5.4.0/../../../../avr/lib/avr5\libc.a(memcpy_P.o)
 .bss           0x00000000        0x0 c:/program files (x86)/atmel/studio/7.0/toolchain/avr8/avr8-gnu-toolchain/bin/../lib/gcc/avr/5.4.0/../../../../avr/lib/avr5\libc.a(memcpy_P.o)
 .text          0x00000000        0x0 c:/program files (x86)/atmel/studio/7.0/toolchain/avr8/avr8-gnu-toolchain/bin/../lib/gcc/avr/5.4.0/../../../../avr/lib/avr5\libc.a(strcpy_P.o)
 .data          0x00000000        0x0 c:/program files (x86)/atmel/studio/7.0/toolchain/avr8/avr8-gnu-toolchain/bin/../lib/gcc/avr/5.4.0/../../../../avr/lib/avr5\libc.a(strcpy_P.o)
 .bss           0x00000000        0x0 c:/program files (x86)/atmel/studio/7.0/toolchain/avr8/avr8-gnu-toolchain/bin/../lib/gcc/avr/5.4.0/../../../../avr/lib/avr5\libc.a(strcpy_P.o)
 .text.avr-libc
                0x00000000        0xe c:/program files (x86)/atmel/studio/7.0/toolchain/avr8/avr8-gnu-toolchain/bin/../lib/gcc/avr/5.4.0/../../../../avr/lib/avr5\libc.a(strcpy_P.o)
 .text          0x00000000        0x0 c:/program files (x86)/atmel/studio/7.0/toolchain/avr8/avr8-gnu-toolchain/bin/../lib/gcc/avr/5.4.0/../../../../avr/lib/avr5\libc.a(strlen_P.o)
 .data          0x00000000        0x0 c:/program files (x86)/atmel/studio/7.0/toolchain/avr8/avr8-gnu-toolchain/bin/../lib/gcc/avr/5.4.0/../../../../avr/lib/avr5\libc.a(strlen_P.o)
 .bss           0x00000000        0x0 c:/program files (x86)/atmel/studio/7.0/toolchain/avr8/avr8-gnu-toolchain/bin/../lib/gcc/avr/5.4.0/../../../../avr/lib/avr5\libc.a(strlen_P.o)
 .text.avr-libc
                0x00000000       0x12 c:/program files (x86)/atmel/studio/7.0/toolchain/avr8/avr8-gnu-toolchain/bin/../lib/gcc/avr/5.4.0/../../../../avr/lib/avr5\libc.a(strlen_P.o)
 .text          0x00000000        0x0 c:/program files (x86)/atmel/studio/7.0/toolchain/avr8/avr8-gnu-toolchain/bin/../lib/gcc/avr/5.4.0/../../../../avr/lib/avr5\libc.a(memcpy.o)
 .data          0x00000000        0x0 c:/program files (x86)/atmel/studio/7.0/toolchain/avr8/avr8-gnu-toolchain/bin/../lib/gcc/avr/5.4.0/../../../../avr/lib/avr5\libc.a(memcpy.o)
 .bss           0x00000000        0x0 c:/program files (x86)/atmel/studio/7.0/toolchain/avr8/avr8-gnu-toolchain/bin/../lib/gcc/avr/5.4.0/../../../../avr/lib/avr5\libc.a(memcpy.o)
 .text          0x00000000        0x0 c:/program files (x86)/atmel/studio/7.0/toolchain/avr8/avr8-gnu-toolchain/bin/../lib/gcc/avr/5.4.0/../../../../avr/lib/avr5\libc.a(memmove.o)
 .data          0x00000000        0x0 c:/program files (x86)/atmel/studio/7.0/toolchain/avr8/avr8-gnu-toolchain/bin/../lib/gcc/avr/5.4.0/../../../../avr/lib/avr5\libc.a(memmove.o)
 .bss           0x00000000        0x0 c:/program files (x86)/atmel/studio/7.0/toolchain/avr8/avr8-gnu-toolchain/bin/../lib/gcc/avr/5.4.0/../../../../avr/lib/avr5\libc.a(memmove.o)
 .text.avr-libc
                0x00000000       0x24 c:/program files (x86)/atmel/studio/7.0/toolchain/avr8/avr8-gnu-toolchain/bin/../lib/gcc/avr/5.4.0/../../../../avr/lib/avr5\libc.a(memmove.o)
 .text          0x00000000        0x0 c:/program files (x86)/atmel/studio/7.0/toolchain/avr8/avr8-gnu-toolchain/bin/../lib/gcc/avr/5.4.0/../../../../avr/lib/avr5\libc.a(strchr.o)
 .data          0x00000000        0x0 c:/program files (x86)/atmel/studio/7.0/toolchain/avr8/avr8-gnu-toolchain/bin/../lib/gcc/avr/5.4.0/../../../../avr/lib/avr5\libc.a(strchr.o)
 .bss           0x00000000        0x0 c:/program files (x86)/atmel/studio/7.0/toolchain/avr8/avr8-gnu-toolchain/bin/../lib/gcc/avr/5.4.0/../../../../avr/lib/avr5\libc.a(strchr.o)
 .text.avr-libc
                0x00000000       0x16 c:/program files (x86)/atmel/studio/7.0/toolchain/avr8/avr8-gnu-toolchain/bin/../lib/gcc/avr/5.4.0/../../../../avr/lib/avr5\libc.a(strchr.o)
 .text          0x00000000        0x0 c:/program files (x86)/atmel/studio/7.0/toolchain/avr8/avr8-gnu-toolchain/bin/../lib/gcc/avr/5.4.0/../../../../avr/lib/avr5\libc.a(strcmp.o)
 .data          0x00000000        0x0 c:/program files (x86)/atmel/studio/7.0/toolchain/avr8/avr8-gnu-toolchain/bin/../lib/gcc/avr/5.4.0/../../../../avr/lib/avr5\libc.a(strcmp.o)
 .bss           0x00000000        0x0 c:/program files (x86)/atmel/studio/7.0/toolchain/avr8/avr8-gnu-toolchain/bin/../lib/gcc/avr/5.4.0/../../../../avr/lib/avr5\libc.a(strcmp.o)
 .text.avr-libc
                0x00000000       0x12 c:/program files (x86)/atmel/studio/7.0/toolchain/avr8/avr8-gnu-toolchain/bin/../lib/gcc/avr/5.4.0/../../../../avr/lib/avr5\libc.a(strcmp.o)
 .text          0x00000000        0x0 c:/program files (x86)/atmel/studio/7.0/toolchain/avr8/avr8-gnu-toolchain/bin/../lib/gcc/avr/5.4.0/../../../../avr/lib/avr5\libc.a(strcpy.o)
 .data          0x00000000        0x0 c:/program files (x86)/atmel/studio/7.0/toolchain/avr8/avr8-gnu-toolchain/bin/../lib/gcc/avr/5.4.0/../../../../avr/lib/avr5\libc.a(strcpy.o)
 .bss           0x00000000        0x0 c:/program files (x86)/atmel/studio/7.0/toolchain/avr8/avr8-gnu-toolchain/bin/../lib/gcc/avr/5.4.0/../../../../avr/lib/avr5\libc.a(strcpy.o)
 .text          0x00000000        0x0 c:/program files (x86)/atmel/studio/7.0/toolchain/avr8/avr8-gnu-toolchain/bin/../lib/gcc/avr/5.4.0/../../../../avr/lib/avr5\libc.a(strncmp.o)
 .data          0x00000000        0x0 c:/program files (x86)/atmel/studio/7.0/toolchain/avr8/avr8-gnu-toolchain/bin/../lib/gcc/avr/5.4.0/../../../../avr/lib/avr5\libc.a(strncmp.o)
 .bss           0x00000000        0x0 c:/program files (x86)/atmel/studio/7.0/toolchain/avr8/avr8-gnu-toolchain/bin/../lib/gcc/avr/5.4.0/../../../../avr/lib/avr5\libc.a(strncmp.o)
 .text.avr-libc
                0x00000000       0x1c c:/program files (x86)/atmel/studio/7.0/toolchain/avr8/avr8-gnu-toolchain/bin/../lib/gcc/avr/5.4.0/../../../../avr/lib/avr5\libc.a(strncmp.o)
 .text          0x00000000        0x0 c:/program files (x86)/atmel/studio/7.0/toolchain/avr8/avr8-gnu-toolchain/bin/../lib/gcc/avr/5.4.0/../../../../avr/lib/avr5\libc.a(strncpy.o)
 .data          0x00000000        0x0 c:/program files (x86)/atmel/studio/7.0/toolchain/avr8/avr8-gnu-toolchain/bin/../lib/gcc/avr/5.4.0/../../../../avr/lib/avr5\libc.a(strncpy.o)
 .bss           0x00000000        0x0 c:/program files (x86)/atmel/studio/7.0/toolchain/avr8/avr8-gnu-toolchain/bin/../lib/gcc/avr/5.4.0/../../../../avr/lib/avr5\libc.a(strncpy.o)
 .text          0x00000000        0x0 c:/program files (x86)/atmel/studio/7.0/toolchain/avr8/avr8-gnu-toolchain/bin/../lib/gcc/avr/5.4.0/../../../../avr/lib/avr5\libc.a(strrchr.o)
 .data          0x00000000        0x0 c:/program files (x86)/atmel/studio/7.0/toolchain/avr8/avr8-gnu-toolchain/bin/../lib/gcc/avr/5.4.0/../../../../avr/lib/avr5\libc.a(strrchr.o)
 .bss           0x00000000        0x0 c:/program files (x86)/atmel/studio/7.0/toolchain/avr8/avr8-gnu-toolchain/bin/../lib/gcc/avr/5.4.0/../../../../avr/lib/avr5\libc.a(strrchr.o)
 .text.avr-libc
                0x00000000       0x16 c:/program files (x86)/atmel/studio/7.0/toolchain/avr8/avr8-gnu-toolchain/bin/../lib/gcc/avr/5.4.0/../../../../avr/lib/avr5\libc.a(strrchr.o)
 .text          0x00000000        0x0 c:/program files (x86)/atmel/studio/7.0/toolchain/avr8/avr8-gnu-toolchain/bin/../lib/gcc/avr/5.4.0/../../../../avr/lib/avr5\libc.a(strstr.o)
 .data          0x00000000        0x0 c:/program files (x86)/atmel/studio/7.0/toolchain/avr8/avr8-gnu-toolchain/bin/../lib/gcc/avr/5.4.0/../../../../avr/lib/avr5\libc.a(strstr.o)
 .bss           0x00000000        0x0 c:/program files (x86)/atmel/studio/7.0/toolchain/avr8/avr8-gnu-toolchain/bin/../lib/gcc/avr/5.4.0/../../../../avr/lib/avr5\libc.a(strstr.o)
 .text.avr-libc
                0x00000000       0x34 c:/program files (x86)/atmel/studio/7.0/toolchain/avr8/avr8-gnu-toolchain/bin/../lib/gcc/avr/5.4.0/../../../../avr/lib/avr5\libc.a(strstr.o)
 .text          0x00000000        0x0 c:/program files (x86)/atmel/studio/7.0/toolchain/avr8/avr8-gnu-toolchain/bin/../lib/gcc/avr/5.4.0/../../../../avr/lib/avr5\libc.a(itoa.o)
 .data          0x00000000        0x0 c:/program files (x86)/atmel/studio/7.0/toolchain/avr8/avr8-gnu-toolchain/bin/../lib/gcc/avr/5.4.0/../../../../avr/lib/avr5\libc.a(itoa.o)
 .bss           0x00000000        0x0 c:/program files (x86)/atmel/studio/7.0/toolchain/avr8/avr8-gnu-toolchain/bin/../lib/gcc/avr/5.4.0/../../../../avr/lib/avr5\libc.a(itoa.o)
 .text.avr-libc
                0x00000000       0x16 c:/program files (x86)/atmel/studio/7.0/toolchain/avr8/avr8-gnu-toolchain/bin/../lib/gcc/avr/5.4.0/../../../../avr/lib/avr5\libc.a(itoa.o)
 .text          0x00000000        0x0 c:/program files (x86)/atmel/studio/7.0/toolchain/avr8/avr8-gnu-toolchain/bin/../lib/gcc/avr/5.4.0/../../../../avr/lib/avr5\libc.a(itoa_ncheck.o)
 .data          0x00000000        0x0 c:/program files (x86)/atmel/studio/7.0/toolchain/avr8/avr8-gnu-toolchain/bin/../lib/gcc/avr/5.4.0/../../../../avr/lib/avr5\libc.a(itoa_ncheck.o)
 .bss           0x00000000        0x0 c:/program files (x86)/atmel/studio/7.0/toolchain/avr8/avr8-gnu-toolchain/bin/../lib/gcc/avr/5.4.0/../../../../avr/lib/avr5\libc.a(itoa_ncheck.o)
 .text.avr-libc
                0x00000000       0x16 c:/program files (x86)/atmel/studio/7.0/toolchain/avr8/avr8-gnu-toolchain/bin/../lib/gcc/avr/5.4.0/../../../../avr/lib/avr5\libc.a(itoa_ncheck.o)
 .text          0x00000000        0x0 c:/program files (x86)/atmel/studio/7.0/toolchain/avr8/avr8-gnu-toolchain/bin/../lib/gcc/avr/5.4.0/../../../../avr/lib/avr5\libc.a(ltoa.o)
 .data          0x00000000        0x0 c:/program files (x86)/atmel/studio/7.0/toolchain/avr8/avr8-gnu-toolchain/bin/../lib/gcc/avr/5.4.0/../../../../avr/lib/avr5\libc.a(ltoa.o)
 .bss           0x00000000        0x0 c:/program files (x86)/atmel/studio/7.0/toolchain/avr8/avr8-gnu-toolchain/bin/../lib/gcc/avr/5.4.0/../../../../avr/lib/avr5\libc.a(ltoa.o)
 .text.avr-libc
                0x00000000       0x16 c:/program files (x86)/atmel/studio/7.0/toolchain/avr8/avr8-gnu-toolchain/bin/../lib/gcc/avr/5.4.0/../../../../avr/lib/avr5\libc.a(ltoa.o)
 .text          0x00000000        0x0 c:/program files (x86)/atmel/studio/7.0/toolchain/avr8/avr8-gnu-toolchain/bin/../lib/gcc/avr/5.4.0/../../../../avr/lib/avr5\libc.a(ltoa_ncheck.o)
 .data          0x00000000        0x0 c:/program files (x86)/atmel/studio/7.0/toolchain/avr8/avr8-gnu-toolchain/bin/../lib/gcc/avr/5.4.0/../../../../avr/lib/avr5\libc.a(ltoa_ncheck.o)
 .bss           0x00000000        0x0 c:/program files (x86)/atmel/studio/7.0/toolchain/avr8/avr8-gnu-toolchain/bin/../lib/gcc/avr/5.4.0/../../../../avr/lib/avr5\libc.a(ltoa_ncheck.o)
 .text.avr-libc
                0x00000000       0x1e c:/program files (x86)/atmel/studio/7.0/toolchain/avr8/avr8-gnu-toolchain/bin/../lib/gcc/avr/5.4.0/../../../../avr/lib/avr5\libc.a(ltoa_ncheck.o)
 .text          0x00000000        0x0 c:/program files (x86)/atmel/studio/7.0/toolchain/avr8/avr8-gnu-toolchain/bin/../lib/gcc/avr/5.4.0/../../../../avr/lib/avr5\libc.a(mulsi10.o)
 .data          0x00000000        0x0 c:/program files (x86)/atmel/studio/7.0/toolchain/avr8/avr8-gnu-toolchain/bin/../lib/gcc/avr/5.4.0/../../../../avr/lib/avr5\libc.a(mulsi10.o)
 .bss           0x00000000        0x0 c:/program files (x86)/atmel/studio/7.0/toolchain/avr8/avr8-gnu-toolchain/bin/../lib/gcc/avr/5.4.0/../../../../avr/lib/avr5\libc.a(mulsi10.o)
 .text.avr-libc
                0x00000000       0x2a c:/program files (x86)/atmel/studio/7.0/toolchain/avr8/avr8-gnu-toolchain/bin/../lib/gcc/avr/5.4.0/../../../../avr/lib/avr5\libc.a(mulsi10.o)
 .text          0x00000000        0x0 c:/program files (x86)/atmel/studio/7.0/toolchain/avr8/avr8-gnu-toolchain/bin/../lib/gcc/avr/5.4.0/../../../../avr/lib/avr5\libc.a(ultoa.o)
 .data          0x00000000        0x0 c:/program files (x86)/atmel/studio/7.0/toolchain/avr8/avr8-gnu-toolchain/bin/../lib/gcc/avr/5.4.0/../../../../avr/lib/avr5\libc.a(ultoa.o)
 .bss           0x00000000        0x0 c:/program files (x86)/atmel/studio/7.0/toolchain/avr8/avr8-gnu-toolchain/bin/../lib/gcc/avr/5.4.0/../../../../avr/lib/avr5\libc.a(ultoa.o)
 .text.avr-libc
                0x00000000       0x16 c:/program files (x86)/atmel/studio/7.0/toolchain/avr8/avr8-gnu-toolchain/bin/../lib/gcc/avr/5.4.0/../../../../avr/lib/avr5\libc.a(ultoa.o)
 .text          0x00000000        0x0 c:/program files (x86)/atmel/studio/7.0/toolchain/avr8/avr8-gnu-toolchain/bin/../lib/gcc/avr/5.4.0/../../../../avr/lib/avr5\libc.a(ultoa_ncheck.o)
 .data          0x00000000        0x0 c:/program files (x86)/atmel/studio/7.0/toolchain/avr8/avr8-gnu-toolchain/bin/../lib/gcc/avr/5.4.0/../../../../avr/lib/avr5\libc.a(ultoa_ncheck.o)
 .bss           0x00000000        0x0 c:/program files (x86)/atmel/studio/7.0/toolchain/avr8/avr8-gnu-toolchain/bin/../lib/gcc/avr/5.4.0/../../../../avr/lib/avr5\libc.a(ultoa_ncheck.o)
 .text.avr-libc
                0x00000000       0x44 c:/program files (x86)/atmel/studio/7.0/toolchain/avr8/avr8-gnu-toolchain/bin/../lib/gcc/avr/5.4.0/../../../../avr/lib/avr5\libc.a(ultoa_ncheck.o)
 .text          0x00000000        0x0 c:/program files (x86)/atmel/studio/7.0/toolchain/avr8/avr8-gnu-toolchain/bin/../lib/gcc/avr/5.4.0/../../../../avr/lib/avr5\libc.a(utoa.o)
 .data          0x00000000        0x0 c:/program files (x86)/atmel/studio/7.0/toolchain/avr8/avr8-gnu-toolchain/bin/../lib/gcc/avr/5.4.0/../../../../avr/lib/avr5\libc.a(utoa.o)
 .bss           0x00000000        0x0 c:/program files (x86)/atmel/studio/7.0/toolchain/avr8/avr8-gnu-toolchain/bin/../lib/gcc/avr/5.4.0/../../../../avr/lib/avr5\libc.a(utoa.o)
 .text.avr-libc
                0x00000000       0x16 c:/program files (x86)/atmel/studio/7.0/toolchain/avr8/avr8-gnu-toolchain/bin/../lib/gcc/avr/5.4.0/../../../../avr/lib/avr5\libc.a(utoa.o)
 .text          0x00000000        0x0 c:/program files (x86)/atmel/studio/7.0/toolchain/avr8/avr8-gnu-toolchain/bin/../lib/gcc/avr/5.4.0/../../../../avr/lib/avr5\libc.a(utoa_ncheck.o)
 .data          0x00000000        0x0 c:/program files (x86)/atmel/studio/7.0/toolchain/avr8/avr8-gnu-toolchain/bin/../lib/gcc/avr/5.4.0/../../../../avr/lib/avr5\libc.a(utoa_ncheck.o)
 .bss           0x00000000        0x0 c:/program files (x86)/atmel/studio/7.0/toolchain/avr8/avr8-gnu-toolchain/bin/../lib/gcc/avr/5.4.0/../../../../avr/lib/avr5\libc.a(utoa_ncheck.o)
 .text.avr-libc
                0x00000000       0x34 c:/program files (x86)/atmel/studio/7.0/toolchain/avr8/avr8-gnu-toolchain/bin/../lib/gcc/avr/5.4.0/../../../../avr/lib/avr5\libc.a(utoa_ncheck.o)
 .text          0x00000000        0x0 c:/program files (x86)/atmel/studio/7.0/toolchain/avr8/avr8-gnu-toolchain/bin/../lib/gcc/avr/5.4.0/../../../../avr/lib/avr5\libc.a(dtoa_prf.o)
 .data          0x00000000        0x0 c:/program files (x86)/atmel/studio/7.0/toolchain/avr8/avr8-gnu-toolchain/bin/../lib/gcc/avr/5.4.0/../../../../avr/lib/avr5\libc.a(dtoa_prf.o)
 .bss           0x00000000        0x0 c:/program files (x86)/atmel/studio/7.0/toolchain/avr8/avr8-gnu-toolchain/bin/../lib/gcc/avr/5.4.0/../../../../avr/lib/avr5\libc.a(dtoa_prf.o)
 .text.avr-libc
                0x00000000      0x2b4 c:/program files (x86)/atmel/studio/7.0/toolchain/avr8/avr8-gnu-toolchain/bin/../lib/gcc/avr/5.4.0/../../../../avr/lib/avr5\libc.a(dtoa_prf.o)
 .comment       0x00000000       0x31 c:/program files (x86)/atmel/studio/7.0/toolchain/avr8/avr8-gnu-toolchain/bin/../lib/gcc/avr/5.4.0/../../../../avr/lib/avr5\libc.a(dtoa_prf.o)
 .text          0x00000000        0x0 c:/program files (x86)/atmel/studio/7.0/toolchain/avr8/avr8-gnu-toolchain/bin/../lib/gcc/avr/5.4.0/../../../../avr/lib/avr5\libc.a(strtod.o)
 .data          0x00000000        0x0 c:/program files (x86)/atmel/studio/7.0/toolchain/avr8/avr8-gnu-toolchain/bin/../lib/gcc/avr/5.4.0/../../../../avr/lib/avr5\libc.a(strtod.o)
 .bss           0x00000000        0x0 c:/program files (x86)/atmel/studio/7.0/toolchain/avr8/avr8-gnu-toolchain/bin/../lib/gcc/avr/5.4.0/../../../../avr/lib/avr5\libc.a(strtod.o)
 .text.avr-libc
                0x00000000      0x29c c:/program files (x86)/atmel/studio/7.0/toolchain/avr8/avr8-gnu-toolchain/bin/../lib/gcc/avr/5.4.0/../../../../avr/lib/avr5\libc.a(strtod.o)
 .progmem.data  0x00000000       0x3b c:/program files (x86)/atmel/studio/7.0/toolchain/avr8/avr8-gnu-toolchain/bin/../lib/gcc/avr/5.4.0/../../../../avr/lib/avr5\libc.a(strtod.o)
 .comment       0x00000000       0x31 c:/program files (x86)/atmel/studio/7.0/toolchain/avr8/avr8-gnu-toolchain/bin/../lib/gcc/avr/5.4.0/../../../../avr/lib/avr5\libc.a(strtod.o)
 .text          0x00000000        0x0 c:/program files (x86)/atmel/studio/7.0/toolchain/avr8/avr8-gnu-toolchain/bin/../lib/gcc/avr/5.4.0/../../../../avr/lib/avr5\libc.a(ftoa_engine.o)
 .data          0x00000000        0x0 c:/program files (x86)/atmel/studio/7.0/toolchain/avr8/avr8-gnu-toolchain/bin/../lib/gcc/avr/5.4.0/../../../../avr/lib/avr5\libc.a(ftoa_engine.o)
 .bss           0x00000000        0x0 c:/program files (x86)/atmel/studio/7.0/toolchain/avr8/avr8-gnu-toolchain/bin/../lib/gcc/avr/5.4.0/../../../../avr/lib/avr5\libc.a(ftoa_engine.o)
 .text.avr-libc
                0x00000000      0x1b0 c:/program files (x86)/atmel/studio/7.0/toolchain/avr8/avr8-gnu-toolchain/bin/../lib/gcc/avr/5.4.0/../../../../avr/lib/avr5\libc.a(ftoa_engine.o)
 .progmem.data  0x00000000       0xfa c:/program files (x86)/atmel/studio/7.0/toolchain/avr8/avr8-gnu-toolchain/bin/../lib/gcc/avr/5.4.0/../../../../avr/lib/avr5\libc.a(ftoa_engine.o)
 .text          0x00000000        0x0 c:/program files (x86)/atmel/studio/7.0/toolchain/avr8/avr8-gnu-toolchain/bin/../lib/gcc/avr/5.4.0/../../../../avr/lib/avr5\libc.a(cty_isfalse.o)
 .data          0x00000000        0x0 c:/program files (x86)/atmel/studio/7.0/toolchain/avr8/avr8-gnu-toolchain/bin/../lib/gcc/avr/5.4.0/../../../../avr/lib/avr5\libc.a(cty_isfalse.o)
 .bss           0x00000000        0x0 c:/program files (x86)/atmel/studio/7.0/toolchain/avr8/avr8-gnu-toolchain/bin/../lib/gcc/avr/5.4.0/../../../../avr/lib/avr5\libc.a(cty_isfalse.o)
 .text.avr-libc
                0x00000000        0x6 c:/program files (x86)/atmel/studio/7.0/toolchain/avr8/avr8-gnu-toolchain/bin/../lib/gcc/avr/5.4.0/../../../../avr/lib/avr5\libc.a(cty_isfalse.o)
 .text          0x00000000        0x0 c:/program files (x86)/atmel/studio/7.0/toolchain/avr8/avr8-gnu-toolchain/bin/../lib/gcc/avr/5.4.0/../../../../avr/lib/avr5\libc.a(strncasecmp_P.o)
 .data          0x00000000        0x0 c:/program files (x86)/atmel/studio/7.0/toolchain/avr8/avr8-gnu-toolchain/bin/../lib/gcc/avr/5.4.0/../../../../avr/lib/avr5\libc.a(strncasecmp_P.o)
 .bss           0x00000000        0x0 c:/program files (x86)/atmel/studio/7.0/toolchain/avr8/avr8-gnu-toolchain/bin/../lib/gcc/avr/5.4.0/../../../../avr/lib/avr5\libc.a(strncasecmp_P.o)
 .text.avr-libc
                0x00000000       0x30 c:/program files (x86)/atmel/studio/7.0/toolchain/avr8/avr8-gnu-toolchain/bin/../lib/gcc/avr/5.4.0/../../../../avr/lib/avr5\libc.a(strncasecmp_P.o)
 .text          0x00000000        0x0 c:/program files (x86)/atmel/studio/7.0/toolchain/avr8/avr8-gnu-toolchain/bin/../lib/gcc/avr/5.4.0/../../../../avr/lib/avr5\libc.a(strrev.o)
 .data          0x00000000        0x0 c:/program files (x86)/atmel/studio/7.0/toolchain/avr8/avr8-gnu-toolchain/bin/../lib/gcc/avr/5.4.0/../../../../avr/lib/avr5\libc.a(strrev.o)
 .bss           0x00000000        0x0 c:/program files (x86)/atmel/studio/7.0/toolchain/avr8/avr8-gnu-toolchain/bin/../lib/gcc/avr/5.4.0/../../../../avr/lib/avr5\libc.a(strrev.o)
 .text.avr-libc
                0x00000000       0x20 c:/program files (x86)/atmel/studio/7.0/toolchain/avr8/avr8-gnu-toolchain/bin/../lib/gcc/avr/5.4.0/../../../../avr/lib/avr5\libc.a(strrev.o)
 .text          0x00000000        0x0 c:/program files (x86)/atmel/studio/7.0/toolchain/avr8/avr8-gnu-toolchain/bin/../lib/gcc/avr/5.4.0/../../../../avr/lib/avr5\libc.a(errno.o)
 .data          0x00000000        0x0 c:/program files (x86)/atmel/studio/7.0/toolchain/avr8/avr8-gnu-toolchain/bin/../lib/gcc/avr/5.4.0/../../../../avr/lib/avr5\libc.a(errno.o)
 .bss           0x00000000        0x0 c:/program files (x86)/atmel/studio/7.0/toolchain/avr8/avr8-gnu-toolchain/bin/../lib/gcc/avr/5.4.0/../../../../avr/lib/avr5\libc.a(errno.o)
 .comment       0x00000000       0x2d c:/program files (x86)/atmel/studio/7.0/toolchain/avr8/avr8-gnu-toolchain/bin/../lib/gcc/avr/5.4.0/../../../../avr/lib/avr5\libc.a(errno.o)
 COMMON         0x00000000        0x2 c:/program files (x86)/atmel/studio/7.0/toolchain/avr8/avr8-gnu-toolchain/bin/../lib/gcc/avr/5.4.0/../../../../avr/lib/avr5\libc.a(errno.o)
 .text          0x00000000        0x0 c:/program files (x86)/atmel/studio/7.0/toolchain/avr8/avr8-gnu-toolchain/bin/../lib/gcc/avr/5.4.0/avr5\libgcc.a(_mulshisi3.o)
 .data          0x00000000        0x0 c:/program files (x86)/atmel/studio/7.0/toolchain/avr8/avr8-gnu-toolchain/bin/../lib/gcc/avr/5.4.0/avr5\libgcc.a(_mulshisi3.o)
 .bss           0x00000000        0x0 c:/program files (x86)/atmel/studio/7.0/toolchain/avr8/avr8-gnu-toolchain/bin/../lib/gcc/avr/5.4.0/avr5\libgcc.a(_mulshisi3.o)
 .text.libgcc.div
                0x00000000        0x0 c:/program files (x86)/atmel/studio/7.0/toolchain/avr8/avr8-gnu-toolchain/bin/../lib/gcc/avr/5.4.0/avr5\libgcc.a(_mulshisi3.o)
 .text.libgcc   0x00000000        0x0 c:/program files (x86)/atmel/studio/7.0/toolchain/avr8/avr8-gnu-toolchain/bin/../lib/gcc/avr/5.4.0/avr5\libgcc.a(_mulshisi3.o)
 .text.libgcc.prologue
                0x00000000        0x0 c:/program files (x86)/atmel/studio/7.0/toolchain/avr8/avr8-gnu-toolchain/bin/../lib/gcc/avr/5.4.0/avr5\libgcc.a(_mulshisi3.o)
 .text.libgcc.builtins
                0x00000000        0x0 c:/program files (x86)/atmel/studio/7.0/toolchain/avr8/avr8-gnu-toolchain/bin/../lib/gcc/avr/5.4.0/avr5\libgcc.a(_mulshisi3.o)
 .text.libgcc.fmul
                0x00000000        0x0 c:/program files (x86)/atmel/studio/7.0/toolchain/avr8/avr8-gnu-toolchain/bin/../lib/gcc/avr/5.4.0/avr5\libgcc.a(_mulshisi3.o)
 .text.libgcc.fixed
                0x00000000        0x0 c:/program files (x86)/atmel/studio/7.0/toolchain/avr8/avr8-gnu-toolchain/bin/../lib/gcc/avr/5.4.0/avr5\libgcc.a(_mulshisi3.o)
 .text          0x00000000        0x0 c:/program files (x86)/atmel/studio/7.0/toolchain/avr8/avr8-gnu-toolchain/bin/../lib/gcc/avr/5.4.0/avr5\libgcc.a(_prologue.o)
 .data          0x00000000        0x0 c:/program files (x86)/atmel/studio/7.0/toolchain/avr8/avr8-gnu-toolchain/bin/../lib/gcc/avr/5.4.0/avr5\libgcc.a(_prologue.o)
 .bss           0x00000000        0x0 c:/program files (x86)/atmel/studio/7.0/toolchain/avr8/avr8-gnu-toolchain/bin/../lib/gcc/avr/5.4.0/avr5\libgcc.a(_prologue.o)
 .text.libgcc.mul
                0x00000000        0x0 c:/program files (x86)/atmel/studio/7.0/toolchain/avr8/avr8-gnu-toolchain/bin/../lib/gcc/avr/5.4.0/avr5\libgcc.a(_prologue.o)
 .text.libgcc.div
                0x00000000        0x0 c:/program files (x86)/atmel/studio/7.0/toolchain/avr8/avr8-gnu-toolchain/bin/../lib/gcc/avr/5.4.0/avr5\libgcc.a(_prologue.o)
 .text.libgcc   0x00000000        0x0 c:/program files (x86)/atmel/studio/7.0/toolchain/avr8/avr8-gnu-toolchain/bin/../lib/gcc/avr/5.4.0/avr5\libgcc.a(_prologue.o)
 .text.libgcc.builtins
                0x00000000        0x0 c:/program files (x86)/atmel/studio/7.0/toolchain/avr8/avr8-gnu-toolchain/bin/../lib/gcc/avr/5.4.0/avr5\libgcc.a(_prologue.o)
 .text.libgcc.fmul
                0x00000000        0x0 c:/program files (x86)/atmel/studio/7.0/toolchain/avr8/avr8-gnu-toolchain/bin/../lib/gcc/avr/5.4.0/avr5\libgcc.a(_prologue.o)
 .text.libgcc.fixed
                0x00000000        0x0 c:/program files (x86)/atmel/studio/7.0/toolchain/avr8/avr8-gnu-toolchain/bin/../lib/gcc/avr/5.4.0/avr5\libgcc.a(_prologue.o)
 .text          0x00000000        0x0 c:/program files (x86)/atmel/studio/7.0/toolchain/avr8/avr8-gnu-toolchain/bin/../lib/gcc/avr/5.4.0/avr5\libgcc.a(_epilogue.o)
 .data          0x00000000        0x0 c:/program files (x86)/atmel/studio/7.0/toolchain/avr8/avr8-gnu-toolchain/bin/../lib/gcc/avr/5.4.0/avr5\libgcc.a(_epilogue.o)
 .bss           0x00000000        0x0 c:/program files (x86)/atmel/studio/7.0/toolchain/avr8/avr8-gnu-toolchain/bin/../lib/gcc/avr/5.4.0/avr5\libgcc.a(_epilogue.o)
 .text.libgcc.mul
                0x00000000        0x0 c:/program files (x86)/atmel/studio/7.0/toolchain/avr8/avr8-gnu-toolchain/bin/../lib/gcc/avr/5.4.0/avr5\libgcc.a(_epilogue.o)
 .text.libgcc.div
                0x00000000        0x0 c:/program files (x86)/atmel/studio/7.0/toolchain/avr8/avr8-gnu-toolchain/bin/../lib/gcc/avr/5.4.0/avr5\libgcc.a(_epilogue.o)
 .text.libgcc   0x00000000        0x0 c:/program files (x86)/atmel/studio/7.0/toolchain/avr8/avr8-gnu-toolchain/bin/../lib/gcc/avr/5.4.0/avr5\libgcc.a(_epilogue.o)
 .text.libgcc.builtins
                0x00000000        0x0 c:/program files (x86)/atmel/studio/7.0/toolchain/avr8/avr8-gnu-toolchain/bin/../lib/gcc/avr/5.4.0/avr5\libgcc.a(_epilogue.o)
 .text.libgcc.fmul
                0x00000000        0x0 c:/program files (x86)/atmel/studio/7.0/toolchain/avr8/avr8-gnu-toolchain/bin/../lib/gcc/avr/5.4.0/avr5\libgcc.a(_epilogue.o)
 .text.libgcc.fixed
                0x00000000        0x0 c:/program files (x86)/atmel/studio/7.0/toolchain/avr8/avr8-gnu-toolchain/bin/../lib/gcc/avr/5.4.0/avr5\libgcc.a(_epilogue.o)

Memory Configuration

Name             Origin             Length             Attributes
text             0x00000000         0x00008000         xr
data             0x00800100         0x00000a00         rw !x
eeprom           0x00810000         0x00000400         rw !x
fuse             0x00820000         0x00000003         rw !x
lock             0x00830000         0x00000400         rw !x
signature        0x00840000         0x00000400         rw !x
user_signatures  0x00850000         0x00000400         rw !x
*default*        0x00000000         0xffffffff

Linker script and memory map

Address of section .data set to 0x800100
LOAD C:/Program Files (x86)/Atmel/Studio/7.0/Packs/Atmel/ATmega_DFP/1.7.374/gcc/dev/atmega32u4/avr5/crtatmega32u4.o
LOAD Sketch.o
START GROUP
LOAD c:/program files (x86)/atmel/studio/7.0/toolchain/avr8/avr8-gnu-toolchain/bin/../lib/gcc/avr/5.4.0/../../../../avr/lib/avr5\libm.a
LOAD C:\Users\Jose\DOCUME~1\rkt\rpk2\FIRMWA~1\LEOENC~1\ARDUIN~1\ARDUIN~1\ARDUIN~1\Debug\libArduinoCore.a
END GROUP
LOAD c:/program files (x86)/atmel/studio/7.0/toolchain/avr8/avr8-gnu-toolchain/bin/../lib/gcc/avr/5.4.0/avr5\libgcc.a
LOAD c:/program files (x86)/atmel/studio/7.0/toolchain/avr8/avr8-gnu-toolchain/bin/../lib/gcc/avr/5.4.0/../../../../avr/lib/avr5\libm.a
START GROUP
LOAD c:/program files (x86)/atmel/studio/7.0/toolchain/avr8/avr8-gnu-toolchain/bin/../lib/gcc/avr/5.4.0/avr5\libgcc.a
LOAD c:/program files (x86)/atmel/studio/7.0/toolchain/avr8/avr8-gnu-toolchain/bin/../lib/gcc/avr/5.4.0/../../../../avr/lib/avr5\libm.a
LOAD c:/program files (x86)/atmel/studio/7.0/toolchain/avr8/avr8-gnu-toolchain/bin/../lib/gcc/avr/5.4.0/../../../../avr/lib/avr5\libc.a
LOAD C:/Program Files (x86)/Atmel/Studio/7.0/Packs/Atmel/ATmega_DFP/1.7.374/gcc/dev/atmega32u4/avr5\libatmega32u4.a
END GROUP
                0x00000000                __TEXT_REGION_ORIGIN__ = DEFINED (__TEXT_REGION_ORIGIN__)?__TEXT_REGION_ORIGIN__:0x0
                [0x00800100]                __DATA_REGION_ORIGIN__ = DEFINED (__DATA_REGION_ORIGIN__)?__DATA_REGION_ORIGIN__:0x800060
                [0x00008000]                __TEXT_REGION_LENGTH__ = DEFINED (__TEXT_REGION_LENGTH__)?__TEXT_REGION_LENGTH__:0x20000
                [0x00000a00]                __DATA_REGION_LENGTH__ = DEFINED (__DATA_REGION_LENGTH__)?__DATA_REGION_LENGTH__:0xffa0
                [0x00000400]                __EEPROM_REGION_LENGTH__ = DEFINED (__EEPROM_REGION_LENGTH__)?__EEPROM_REGION_LENGTH__:0x10000
                [0x00000003]                __FUSE_REGION_LENGTH__ = DEFINED (__FUSE_REGION_LENGTH__)?__FUSE_REGION_LENGTH__:0x400
                0x00000400                __LOCK_REGION_LENGTH__ = DEFINED (__LOCK_REGION_LENGTH__)?__LOCK_REGION_LENGTH__:0x400
                0x00000400                __SIGNATURE_REGION_LENGTH__ = DEFINED (__SIGNATURE_REGION_LENGTH__)?__SIGNATURE_REGION_LENGTH__:0x400
                0x00000400                __USER_SIGNATURE_REGION_LENGTH__ = DEFINED (__USER_SIGNATURE_REGION_LENGTH__)?__USER_SIGNATURE_REGION_LENGTH__:0x400

.hash
 *(.hash)

.dynsym
 *(.dynsym)

.dynstr
 *(.dynstr)

.gnu.version
 *(.gnu.version)

.gnu.version_d
 *(.gnu.version_d)

.gnu.version_r
 *(.gnu.version_r)

.rel.init
 *(.rel.init)

.rela.init
 *(.rela.init)

.rel.text
 *(.rel.text)
 *(.rel.text.*)
 *(.rel.gnu.linkonce.t*)

.rela.text
 *(.rela.text)
 *(.rela.text.*)
 *(.rela.gnu.linkonce.t*)

.rel.fini
 *(.rel.fini)

.rela.fini
 *(.rela.fini)

.rel.rodata
 *(.rel.rodata)
 *(.rel.rodata.*)
 *(.rel.gnu.linkonce.r*)

.rela.rodata
 *(.rela.rodata)
 *(.rela.rodata.*)
 *(.rela.gnu.linkonce.r*)

.rel.data
 *(.rel.data)
 *(.rel.data.*)
 *(.rel.gnu.linkonce.d*)

.rela.data
 *(.rela.data)
 *(.rela.data.*)
 *(.rela.gnu.linkonce.d*)

.rel.ctors
 *(.rel.ctors)

.rela.ctors
 *(.rela.ctors)

.rel.dtors
 *(.rel.dtors)

.rela.dtors
 *(.rela.dtors)

.rel.got
 *(.rel.got)

.rela.got
 *(.rela.got)

.rel.bss
 *(.rel.bss)

.rela.bss
 *(.rela.bss)

.rel.plt
 *(.rel.plt)

.rela.plt
 *(.rela.plt)

.text           0x00000000     0x3932
 *(.vectors)
 .vectors       0x00000000       0xac C:/Program Files (x86)/Atmel/Studio/7.0/Packs/Atmel/ATmega_DFP/1.7.374/gcc/dev/atmega32u4/avr5/crtatmega32u4.o
                0x00000000                __vector_default
                0x00000000                __vectors
 *(.vectors)
 *(.progmem.gcc*)
 .progmem.gcc_sw_table.turnOffPWM
                0x000000ac       0x1e C:\Users\Jose\DOCUME~1\rkt\rpk2\FIRMWA~1\LEOENC~1\ARDUIN~1\ARDUIN~1\ARDUIN~1\Debug\libArduinoCore.a(wiring_digital.o)
                0x000000ca                . = ALIGN (0x2)
                0x000000ca                __trampolines_start = .
 *(.trampolines)
 .trampolines   0x000000ca        0x0 linker stubs
 *(.trampolines*)
                0x000000ca                __trampolines_end = .
 *libprintf_flt.a:*(.progmem.data)
 *libc.a:*(.progmem.data)
 *(.progmem*)
 .progmem.data._cdcInterface
                0x000000ca       0x42 C:\Users\Jose\DOCUME~1\rkt\rpk2\FIRMWA~1\LEOENC~1\ARDUIN~1\ARDUIN~1\ARDUIN~1\Debug\libArduinoCore.a(CDC.o)
                0x000000ca                _cdcInterface
 .progmem.data.USB_DeviceDescriptorIAD
                0x0000010c       0x12 C:\Users\Jose\DOCUME~1\rkt\rpk2\FIRMWA~1\LEOENC~1\ARDUIN~1\ARDUIN~1\ARDUIN~1\Debug\libArduinoCore.a(USBCore.o)
                0x0000010c                USB_DeviceDescriptorIAD
 .progmem.data.STRING_MANUFACTURER
                0x0000011e        0xc C:\Users\Jose\DOCUME~1\rkt\rpk2\FIRMWA~1\LEOENC~1\ARDUIN~1\ARDUIN~1\ARDUIN~1\Debug\libArduinoCore.a(USBCore.o)
                0x0000011e                STRING_MANUFACTURER
 .progmem.data.STRING_PRODUCT
                0x0000012a       0x11 C:\Users\Jose\DOCUME~1\rkt\rpk2\FIRMWA~1\LEOENC~1\ARDUIN~1\ARDUIN~1\ARDUIN~1\Debug\libArduinoCore.a(USBCore.o)
                0x0000012a                STRING_PRODUCT
 .progmem.data.STRING_LANGUAGE
                0x0000013b        0x4 C:\Users\Jose\DOCUME~1\rkt\rpk2\FIRMWA~1\LEOENC~1\ARDUIN~1\ARDUIN~1\ARDUIN~1\Debug\libArduinoCore.a(USBCore.o)
                0x0000013b                STRING_LANGUAGE
 .progmem.data.digital_pin_to_timer_PGM
                0x0000013f       0x1f C:\Users\Jose\DOCUME~1\rkt\rpk2\FIRMWA~1\LEOENC~1\ARDUIN~1\ARDUIN~1\ARDUIN~1\Debug\libArduinoCore.a(wiring_digital.o)
                0x0000013f                digital_pin_to_timer_PGM
 .progmem.data.digital_pin_to_bit_mask_PGM
                0x0000015e       0x1f C:\Users\Jose\DOCUME~1\rkt\rpk2\FIRMWA~1\LEOENC~1\ARDUIN~1\ARDUIN~1\ARDUIN~1\Debug\libArduinoCore.a(wiring_digital.o)
                0x0000015e                digital_pin_to_bit_mask_PGM
 .progmem.data.digital_pin_to_port_PGM
                0x0000017d       0x1f C:\Users\Jose\DOCUME~1\rkt\rpk2\FIRMWA~1\LEOENC~1\ARDUIN~1\ARDUIN~1\ARDUIN~1\Debug\libArduinoCore.a(wiring_digital.o)
                0x0000017d                digital_pin_to_port_PGM
 .progmem.data.port_to_output_PGM
                0x0000019c        0xe C:\Users\Jose\DOCUME~1\rkt\rpk2\FIRMWA~1\LEOENC~1\ARDUIN~1\ARDUIN~1\ARDUIN~1\Debug\libArduinoCore.a(wiring_digital.o)
                0x0000019c                port_to_output_PGM
 .progmem.data.port_to_mode_PGM
                0x000001aa        0xe C:\Users\Jose\DOCUME~1\rkt\rpk2\FIRMWA~1\LEOENC~1\ARDUIN~1\ARDUIN~1\ARDUIN~1\Debug\libArduinoCore.a(wiring_digital.o)
                0x000001aa                port_to_mode_PGM
 .progmem.data._ZL18MODEM_CONFIG_TABLE
                0x000001b8       0xd8 C:\Users\Jose\DOCUME~1\rkt\rpk2\FIRMWA~1\LEOENC~1\ARDUIN~1\ARDUIN~1\ARDUIN~1\Debug\libArduinoCore.a(RH_RF69.o)
                0x00000290                . = ALIGN (0x2)
 *(.jumptables)
 *(.jumptables*)
 *(.lowtext)
 *(.lowtext*)
                0x00000290                __ctors_start = .
 *(.ctors)
 .ctors         0x00000290        0x2 Sketch.o
 .ctors         0x00000292        0x2 C:\Users\Jose\DOCUME~1\rkt\rpk2\FIRMWA~1\LEOENC~1\ARDUIN~1\ARDUIN~1\ARDUIN~1\Debug\libArduinoCore.a(CDC.o)
 .ctors         0x00000294        0x2 C:\Users\Jose\DOCUME~1\rkt\rpk2\FIRMWA~1\LEOENC~1\ARDUIN~1\ARDUIN~1\ARDUIN~1\Debug\libArduinoCore.a(HardwareSerial1.o)
 .ctors         0x00000296        0x2 C:\Users\Jose\DOCUME~1\rkt\rpk2\FIRMWA~1\LEOENC~1\ARDUIN~1\ARDUIN~1\ARDUIN~1\Debug\libArduinoCore.a(RHHardwareSPI.o)
                0x00000298                __ctors_end = .
                0x00000298                __dtors_start = .
 *(.dtors)
                0x00000298                __dtors_end = .
 SORT(*)(.ctors)
 SORT(*)(.dtors)
 *(.init0)
 .init0         0x00000298        0x0 C:/Program Files (x86)/Atmel/Studio/7.0/Packs/Atmel/ATmega_DFP/1.7.374/gcc/dev/atmega32u4/avr5/crtatmega32u4.o
                0x00000298                __init
 *(.init0)
 *(.init1)
 *(.init1)
 *(.init2)
 .init2         0x00000298        0xc C:/Program Files (x86)/Atmel/Studio/7.0/Packs/Atmel/ATmega_DFP/1.7.374/gcc/dev/atmega32u4/avr5/crtatmega32u4.o
 *(.init2)
 *(.init3)
 *(.init3)
 *(.init4)
 .init4         0x000002a4       0x16 c:/program files (x86)/atmel/studio/7.0/toolchain/avr8/avr8-gnu-toolchain/bin/../lib/gcc/avr/5.4.0/avr5\libgcc.a(_copy_data.o)
                0x000002a4                __do_copy_data
 .init4         0x000002ba       0x10 c:/program files (x86)/atmel/studio/7.0/toolchain/avr8/avr8-gnu-toolchain/bin/../lib/gcc/avr/5.4.0/avr5\libgcc.a(_clear_bss.o)
                0x000002ba                __do_clear_bss
 *(.init4)
 *(.init5)
 *(.init5)
 *(.init6)
 .init6         0x000002ca       0x16 c:/program files (x86)/atmel/studio/7.0/toolchain/avr8/avr8-gnu-toolchain/bin/../lib/gcc/avr/5.4.0/avr5\libgcc.a(_ctors.o)
                0x000002ca                __do_global_ctors
 *(.init6)
 *(.init7)
 *(.init7)
 *(.init8)
 *(.init8)
 *(.init9)
 .init9         0x000002e0        0x8 C:/Program Files (x86)/Atmel/Studio/7.0/Packs/Atmel/ATmega_DFP/1.7.374/gcc/dev/atmega32u4/avr5/crtatmega32u4.o
 *(.init9)
 *(.text)
 .text          0x000002e8        0x4 C:/Program Files (x86)/Atmel/Studio/7.0/Packs/Atmel/ATmega_DFP/1.7.374/gcc/dev/atmega32u4/avr5/crtatmega32u4.o
                0x000002e8                __vector_38
                0x000002e8                __vector_22
                0x000002e8                __vector_28
                0x000002e8                __vector_32
                0x000002e8                __vector_34
                0x000002e8                __vector_24
                0x000002e8                __vector_12
                0x000002e8                __bad_interrupt
                0x000002e8                __vector_6
                0x000002e8                __vector_31
                0x000002e8                __vector_35
                0x000002e8                __vector_39
                0x000002e8                __vector_30
                0x000002e8                __vector_13
                0x000002e8                __vector_17
                0x000002e8                __vector_19
                0x000002e8                __vector_41
                0x000002e8                __vector_27
                0x000002e8                __vector_5
                0x000002e8                __vector_33
                0x000002e8                __vector_37
                0x000002e8                __vector_9
                0x000002e8                __vector_21
                0x000002e8                __vector_15
                0x000002e8                __vector_36
                0x000002e8                __vector_29
                0x000002e8                __vector_40
                0x000002e8                __vector_8
                0x000002e8                __vector_14
                0x000002e8                __vector_16
                0x000002e8                __vector_18
                0x000002e8                __vector_20
                0x000002e8                __vector_42
                0x000002ec                . = ALIGN (0x2)
 *(.text.*)
 .text._Z18switch_usb_to_at90v
                0x000002ec       0x62 Sketch.o
                0x000002ec                _Z18switch_usb_to_at90v
 .text.startup._GLOBAL__sub_I__Z5Blinkhhhh
                0x0000034e       0x10 Sketch.o
 .text.setup    0x0000035e      0x152 Sketch.o
                0x0000035e                setup
 .text._Z6rfreadv
                0x000004b0       0xba Sketch.o
                0x000004b0                _Z6rfreadv
 .text._Z12serial_to_rfv
                0x0000056a       0xa6 Sketch.o
                0x0000056a                _Z12serial_to_rfv
 .text.loop     0x00000610        0x8 Sketch.o
                0x00000610                loop
 .text._ZN7Serial_5writeEh
                0x00000618       0x2c C:\Users\Jose\DOCUME~1\rkt\rpk2\FIRMWA~1\LEOENC~1\ARDUIN~1\ARDUIN~1\ARDUIN~1\Debug\libArduinoCore.a(CDC.o)
                0x00000618                _ZN7Serial_5writeEh
 .text._ZN7Serial_4peekEv
                0x00000644       0x22 C:\Users\Jose\DOCUME~1\rkt\rpk2\FIRMWA~1\LEOENC~1\ARDUIN~1\ARDUIN~1\ARDUIN~1\Debug\libArduinoCore.a(CDC.o)
                0x00000644                _ZN7Serial_4peekEv
 .text._ZN7Serial_17availableForWriteEv
                0x00000666        0xa C:\Users\Jose\DOCUME~1\rkt\rpk2\FIRMWA~1\LEOENC~1\ARDUIN~1\ARDUIN~1\ARDUIN~1\Debug\libArduinoCore.a(CDC.o)
                0x00000666                _ZN7Serial_17availableForWriteEv
 .text._ZN7Serial_5flushEv
                0x00000670        0x6 C:\Users\Jose\DOCUME~1\rkt\rpk2\FIRMWA~1\LEOENC~1\ARDUIN~1\ARDUIN~1\ARDUIN~1\Debug\libArduinoCore.a(CDC.o)
                0x00000670                _ZN7Serial_5flushEv
 .text._ZN7Serial_9availableEv
                0x00000676       0x20 C:\Users\Jose\DOCUME~1\rkt\rpk2\FIRMWA~1\LEOENC~1\ARDUIN~1\ARDUIN~1\ARDUIN~1\Debug\libArduinoCore.a(CDC.o)
                0x00000676                _ZN7Serial_9availableEv
 .text._ZN7Serial_4readEv
                0x00000696       0x1a C:\Users\Jose\DOCUME~1\rkt\rpk2\FIRMWA~1\LEOENC~1\ARDUIN~1\ARDUIN~1\ARDUIN~1\Debug\libArduinoCore.a(CDC.o)
                0x00000696                _ZN7Serial_4readEv
 .text._ZN7Serial_5writeEPKhj
                0x000006b0       0x2c C:\Users\Jose\DOCUME~1\rkt\rpk2\FIRMWA~1\LEOENC~1\ARDUIN~1\ARDUIN~1\ARDUIN~1\Debug\libArduinoCore.a(CDC.o)
                0x000006b0                _ZN7Serial_5writeEPKhj
 .text._Z16isLUFAbootloaderv
                0x000006dc       0x14 C:\Users\Jose\DOCUME~1\rkt\rpk2\FIRMWA~1\LEOENC~1\ARDUIN~1\ARDUIN~1\ARDUIN~1\Debug\libArduinoCore.a(CDC.o)
                0x000006dc                _Z16isLUFAbootloaderv
 .text._Z16CDC_GetInterfacePh
                0x000006f0       0x16 C:\Users\Jose\DOCUME~1\rkt\rpk2\FIRMWA~1\LEOENC~1\ARDUIN~1\ARDUIN~1\ARDUIN~1\Debug\libArduinoCore.a(CDC.o)
                0x000006f0                _Z16CDC_GetInterfacePh
 .text._Z9CDC_SetupR8USBSetup
                0x00000706      0x11c C:\Users\Jose\DOCUME~1\rkt\rpk2\FIRMWA~1\LEOENC~1\ARDUIN~1\ARDUIN~1\ARDUIN~1\Debug\libArduinoCore.a(CDC.o)
                0x00000706                _Z9CDC_SetupR8USBSetup
 .text.startup._GLOBAL__sub_I__cdcInterface
                0x00000822       0x2a C:\Users\Jose\DOCUME~1\rkt\rpk2\FIRMWA~1\LEOENC~1\ARDUIN~1\ARDUIN~1\ARDUIN~1\Debug\libArduinoCore.a(CDC.o)
 .text._ZN14HardwareSerial9availableEv
                0x0000084c       0x18 C:\Users\Jose\DOCUME~1\rkt\rpk2\FIRMWA~1\LEOENC~1\ARDUIN~1\ARDUIN~1\ARDUIN~1\Debug\libArduinoCore.a(HardwareSerial.o)
                0x0000084c                _ZN14HardwareSerial9availableEv
 .text._ZN14HardwareSerial4peekEv
                0x00000864       0x1c C:\Users\Jose\DOCUME~1\rkt\rpk2\FIRMWA~1\LEOENC~1\ARDUIN~1\ARDUIN~1\ARDUIN~1\Debug\libArduinoCore.a(HardwareSerial.o)
                0x00000864                _ZN14HardwareSerial4peekEv
 .text._ZN14HardwareSerial4readEv
                0x00000880       0x28 C:\Users\Jose\DOCUME~1\rkt\rpk2\FIRMWA~1\LEOENC~1\ARDUIN~1\ARDUIN~1\ARDUIN~1\Debug\libArduinoCore.a(HardwareSerial.o)
                0x00000880                _ZN14HardwareSerial4readEv
 .text._ZN14HardwareSerial17availableForWriteEv
                0x000008a8       0x1e C:\Users\Jose\DOCUME~1\rkt\rpk2\FIRMWA~1\LEOENC~1\ARDUIN~1\ARDUIN~1\ARDUIN~1\Debug\libArduinoCore.a(HardwareSerial.o)
                0x000008a8                _ZN14HardwareSerial17availableForWriteEv
 .text._Z14serialEventRunv
                0x000008c6       0x1c C:\Users\Jose\DOCUME~1\rkt\rpk2\FIRMWA~1\LEOENC~1\ARDUIN~1\ARDUIN~1\ARDUIN~1\Debug\libArduinoCore.a(HardwareSerial.o)
                0x000008c6                _Z14serialEventRunv
 .text._ZN14HardwareSerial17_tx_udr_empty_irqEv
                0x000008e2       0x42 C:\Users\Jose\DOCUME~1\rkt\rpk2\FIRMWA~1\LEOENC~1\ARDUIN~1\ARDUIN~1\ARDUIN~1\Debug\libArduinoCore.a(HardwareSerial.o)
                0x000008e2                _ZN14HardwareSerial17_tx_udr_empty_irqEv
 .text._ZN14HardwareSerial5writeEh
                0x00000924       0x98 C:\Users\Jose\DOCUME~1\rkt\rpk2\FIRMWA~1\LEOENC~1\ARDUIN~1\ARDUIN~1\ARDUIN~1\Debug\libArduinoCore.a(HardwareSerial.o)
                0x00000924                _ZN14HardwareSerial5writeEh
 .text._ZN14HardwareSerial5flushEv
                0x000009bc       0x44 C:\Users\Jose\DOCUME~1\rkt\rpk2\FIRMWA~1\LEOENC~1\ARDUIN~1\ARDUIN~1\ARDUIN~1\Debug\libArduinoCore.a(HardwareSerial.o)
                0x000009bc                _ZN14HardwareSerial5flushEv
 .text._ZN14HardwareSerial5beginEmh
                0x00000a00       0xca C:\Users\Jose\DOCUME~1\rkt\rpk2\FIRMWA~1\LEOENC~1\ARDUIN~1\ARDUIN~1\ARDUIN~1\Debug\libArduinoCore.a(HardwareSerial.o)
                0x00000a00                _ZN14HardwareSerial5beginEmh
 .text.__vector_25
                0x00000aca       0x64 C:\Users\Jose\DOCUME~1\rkt\rpk2\FIRMWA~1\LEOENC~1\ARDUIN~1\ARDUIN~1\ARDUIN~1\Debug\libArduinoCore.a(HardwareSerial1.o)
                0x00000aca                __vector_25
 .text.__vector_26
                0x00000b2e       0x4c C:\Users\Jose\DOCUME~1\rkt\rpk2\FIRMWA~1\LEOENC~1\ARDUIN~1\ARDUIN~1\ARDUIN~1\Debug\libArduinoCore.a(HardwareSerial1.o)
                0x00000b2e                __vector_26
 .text._Z17Serial1_availablev
                0x00000b7a       0x14 C:\Users\Jose\DOCUME~1\rkt\rpk2\FIRMWA~1\LEOENC~1\ARDUIN~1\ARDUIN~1\ARDUIN~1\Debug\libArduinoCore.a(HardwareSerial1.o)
                0x00000b7a                _Z17Serial1_availablev
 .text.startup._GLOBAL__sub_I___vector_25
                0x00000b8e       0x5a C:\Users\Jose\DOCUME~1\rkt\rpk2\FIRMWA~1\LEOENC~1\ARDUIN~1\ARDUIN~1\ARDUIN~1\Debug\libArduinoCore.a(HardwareSerial1.o)
 .text.initVariant
                0x00000be8        0x2 C:\Users\Jose\DOCUME~1\rkt\rpk2\FIRMWA~1\LEOENC~1\ARDUIN~1\ARDUIN~1\ARDUIN~1\Debug\libArduinoCore.a(main.o)
                0x00000be8                initVariant
 .text.startup.main
                0x00000bea       0x26 C:\Users\Jose\DOCUME~1\rkt\rpk2\FIRMWA~1\LEOENC~1\ARDUIN~1\ARDUIN~1\ARDUIN~1\Debug\libArduinoCore.a(main.o)
                0x00000bea                main
 .text._ZN5Print5writeEPKhj
                0x00000c10       0x54 C:\Users\Jose\DOCUME~1\rkt\rpk2\FIRMWA~1\LEOENC~1\ARDUIN~1\ARDUIN~1\ARDUIN~1\Debug\libArduinoCore.a(Print.o)
                0x00000c10                _ZN5Print5writeEPKhj
 .text._ZN5Print5writeEPKc
                0x00000c64       0x2a C:\Users\Jose\DOCUME~1\rkt\rpk2\FIRMWA~1\LEOENC~1\ARDUIN~1\ARDUIN~1\ARDUIN~1\Debug\libArduinoCore.a(Print.o)
                0x00000c64                _ZN5Print5writeEPKc
 .text._ZN5Print5printERK6String
                0x00000c8e       0x1c C:\Users\Jose\DOCUME~1\rkt\rpk2\FIRMWA~1\LEOENC~1\ARDUIN~1\ARDUIN~1\ARDUIN~1\Debug\libArduinoCore.a(Print.o)
                0x00000c8e                _ZN5Print5printERK6String
 .text._ZN5Print5printEPKc
                0x00000caa        0x4 C:\Users\Jose\DOCUME~1\rkt\rpk2\FIRMWA~1\LEOENC~1\ARDUIN~1\ARDUIN~1\ARDUIN~1\Debug\libArduinoCore.a(Print.o)
                0x00000caa                _ZN5Print5printEPKc
 .text._ZN5Print5printEc
                0x00000cae        0xe C:\Users\Jose\DOCUME~1\rkt\rpk2\FIRMWA~1\LEOENC~1\ARDUIN~1\ARDUIN~1\ARDUIN~1\Debug\libArduinoCore.a(Print.o)
                0x00000cae                _ZN5Print5printEc
 .text._ZN5Print7printlnEv
                0x00000cbc        0x8 C:\Users\Jose\DOCUME~1\rkt\rpk2\FIRMWA~1\LEOENC~1\ARDUIN~1\ARDUIN~1\ARDUIN~1\Debug\libArduinoCore.a(Print.o)
                0x00000cbc                _ZN5Print7printlnEv
 .text._ZN5Print7printlnERK6String
                0x00000cc4       0x24 C:\Users\Jose\DOCUME~1\rkt\rpk2\FIRMWA~1\LEOENC~1\ARDUIN~1\ARDUIN~1\ARDUIN~1\Debug\libArduinoCore.a(Print.o)
                0x00000cc4                _ZN5Print7printlnERK6String
 .text._ZN5Print7printlnEPKc
                0x00000ce8       0x24 C:\Users\Jose\DOCUME~1\rkt\rpk2\FIRMWA~1\LEOENC~1\ARDUIN~1\ARDUIN~1\ARDUIN~1\Debug\libArduinoCore.a(Print.o)
                0x00000ce8                _ZN5Print7printlnEPKc
 .text._ZN5Print11printNumberEmh
                0x00000d0c       0x92 C:\Users\Jose\DOCUME~1\rkt\rpk2\FIRMWA~1\LEOENC~1\ARDUIN~1\ARDUIN~1\ARDUIN~1\Debug\libArduinoCore.a(Print.o)
                0x00000d0c                _ZN5Print11printNumberEmh
 .text._ZN5Print5printEmi
                0x00000d9e       0x1a C:\Users\Jose\DOCUME~1\rkt\rpk2\FIRMWA~1\LEOENC~1\ARDUIN~1\ARDUIN~1\ARDUIN~1\Debug\libArduinoCore.a(Print.o)
                0x00000d9e                _ZN5Print5printEmi
 .text._ZN5Print5printEhi
                0x00000db8        0xe C:\Users\Jose\DOCUME~1\rkt\rpk2\FIRMWA~1\LEOENC~1\ARDUIN~1\ARDUIN~1\ARDUIN~1\Debug\libArduinoCore.a(Print.o)
                0x00000db8                _ZN5Print5printEhi
 .text._ZN5Print5printEli
                0x00000dc6       0x90 C:\Users\Jose\DOCUME~1\rkt\rpk2\FIRMWA~1\LEOENC~1\ARDUIN~1\ARDUIN~1\ARDUIN~1\Debug\libArduinoCore.a(Print.o)
                0x00000dc6                _ZN5Print5printEli
 .text._ZN5Print5printEii
                0x00000e56        0xe C:\Users\Jose\DOCUME~1\rkt\rpk2\FIRMWA~1\LEOENC~1\ARDUIN~1\ARDUIN~1\ARDUIN~1\Debug\libArduinoCore.a(Print.o)
                0x00000e56                _ZN5Print5printEii
 .text._ZN5Print7printlnEii
                0x00000e64       0x24 C:\Users\Jose\DOCUME~1\rkt\rpk2\FIRMWA~1\LEOENC~1\ARDUIN~1\ARDUIN~1\ARDUIN~1\Debug\libArduinoCore.a(Print.o)
                0x00000e64                _ZN5Print7printlnEii
 .text._ZN6Stream9timedReadEv
                0x00000e88       0x60 C:\Users\Jose\DOCUME~1\rkt\rpk2\FIRMWA~1\LEOENC~1\ARDUIN~1\ARDUIN~1\ARDUIN~1\Debug\libArduinoCore.a(Stream.o)
                0x00000e88                _ZN6Stream9timedReadEv
 .text._ZN6Stream10readStringEv
                0x00000ee8       0x34 C:\Users\Jose\DOCUME~1\rkt\rpk2\FIRMWA~1\LEOENC~1\ARDUIN~1\ARDUIN~1\ARDUIN~1\Debug\libArduinoCore.a(Stream.o)
                0x00000ee8                _ZN6Stream10readStringEv
 .text._ZL4RecvPVhh
                0x00000f1c       0x1a C:\Users\Jose\DOCUME~1\rkt\rpk2\FIRMWA~1\LEOENC~1\ARDUIN~1\ARDUIN~1\ARDUIN~1\Debug\libArduinoCore.a(USBCore.o)
 .text._ZL11SendControlh
                0x00000f36       0x5c C:\Users\Jose\DOCUME~1\rkt\rpk2\FIRMWA~1\LEOENC~1\ARDUIN~1\ARDUIN~1\ARDUIN~1\Debug\libArduinoCore.a(USBCore.o)
 .text._ZL24USB_SendStringDescriptorPKhhh
                0x00000f92       0x6a C:\Users\Jose\DOCUME~1\rkt\rpk2\FIRMWA~1\LEOENC~1\ARDUIN~1\ARDUIN~1\ARDUIN~1\Debug\libArduinoCore.a(USBCore.o)
 .text._ZL15USB_ClockEnablev
                0x00000ffc       0x46 C:\Users\Jose\DOCUME~1\rkt\rpk2\FIRMWA~1\LEOENC~1\ARDUIN~1\ARDUIN~1\ARDUIN~1\Debug\libArduinoCore.a(USBCore.o)
 .text._ZL14SendInterfacesv
                0x00001042       0x2c C:\Users\Jose\DOCUME~1\rkt\rpk2\FIRMWA~1\LEOENC~1\ARDUIN~1\ARDUIN~1\ARDUIN~1\Debug\libArduinoCore.a(USBCore.o)
 .text._ZN6LockEPC2Eh
                0x0000106e       0x10 C:\Users\Jose\DOCUME~1\rkt\rpk2\FIRMWA~1\LEOENC~1\ARDUIN~1\ARDUIN~1\ARDUIN~1\Debug\libArduinoCore.a(USBCore.o)
                0x0000106e                _ZN6LockEPC2Eh
                0x0000106e                _ZN6LockEPC1Eh
 .text._Z13USB_Availableh
                0x0000107e       0x24 C:\Users\Jose\DOCUME~1\rkt\rpk2\FIRMWA~1\LEOENC~1\ARDUIN~1\ARDUIN~1\ARDUIN~1\Debug\libArduinoCore.a(USBCore.o)
                0x0000107e                _Z13USB_Availableh
 .text._Z8USB_RecvhPvi
                0x000010a2       0x86 C:\Users\Jose\DOCUME~1\rkt\rpk2\FIRMWA~1\LEOENC~1\ARDUIN~1\ARDUIN~1\ARDUIN~1\Debug\libArduinoCore.a(USBCore.o)
                0x000010a2                _Z8USB_RecvhPvi
 .text._Z8USB_Recvh
                0x00001128       0x2e C:\Users\Jose\DOCUME~1\rkt\rpk2\FIRMWA~1\LEOENC~1\ARDUIN~1\ARDUIN~1\ARDUIN~1\Debug\libArduinoCore.a(USBCore.o)
                0x00001128                _Z8USB_Recvh
 .text._Z13USB_SendSpaceh
                0x00001156       0x34 C:\Users\Jose\DOCUME~1\rkt\rpk2\FIRMWA~1\LEOENC~1\ARDUIN~1\ARDUIN~1\ARDUIN~1\Debug\libArduinoCore.a(USBCore.o)
                0x00001156                _Z13USB_SendSpaceh
 .text._Z8USB_SendhPKvi
                0x0000118a      0x14a C:\Users\Jose\DOCUME~1\rkt\rpk2\FIRMWA~1\LEOENC~1\ARDUIN~1\ARDUIN~1\ARDUIN~1\Debug\libArduinoCore.a(USBCore.o)
                0x0000118a                _Z8USB_SendhPKvi
 .text._Z11InitControli
                0x000012d4       0x16 C:\Users\Jose\DOCUME~1\rkt\rpk2\FIRMWA~1\LEOENC~1\ARDUIN~1\ARDUIN~1\ARDUIN~1\Debug\libArduinoCore.a(USBCore.o)
                0x000012d4                _Z11InitControli
 .text._Z15USB_SendControlhPKvi
                0x000012ea       0x4e C:\Users\Jose\DOCUME~1\rkt\rpk2\FIRMWA~1\LEOENC~1\ARDUIN~1\ARDUIN~1\ARDUIN~1\Debug\libArduinoCore.a(USBCore.o)
                0x000012ea                _Z15USB_SendControlhPKvi
 .text._Z15USB_RecvControlPvi
                0x00001338       0x66 C:\Users\Jose\DOCUME~1\rkt\rpk2\FIRMWA~1\LEOENC~1\ARDUIN~1\ARDUIN~1\ARDUIN~1\Debug\libArduinoCore.a(USBCore.o)
                0x00001338                _Z15USB_RecvControlPvi
 .text.__vector_11
                0x0000139e      0x2b4 C:\Users\Jose\DOCUME~1\rkt\rpk2\FIRMWA~1\LEOENC~1\ARDUIN~1\ARDUIN~1\ARDUIN~1\Debug\libArduinoCore.a(USBCore.o)
                0x0000139e                __vector_11
 .text._Z9USB_Flushh
                0x00001652       0x14 C:\Users\Jose\DOCUME~1\rkt\rpk2\FIRMWA~1\LEOENC~1\ARDUIN~1\ARDUIN~1\ARDUIN~1\Debug\libArduinoCore.a(USBCore.o)
                0x00001652                _Z9USB_Flushh
 .text.__vector_10
                0x00001666      0x102 C:\Users\Jose\DOCUME~1\rkt\rpk2\FIRMWA~1\LEOENC~1\ARDUIN~1\ARDUIN~1\ARDUIN~1\Debug\libArduinoCore.a(USBCore.o)
                0x00001666                __vector_10
 .text._ZN10USBDevice_6attachEv
                0x00001768       0x26 C:\Users\Jose\DOCUME~1\rkt\rpk2\FIRMWA~1\LEOENC~1\ARDUIN~1\ARDUIN~1\ARDUIN~1\Debug\libArduinoCore.a(USBCore.o)
                0x00001768                _ZN10USBDevice_6attachEv
 .text.__vector_23
                0x0000178e       0x94 C:\Users\Jose\DOCUME~1\rkt\rpk2\FIRMWA~1\LEOENC~1\ARDUIN~1\ARDUIN~1\ARDUIN~1\Debug\libArduinoCore.a(wiring.o)
                0x0000178e                __vector_23
 .text.millis   0x00001822       0x18 C:\Users\Jose\DOCUME~1\rkt\rpk2\FIRMWA~1\LEOENC~1\ARDUIN~1\ARDUIN~1\ARDUIN~1\Debug\libArduinoCore.a(wiring.o)
                0x00001822                millis
 .text.micros   0x0000183a       0x4a C:\Users\Jose\DOCUME~1\rkt\rpk2\FIRMWA~1\LEOENC~1\ARDUIN~1\ARDUIN~1\ARDUIN~1\Debug\libArduinoCore.a(wiring.o)
                0x0000183a                micros
 .text.delay    0x00001884       0x78 C:\Users\Jose\DOCUME~1\rkt\rpk2\FIRMWA~1\LEOENC~1\ARDUIN~1\ARDUIN~1\ARDUIN~1\Debug\libArduinoCore.a(wiring.o)
                0x00001884                delay
 .text.init     0x000018fc       0xac C:\Users\Jose\DOCUME~1\rkt\rpk2\FIRMWA~1\LEOENC~1\ARDUIN~1\ARDUIN~1\ARDUIN~1\Debug\libArduinoCore.a(wiring.o)
                0x000018fc                init
 .text.turnOffPWM
                0x000019a8       0x7a C:\Users\Jose\DOCUME~1\rkt\rpk2\FIRMWA~1\LEOENC~1\ARDUIN~1\ARDUIN~1\ARDUIN~1\Debug\libArduinoCore.a(wiring_digital.o)
 .text.pinMode  0x00001a22       0x78 C:\Users\Jose\DOCUME~1\rkt\rpk2\FIRMWA~1\LEOENC~1\ARDUIN~1\ARDUIN~1\ARDUIN~1\Debug\libArduinoCore.a(wiring_digital.o)
                0x00001a22                pinMode
 .text.digitalWrite
                0x00001a9a       0x5e C:\Users\Jose\DOCUME~1\rkt\rpk2\FIRMWA~1\LEOENC~1\ARDUIN~1\ARDUIN~1\ARDUIN~1\Debug\libArduinoCore.a(wiring_digital.o)
                0x00001a9a                digitalWrite
 .text._ZN6StringD2Ev
                0x00001af8       0x10 C:\Users\Jose\DOCUME~1\rkt\rpk2\FIRMWA~1\LEOENC~1\ARDUIN~1\ARDUIN~1\ARDUIN~1\Debug\libArduinoCore.a(WString.o)
                0x00001af8                _ZN6StringD2Ev
                0x00001af8                _ZN6StringD1Ev
 .text._ZN6String10invalidateEv
                0x00001b08       0x24 C:\Users\Jose\DOCUME~1\rkt\rpk2\FIRMWA~1\LEOENC~1\ARDUIN~1\ARDUIN~1\ARDUIN~1\Debug\libArduinoCore.a(WString.o)
                0x00001b08                _ZN6String10invalidateEv
 .text._ZN6String12changeBufferEj
                0x00001b2c       0x34 C:\Users\Jose\DOCUME~1\rkt\rpk2\FIRMWA~1\LEOENC~1\ARDUIN~1\ARDUIN~1\ARDUIN~1\Debug\libArduinoCore.a(WString.o)
                0x00001b2c                _ZN6String12changeBufferEj
 .text._ZN6String7reserveEj
                0x00001b60       0x38 C:\Users\Jose\DOCUME~1\rkt\rpk2\FIRMWA~1\LEOENC~1\ARDUIN~1\ARDUIN~1\ARDUIN~1\Debug\libArduinoCore.a(WString.o)
                0x00001b60                _ZN6String7reserveEj
 .text._ZN6String4copyEPKcj
                0x00001b98       0x42 C:\Users\Jose\DOCUME~1\rkt\rpk2\FIRMWA~1\LEOENC~1\ARDUIN~1\ARDUIN~1\ARDUIN~1\Debug\libArduinoCore.a(WString.o)
                0x00001b98                _ZN6String4copyEPKcj
 .text._ZN6StringC2EPKc
                0x00001bda       0x2a C:\Users\Jose\DOCUME~1\rkt\rpk2\FIRMWA~1\LEOENC~1\ARDUIN~1\ARDUIN~1\ARDUIN~1\Debug\libArduinoCore.a(WString.o)
                0x00001bda                _ZN6StringC2EPKc
                0x00001bda                _ZN6StringC1EPKc
 .text._ZN6String6concatEPKcj
                0x00001c04       0x5c C:\Users\Jose\DOCUME~1\rkt\rpk2\FIRMWA~1\LEOENC~1\ARDUIN~1\ARDUIN~1\ARDUIN~1\Debug\libArduinoCore.a(WString.o)
                0x00001c04                _ZN6String6concatEPKcj
 .text._ZN6String6concatEc
                0x00001c60       0x26 C:\Users\Jose\DOCUME~1\rkt\rpk2\FIRMWA~1\LEOENC~1\ARDUIN~1\ARDUIN~1\ARDUIN~1\Debug\libArduinoCore.a(WString.o)
                0x00001c60                _ZN6String6concatEc
 .text._ZNK6String8getBytesEPhjj
                0x00001c86       0x5e C:\Users\Jose\DOCUME~1\rkt\rpk2\FIRMWA~1\LEOENC~1\ARDUIN~1\ARDUIN~1\ARDUIN~1\Debug\libArduinoCore.a(WString.o)
                0x00001c86                _ZNK6String8getBytesEPhjj
 .text._ZN15RHGenericDriver4initEv
                0x00001ce4        0x4 C:\Users\Jose\DOCUME~1\rkt\rpk2\FIRMWA~1\LEOENC~1\ARDUIN~1\ARDUIN~1\ARDUIN~1\Debug\libArduinoCore.a(RHGenericDriver.o)
                0x00001ce4                _ZN15RHGenericDriver4initEv
 .text._ZN15RHGenericDriver14setPromiscuousEb
                0x00001ce8        0x6 C:\Users\Jose\DOCUME~1\rkt\rpk2\FIRMWA~1\LEOENC~1\ARDUIN~1\ARDUIN~1\ARDUIN~1\Debug\libArduinoCore.a(RHGenericDriver.o)
                0x00001ce8                _ZN15RHGenericDriver14setPromiscuousEb
 .text._ZN15RHGenericDriver14setThisAddressEh
                0x00001cee        0x6 C:\Users\Jose\DOCUME~1\rkt\rpk2\FIRMWA~1\LEOENC~1\ARDUIN~1\ARDUIN~1\ARDUIN~1\Debug\libArduinoCore.a(RHGenericDriver.o)
                0x00001cee                _ZN15RHGenericDriver14setThisAddressEh
 .text._ZN15RHGenericDriver11setHeaderToEh
                0x00001cf4        0x6 C:\Users\Jose\DOCUME~1\rkt\rpk2\FIRMWA~1\LEOENC~1\ARDUIN~1\ARDUIN~1\ARDUIN~1\Debug\libArduinoCore.a(RHGenericDriver.o)
                0x00001cf4                _ZN15RHGenericDriver11setHeaderToEh
 .text._ZN15RHGenericDriver13setHeaderFromEh
                0x00001cfa        0x6 C:\Users\Jose\DOCUME~1\rkt\rpk2\FIRMWA~1\LEOENC~1\ARDUIN~1\ARDUIN~1\ARDUIN~1\Debug\libArduinoCore.a(RHGenericDriver.o)
                0x00001cfa                _ZN15RHGenericDriver13setHeaderFromEh
 .text._ZN15RHGenericDriver11setHeaderIdEh
                0x00001d00        0x6 C:\Users\Jose\DOCUME~1\rkt\rpk2\FIRMWA~1\LEOENC~1\ARDUIN~1\ARDUIN~1\ARDUIN~1\Debug\libArduinoCore.a(RHGenericDriver.o)
                0x00001d00                _ZN15RHGenericDriver11setHeaderIdEh
 .text._ZN15RHGenericDriver14setHeaderFlagsEhh
                0x00001d06        0xe C:\Users\Jose\DOCUME~1\rkt\rpk2\FIRMWA~1\LEOENC~1\ARDUIN~1\ARDUIN~1\ARDUIN~1\Debug\libArduinoCore.a(RHGenericDriver.o)
                0x00001d06                _ZN15RHGenericDriver14setHeaderFlagsEhh
 .text._ZN15RHGenericDriver8headerToEv
                0x00001d14        0x6 C:\Users\Jose\DOCUME~1\rkt\rpk2\FIRMWA~1\LEOENC~1\ARDUIN~1\ARDUIN~1\ARDUIN~1\Debug\libArduinoCore.a(RHGenericDriver.o)
                0x00001d14                _ZN15RHGenericDriver8headerToEv
 .text._ZN15RHGenericDriver10headerFromEv
                0x00001d1a        0x6 C:\Users\Jose\DOCUME~1\rkt\rpk2\FIRMWA~1\LEOENC~1\ARDUIN~1\ARDUIN~1\ARDUIN~1\Debug\libArduinoCore.a(RHGenericDriver.o)
                0x00001d1a                _ZN15RHGenericDriver10headerFromEv
 .text._ZN15RHGenericDriver8headerIdEv
                0x00001d20        0x6 C:\Users\Jose\DOCUME~1\rkt\rpk2\FIRMWA~1\LEOENC~1\ARDUIN~1\ARDUIN~1\ARDUIN~1\Debug\libArduinoCore.a(RHGenericDriver.o)
                0x00001d20                _ZN15RHGenericDriver8headerIdEv
 .text._ZN15RHGenericDriver11headerFlagsEv
                0x00001d26        0x6 C:\Users\Jose\DOCUME~1\rkt\rpk2\FIRMWA~1\LEOENC~1\ARDUIN~1\ARDUIN~1\ARDUIN~1\Debug\libArduinoCore.a(RHGenericDriver.o)
                0x00001d26                _ZN15RHGenericDriver11headerFlagsEv
 .text._ZN15RHGenericDriver8lastRssiEv
                0x00001d2c        0x8 C:\Users\Jose\DOCUME~1\rkt\rpk2\FIRMWA~1\LEOENC~1\ARDUIN~1\ARDUIN~1\ARDUIN~1\Debug\libArduinoCore.a(RHGenericDriver.o)
                0x00001d2c                _ZN15RHGenericDriver8lastRssiEv
 .text._ZN15RHGenericDriver4modeEv
                0x00001d34        0x6 C:\Users\Jose\DOCUME~1\rkt\rpk2\FIRMWA~1\LEOENC~1\ARDUIN~1\ARDUIN~1\ARDUIN~1\Debug\libArduinoCore.a(RHGenericDriver.o)
                0x00001d34                _ZN15RHGenericDriver4modeEv
 .text._ZN15RHGenericDriver7setModeENS_6RHModeE
                0x00001d3a        0x6 C:\Users\Jose\DOCUME~1\rkt\rpk2\FIRMWA~1\LEOENC~1\ARDUIN~1\ARDUIN~1\ARDUIN~1\Debug\libArduinoCore.a(RHGenericDriver.o)
                0x00001d3a                _ZN15RHGenericDriver7setModeENS_6RHModeE
 .text._ZN15RHGenericDriver5sleepEv
                0x00001d40        0x4 C:\Users\Jose\DOCUME~1\rkt\rpk2\FIRMWA~1\LEOENC~1\ARDUIN~1\ARDUIN~1\ARDUIN~1\Debug\libArduinoCore.a(RHGenericDriver.o)
                0x00001d40                _ZN15RHGenericDriver15isChannelActiveEv
                0x00001d40                _ZN15RHGenericDriver5sleepEv
 .text._ZN15RHGenericDriver5rxBadEv
                0x00001d44        0x8 C:\Users\Jose\DOCUME~1\rkt\rpk2\FIRMWA~1\LEOENC~1\ARDUIN~1\ARDUIN~1\ARDUIN~1\Debug\libArduinoCore.a(RHGenericDriver.o)
                0x00001d44                _ZN15RHGenericDriver5rxBadEv
 .text._ZN15RHGenericDriver6rxGoodEv
                0x00001d4c        0x8 C:\Users\Jose\DOCUME~1\rkt\rpk2\FIRMWA~1\LEOENC~1\ARDUIN~1\ARDUIN~1\ARDUIN~1\Debug\libArduinoCore.a(RHGenericDriver.o)
                0x00001d4c                _ZN15RHGenericDriver6rxGoodEv
 .text._ZN15RHGenericDriver6txGoodEv
                0x00001d54        0x8 C:\Users\Jose\DOCUME~1\rkt\rpk2\FIRMWA~1\LEOENC~1\ARDUIN~1\ARDUIN~1\ARDUIN~1\Debug\libArduinoCore.a(RHGenericDriver.o)
                0x00001d54                _ZN15RHGenericDriver6txGoodEv
 .text._ZN15RHGenericDriver13waitAvailableEv
                0x00001d5c       0x24 C:\Users\Jose\DOCUME~1\rkt\rpk2\FIRMWA~1\LEOENC~1\ARDUIN~1\ARDUIN~1\ARDUIN~1\Debug\libArduinoCore.a(RHGenericDriver.o)
                0x00001d5c                _ZN15RHGenericDriver13waitAvailableEv
 .text._ZN15RHGenericDriver14waitPacketSentEv
                0x00001d80       0x1a C:\Users\Jose\DOCUME~1\rkt\rpk2\FIRMWA~1\LEOENC~1\ARDUIN~1\ARDUIN~1\ARDUIN~1\Debug\libArduinoCore.a(RHGenericDriver.o)
                0x00001d80                _ZN15RHGenericDriver14waitPacketSentEv
 .text._ZN15RHGenericDriver20waitAvailableTimeoutEj
                0x00001d9a       0x6e C:\Users\Jose\DOCUME~1\rkt\rpk2\FIRMWA~1\LEOENC~1\ARDUIN~1\ARDUIN~1\ARDUIN~1\Debug\libArduinoCore.a(RHGenericDriver.o)
                0x00001d9a                _ZN15RHGenericDriver20waitAvailableTimeoutEj
 .text._ZN15RHGenericDriver14waitPacketSentEj
                0x00001e08       0x66 C:\Users\Jose\DOCUME~1\rkt\rpk2\FIRMWA~1\LEOENC~1\ARDUIN~1\ARDUIN~1\ARDUIN~1\Debug\libArduinoCore.a(RHGenericDriver.o)
                0x00001e08                _ZN15RHGenericDriver14waitPacketSentEj
 .text._ZN15RHGenericDriver7waitCADEv
                0x00001e6e       0x8e C:\Users\Jose\DOCUME~1\rkt\rpk2\FIRMWA~1\LEOENC~1\ARDUIN~1\ARDUIN~1\ARDUIN~1\Debug\libArduinoCore.a(RHGenericDriver.o)
                0x00001e6e                _ZN15RHGenericDriver7waitCADEv
 .text._ZN15RHGenericDriverC2Ev
                0x00001efc       0x2a C:\Users\Jose\DOCUME~1\rkt\rpk2\FIRMWA~1\LEOENC~1\ARDUIN~1\ARDUIN~1\ARDUIN~1\Debug\libArduinoCore.a(RHGenericDriver.o)
                0x00001efc                _ZN15RHGenericDriverC1Ev
                0x00001efc                _ZN15RHGenericDriverC2Ev
 .text._ZN13RHHardwareSPI8transferEh
                0x00001f26        0xe C:\Users\Jose\DOCUME~1\rkt\rpk2\FIRMWA~1\LEOENC~1\ARDUIN~1\ARDUIN~1\ARDUIN~1\Debug\libArduinoCore.a(RHHardwareSPI.o)
                0x00001f26                _ZN13RHHardwareSPI8transferEh
 .text._ZN13RHHardwareSPI15attachInterruptEv
                0x00001f34        0x8 C:\Users\Jose\DOCUME~1\rkt\rpk2\FIRMWA~1\LEOENC~1\ARDUIN~1\ARDUIN~1\ARDUIN~1\Debug\libArduinoCore.a(RHHardwareSPI.o)
                0x00001f34                _ZN13RHHardwareSPI15attachInterruptEv
 .text._ZN13RHHardwareSPI15detachInterruptEv
                0x00001f3c        0x8 C:\Users\Jose\DOCUME~1\rkt\rpk2\FIRMWA~1\LEOENC~1\ARDUIN~1\ARDUIN~1\ARDUIN~1\Debug\libArduinoCore.a(RHHardwareSPI.o)
                0x00001f3c                _ZN13RHHardwareSPI15detachInterruptEv
 .text._ZN13RHHardwareSPI16beginTransactionEv
                0x00001f44       0x3a C:\Users\Jose\DOCUME~1\rkt\rpk2\FIRMWA~1\LEOENC~1\ARDUIN~1\ARDUIN~1\ARDUIN~1\Debug\libArduinoCore.a(RHHardwareSPI.o)
                0x00001f44                _ZN13RHHardwareSPI16beginTransactionEv
 .text._ZN13RHHardwareSPI14usingInterruptEh
                0x00001f7e        0x2 C:\Users\Jose\DOCUME~1\rkt\rpk2\FIRMWA~1\LEOENC~1\ARDUIN~1\ARDUIN~1\ARDUIN~1\Debug\libArduinoCore.a(RHHardwareSPI.o)
                0x00001f7e                _ZN13RHHardwareSPI14usingInterruptEh
 .text._ZN13RHHardwareSPI5beginEv
                0x00001f80       0xb2 C:\Users\Jose\DOCUME~1\rkt\rpk2\FIRMWA~1\LEOENC~1\ARDUIN~1\ARDUIN~1\ARDUIN~1\Debug\libArduinoCore.a(RHHardwareSPI.o)
                0x00001f80                _ZN13RHHardwareSPI5beginEv
 .text._ZN13RHHardwareSPI3endEv
                0x00002032        0x4 C:\Users\Jose\DOCUME~1\rkt\rpk2\FIRMWA~1\LEOENC~1\ARDUIN~1\ARDUIN~1\ARDUIN~1\Debug\libArduinoCore.a(RHHardwareSPI.o)
                0x00002032                _ZN13RHHardwareSPI3endEv
 .text._ZN13RHHardwareSPI14endTransactionEv
                0x00002036       0x22 C:\Users\Jose\DOCUME~1\rkt\rpk2\FIRMWA~1\LEOENC~1\ARDUIN~1\ARDUIN~1\ARDUIN~1\Debug\libArduinoCore.a(RHHardwareSPI.o)
                0x00002036                _ZN13RHHardwareSPI14endTransactionEv
 .text._ZN13RHHardwareSPIC2EN12RHGenericSPI9FrequencyENS0_8BitOrderENS0_8DataModeE
                0x00002058       0x1e C:\Users\Jose\DOCUME~1\rkt\rpk2\FIRMWA~1\LEOENC~1\ARDUIN~1\ARDUIN~1\ARDUIN~1\Debug\libArduinoCore.a(RHHardwareSPI.o)
                0x00002058                _ZN13RHHardwareSPIC2EN12RHGenericSPI9FrequencyENS0_8BitOrderENS0_8DataModeE
                0x00002058                _ZN13RHHardwareSPIC1EN12RHGenericSPI9FrequencyENS0_8BitOrderENS0_8DataModeE
 .text.startup._GLOBAL__sub_I_hardware_spi
                0x00002076        0xe C:\Users\Jose\DOCUME~1\rkt\rpk2\FIRMWA~1\LEOENC~1\ARDUIN~1\ARDUIN~1\ARDUIN~1\Debug\libArduinoCore.a(RHHardwareSPI.o)
 .text._ZN7RH_RF6916maxMessageLengthEv
                0x00002084        0x4 C:\Users\Jose\DOCUME~1\rkt\rpk2\FIRMWA~1\LEOENC~1\ARDUIN~1\ARDUIN~1\ARDUIN~1\Debug\libArduinoCore.a(RH_RF69.o)
                0x00002084                _ZN7RH_RF6916maxMessageLengthEv
 .text._ZN7RH_RF6916setEncryptionKeyEPh.part.4.constprop.5
                0x00002088       0x1c C:\Users\Jose\DOCUME~1\rkt\rpk2\FIRMWA~1\LEOENC~1\ARDUIN~1\ARDUIN~1\ARDUIN~1\Debug\libArduinoCore.a(RH_RF69.o)
 .text._ZN7RH_RF694recvEPhS0_
                0x000020a4       0x74 C:\Users\Jose\DOCUME~1\rkt\rpk2\FIRMWA~1\LEOENC~1\ARDUIN~1\ARDUIN~1\ARDUIN~1\Debug\libArduinoCore.a(RH_RF69.o)
                0x000020a4                _ZN7RH_RF694recvEPhS0_
 .text._ZN7RH_RF695sleepEv
                0x00002118       0x22 C:\Users\Jose\DOCUME~1\rkt\rpk2\FIRMWA~1\LEOENC~1\ARDUIN~1\ARDUIN~1\ARDUIN~1\Debug\libArduinoCore.a(RH_RF69.o)
                0x00002118                _ZN7RH_RF695sleepEv
 .text._ZN7RH_RF69C2EhhR12RHGenericSPI
                0x0000213a       0x2a C:\Users\Jose\DOCUME~1\rkt\rpk2\FIRMWA~1\LEOENC~1\ARDUIN~1\ARDUIN~1\ARDUIN~1\Debug\libArduinoCore.a(RH_RF69.o)
                0x0000213a                _ZN7RH_RF69C2EhhR12RHGenericSPI
                0x0000213a                _ZN7RH_RF69C1EhhR12RHGenericSPI
 .text._ZN7RH_RF698readFifoEv
                0x00002164      0x144 C:\Users\Jose\DOCUME~1\rkt\rpk2\FIRMWA~1\LEOENC~1\ARDUIN~1\ARDUIN~1\ARDUIN~1\Debug\libArduinoCore.a(RH_RF69.o)
                0x00002164                _ZN7RH_RF698readFifoEv
 .text._ZN7RH_RF6912setFrequencyEff
                0x000022a8       0x6a C:\Users\Jose\DOCUME~1\rkt\rpk2\FIRMWA~1\LEOENC~1\ARDUIN~1\ARDUIN~1\ARDUIN~1\Debug\libArduinoCore.a(RH_RF69.o)
                0x000022a8                _ZN7RH_RF6912setFrequencyEff
 .text._ZN7RH_RF699setOpModeEh
                0x00002312       0x34 C:\Users\Jose\DOCUME~1\rkt\rpk2\FIRMWA~1\LEOENC~1\ARDUIN~1\ARDUIN~1\ARDUIN~1\Debug\libArduinoCore.a(RH_RF69.o)
                0x00002312                _ZN7RH_RF699setOpModeEh
 .text._ZN7RH_RF6911setModeIdleEv
                0x00002346       0x3a C:\Users\Jose\DOCUME~1\rkt\rpk2\FIRMWA~1\LEOENC~1\ARDUIN~1\ARDUIN~1\ARDUIN~1\Debug\libArduinoCore.a(RH_RF69.o)
                0x00002346                _ZN7RH_RF6911setModeIdleEv
 .text._ZN7RH_RF6915handleInterruptEv
                0x00002380       0x7a C:\Users\Jose\DOCUME~1\rkt\rpk2\FIRMWA~1\LEOENC~1\ARDUIN~1\ARDUIN~1\ARDUIN~1\Debug\libArduinoCore.a(RH_RF69.o)
                0x00002380                _ZN7RH_RF6915handleInterruptEv
 .text._ZN7RH_RF694isr0Ev
                0x000023fa       0x12 C:\Users\Jose\DOCUME~1\rkt\rpk2\FIRMWA~1\LEOENC~1\ARDUIN~1\ARDUIN~1\ARDUIN~1\Debug\libArduinoCore.a(RH_RF69.o)
                0x000023fa                _ZN7RH_RF694isr0Ev
 .text._ZN7RH_RF694isr1Ev
                0x0000240c       0x12 C:\Users\Jose\DOCUME~1\rkt\rpk2\FIRMWA~1\LEOENC~1\ARDUIN~1\ARDUIN~1\ARDUIN~1\Debug\libArduinoCore.a(RH_RF69.o)
                0x0000240c                _ZN7RH_RF694isr1Ev
 .text._ZN7RH_RF694isr2Ev
                0x0000241e       0x12 C:\Users\Jose\DOCUME~1\rkt\rpk2\FIRMWA~1\LEOENC~1\ARDUIN~1\ARDUIN~1\ARDUIN~1\Debug\libArduinoCore.a(RH_RF69.o)
                0x0000241e                _ZN7RH_RF694isr2Ev
 .text._ZN7RH_RF699setModeRxEv
                0x00002430       0x44 C:\Users\Jose\DOCUME~1\rkt\rpk2\FIRMWA~1\LEOENC~1\ARDUIN~1\ARDUIN~1\ARDUIN~1\Debug\libArduinoCore.a(RH_RF69.o)
                0x00002430                _ZN7RH_RF699setModeRxEv
 .text._ZN7RH_RF699availableEv
                0x00002474       0x22 C:\Users\Jose\DOCUME~1\rkt\rpk2\FIRMWA~1\LEOENC~1\ARDUIN~1\ARDUIN~1\ARDUIN~1\Debug\libArduinoCore.a(RH_RF69.o)
                0x00002474                _ZN7RH_RF699availableEv
 .text._ZN7RH_RF699setModeTxEv
                0x00002496       0x44 C:\Users\Jose\DOCUME~1\rkt\rpk2\FIRMWA~1\LEOENC~1\ARDUIN~1\ARDUIN~1\ARDUIN~1\Debug\libArduinoCore.a(RH_RF69.o)
                0x00002496                _ZN7RH_RF699setModeTxEv
 .text._ZN7RH_RF694sendEPKhh
                0x000024da      0x116 C:\Users\Jose\DOCUME~1\rkt\rpk2\FIRMWA~1\LEOENC~1\ARDUIN~1\ARDUIN~1\ARDUIN~1\Debug\libArduinoCore.a(RH_RF69.o)
                0x000024da                _ZN7RH_RF694sendEPKhh
 .text._ZN7RH_RF6910setTxPowerEab
                0x000025f0       0x50 C:\Users\Jose\DOCUME~1\rkt\rpk2\FIRMWA~1\LEOENC~1\ARDUIN~1\ARDUIN~1\ARDUIN~1\Debug\libArduinoCore.a(RH_RF69.o)
                0x000025f0                _ZN7RH_RF6910setTxPowerEab
 .text._ZN7RH_RF6917setModemRegistersEPKNS_11ModemConfigE
                0x00002640       0x3a C:\Users\Jose\DOCUME~1\rkt\rpk2\FIRMWA~1\LEOENC~1\ARDUIN~1\ARDUIN~1\ARDUIN~1\Debug\libArduinoCore.a(RH_RF69.o)
                0x00002640                _ZN7RH_RF6917setModemRegistersEPKNS_11ModemConfigE
 .text._ZN7RH_RF6914setModemConfigENS_17ModemConfigChoiceE
                0x0000267a       0x64 C:\Users\Jose\DOCUME~1\rkt\rpk2\FIRMWA~1\LEOENC~1\ARDUIN~1\ARDUIN~1\ARDUIN~1\Debug\libArduinoCore.a(RH_RF69.o)
                0x0000267a                _ZN7RH_RF6914setModemConfigENS_17ModemConfigChoiceE
 .text._ZN7RH_RF6917setPreambleLengthEj
                0x000026de       0x22 C:\Users\Jose\DOCUME~1\rkt\rpk2\FIRMWA~1\LEOENC~1\ARDUIN~1\ARDUIN~1\ARDUIN~1\Debug\libArduinoCore.a(RH_RF69.o)
                0x000026de                _ZN7RH_RF6917setPreambleLengthEj
 .text._ZN7RH_RF6912setSyncWordsEPKhh
                0x00002700       0x66 C:\Users\Jose\DOCUME~1\rkt\rpk2\FIRMWA~1\LEOENC~1\ARDUIN~1\ARDUIN~1\ARDUIN~1\Debug\libArduinoCore.a(RH_RF69.o)
                0x00002700                _ZN7RH_RF6912setSyncWordsEPKhh
 .text._ZN7RH_RF6916setEncryptionKeyEPh
                0x00002766       0x36 C:\Users\Jose\DOCUME~1\rkt\rpk2\FIRMWA~1\LEOENC~1\ARDUIN~1\ARDUIN~1\ARDUIN~1\Debug\libArduinoCore.a(RH_RF69.o)
                0x00002766                _ZN7RH_RF6916setEncryptionKeyEPh
 .text._ZN7RH_RF694initEv
                0x0000279c      0x162 C:\Users\Jose\DOCUME~1\rkt\rpk2\FIRMWA~1\LEOENC~1\ARDUIN~1\ARDUIN~1\ARDUIN~1\Debug\libArduinoCore.a(RH_RF69.o)
                0x0000279c                _ZN7RH_RF694initEv
 .text._ZN8SPIClass5beginEv
                0x000028fe       0x6c C:\Users\Jose\DOCUME~1\rkt\rpk2\FIRMWA~1\LEOENC~1\ARDUIN~1\ARDUIN~1\ARDUIN~1\Debug\libArduinoCore.a(SPI.o)
                0x000028fe                _ZN8SPIClass5beginEv
 .text._ZN8SPIClass3endEv
                0x0000296a       0x28 C:\Users\Jose\DOCUME~1\rkt\rpk2\FIRMWA~1\LEOENC~1\ARDUIN~1\ARDUIN~1\ARDUIN~1\Debug\libArduinoCore.a(SPI.o)
                0x0000296a                _ZN8SPIClass3endEv
 .text.__cxa_pure_virtual
                0x00002992        0x4 C:\Users\Jose\DOCUME~1\rkt\rpk2\FIRMWA~1\LEOENC~1\ARDUIN~1\ARDUIN~1\ARDUIN~1\Debug\libArduinoCore.a(abi.o)
                0x00002992                __cxa_pure_virtual
 .text.__empty  0x00002996        0x2 C:\Users\Jose\DOCUME~1\rkt\rpk2\FIRMWA~1\LEOENC~1\ARDUIN~1\ARDUIN~1\ARDUIN~1\Debug\libArduinoCore.a(hooks.o)
                0x00002996                yield
 .text._ZN13PluggableUSB_12getInterfaceEPh
                0x00002998       0x52 C:\Users\Jose\DOCUME~1\rkt\rpk2\FIRMWA~1\LEOENC~1\ARDUIN~1\ARDUIN~1\ARDUIN~1\Debug\libArduinoCore.a(PluggableUSB.o)
                0x00002998                _ZN13PluggableUSB_12getInterfaceEPh
 .text._ZN13PluggableUSB_13getDescriptorER8USBSetup
                0x000029ea       0x3e C:\Users\Jose\DOCUME~1\rkt\rpk2\FIRMWA~1\LEOENC~1\ARDUIN~1\ARDUIN~1\ARDUIN~1\Debug\libArduinoCore.a(PluggableUSB.o)
                0x000029ea                _ZN13PluggableUSB_13getDescriptorER8USBSetup
 .text._ZN13PluggableUSB_12getShortNameEPc
                0x00002a28       0x3e C:\Users\Jose\DOCUME~1\rkt\rpk2\FIRMWA~1\LEOENC~1\ARDUIN~1\ARDUIN~1\ARDUIN~1\Debug\libArduinoCore.a(PluggableUSB.o)
                0x00002a28                _ZN13PluggableUSB_12getShortNameEPc
 .text._ZN13PluggableUSB_5setupER8USBSetup
                0x00002a66       0x3c C:\Users\Jose\DOCUME~1\rkt\rpk2\FIRMWA~1\LEOENC~1\ARDUIN~1\ARDUIN~1\ARDUIN~1\Debug\libArduinoCore.a(PluggableUSB.o)
                0x00002a66                _ZN13PluggableUSB_5setupER8USBSetup
 .text._Z12PluggableUSBv
                0x00002aa2       0x28 C:\Users\Jose\DOCUME~1\rkt\rpk2\FIRMWA~1\LEOENC~1\ARDUIN~1\ARDUIN~1\ARDUIN~1\Debug\libArduinoCore.a(PluggableUSB.o)
                0x00002aa2                _Z12PluggableUSBv
 .text.nothing  0x00002aca        0x2 C:\Users\Jose\DOCUME~1\rkt\rpk2\FIRMWA~1\LEOENC~1\ARDUIN~1\ARDUIN~1\ARDUIN~1\Debug\libArduinoCore.a(WInterrupts.o)
 .text.attachInterrupt
                0x00002acc       0xa0 C:\Users\Jose\DOCUME~1\rkt\rpk2\FIRMWA~1\LEOENC~1\ARDUIN~1\ARDUIN~1\ARDUIN~1\Debug\libArduinoCore.a(WInterrupts.o)
                0x00002acc                attachInterrupt
 .text.__vector_1
                0x00002b6c       0x4e C:\Users\Jose\DOCUME~1\rkt\rpk2\FIRMWA~1\LEOENC~1\ARDUIN~1\ARDUIN~1\ARDUIN~1\Debug\libArduinoCore.a(WInterrupts.o)
                0x00002b6c                __vector_1
 .text.__vector_2
                0x00002bba       0x4e C:\Users\Jose\DOCUME~1\rkt\rpk2\FIRMWA~1\LEOENC~1\ARDUIN~1\ARDUIN~1\ARDUIN~1\Debug\libArduinoCore.a(WInterrupts.o)
                0x00002bba                __vector_2
 .text.__vector_3
                0x00002c08       0x4e C:\Users\Jose\DOCUME~1\rkt\rpk2\FIRMWA~1\LEOENC~1\ARDUIN~1\ARDUIN~1\ARDUIN~1\Debug\libArduinoCore.a(WInterrupts.o)
                0x00002c08                __vector_3
 .text.__vector_4
                0x00002c56       0x4e C:\Users\Jose\DOCUME~1\rkt\rpk2\FIRMWA~1\LEOENC~1\ARDUIN~1\ARDUIN~1\ARDUIN~1\Debug\libArduinoCore.a(WInterrupts.o)
                0x00002c56                __vector_4
 .text.__vector_7
                0x00002ca4       0x4e C:\Users\Jose\DOCUME~1\rkt\rpk2\FIRMWA~1\LEOENC~1\ARDUIN~1\ARDUIN~1\ARDUIN~1\Debug\libArduinoCore.a(WInterrupts.o)
                0x00002ca4                __vector_7
 .text._Z6randoml
                0x00002cf2       0x34 C:\Users\Jose\DOCUME~1\rkt\rpk2\FIRMWA~1\LEOENC~1\ARDUIN~1\ARDUIN~1\ARDUIN~1\Debug\libArduinoCore.a(WMath.o)
                0x00002cf2                _Z6randoml
 .text._Z6randomll
                0x00002d26       0x44 C:\Users\Jose\DOCUME~1\rkt\rpk2\FIRMWA~1\LEOENC~1\ARDUIN~1\ARDUIN~1\ARDUIN~1\Debug\libArduinoCore.a(WMath.o)
                0x00002d26                _Z6randomll
 .text._ZN12RHGenericSPI15attachInterruptEv
                0x00002d6a        0x2 C:\Users\Jose\DOCUME~1\rkt\rpk2\FIRMWA~1\LEOENC~1\ARDUIN~1\ARDUIN~1\ARDUIN~1\Debug\libArduinoCore.a(RHGenericSPI.o)
                0x00002d6a                _ZN12RHGenericSPI15attachInterruptEv
 .text._ZN12RHGenericSPI15detachInterruptEv
                0x00002d6c        0x2 C:\Users\Jose\DOCUME~1\rkt\rpk2\FIRMWA~1\LEOENC~1\ARDUIN~1\ARDUIN~1\ARDUIN~1\Debug\libArduinoCore.a(RHGenericSPI.o)
                0x00002d6c                _ZN12RHGenericSPI15detachInterruptEv
 .text._ZN12RHGenericSPI16beginTransactionEv
                0x00002d6e        0x2 C:\Users\Jose\DOCUME~1\rkt\rpk2\FIRMWA~1\LEOENC~1\ARDUIN~1\ARDUIN~1\ARDUIN~1\Debug\libArduinoCore.a(RHGenericSPI.o)
                0x00002d6e                _ZN12RHGenericSPI16beginTransactionEv
 .text._ZN12RHGenericSPI14endTransactionEv
                0x00002d70        0x2 C:\Users\Jose\DOCUME~1\rkt\rpk2\FIRMWA~1\LEOENC~1\ARDUIN~1\ARDUIN~1\ARDUIN~1\Debug\libArduinoCore.a(RHGenericSPI.o)
                0x00002d70                _ZN12RHGenericSPI14endTransactionEv
 .text._ZN12RHGenericSPI14usingInterruptEh
                0x00002d72        0x2 C:\Users\Jose\DOCUME~1\rkt\rpk2\FIRMWA~1\LEOENC~1\ARDUIN~1\ARDUIN~1\ARDUIN~1\Debug\libArduinoCore.a(RHGenericSPI.o)
                0x00002d72                _ZN12RHGenericSPI14usingInterruptEh
 .text._ZN12RHGenericSPI11setBitOrderENS_8BitOrderE
                0x00002d74        0x6 C:\Users\Jose\DOCUME~1\rkt\rpk2\FIRMWA~1\LEOENC~1\ARDUIN~1\ARDUIN~1\ARDUIN~1\Debug\libArduinoCore.a(RHGenericSPI.o)
                0x00002d74                _ZN12RHGenericSPI11setBitOrderENS_8BitOrderE
 .text._ZN12RHGenericSPI11setDataModeENS_8DataModeE
                0x00002d7a        0x6 C:\Users\Jose\DOCUME~1\rkt\rpk2\FIRMWA~1\LEOENC~1\ARDUIN~1\ARDUIN~1\ARDUIN~1\Debug\libArduinoCore.a(RHGenericSPI.o)
                0x00002d7a                _ZN12RHGenericSPI11setDataModeENS_8DataModeE
 .text._ZN12RHGenericSPI12setFrequencyENS_9FrequencyE
                0x00002d80        0x6 C:\Users\Jose\DOCUME~1\rkt\rpk2\FIRMWA~1\LEOENC~1\ARDUIN~1\ARDUIN~1\ARDUIN~1\Debug\libArduinoCore.a(RHGenericSPI.o)
                0x00002d80                _ZN12RHGenericSPI12setFrequencyENS_9FrequencyE
 .text._ZN12RHGenericSPIC2ENS_9FrequencyENS_8BitOrderENS_8DataModeE
                0x00002d86       0x12 C:\Users\Jose\DOCUME~1\rkt\rpk2\FIRMWA~1\LEOENC~1\ARDUIN~1\ARDUIN~1\ARDUIN~1\Debug\libArduinoCore.a(RHGenericSPI.o)
                0x00002d86                _ZN12RHGenericSPIC1ENS_9FrequencyENS_8BitOrderENS_8DataModeE
                0x00002d86                _ZN12RHGenericSPIC2ENS_9FrequencyENS_8BitOrderENS_8DataModeE
 .text._ZN11RHSPIDriver4initEv
                0x00002d98       0x3c C:\Users\Jose\DOCUME~1\rkt\rpk2\FIRMWA~1\LEOENC~1\ARDUIN~1\ARDUIN~1\ARDUIN~1\Debug\libArduinoCore.a(RHSPIDriver.o)
                0x00002d98                _ZN11RHSPIDriver4initEv
 .text._ZN11RHSPIDriverC2EhR12RHGenericSPI
                0x00002dd4       0x2e C:\Users\Jose\DOCUME~1\rkt\rpk2\FIRMWA~1\LEOENC~1\ARDUIN~1\ARDUIN~1\ARDUIN~1\Debug\libArduinoCore.a(RHSPIDriver.o)
                0x00002dd4                _ZN11RHSPIDriverC1EhR12RHGenericSPI
                0x00002dd4                _ZN11RHSPIDriverC2EhR12RHGenericSPI
 .text._ZN11RHSPIDriver7spiReadEh
                0x00002e02       0x7e C:\Users\Jose\DOCUME~1\rkt\rpk2\FIRMWA~1\LEOENC~1\ARDUIN~1\ARDUIN~1\ARDUIN~1\Debug\libArduinoCore.a(RHSPIDriver.o)
                0x00002e02                _ZN11RHSPIDriver7spiReadEh
 .text._ZN11RHSPIDriver8spiWriteEhh
                0x00002e80       0x84 C:\Users\Jose\DOCUME~1\rkt\rpk2\FIRMWA~1\LEOENC~1\ARDUIN~1\ARDUIN~1\ARDUIN~1\Debug\libArduinoCore.a(RHSPIDriver.o)
                0x00002e80                _ZN11RHSPIDriver8spiWriteEhh
 .text._ZN11RHSPIDriver13spiBurstWriteEhPKhh
                0x00002f04       0xa8 C:\Users\Jose\DOCUME~1\rkt\rpk2\FIRMWA~1\LEOENC~1\ARDUIN~1\ARDUIN~1\ARDUIN~1\Debug\libArduinoCore.a(RHSPIDriver.o)
                0x00002f04                _ZN11RHSPIDriver13spiBurstWriteEhPKhh
 .text._ZN11RHSPIDriver17spiUsingInterruptEh
                0x00002fac       0x18 C:\Users\Jose\DOCUME~1\rkt\rpk2\FIRMWA~1\LEOENC~1\ARDUIN~1\ARDUIN~1\ARDUIN~1\Debug\libArduinoCore.a(RHSPIDriver.o)
                0x00002fac                _ZN11RHSPIDriver17spiUsingInterruptEh
 .text.avr-libc.fplib
                0x00002fc4        0x8 c:/program files (x86)/atmel/studio/7.0/toolchain/avr8/avr8-gnu-toolchain/bin/../lib/gcc/avr/5.4.0/../../../../avr/lib/avr5\libm.a(divsf3.o)
                0x00002fc4                __divsf3
 .text.avr-libc.fplib
                0x00002fcc       0xdc c:/program files (x86)/atmel/studio/7.0/toolchain/avr8/avr8-gnu-toolchain/bin/../lib/gcc/avr/5.4.0/../../../../avr/lib/avr5\libm.a(divsf3x.o)
                0x00002fec                __divsf3x
                0x00002ff2                __divsf3_pse
 .text.avr-libc.fplib
                0x000030a8       0x5e c:/program files (x86)/atmel/studio/7.0/toolchain/avr8/avr8-gnu-toolchain/bin/../lib/gcc/avr/5.4.0/../../../../avr/lib/avr5\libm.a(fixunssfsi.o)
                0x000030a8                __fixunssfsi
 .text.avr-libc.fplib
                0x00003106        0xc c:/program files (x86)/atmel/studio/7.0/toolchain/avr8/avr8-gnu-toolchain/bin/../lib/gcc/avr/5.4.0/../../../../avr/lib/avr5\libm.a(fp_inf.o)
                0x00003106                __fp_inf
 .text.avr-libc.fplib
                0x00003112        0x6 c:/program files (x86)/atmel/studio/7.0/toolchain/avr8/avr8-gnu-toolchain/bin/../lib/gcc/avr/5.4.0/../../../../avr/lib/avr5\libm.a(fp_nan.o)
                0x00003112                __fp_nan
 .text.avr-libc.fplib
                0x00003118        0xe c:/program files (x86)/atmel/studio/7.0/toolchain/avr8/avr8-gnu-toolchain/bin/../lib/gcc/avr/5.4.0/../../../../avr/lib/avr5\libm.a(fp_pscA.o)
                0x00003118                __fp_pscA
 .text.avr-libc.fplib
                0x00003126        0xe c:/program files (x86)/atmel/studio/7.0/toolchain/avr8/avr8-gnu-toolchain/bin/../lib/gcc/avr/5.4.0/../../../../avr/lib/avr5\libm.a(fp_pscB.o)
                0x00003126                __fp_pscB
 .text.avr-libc.fplib
                0x00003134       0x22 c:/program files (x86)/atmel/studio/7.0/toolchain/avr8/avr8-gnu-toolchain/bin/../lib/gcc/avr/5.4.0/../../../../avr/lib/avr5\libm.a(fp_round.o)
                0x00003134                __fp_round
 .text.avr-libc.fplib
                0x00003156       0x44 c:/program files (x86)/atmel/studio/7.0/toolchain/avr8/avr8-gnu-toolchain/bin/../lib/gcc/avr/5.4.0/../../../../avr/lib/avr5\libm.a(fp_split3.o)
                0x00003156                __fp_split3
                0x00003166                __fp_splitA
 .text.avr-libc.fplib
                0x0000319a        0xe c:/program files (x86)/atmel/studio/7.0/toolchain/avr8/avr8-gnu-toolchain/bin/../lib/gcc/avr/5.4.0/../../../../avr/lib/avr5\libm.a(fp_zero.o)
                0x0000319a                __fp_zero
                0x0000319c                __fp_szero
 .text.avr-libc.fplib
                0x000031a8        0x8 c:/program files (x86)/atmel/studio/7.0/toolchain/avr8/avr8-gnu-toolchain/bin/../lib/gcc/avr/5.4.0/../../../../avr/lib/avr5\libm.a(mulsf3.o)
                0x000031a8                __mulsf3
 .text.avr-libc.fplib
                0x000031b0       0xd2 c:/program files (x86)/atmel/studio/7.0/toolchain/avr8/avr8-gnu-toolchain/bin/../lib/gcc/avr/5.4.0/../../../../avr/lib/avr5\libm.a(mulsf3x.o)
                0x000031ce                __mulsf3x
                0x000031d4                __mulsf3_pse
 .text.libgcc.div
                0x00003282       0x44 c:/program files (x86)/atmel/studio/7.0/toolchain/avr8/avr8-gnu-toolchain/bin/../lib/gcc/avr/5.4.0/avr5\libgcc.a(_udivmodsi4.o)
                0x00003282                __udivmodsi4
 .text.libgcc.div
                0x000032c6       0x2e c:/program files (x86)/atmel/studio/7.0/toolchain/avr8/avr8-gnu-toolchain/bin/../lib/gcc/avr/5.4.0/avr5\libgcc.a(_divmodsi4.o)
                0x000032c6                __divmodsi4
 .text.libgcc.div
                0x000032f4       0x10 c:/program files (x86)/atmel/studio/7.0/toolchain/avr8/avr8-gnu-toolchain/bin/../lib/gcc/avr/5.4.0/avr5\libgcc.a(_negsi2.o)
                0x000032f4                __negsi2
 .text.libgcc   0x00003304        0xc c:/program files (x86)/atmel/studio/7.0/toolchain/avr8/avr8-gnu-toolchain/bin/../lib/gcc/avr/5.4.0/avr5\libgcc.a(_tablejump2.o)
                0x00003304                __tablejump2__
 .text.libgcc.mul
                0x00003310       0x16 c:/program files (x86)/atmel/studio/7.0/toolchain/avr8/avr8-gnu-toolchain/bin/../lib/gcc/avr/5.4.0/avr5\libgcc.a(_muluhisi3.o)
                0x00003310                __muluhisi3
 .text.libgcc.mul
                0x00003326       0x1e c:/program files (x86)/atmel/studio/7.0/toolchain/avr8/avr8-gnu-toolchain/bin/../lib/gcc/avr/5.4.0/avr5\libgcc.a(_umulhisi3.o)
                0x00003326                __umulhisi3
 .text.avr-libc
                0x00003344      0x242 c:/program files (x86)/atmel/studio/7.0/toolchain/avr8/avr8-gnu-toolchain/bin/../lib/gcc/avr/5.4.0/../../../../avr/lib/avr5\libc.a(malloc.o)
                0x00003344                malloc
                0x00003474                free
 .text.avr-libc
                0x00003586      0x144 c:/program files (x86)/atmel/studio/7.0/toolchain/avr8/avr8-gnu-toolchain/bin/../lib/gcc/avr/5.4.0/../../../../avr/lib/avr5\libc.a(random.o)
                0x00003586                random_r
                0x0000361c                random
                0x000036b8                srandom
 .text.avr-libc
                0x000036ca      0x18c c:/program files (x86)/atmel/studio/7.0/toolchain/avr8/avr8-gnu-toolchain/bin/../lib/gcc/avr/5.4.0/../../../../avr/lib/avr5\libc.a(realloc.o)
                0x000036ca                realloc
 .text.avr-libc
                0x00003856        0xa c:/program files (x86)/atmel/studio/7.0/toolchain/avr8/avr8-gnu-toolchain/bin/../lib/gcc/avr/5.4.0/../../../../avr/lib/avr5\libc.a(abort.o)
                0x00003856                abort
 .text.avr-libc
                0x00003860       0x12 c:/program files (x86)/atmel/studio/7.0/toolchain/avr8/avr8-gnu-toolchain/bin/../lib/gcc/avr/5.4.0/../../../../avr/lib/avr5\libc.a(memcpy_P.o)
                0x00003860                memcpy_P
 .text.avr-libc
                0x00003872       0x12 c:/program files (x86)/atmel/studio/7.0/toolchain/avr8/avr8-gnu-toolchain/bin/../lib/gcc/avr/5.4.0/../../../../avr/lib/avr5\libc.a(memcpy.o)
                0x00003872                memcpy
 .text.avr-libc
                0x00003884        0xe c:/program files (x86)/atmel/studio/7.0/toolchain/avr8/avr8-gnu-toolchain/bin/../lib/gcc/avr/5.4.0/../../../../avr/lib/avr5\libc.a(strcpy.o)
                0x00003884                strcpy
 .text.avr-libc
                0x00003892       0x1e c:/program files (x86)/atmel/studio/7.0/toolchain/avr8/avr8-gnu-toolchain/bin/../lib/gcc/avr/5.4.0/../../../../avr/lib/avr5\libc.a(strncpy.o)
                0x00003892                strncpy
 .text.libgcc.mul
                0x000038b0       0x10 c:/program files (x86)/atmel/studio/7.0/toolchain/avr8/avr8-gnu-toolchain/bin/../lib/gcc/avr/5.4.0/avr5\libgcc.a(_mulshisi3.o)
                0x000038b0                __mulshisi3
                0x000038b6                __mulohisi3
 .text.libgcc.prologue
                0x000038c0       0x38 c:/program files (x86)/atmel/studio/7.0/toolchain/avr8/avr8-gnu-toolchain/bin/../lib/gcc/avr/5.4.0/avr5\libgcc.a(_prologue.o)
                0x000038c0                __prologue_saves__
 .text.libgcc.prologue
                0x000038f8       0x36 c:/program files (x86)/atmel/studio/7.0/toolchain/avr8/avr8-gnu-toolchain/bin/../lib/gcc/avr/5.4.0/avr5\libgcc.a(_epilogue.o)
                0x000038f8                __epilogue_restores__
                0x0000392e                . = ALIGN (0x2)
 *(.fini9)
 .fini9         0x0000392e        0x0 c:/program files (x86)/atmel/studio/7.0/toolchain/avr8/avr8-gnu-toolchain/bin/../lib/gcc/avr/5.4.0/avr5\libgcc.a(_exit.o)
                0x0000392e                _exit
                0x0000392e                exit
 *(.fini9)
 *(.fini8)
 *(.fini8)
 *(.fini7)
 *(.fini7)
 *(.fini6)
 *(.fini6)
 *(.fini5)
 *(.fini5)
 *(.fini4)
 *(.fini4)
 *(.fini3)
 *(.fini3)
 *(.fini2)
 *(.fini2)
 *(.fini1)
 *(.fini1)
 *(.fini0)
 .fini0         0x0000392e        0x4 c:/program files (x86)/atmel/studio/7.0/toolchain/avr8/avr8-gnu-toolchain/bin/../lib/gcc/avr/5.4.0/avr5\libgcc.a(_exit.o)
 *(.fini0)
                0x00003932                _etext = .

.data           0x00800100      0x1e6 load address 0x00003932
                0x00800100                PROVIDE (__data_start, .)
 *(.data)
 .data          0x00800100        0x6 c:/program files (x86)/atmel/studio/7.0/toolchain/avr8/avr8-gnu-toolchain/bin/../lib/gcc/avr/5.4.0/../../../../avr/lib/avr5\libc.a(malloc.o)
                0x00800100                __malloc_heap_end
                0x00800102                __malloc_heap_start
                0x00800104                __malloc_margin
 .data          0x00800106        0x4 c:/program files (x86)/atmel/studio/7.0/toolchain/avr8/avr8-gnu-toolchain/bin/../lib/gcc/avr/5.4.0/../../../../avr/lib/avr5\libc.a(random.o)
 *(.data*)
 .data._ZL10breakValue
                0x0080010a        0x4 C:\Users\Jose\DOCUME~1\rkt\rpk2\FIRMWA~1\LEOENC~1\ARDUIN~1\ARDUIN~1\ARDUIN~1\Debug\libArduinoCore.a(CDC.o)
 .data._ZL12_usbLineInfo
                0x0080010e        0x8 C:\Users\Jose\DOCUME~1\rkt\rpk2\FIRMWA~1\LEOENC~1\ARDUIN~1\ARDUIN~1\ARDUIN~1\Debug\libArduinoCore.a(CDC.o)
 .data._initEndpoints
                0x00800116        0x7 C:\Users\Jose\DOCUME~1\rkt\rpk2\FIRMWA~1\LEOENC~1\ARDUIN~1\ARDUIN~1\ARDUIN~1\Debug\libArduinoCore.a(USBCore.o)
                0x00800116                _initEndpoints
 .data.intFunc  0x0080011d        0xa C:\Users\Jose\DOCUME~1\rkt\rpk2\FIRMWA~1\LEOENC~1\ARDUIN~1\ARDUIN~1\ARDUIN~1\Debug\libArduinoCore.a(WInterrupts.o)
 *(.gnu.linkonce.d*)
 *(.rodata)
 .rodata        0x00800127       0x10 Sketch.o
 *(.rodata*)
 .rodata.str1.1
                0x00800137       0x94 Sketch.o
 .rodata._ZTV7Serial_
                0x008001cb       0x12 C:\Users\Jose\DOCUME~1\rkt\rpk2\FIRMWA~1\LEOENC~1\ARDUIN~1\ARDUIN~1\ARDUIN~1\Debug\libArduinoCore.a(CDC.o)
                0x008001cb                _ZTV7Serial_
 .rodata._ZTV14HardwareSerial
                0x008001dd       0x12 C:\Users\Jose\DOCUME~1\rkt\rpk2\FIRMWA~1\LEOENC~1\ARDUIN~1\ARDUIN~1\ARDUIN~1\Debug\libArduinoCore.a(HardwareSerial.o)
                0x008001dd                _ZTV14HardwareSerial
 .rodata.str1.1
                0x008001ef        0xf C:\Users\Jose\DOCUME~1\rkt\rpk2\FIRMWA~1\LEOENC~1\ARDUIN~1\ARDUIN~1\ARDUIN~1\Debug\libArduinoCore.a(Print.o)
 .rodata.str1.1
                0x008001fe        0xf C:\Users\Jose\DOCUME~1\rkt\rpk2\FIRMWA~1\LEOENC~1\ARDUIN~1\ARDUIN~1\ARDUIN~1\Debug\libArduinoCore.a(Stream.o)
                                  0x1 (size before relaxing)
 .rodata._ZTV15RHGenericDriver
                0x008001fe       0x3c C:\Users\Jose\DOCUME~1\rkt\rpk2\FIRMWA~1\LEOENC~1\ARDUIN~1\ARDUIN~1\ARDUIN~1\Debug\libArduinoCore.a(RHGenericDriver.o)
                0x008001fe                _ZTV15RHGenericDriver
 .rodata._ZTV13RHHardwareSPI
                0x0080023a       0x1a C:\Users\Jose\DOCUME~1\rkt\rpk2\FIRMWA~1\LEOENC~1\ARDUIN~1\ARDUIN~1\ARDUIN~1\Debug\libArduinoCore.a(RHHardwareSPI.o)
                0x0080023a                _ZTV13RHHardwareSPI
 .rodata._ZTV7RH_RF69
                0x00800254       0x3c C:\Users\Jose\DOCUME~1\rkt\rpk2\FIRMWA~1\LEOENC~1\ARDUIN~1\ARDUIN~1\ARDUIN~1\Debug\libArduinoCore.a(RH_RF69.o)
                0x00800254                _ZTV7RH_RF69
 .rodata._ZTV12RHGenericSPI
                0x00800290       0x1a C:\Users\Jose\DOCUME~1\rkt\rpk2\FIRMWA~1\LEOENC~1\ARDUIN~1\ARDUIN~1\ARDUIN~1\Debug\libArduinoCore.a(RHGenericSPI.o)
                0x00800290                _ZTV12RHGenericSPI
 .rodata._ZTV11RHSPIDriver
                0x008002aa       0x3c C:\Users\Jose\DOCUME~1\rkt\rpk2\FIRMWA~1\LEOENC~1\ARDUIN~1\ARDUIN~1\ARDUIN~1\Debug\libArduinoCore.a(RHSPIDriver.o)
                0x008002aa                _ZTV11RHSPIDriver
 *(.gnu.linkonce.r*)
                0x008002e6                . = ALIGN (0x2)
                0x008002e6                _edata = .
                0x008002e6                PROVIDE (__data_end, .)

.bss            0x008002e6      0x186
                0x008002e6                PROVIDE (__bss_start, .)
 *(.bss)
 *(.bss*)
 .bss.rf69      0x008002e6       0x63 Sketch.o
                0x008002e6                rf69
 .bss.Serial    0x00800349       0x50 C:\Users\Jose\DOCUME~1\rkt\rpk2\FIRMWA~1\LEOENC~1\ARDUIN~1\ARDUIN~1\ARDUIN~1\Debug\libArduinoCore.a(CDC.o)
                0x00800349                Serial
 .bss._ZL11wdtcsr_save
                0x00800399        0x1 C:\Users\Jose\DOCUME~1\rkt\rpk2\FIRMWA~1\LEOENC~1\ARDUIN~1\ARDUIN~1\ARDUIN~1\Debug\libArduinoCore.a(CDC.o)
 .bss.Serial1   0x0080039a       0x9d C:\Users\Jose\DOCUME~1\rkt\rpk2\FIRMWA~1\LEOENC~1\ARDUIN~1\ARDUIN~1\ARDUIN~1\Debug\libArduinoCore.a(HardwareSerial1.o)
                0x0080039a                Serial1
 .bss.USBDevice
                0x00800437        0x1 C:\Users\Jose\DOCUME~1\rkt\rpk2\FIRMWA~1\LEOENC~1\ARDUIN~1\ARDUIN~1\ARDUIN~1\Debug\libArduinoCore.a(USBCore.o)
                0x00800437                USBDevice
 .bss._ZL5_cend
                0x00800438        0x2 C:\Users\Jose\DOCUME~1\rkt\rpk2\FIRMWA~1\LEOENC~1\ARDUIN~1\ARDUIN~1\ARDUIN~1\Debug\libArduinoCore.a(USBCore.o)
 .bss._ZL6_cmark
                0x0080043a        0x2 C:\Users\Jose\DOCUME~1\rkt\rpk2\FIRMWA~1\LEOENC~1\ARDUIN~1\ARDUIN~1\ARDUIN~1\Debug\libArduinoCore.a(USBCore.o)
 .bss._usbSuspendState
                0x0080043c        0x1 C:\Users\Jose\DOCUME~1\rkt\rpk2\FIRMWA~1\LEOENC~1\ARDUIN~1\ARDUIN~1\ARDUIN~1\Debug\libArduinoCore.a(USBCore.o)
                0x0080043c                _usbSuspendState
 .bss._usbCurrentStatus
                0x0080043d        0x1 C:\Users\Jose\DOCUME~1\rkt\rpk2\FIRMWA~1\LEOENC~1\ARDUIN~1\ARDUIN~1\ARDUIN~1\Debug\libArduinoCore.a(USBCore.o)
                0x0080043d                _usbCurrentStatus
 .bss._usbConfiguration
                0x0080043e        0x1 C:\Users\Jose\DOCUME~1\rkt\rpk2\FIRMWA~1\LEOENC~1\ARDUIN~1\ARDUIN~1\ARDUIN~1\Debug\libArduinoCore.a(USBCore.o)
                0x0080043e                _usbConfiguration
 .bss.RxLEDPulse
                0x0080043f        0x1 C:\Users\Jose\DOCUME~1\rkt\rpk2\FIRMWA~1\LEOENC~1\ARDUIN~1\ARDUIN~1\ARDUIN~1\Debug\libArduinoCore.a(USBCore.o)
                0x0080043f                RxLEDPulse
 .bss.TxLEDPulse
                0x00800440        0x1 C:\Users\Jose\DOCUME~1\rkt\rpk2\FIRMWA~1\LEOENC~1\ARDUIN~1\ARDUIN~1\ARDUIN~1\Debug\libArduinoCore.a(USBCore.o)
                0x00800440                TxLEDPulse
 .bss.timer0_fract
                0x00800441        0x1 C:\Users\Jose\DOCUME~1\rkt\rpk2\FIRMWA~1\LEOENC~1\ARDUIN~1\ARDUIN~1\ARDUIN~1\Debug\libArduinoCore.a(wiring.o)
 .bss.timer0_millis
                0x00800442        0x4 C:\Users\Jose\DOCUME~1\rkt\rpk2\FIRMWA~1\LEOENC~1\ARDUIN~1\ARDUIN~1\ARDUIN~1\Debug\libArduinoCore.a(wiring.o)
                0x00800442                timer0_millis
 .bss.timer0_overflow_count
                0x00800446        0x4 C:\Users\Jose\DOCUME~1\rkt\rpk2\FIRMWA~1\LEOENC~1\ARDUIN~1\ARDUIN~1\ARDUIN~1\Debug\libArduinoCore.a(wiring.o)
                0x00800446                timer0_overflow_count
 .bss.hardware_spi
                0x0080044a        0x7 C:\Users\Jose\DOCUME~1\rkt\rpk2\FIRMWA~1\LEOENC~1\ARDUIN~1\ARDUIN~1\ARDUIN~1\Debug\libArduinoCore.a(RHHardwareSPI.o)
                0x0080044a                hardware_spi
 .bss._ZN7RH_RF6915_interruptCountE
                0x00800451        0x1 C:\Users\Jose\DOCUME~1\rkt\rpk2\FIRMWA~1\LEOENC~1\ARDUIN~1\ARDUIN~1\ARDUIN~1\Debug\libArduinoCore.a(RH_RF69.o)
                0x00800451                _ZN7RH_RF6915_interruptCountE
 .bss._ZN7RH_RF6919_deviceForInterruptE
                0x00800452        0x6 C:\Users\Jose\DOCUME~1\rkt\rpk2\FIRMWA~1\LEOENC~1\ARDUIN~1\ARDUIN~1\ARDUIN~1\Debug\libArduinoCore.a(RH_RF69.o)
                0x00800452                _ZN7RH_RF6919_deviceForInterruptE
 .bss._ZN8SPIClass13interruptSaveE
                0x00800458        0x1 C:\Users\Jose\DOCUME~1\rkt\rpk2\FIRMWA~1\LEOENC~1\ARDUIN~1\ARDUIN~1\ARDUIN~1\Debug\libArduinoCore.a(SPI.o)
                0x00800458                _ZN8SPIClass13interruptSaveE
 .bss._ZN8SPIClass13interruptMaskE
                0x00800459        0x1 C:\Users\Jose\DOCUME~1\rkt\rpk2\FIRMWA~1\LEOENC~1\ARDUIN~1\ARDUIN~1\ARDUIN~1\Debug\libArduinoCore.a(SPI.o)
                0x00800459                _ZN8SPIClass13interruptMaskE
 .bss._ZN8SPIClass13interruptModeE
                0x0080045a        0x1 C:\Users\Jose\DOCUME~1\rkt\rpk2\FIRMWA~1\LEOENC~1\ARDUIN~1\ARDUIN~1\ARDUIN~1\Debug\libArduinoCore.a(SPI.o)
                0x0080045a                _ZN8SPIClass13interruptModeE
 .bss._ZN8SPIClass11initializedE
                0x0080045b        0x1 C:\Users\Jose\DOCUME~1\rkt\rpk2\FIRMWA~1\LEOENC~1\ARDUIN~1\ARDUIN~1\ARDUIN~1\Debug\libArduinoCore.a(SPI.o)
                0x0080045b                _ZN8SPIClass11initializedE
 .bss._ZZ12PluggableUSBvE3obj
                0x0080045c        0x4 C:\Users\Jose\DOCUME~1\rkt\rpk2\FIRMWA~1\LEOENC~1\ARDUIN~1\ARDUIN~1\ARDUIN~1\Debug\libArduinoCore.a(PluggableUSB.o)
 .bss._ZGVZ12PluggableUSBvE3obj
                0x00800460        0x8 C:\Users\Jose\DOCUME~1\rkt\rpk2\FIRMWA~1\LEOENC~1\ARDUIN~1\ARDUIN~1\ARDUIN~1\Debug\libArduinoCore.a(PluggableUSB.o)
 *(COMMON)
 COMMON         0x00800468        0x4 c:/program files (x86)/atmel/studio/7.0/toolchain/avr8/avr8-gnu-toolchain/bin/../lib/gcc/avr/5.4.0/../../../../avr/lib/avr5\libc.a(malloc.o)
                0x00800468                __brkval
                0x0080046a                __flp
                0x0080046c                PROVIDE (__bss_end, .)
                0x00003932                __data_load_start = LOADADDR (.data)
                0x00003b18                __data_load_end = (__data_load_start + SIZEOF (.data))

.noinit         0x0080046c        0x0
                [!provide]                PROVIDE (__noinit_start, .)
 *(.noinit*)
                [!provide]                PROVIDE (__noinit_end, .)
                0x0080046c                _end = .
                0x0080046c                PROVIDE (__heap_start, .)

.eeprom         0x00810000        0x0
 *(.eeprom*)
                0x00810000                __eeprom_end = .

.fuse
 *(.fuse)
 *(.lfuse)
 *(.hfuse)
 *(.efuse)

.lock
 *(.lock*)

.signature
 *(.signature*)

.user_signatures
 *(.user_signatures*)

.stab
 *(.stab)

.stabstr
 *(.stabstr)

.stab.excl
 *(.stab.excl)

.stab.exclstr
 *(.stab.exclstr)

.stab.index
 *(.stab.index)

.stab.indexstr
 *(.stab.indexstr)

.comment        0x00000000       0x30
 *(.comment)
 .comment       0x00000000       0x30 Sketch.o
                                 0x31 (size before relaxing)
 .comment       0x00000030       0x31 C:\Users\Jose\DOCUME~1\rkt\rpk2\FIRMWA~1\LEOENC~1\ARDUIN~1\ARDUIN~1\ARDUIN~1\Debug\libArduinoCore.a(CDC.o)
 .comment       0x00000030       0x31 C:\Users\Jose\DOCUME~1\rkt\rpk2\FIRMWA~1\LEOENC~1\ARDUIN~1\ARDUIN~1\ARDUIN~1\Debug\libArduinoCore.a(HardwareSerial.o)
 .comment       0x00000030       0x31 C:\Users\Jose\DOCUME~1\rkt\rpk2\FIRMWA~1\LEOENC~1\ARDUIN~1\ARDUIN~1\ARDUIN~1\Debug\libArduinoCore.a(HardwareSerial1.o)
 .comment       0x00000030       0x31 C:\Users\Jose\DOCUME~1\rkt\rpk2\FIRMWA~1\LEOENC~1\ARDUIN~1\ARDUIN~1\ARDUIN~1\Debug\libArduinoCore.a(main.o)
 .comment       0x00000030       0x31 C:\Users\Jose\DOCUME~1\rkt\rpk2\FIRMWA~1\LEOENC~1\ARDUIN~1\ARDUIN~1\ARDUIN~1\Debug\libArduinoCore.a(Print.o)
 .comment       0x00000030       0x31 C:\Users\Jose\DOCUME~1\rkt\rpk2\FIRMWA~1\LEOENC~1\ARDUIN~1\ARDUIN~1\ARDUIN~1\Debug\libArduinoCore.a(Stream.o)
 .comment       0x00000030       0x31 C:\Users\Jose\DOCUME~1\rkt\rpk2\FIRMWA~1\LEOENC~1\ARDUIN~1\ARDUIN~1\ARDUIN~1\Debug\libArduinoCore.a(USBCore.o)
 .comment       0x00000030       0x31 C:\Users\Jose\DOCUME~1\rkt\rpk2\FIRMWA~1\LEOENC~1\ARDUIN~1\ARDUIN~1\ARDUIN~1\Debug\libArduinoCore.a(wiring.o)
 .comment       0x00000030       0x31 C:\Users\Jose\DOCUME~1\rkt\rpk2\FIRMWA~1\LEOENC~1\ARDUIN~1\ARDUIN~1\ARDUIN~1\Debug\libArduinoCore.a(wiring_digital.o)
 .comment       0x00000030       0x31 C:\Users\Jose\DOCUME~1\rkt\rpk2\FIRMWA~1\LEOENC~1\ARDUIN~1\ARDUIN~1\ARDUIN~1\Debug\libArduinoCore.a(WString.o)
 .comment       0x00000030       0x31 C:\Users\Jose\DOCUME~1\rkt\rpk2\FIRMWA~1\LEOENC~1\ARDUIN~1\ARDUIN~1\ARDUIN~1\Debug\libArduinoCore.a(RHGenericDriver.o)
 .comment       0x00000030       0x31 C:\Users\Jose\DOCUME~1\rkt\rpk2\FIRMWA~1\LEOENC~1\ARDUIN~1\ARDUIN~1\ARDUIN~1\Debug\libArduinoCore.a(RHHardwareSPI.o)
 .comment       0x00000030       0x31 C:\Users\Jose\DOCUME~1\rkt\rpk2\FIRMWA~1\LEOENC~1\ARDUIN~1\ARDUIN~1\ARDUIN~1\Debug\libArduinoCore.a(RH_RF69.o)
 .comment       0x00000030       0x31 C:\Users\Jose\DOCUME~1\rkt\rpk2\FIRMWA~1\LEOENC~1\ARDUIN~1\ARDUIN~1\ARDUIN~1\Debug\libArduinoCore.a(SPI.o)
 .comment       0x00000030       0x31 C:\Users\Jose\DOCUME~1\rkt\rpk2\FIRMWA~1\LEOENC~1\ARDUIN~1\ARDUIN~1\ARDUIN~1\Debug\libArduinoCore.a(abi.o)
 .comment       0x00000030       0x31 C:\Users\Jose\DOCUME~1\rkt\rpk2\FIRMWA~1\LEOENC~1\ARDUIN~1\ARDUIN~1\ARDUIN~1\Debug\libArduinoCore.a(hooks.o)
 .comment       0x00000030       0x31 C:\Users\Jose\DOCUME~1\rkt\rpk2\FIRMWA~1\LEOENC~1\ARDUIN~1\ARDUIN~1\ARDUIN~1\Debug\libArduinoCore.a(PluggableUSB.o)
 .comment       0x00000030       0x31 C:\Users\Jose\DOCUME~1\rkt\rpk2\FIRMWA~1\LEOENC~1\ARDUIN~1\ARDUIN~1\ARDUIN~1\Debug\libArduinoCore.a(WInterrupts.o)
 .comment       0x00000030       0x31 C:\Users\Jose\DOCUME~1\rkt\rpk2\FIRMWA~1\LEOENC~1\ARDUIN~1\ARDUIN~1\ARDUIN~1\Debug\libArduinoCore.a(WMath.o)
 .comment       0x00000030       0x31 C:\Users\Jose\DOCUME~1\rkt\rpk2\FIRMWA~1\LEOENC~1\ARDUIN~1\ARDUIN~1\ARDUIN~1\Debug\libArduinoCore.a(RHGenericSPI.o)
 .comment       0x00000030       0x31 C:\Users\Jose\DOCUME~1\rkt\rpk2\FIRMWA~1\LEOENC~1\ARDUIN~1\ARDUIN~1\ARDUIN~1\Debug\libArduinoCore.a(RHSPIDriver.o)
 .comment       0x00000030       0x31 c:/program files (x86)/atmel/studio/7.0/toolchain/avr8/avr8-gnu-toolchain/bin/../lib/gcc/avr/5.4.0/../../../../avr/lib/avr5\libc.a(malloc.o)
 .comment       0x00000030       0x31 c:/program files (x86)/atmel/studio/7.0/toolchain/avr8/avr8-gnu-toolchain/bin/../lib/gcc/avr/5.4.0/../../../../avr/lib/avr5\libc.a(random.o)
 .comment       0x00000030       0x31 c:/program files (x86)/atmel/studio/7.0/toolchain/avr8/avr8-gnu-toolchain/bin/../lib/gcc/avr/5.4.0/../../../../avr/lib/avr5\libc.a(realloc.o)

.note.gnu.avr.deviceinfo
                0x00000000       0x40
 .note.gnu.avr.deviceinfo
                0x00000000       0x40 C:/Program Files (x86)/Atmel/Studio/7.0/Packs/Atmel/ATmega_DFP/1.7.374/gcc/dev/atmega32u4/avr5/crtatmega32u4.o

.note.gnu.build-id
 *(.note.gnu.build-id)

.debug
 *(.debug)

.line
 *(.line)

.debug_srcinfo
 *(.debug_srcinfo)

.debug_sfnames
 *(.debug_sfnames)

.debug_aranges  0x00000000      0xc28
 *(.debug_aranges)
 .debug_aranges
                0x00000000       0x50 Sketch.o
 .debug_aranges
                0x00000050       0xd8 C:\Users\Jose\DOCUME~1\rkt\rpk2\FIRMWA~1\LEOENC~1\ARDUIN~1\ARDUIN~1\ARDUIN~1\Debug\libArduinoCore.a(CDC.o)
 .debug_aranges
                0x00000128       0x68 C:\Users\Jose\DOCUME~1\rkt\rpk2\FIRMWA~1\LEOENC~1\ARDUIN~1\ARDUIN~1\ARDUIN~1\Debug\libArduinoCore.a(HardwareSerial.o)
 .debug_aranges
                0x00000190       0x48 C:\Users\Jose\DOCUME~1\rkt\rpk2\FIRMWA~1\LEOENC~1\ARDUIN~1\ARDUIN~1\ARDUIN~1\Debug\libArduinoCore.a(HardwareSerial1.o)
 .debug_aranges
                0x000001d8       0x30 C:\Users\Jose\DOCUME~1\rkt\rpk2\FIRMWA~1\LEOENC~1\ARDUIN~1\ARDUIN~1\ARDUIN~1\Debug\libArduinoCore.a(main.o)
 .debug_aranges
                0x00000208      0x100 C:\Users\Jose\DOCUME~1\rkt\rpk2\FIRMWA~1\LEOENC~1\ARDUIN~1\ARDUIN~1\ARDUIN~1\Debug\libArduinoCore.a(Print.o)
 .debug_aranges
                0x00000308       0x98 C:\Users\Jose\DOCUME~1\rkt\rpk2\FIRMWA~1\LEOENC~1\ARDUIN~1\ARDUIN~1\ARDUIN~1\Debug\libArduinoCore.a(Stream.o)
 .debug_aranges
                0x000003a0       0xe0 C:\Users\Jose\DOCUME~1\rkt\rpk2\FIRMWA~1\LEOENC~1\ARDUIN~1\ARDUIN~1\ARDUIN~1\Debug\libArduinoCore.a(USBCore.o)
 .debug_aranges
                0x00000480       0x48 C:\Users\Jose\DOCUME~1\rkt\rpk2\FIRMWA~1\LEOENC~1\ARDUIN~1\ARDUIN~1\ARDUIN~1\Debug\libArduinoCore.a(wiring.o)
 .debug_aranges
                0x000004c8       0x38 C:\Users\Jose\DOCUME~1\rkt\rpk2\FIRMWA~1\LEOENC~1\ARDUIN~1\ARDUIN~1\ARDUIN~1\Debug\libArduinoCore.a(wiring_digital.o)
 .debug_aranges
                0x00000500      0x2b8 C:\Users\Jose\DOCUME~1\rkt\rpk2\FIRMWA~1\LEOENC~1\ARDUIN~1\ARDUIN~1\ARDUIN~1\Debug\libArduinoCore.a(WString.o)
 .debug_aranges
                0x000007b8       0xe8 C:\Users\Jose\DOCUME~1\rkt\rpk2\FIRMWA~1\LEOENC~1\ARDUIN~1\ARDUIN~1\ARDUIN~1\Debug\libArduinoCore.a(RHGenericDriver.o)
 .debug_aranges
                0x000008a0       0x68 C:\Users\Jose\DOCUME~1\rkt\rpk2\FIRMWA~1\LEOENC~1\ARDUIN~1\ARDUIN~1\ARDUIN~1\Debug\libArduinoCore.a(RHHardwareSPI.o)
 .debug_aranges
                0x00000908      0x100 C:\Users\Jose\DOCUME~1\rkt\rpk2\FIRMWA~1\LEOENC~1\ARDUIN~1\ARDUIN~1\ARDUIN~1\Debug\libArduinoCore.a(RH_RF69.o)
 .debug_aranges
                0x00000a08       0x38 C:\Users\Jose\DOCUME~1\rkt\rpk2\FIRMWA~1\LEOENC~1\ARDUIN~1\ARDUIN~1\ARDUIN~1\Debug\libArduinoCore.a(SPI.o)
 .debug_aranges
                0x00000a40       0x20 C:\Users\Jose\DOCUME~1\rkt\rpk2\FIRMWA~1\LEOENC~1\ARDUIN~1\ARDUIN~1\ARDUIN~1\Debug\libArduinoCore.a(abi.o)
 .debug_aranges
                0x00000a60       0x20 C:\Users\Jose\DOCUME~1\rkt\rpk2\FIRMWA~1\LEOENC~1\ARDUIN~1\ARDUIN~1\ARDUIN~1\Debug\libArduinoCore.a(hooks.o)
 .debug_aranges
                0x00000a80       0x50 C:\Users\Jose\DOCUME~1\rkt\rpk2\FIRMWA~1\LEOENC~1\ARDUIN~1\ARDUIN~1\ARDUIN~1\Debug\libArduinoCore.a(PluggableUSB.o)
 .debug_aranges
                0x00000ad0       0x58 C:\Users\Jose\DOCUME~1\rkt\rpk2\FIRMWA~1\LEOENC~1\ARDUIN~1\ARDUIN~1\ARDUIN~1\Debug\libArduinoCore.a(WInterrupts.o)
 .debug_aranges
                0x00000b28       0x48 C:\Users\Jose\DOCUME~1\rkt\rpk2\FIRMWA~1\LEOENC~1\ARDUIN~1\ARDUIN~1\ARDUIN~1\Debug\libArduinoCore.a(WMath.o)
 .debug_aranges
                0x00000b70       0x60 C:\Users\Jose\DOCUME~1\rkt\rpk2\FIRMWA~1\LEOENC~1\ARDUIN~1\ARDUIN~1\ARDUIN~1\Debug\libArduinoCore.a(RHGenericSPI.o)
 .debug_aranges
                0x00000bd0       0x58 C:\Users\Jose\DOCUME~1\rkt\rpk2\FIRMWA~1\LEOENC~1\ARDUIN~1\ARDUIN~1\ARDUIN~1\Debug\libArduinoCore.a(RHSPIDriver.o)

.debug_pubnames
 *(.debug_pubnames)

.debug_info     0x00000000    0x1a440
 *(.debug_info .gnu.linkonce.wi.*)
 .debug_info    0x00000000      0x9f4 C:/Program Files (x86)/Atmel/Studio/7.0/Packs/Atmel/ATmega_DFP/1.7.374/gcc/dev/atmega32u4/avr5/crtatmega32u4.o
 .debug_info    0x000009f4     0x22d9 Sketch.o
 .debug_info    0x00002ccd     0x29f0 C:\Users\Jose\DOCUME~1\rkt\rpk2\FIRMWA~1\LEOENC~1\ARDUIN~1\ARDUIN~1\ARDUIN~1\Debug\libArduinoCore.a(CDC.o)
 .debug_info    0x000056bd     0x1f92 C:\Users\Jose\DOCUME~1\rkt\rpk2\FIRMWA~1\LEOENC~1\ARDUIN~1\ARDUIN~1\ARDUIN~1\Debug\libArduinoCore.a(HardwareSerial.o)
 .debug_info    0x0000764f     0x1b44 C:\Users\Jose\DOCUME~1\rkt\rpk2\FIRMWA~1\LEOENC~1\ARDUIN~1\ARDUIN~1\ARDUIN~1\Debug\libArduinoCore.a(HardwareSerial1.o)
 .debug_info    0x00009193      0x35a C:\Users\Jose\DOCUME~1\rkt\rpk2\FIRMWA~1\LEOENC~1\ARDUIN~1\ARDUIN~1\ARDUIN~1\Debug\libArduinoCore.a(main.o)
 .debug_info    0x000094ed     0x292d C:\Users\Jose\DOCUME~1\rkt\rpk2\FIRMWA~1\LEOENC~1\ARDUIN~1\ARDUIN~1\ARDUIN~1\Debug\libArduinoCore.a(Print.o)
 .debug_info    0x0000be1a     0x21f7 C:\Users\Jose\DOCUME~1\rkt\rpk2\FIRMWA~1\LEOENC~1\ARDUIN~1\ARDUIN~1\ARDUIN~1\Debug\libArduinoCore.a(Stream.o)
 .debug_info    0x0000e011     0x1a3a C:\Users\Jose\DOCUME~1\rkt\rpk2\FIRMWA~1\LEOENC~1\ARDUIN~1\ARDUIN~1\ARDUIN~1\Debug\libArduinoCore.a(USBCore.o)
 .debug_info    0x0000fa4b      0x2f9 C:\Users\Jose\DOCUME~1\rkt\rpk2\FIRMWA~1\LEOENC~1\ARDUIN~1\ARDUIN~1\ARDUIN~1\Debug\libArduinoCore.a(wiring.o)
 .debug_info    0x0000fd44      0x633 C:\Users\Jose\DOCUME~1\rkt\rpk2\FIRMWA~1\LEOENC~1\ARDUIN~1\ARDUIN~1\ARDUIN~1\Debug\libArduinoCore.a(wiring_digital.o)
 .debug_info    0x00010377     0x4338 C:\Users\Jose\DOCUME~1\rkt\rpk2\FIRMWA~1\LEOENC~1\ARDUIN~1\ARDUIN~1\ARDUIN~1\Debug\libArduinoCore.a(WString.o)
 .debug_info    0x000146af     0x1038 C:\Users\Jose\DOCUME~1\rkt\rpk2\FIRMWA~1\LEOENC~1\ARDUIN~1\ARDUIN~1\ARDUIN~1\Debug\libArduinoCore.a(RHGenericDriver.o)
 .debug_info    0x000156e7      0xc1f C:\Users\Jose\DOCUME~1\rkt\rpk2\FIRMWA~1\LEOENC~1\ARDUIN~1\ARDUIN~1\ARDUIN~1\Debug\libArduinoCore.a(RHHardwareSPI.o)
 .debug_info    0x00016306     0x1db3 C:\Users\Jose\DOCUME~1\rkt\rpk2\FIRMWA~1\LEOENC~1\ARDUIN~1\ARDUIN~1\ARDUIN~1\Debug\libArduinoCore.a(RH_RF69.o)
 .debug_info    0x000180b9      0x699 C:\Users\Jose\DOCUME~1\rkt\rpk2\FIRMWA~1\LEOENC~1\ARDUIN~1\ARDUIN~1\ARDUIN~1\Debug\libArduinoCore.a(SPI.o)
 .debug_info    0x00018752       0x76 C:\Users\Jose\DOCUME~1\rkt\rpk2\FIRMWA~1\LEOENC~1\ARDUIN~1\ARDUIN~1\ARDUIN~1\Debug\libArduinoCore.a(abi.o)
 .debug_info    0x000187c8       0x3e C:\Users\Jose\DOCUME~1\rkt\rpk2\FIRMWA~1\LEOENC~1\ARDUIN~1\ARDUIN~1\ARDUIN~1\Debug\libArduinoCore.a(hooks.o)
 .debug_info    0x00018806      0x79f C:\Users\Jose\DOCUME~1\rkt\rpk2\FIRMWA~1\LEOENC~1\ARDUIN~1\ARDUIN~1\ARDUIN~1\Debug\libArduinoCore.a(PluggableUSB.o)
 .debug_info    0x00018fa5      0x28c C:\Users\Jose\DOCUME~1\rkt\rpk2\FIRMWA~1\LEOENC~1\ARDUIN~1\ARDUIN~1\ARDUIN~1\Debug\libArduinoCore.a(WInterrupts.o)
 .debug_info    0x00019231      0x230 C:\Users\Jose\DOCUME~1\rkt\rpk2\FIRMWA~1\LEOENC~1\ARDUIN~1\ARDUIN~1\ARDUIN~1\Debug\libArduinoCore.a(WMath.o)
 .debug_info    0x00019461      0x6c4 C:\Users\Jose\DOCUME~1\rkt\rpk2\FIRMWA~1\LEOENC~1\ARDUIN~1\ARDUIN~1\ARDUIN~1\Debug\libArduinoCore.a(RHGenericSPI.o)
 .debug_info    0x00019b25      0x91b C:\Users\Jose\DOCUME~1\rkt\rpk2\FIRMWA~1\LEOENC~1\ARDUIN~1\ARDUIN~1\ARDUIN~1\Debug\libArduinoCore.a(RHSPIDriver.o)

.debug_abbrev   0x00000000     0x4eb9
 *(.debug_abbrev)
 .debug_abbrev  0x00000000      0x96a C:/Program Files (x86)/Atmel/Studio/7.0/Packs/Atmel/ATmega_DFP/1.7.374/gcc/dev/atmega32u4/avr5/crtatmega32u4.o
 .debug_abbrev  0x0000096a      0x4d3 Sketch.o
 .debug_abbrev  0x00000e3d      0x602 C:\Users\Jose\DOCUME~1\rkt\rpk2\FIRMWA~1\LEOENC~1\ARDUIN~1\ARDUIN~1\ARDUIN~1\Debug\libArduinoCore.a(CDC.o)
 .debug_abbrev  0x0000143f      0x4b7 C:\Users\Jose\DOCUME~1\rkt\rpk2\FIRMWA~1\LEOENC~1\ARDUIN~1\ARDUIN~1\ARDUIN~1\Debug\libArduinoCore.a(HardwareSerial.o)
 .debug_abbrev  0x000018f6      0x3ce C:\Users\Jose\DOCUME~1\rkt\rpk2\FIRMWA~1\LEOENC~1\ARDUIN~1\ARDUIN~1\ARDUIN~1\Debug\libArduinoCore.a(HardwareSerial1.o)
 .debug_abbrev  0x00001cc4      0x19a C:\Users\Jose\DOCUME~1\rkt\rpk2\FIRMWA~1\LEOENC~1\ARDUIN~1\ARDUIN~1\ARDUIN~1\Debug\libArduinoCore.a(main.o)
 .debug_abbrev  0x00001e5e      0x47a C:\Users\Jose\DOCUME~1\rkt\rpk2\FIRMWA~1\LEOENC~1\ARDUIN~1\ARDUIN~1\ARDUIN~1\Debug\libArduinoCore.a(Print.o)
 .debug_abbrev  0x000022d8      0x48c C:\Users\Jose\DOCUME~1\rkt\rpk2\FIRMWA~1\LEOENC~1\ARDUIN~1\ARDUIN~1\ARDUIN~1\Debug\libArduinoCore.a(Stream.o)
 .debug_abbrev  0x00002764      0x5e0 C:\Users\Jose\DOCUME~1\rkt\rpk2\FIRMWA~1\LEOENC~1\ARDUIN~1\ARDUIN~1\ARDUIN~1\Debug\libArduinoCore.a(USBCore.o)
 .debug_abbrev  0x00002d44      0x146 C:\Users\Jose\DOCUME~1\rkt\rpk2\FIRMWA~1\LEOENC~1\ARDUIN~1\ARDUIN~1\ARDUIN~1\Debug\libArduinoCore.a(wiring.o)
 .debug_abbrev  0x00002e8a      0x15a C:\Users\Jose\DOCUME~1\rkt\rpk2\FIRMWA~1\LEOENC~1\ARDUIN~1\ARDUIN~1\ARDUIN~1\Debug\libArduinoCore.a(wiring_digital.o)
 .debug_abbrev  0x00002fe4      0x4c2 C:\Users\Jose\DOCUME~1\rkt\rpk2\FIRMWA~1\LEOENC~1\ARDUIN~1\ARDUIN~1\ARDUIN~1\Debug\libArduinoCore.a(WString.o)
 .debug_abbrev  0x000034a6      0x36b C:\Users\Jose\DOCUME~1\rkt\rpk2\FIRMWA~1\LEOENC~1\ARDUIN~1\ARDUIN~1\ARDUIN~1\Debug\libArduinoCore.a(RHGenericDriver.o)
 .debug_abbrev  0x00003811      0x44b C:\Users\Jose\DOCUME~1\rkt\rpk2\FIRMWA~1\LEOENC~1\ARDUIN~1\ARDUIN~1\ARDUIN~1\Debug\libArduinoCore.a(RHHardwareSPI.o)
 .debug_abbrev  0x00003c5c      0x572 C:\Users\Jose\DOCUME~1\rkt\rpk2\FIRMWA~1\LEOENC~1\ARDUIN~1\ARDUIN~1\ARDUIN~1\Debug\libArduinoCore.a(RH_RF69.o)
 .debug_abbrev  0x000041ce      0x283 C:\Users\Jose\DOCUME~1\rkt\rpk2\FIRMWA~1\LEOENC~1\ARDUIN~1\ARDUIN~1\ARDUIN~1\Debug\libArduinoCore.a(SPI.o)
 .debug_abbrev  0x00004451       0x6d C:\Users\Jose\DOCUME~1\rkt\rpk2\FIRMWA~1\LEOENC~1\ARDUIN~1\ARDUIN~1\ARDUIN~1\Debug\libArduinoCore.a(abi.o)
 .debug_abbrev  0x000044be       0x2a C:\Users\Jose\DOCUME~1\rkt\rpk2\FIRMWA~1\LEOENC~1\ARDUIN~1\ARDUIN~1\ARDUIN~1\Debug\libArduinoCore.a(hooks.o)
 .debug_abbrev  0x000044e8      0x2c5 C:\Users\Jose\DOCUME~1\rkt\rpk2\FIRMWA~1\LEOENC~1\ARDUIN~1\ARDUIN~1\ARDUIN~1\Debug\libArduinoCore.a(PluggableUSB.o)
 .debug_abbrev  0x000047ad       0xed C:\Users\Jose\DOCUME~1\rkt\rpk2\FIRMWA~1\LEOENC~1\ARDUIN~1\ARDUIN~1\ARDUIN~1\Debug\libArduinoCore.a(WInterrupts.o)
 .debug_abbrev  0x0000489a      0x12b C:\Users\Jose\DOCUME~1\rkt\rpk2\FIRMWA~1\LEOENC~1\ARDUIN~1\ARDUIN~1\ARDUIN~1\Debug\libArduinoCore.a(WMath.o)
 .debug_abbrev  0x000049c5      0x213 C:\Users\Jose\DOCUME~1\rkt\rpk2\FIRMWA~1\LEOENC~1\ARDUIN~1\ARDUIN~1\ARDUIN~1\Debug\libArduinoCore.a(RHGenericSPI.o)
 .debug_abbrev  0x00004bd8      0x2e1 C:\Users\Jose\DOCUME~1\rkt\rpk2\FIRMWA~1\LEOENC~1\ARDUIN~1\ARDUIN~1\ARDUIN~1\Debug\libArduinoCore.a(RHSPIDriver.o)

.debug_line     0x00000000     0x67ed
 *(.debug_line .debug_line.* .debug_line_end)
 .debug_line    0x00000000      0x19a C:/Program Files (x86)/Atmel/Studio/7.0/Packs/Atmel/ATmega_DFP/1.7.374/gcc/dev/atmega32u4/avr5/crtatmega32u4.o
 .debug_line    0x0000019a      0x484 Sketch.o
 .debug_line    0x0000061e      0x68b C:\Users\Jose\DOCUME~1\rkt\rpk2\FIRMWA~1\LEOENC~1\ARDUIN~1\ARDUIN~1\ARDUIN~1\Debug\libArduinoCore.a(CDC.o)
 .debug_line    0x00000ca9      0x4c4 C:\Users\Jose\DOCUME~1\rkt\rpk2\FIRMWA~1\LEOENC~1\ARDUIN~1\ARDUIN~1\ARDUIN~1\Debug\libArduinoCore.a(HardwareSerial.o)
 .debug_line    0x0000116d      0x28c C:\Users\Jose\DOCUME~1\rkt\rpk2\FIRMWA~1\LEOENC~1\ARDUIN~1\ARDUIN~1\ARDUIN~1\Debug\libArduinoCore.a(HardwareSerial1.o)
 .debug_line    0x000013f9      0x177 C:\Users\Jose\DOCUME~1\rkt\rpk2\FIRMWA~1\LEOENC~1\ARDUIN~1\ARDUIN~1\ARDUIN~1\Debug\libArduinoCore.a(main.o)
 .debug_line    0x00001570      0x685 C:\Users\Jose\DOCUME~1\rkt\rpk2\FIRMWA~1\LEOENC~1\ARDUIN~1\ARDUIN~1\ARDUIN~1\Debug\libArduinoCore.a(Print.o)
 .debug_line    0x00001bf5      0x5f7 C:\Users\Jose\DOCUME~1\rkt\rpk2\FIRMWA~1\LEOENC~1\ARDUIN~1\ARDUIN~1\ARDUIN~1\Debug\libArduinoCore.a(Stream.o)
 .debug_line    0x000021ec      0x9e7 C:\Users\Jose\DOCUME~1\rkt\rpk2\FIRMWA~1\LEOENC~1\ARDUIN~1\ARDUIN~1\ARDUIN~1\Debug\libArduinoCore.a(USBCore.o)
 .debug_line    0x00002bd3      0x2bd C:\Users\Jose\DOCUME~1\rkt\rpk2\FIRMWA~1\LEOENC~1\ARDUIN~1\ARDUIN~1\ARDUIN~1\Debug\libArduinoCore.a(wiring.o)
 .debug_line    0x00002e90      0x26a C:\Users\Jose\DOCUME~1\rkt\rpk2\FIRMWA~1\LEOENC~1\ARDUIN~1\ARDUIN~1\ARDUIN~1\Debug\libArduinoCore.a(wiring_digital.o)
 .debug_line    0x000030fa     0x1360 C:\Users\Jose\DOCUME~1\rkt\rpk2\FIRMWA~1\LEOENC~1\ARDUIN~1\ARDUIN~1\ARDUIN~1\Debug\libArduinoCore.a(WString.o)
 .debug_line    0x0000445a      0x533 C:\Users\Jose\DOCUME~1\rkt\rpk2\FIRMWA~1\LEOENC~1\ARDUIN~1\ARDUIN~1\ARDUIN~1\Debug\libArduinoCore.a(RHGenericDriver.o)
 .debug_line    0x0000498d      0x3ed C:\Users\Jose\DOCUME~1\rkt\rpk2\FIRMWA~1\LEOENC~1\ARDUIN~1\ARDUIN~1\ARDUIN~1\Debug\libArduinoCore.a(RHHardwareSPI.o)
 .debug_line    0x00004d7a      0xaa0 C:\Users\Jose\DOCUME~1\rkt\rpk2\FIRMWA~1\LEOENC~1\ARDUIN~1\ARDUIN~1\ARDUIN~1\Debug\libArduinoCore.a(RH_RF69.o)
 .debug_line    0x0000581a      0x2e3 C:\Users\Jose\DOCUME~1\rkt\rpk2\FIRMWA~1\LEOENC~1\ARDUIN~1\ARDUIN~1\ARDUIN~1\Debug\libArduinoCore.a(SPI.o)
 .debug_line    0x00005afd       0xa9 C:\Users\Jose\DOCUME~1\rkt\rpk2\FIRMWA~1\LEOENC~1\ARDUIN~1\ARDUIN~1\ARDUIN~1\Debug\libArduinoCore.a(abi.o)
 .debug_line    0x00005ba6       0x41 C:\Users\Jose\DOCUME~1\rkt\rpk2\FIRMWA~1\LEOENC~1\ARDUIN~1\ARDUIN~1\ARDUIN~1\Debug\libArduinoCore.a(hooks.o)
 .debug_line    0x00005be7      0x2de C:\Users\Jose\DOCUME~1\rkt\rpk2\FIRMWA~1\LEOENC~1\ARDUIN~1\ARDUIN~1\ARDUIN~1\Debug\libArduinoCore.a(PluggableUSB.o)
 .debug_line    0x00005ec5      0x240 C:\Users\Jose\DOCUME~1\rkt\rpk2\FIRMWA~1\LEOENC~1\ARDUIN~1\ARDUIN~1\ARDUIN~1\Debug\libArduinoCore.a(WInterrupts.o)
 .debug_line    0x00006105      0x143 C:\Users\Jose\DOCUME~1\rkt\rpk2\FIRMWA~1\LEOENC~1\ARDUIN~1\ARDUIN~1\ARDUIN~1\Debug\libArduinoCore.a(WMath.o)
 .debug_line    0x00006248      0x1da C:\Users\Jose\DOCUME~1\rkt\rpk2\FIRMWA~1\LEOENC~1\ARDUIN~1\ARDUIN~1\ARDUIN~1\Debug\libArduinoCore.a(RHGenericSPI.o)
 .debug_line    0x00006422      0x3cb C:\Users\Jose\DOCUME~1\rkt\rpk2\FIRMWA~1\LEOENC~1\ARDUIN~1\ARDUIN~1\ARDUIN~1\Debug\libArduinoCore.a(RHSPIDriver.o)

.debug_frame    0x00000000     0x2860
 *(.debug_frame)
 .debug_frame   0x00000000       0xf4 Sketch.o
 .debug_frame   0x000000f4      0x1d8 C:\Users\Jose\DOCUME~1\rkt\rpk2\FIRMWA~1\LEOENC~1\ARDUIN~1\ARDUIN~1\ARDUIN~1\Debug\libArduinoCore.a(CDC.o)
 .debug_frame   0x000002cc      0x110 C:\Users\Jose\DOCUME~1\rkt\rpk2\FIRMWA~1\LEOENC~1\ARDUIN~1\ARDUIN~1\ARDUIN~1\Debug\libArduinoCore.a(HardwareSerial.o)
 .debug_frame   0x000003dc       0xe0 C:\Users\Jose\DOCUME~1\rkt\rpk2\FIRMWA~1\LEOENC~1\ARDUIN~1\ARDUIN~1\ARDUIN~1\Debug\libArduinoCore.a(HardwareSerial1.o)
 .debug_frame   0x000004bc       0x54 C:\Users\Jose\DOCUME~1\rkt\rpk2\FIRMWA~1\LEOENC~1\ARDUIN~1\ARDUIN~1\ARDUIN~1\Debug\libArduinoCore.a(main.o)
 .debug_frame   0x00000510      0x3ac C:\Users\Jose\DOCUME~1\rkt\rpk2\FIRMWA~1\LEOENC~1\ARDUIN~1\ARDUIN~1\ARDUIN~1\Debug\libArduinoCore.a(Print.o)
 .debug_frame   0x000008bc      0x2e4 C:\Users\Jose\DOCUME~1\rkt\rpk2\FIRMWA~1\LEOENC~1\ARDUIN~1\ARDUIN~1\ARDUIN~1\Debug\libArduinoCore.a(Stream.o)
 .debug_frame   0x00000ba0      0x3ac C:\Users\Jose\DOCUME~1\rkt\rpk2\FIRMWA~1\LEOENC~1\ARDUIN~1\ARDUIN~1\ARDUIN~1\Debug\libArduinoCore.a(USBCore.o)
 .debug_frame   0x00000f4c       0xc4 C:\Users\Jose\DOCUME~1\rkt\rpk2\FIRMWA~1\LEOENC~1\ARDUIN~1\ARDUIN~1\ARDUIN~1\Debug\libArduinoCore.a(wiring.o)
 .debug_frame   0x00001010       0x7c C:\Users\Jose\DOCUME~1\rkt\rpk2\FIRMWA~1\LEOENC~1\ARDUIN~1\ARDUIN~1\ARDUIN~1\Debug\libArduinoCore.a(wiring_digital.o)
 .debug_frame   0x0000108c      0xa60 C:\Users\Jose\DOCUME~1\rkt\rpk2\FIRMWA~1\LEOENC~1\ARDUIN~1\ARDUIN~1\ARDUIN~1\Debug\libArduinoCore.a(WString.o)
 .debug_frame   0x00001aec      0x270 C:\Users\Jose\DOCUME~1\rkt\rpk2\FIRMWA~1\LEOENC~1\ARDUIN~1\ARDUIN~1\ARDUIN~1\Debug\libArduinoCore.a(RHGenericDriver.o)
 .debug_frame   0x00001d5c       0xcc C:\Users\Jose\DOCUME~1\rkt\rpk2\FIRMWA~1\LEOENC~1\ARDUIN~1\ARDUIN~1\ARDUIN~1\Debug\libArduinoCore.a(RHHardwareSPI.o)
 .debug_frame   0x00001e28      0x3b8 C:\Users\Jose\DOCUME~1\rkt\rpk2\FIRMWA~1\LEOENC~1\ARDUIN~1\ARDUIN~1\ARDUIN~1\Debug\libArduinoCore.a(RH_RF69.o)
 .debug_frame   0x000021e0       0x5c C:\Users\Jose\DOCUME~1\rkt\rpk2\FIRMWA~1\LEOENC~1\ARDUIN~1\ARDUIN~1\ARDUIN~1\Debug\libArduinoCore.a(SPI.o)
 .debug_frame   0x0000223c       0x34 C:\Users\Jose\DOCUME~1\rkt\rpk2\FIRMWA~1\LEOENC~1\ARDUIN~1\ARDUIN~1\ARDUIN~1\Debug\libArduinoCore.a(abi.o)
 .debug_frame   0x00002270       0x24 C:\Users\Jose\DOCUME~1\rkt\rpk2\FIRMWA~1\LEOENC~1\ARDUIN~1\ARDUIN~1\ARDUIN~1\Debug\libArduinoCore.a(hooks.o)
 .debug_frame   0x00002294       0xec C:\Users\Jose\DOCUME~1\rkt\rpk2\FIRMWA~1\LEOENC~1\ARDUIN~1\ARDUIN~1\ARDUIN~1\Debug\libArduinoCore.a(PluggableUSB.o)
 .debug_frame   0x00002380      0x1fc C:\Users\Jose\DOCUME~1\rkt\rpk2\FIRMWA~1\LEOENC~1\ARDUIN~1\ARDUIN~1\ARDUIN~1\Debug\libArduinoCore.a(WInterrupts.o)
 .debug_frame   0x0000257c       0xf4 C:\Users\Jose\DOCUME~1\rkt\rpk2\FIRMWA~1\LEOENC~1\ARDUIN~1\ARDUIN~1\ARDUIN~1\Debug\libArduinoCore.a(WMath.o)
 .debug_frame   0x00002670       0xa4 C:\Users\Jose\DOCUME~1\rkt\rpk2\FIRMWA~1\LEOENC~1\ARDUIN~1\ARDUIN~1\ARDUIN~1\Debug\libArduinoCore.a(RHGenericSPI.o)
 .debug_frame   0x00002714      0x14c C:\Users\Jose\DOCUME~1\rkt\rpk2\FIRMWA~1\LEOENC~1\ARDUIN~1\ARDUIN~1\ARDUIN~1\Debug\libArduinoCore.a(RHSPIDriver.o)

.debug_str      0x00000000     0x4faf
 *(.debug_str)
 .debug_str     0x00000000      0x371 C:/Program Files (x86)/Atmel/Studio/7.0/Packs/Atmel/ATmega_DFP/1.7.374/gcc/dev/atmega32u4/avr5/crtatmega32u4.o
 .debug_str     0x00000371     0x1504 Sketch.o
                               0x15fe (size before relaxing)
 .debug_str     0x00001875      0x761 C:\Users\Jose\DOCUME~1\rkt\rpk2\FIRMWA~1\LEOENC~1\ARDUIN~1\ARDUIN~1\ARDUIN~1\Debug\libArduinoCore.a(CDC.o)
                               0x1a3a (size before relaxing)
 .debug_str     0x00001fd6      0x323 C:\Users\Jose\DOCUME~1\rkt\rpk2\FIRMWA~1\LEOENC~1\ARDUIN~1\ARDUIN~1\ARDUIN~1\Debug\libArduinoCore.a(HardwareSerial.o)
                               0x1628 (size before relaxing)
 .debug_str     0x000022f9       0x47 C:\Users\Jose\DOCUME~1\rkt\rpk2\FIRMWA~1\LEOENC~1\ARDUIN~1\ARDUIN~1\ARDUIN~1\Debug\libArduinoCore.a(HardwareSerial1.o)
                               0x141a (size before relaxing)
 .debug_str     0x00002340      0x139 C:\Users\Jose\DOCUME~1\rkt\rpk2\FIRMWA~1\LEOENC~1\ARDUIN~1\ARDUIN~1\ARDUIN~1\Debug\libArduinoCore.a(main.o)
                                0x3c7 (size before relaxing)
 .debug_str     0x00002479      0x307 C:\Users\Jose\DOCUME~1\rkt\rpk2\FIRMWA~1\LEOENC~1\ARDUIN~1\ARDUIN~1\ARDUIN~1\Debug\libArduinoCore.a(Print.o)
                               0x1253 (size before relaxing)
 .debug_str     0x00002780       0x90 C:\Users\Jose\DOCUME~1\rkt\rpk2\FIRMWA~1\LEOENC~1\ARDUIN~1\ARDUIN~1\ARDUIN~1\Debug\libArduinoCore.a(Stream.o)
                               0x12b1 (size before relaxing)
 .debug_str     0x00002810      0x693 C:\Users\Jose\DOCUME~1\rkt\rpk2\FIRMWA~1\LEOENC~1\ARDUIN~1\ARDUIN~1\ARDUIN~1\Debug\libArduinoCore.a(USBCore.o)
                                0xc87 (size before relaxing)
 .debug_str     0x00002ea3      0x153 C:\Users\Jose\DOCUME~1\rkt\rpk2\FIRMWA~1\LEOENC~1\ARDUIN~1\ARDUIN~1\ARDUIN~1\Debug\libArduinoCore.a(wiring.o)
                                0x25b (size before relaxing)
 .debug_str     0x00002ff6       0xdc C:\Users\Jose\DOCUME~1\rkt\rpk2\FIRMWA~1\LEOENC~1\ARDUIN~1\ARDUIN~1\ARDUIN~1\Debug\libArduinoCore.a(wiring_digital.o)
                                0x2da (size before relaxing)
 .debug_str     0x000030d2      0x3e6 C:\Users\Jose\DOCUME~1\rkt\rpk2\FIRMWA~1\LEOENC~1\ARDUIN~1\ARDUIN~1\ARDUIN~1\Debug\libArduinoCore.a(WString.o)
                               0x11a6 (size before relaxing)
 .debug_str     0x000034b8      0x6cf C:\Users\Jose\DOCUME~1\rkt\rpk2\FIRMWA~1\LEOENC~1\ARDUIN~1\ARDUIN~1\ARDUIN~1\Debug\libArduinoCore.a(RHGenericDriver.o)
                                0xac0 (size before relaxing)
 .debug_str     0x00003b87      0x651 C:\Users\Jose\DOCUME~1\rkt\rpk2\FIRMWA~1\LEOENC~1\ARDUIN~1\ARDUIN~1\ARDUIN~1\Debug\libArduinoCore.a(RHHardwareSPI.o)
                                0x993 (size before relaxing)
 .debug_str     0x000041d8      0x7b4 C:\Users\Jose\DOCUME~1\rkt\rpk2\FIRMWA~1\LEOENC~1\ARDUIN~1\ARDUIN~1\ARDUIN~1\Debug\libArduinoCore.a(RH_RF69.o)
                                0xe26 (size before relaxing)
 .debug_str     0x0000498c       0x94 C:\Users\Jose\DOCUME~1\rkt\rpk2\FIRMWA~1\LEOENC~1\ARDUIN~1\ARDUIN~1\ARDUIN~1\Debug\libArduinoCore.a(SPI.o)
                                0x6be (size before relaxing)
 .debug_str     0x00004a20       0x30 C:\Users\Jose\DOCUME~1\rkt\rpk2\FIRMWA~1\LEOENC~1\ARDUIN~1\ARDUIN~1\ARDUIN~1\Debug\libArduinoCore.a(abi.o)
                                0x1af (size before relaxing)
 .debug_str     0x00004a50       0x1c C:\Users\Jose\DOCUME~1\rkt\rpk2\FIRMWA~1\LEOENC~1\ARDUIN~1\ARDUIN~1\ARDUIN~1\Debug\libArduinoCore.a(hooks.o)
                                0x150 (size before relaxing)
 .debug_str     0x00004a6c       0x4c C:\Users\Jose\DOCUME~1\rkt\rpk2\FIRMWA~1\LEOENC~1\ARDUIN~1\ARDUIN~1\ARDUIN~1\Debug\libArduinoCore.a(PluggableUSB.o)
                                0x5cc (size before relaxing)
 .debug_str     0x00004ab8       0x83 C:\Users\Jose\DOCUME~1\rkt\rpk2\FIRMWA~1\LEOENC~1\ARDUIN~1\ARDUIN~1\ARDUIN~1\Debug\libArduinoCore.a(WInterrupts.o)
                                0x269 (size before relaxing)
 .debug_str     0x00004b3b       0xa7 C:\Users\Jose\DOCUME~1\rkt\rpk2\FIRMWA~1\LEOENC~1\ARDUIN~1\ARDUIN~1\ARDUIN~1\Debug\libArduinoCore.a(WMath.o)
                                0x25e (size before relaxing)
 .debug_str     0x00004be2      0x299 C:\Users\Jose\DOCUME~1\rkt\rpk2\FIRMWA~1\LEOENC~1\ARDUIN~1\ARDUIN~1\ARDUIN~1\Debug\libArduinoCore.a(RHGenericSPI.o)
                                0x6c1 (size before relaxing)
 .debug_str     0x00004e7b      0x134 C:\Users\Jose\DOCUME~1\rkt\rpk2\FIRMWA~1\LEOENC~1\ARDUIN~1\ARDUIN~1\ARDUIN~1\Debug\libArduinoCore.a(RHSPIDriver.o)
                                0x512 (size before relaxing)

.debug_loc      0x00000000     0xd56a
 *(.debug_loc)
 .debug_loc     0x00000000      0x2c1 Sketch.o
 .debug_loc     0x000002c1      0x790 C:\Users\Jose\DOCUME~1\rkt\rpk2\FIRMWA~1\LEOENC~1\ARDUIN~1\ARDUIN~1\ARDUIN~1\Debug\libArduinoCore.a(CDC.o)
 .debug_loc     0x00000a51      0x4dc C:\Users\Jose\DOCUME~1\rkt\rpk2\FIRMWA~1\LEOENC~1\ARDUIN~1\ARDUIN~1\ARDUIN~1\Debug\libArduinoCore.a(HardwareSerial.o)
 .debug_loc     0x00000f2d      0x1b0 C:\Users\Jose\DOCUME~1\rkt\rpk2\FIRMWA~1\LEOENC~1\ARDUIN~1\ARDUIN~1\ARDUIN~1\Debug\libArduinoCore.a(HardwareSerial1.o)
 .debug_loc     0x000010dd     0x1c87 C:\Users\Jose\DOCUME~1\rkt\rpk2\FIRMWA~1\LEOENC~1\ARDUIN~1\ARDUIN~1\ARDUIN~1\Debug\libArduinoCore.a(Print.o)
 .debug_loc     0x00002d64     0x143b C:\Users\Jose\DOCUME~1\rkt\rpk2\FIRMWA~1\LEOENC~1\ARDUIN~1\ARDUIN~1\ARDUIN~1\Debug\libArduinoCore.a(Stream.o)
 .debug_loc     0x0000419f     0x1277 C:\Users\Jose\DOCUME~1\rkt\rpk2\FIRMWA~1\LEOENC~1\ARDUIN~1\ARDUIN~1\ARDUIN~1\Debug\libArduinoCore.a(USBCore.o)
 .debug_loc     0x00005416      0x28d C:\Users\Jose\DOCUME~1\rkt\rpk2\FIRMWA~1\LEOENC~1\ARDUIN~1\ARDUIN~1\ARDUIN~1\Debug\libArduinoCore.a(wiring.o)
 .debug_loc     0x000056a3      0x665 C:\Users\Jose\DOCUME~1\rkt\rpk2\FIRMWA~1\LEOENC~1\ARDUIN~1\ARDUIN~1\ARDUIN~1\Debug\libArduinoCore.a(wiring_digital.o)
 .debug_loc     0x00005d08     0x423d C:\Users\Jose\DOCUME~1\rkt\rpk2\FIRMWA~1\LEOENC~1\ARDUIN~1\ARDUIN~1\ARDUIN~1\Debug\libArduinoCore.a(WString.o)
 .debug_loc     0x00009f45      0x758 C:\Users\Jose\DOCUME~1\rkt\rpk2\FIRMWA~1\LEOENC~1\ARDUIN~1\ARDUIN~1\ARDUIN~1\Debug\libArduinoCore.a(RHGenericDriver.o)
 .debug_loc     0x0000a69d      0x398 C:\Users\Jose\DOCUME~1\rkt\rpk2\FIRMWA~1\LEOENC~1\ARDUIN~1\ARDUIN~1\ARDUIN~1\Debug\libArduinoCore.a(RHHardwareSPI.o)
 .debug_loc     0x0000aa35     0x1361 C:\Users\Jose\DOCUME~1\rkt\rpk2\FIRMWA~1\LEOENC~1\ARDUIN~1\ARDUIN~1\ARDUIN~1\Debug\libArduinoCore.a(RH_RF69.o)
 .debug_loc     0x0000bd96      0x22f C:\Users\Jose\DOCUME~1\rkt\rpk2\FIRMWA~1\LEOENC~1\ARDUIN~1\ARDUIN~1\ARDUIN~1\Debug\libArduinoCore.a(SPI.o)
 .debug_loc     0x0000bfc5      0x445 C:\Users\Jose\DOCUME~1\rkt\rpk2\FIRMWA~1\LEOENC~1\ARDUIN~1\ARDUIN~1\ARDUIN~1\Debug\libArduinoCore.a(PluggableUSB.o)
 .debug_loc     0x0000c40a      0x57d C:\Users\Jose\DOCUME~1\rkt\rpk2\FIRMWA~1\LEOENC~1\ARDUIN~1\ARDUIN~1\ARDUIN~1\Debug\libArduinoCore.a(WInterrupts.o)
 .debug_loc     0x0000c987      0x3d6 C:\Users\Jose\DOCUME~1\rkt\rpk2\FIRMWA~1\LEOENC~1\ARDUIN~1\ARDUIN~1\ARDUIN~1\Debug\libArduinoCore.a(WMath.o)
 .debug_loc     0x0000cd5d       0x28 C:\Users\Jose\DOCUME~1\rkt\rpk2\FIRMWA~1\LEOENC~1\ARDUIN~1\ARDUIN~1\ARDUIN~1\Debug\libArduinoCore.a(RHGenericSPI.o)
 .debug_loc     0x0000cd85      0x7e5 C:\Users\Jose\DOCUME~1\rkt\rpk2\FIRMWA~1\LEOENC~1\ARDUIN~1\ARDUIN~1\ARDUIN~1\Debug\libArduinoCore.a(RHSPIDriver.o)

.debug_macinfo
 *(.debug_macinfo)

.debug_weaknames
 *(.debug_weaknames)

.debug_funcnames
 *(.debug_funcnames)

.debug_typenames
 *(.debug_typenames)

.debug_varnames
 *(.debug_varnames)

.debug_pubtypes
 *(.debug_pubtypes)

.debug_ranges   0x00000000      0xcf8
 *(.debug_ranges)
 .debug_ranges  0x00000000       0x40 Sketch.o
 .debug_ranges  0x00000040       0xe0 C:\Users\Jose\DOCUME~1\rkt\rpk2\FIRMWA~1\LEOENC~1\ARDUIN~1\ARDUIN~1\ARDUIN~1\Debug\libArduinoCore.a(CDC.o)
 .debug_ranges  0x00000120       0x58 C:\Users\Jose\DOCUME~1\rkt\rpk2\FIRMWA~1\LEOENC~1\ARDUIN~1\ARDUIN~1\ARDUIN~1\Debug\libArduinoCore.a(HardwareSerial.o)
 .debug_ranges  0x00000178       0x38 C:\Users\Jose\DOCUME~1\rkt\rpk2\FIRMWA~1\LEOENC~1\ARDUIN~1\ARDUIN~1\ARDUIN~1\Debug\libArduinoCore.a(HardwareSerial1.o)
 .debug_ranges  0x000001b0       0x20 C:\Users\Jose\DOCUME~1\rkt\rpk2\FIRMWA~1\LEOENC~1\ARDUIN~1\ARDUIN~1\ARDUIN~1\Debug\libArduinoCore.a(main.o)
 .debug_ranges  0x000001d0      0x120 C:\Users\Jose\DOCUME~1\rkt\rpk2\FIRMWA~1\LEOENC~1\ARDUIN~1\ARDUIN~1\ARDUIN~1\Debug\libArduinoCore.a(Print.o)
 .debug_ranges  0x000002f0       0xd0 C:\Users\Jose\DOCUME~1\rkt\rpk2\FIRMWA~1\LEOENC~1\ARDUIN~1\ARDUIN~1\ARDUIN~1\Debug\libArduinoCore.a(Stream.o)
 .debug_ranges  0x000003c0      0x1c0 C:\Users\Jose\DOCUME~1\rkt\rpk2\FIRMWA~1\LEOENC~1\ARDUIN~1\ARDUIN~1\ARDUIN~1\Debug\libArduinoCore.a(USBCore.o)
 .debug_ranges  0x00000580       0x38 C:\Users\Jose\DOCUME~1\rkt\rpk2\FIRMWA~1\LEOENC~1\ARDUIN~1\ARDUIN~1\ARDUIN~1\Debug\libArduinoCore.a(wiring.o)
 .debug_ranges  0x000005b8       0x28 C:\Users\Jose\DOCUME~1\rkt\rpk2\FIRMWA~1\LEOENC~1\ARDUIN~1\ARDUIN~1\ARDUIN~1\Debug\libArduinoCore.a(wiring_digital.o)
 .debug_ranges  0x000005e0      0x2f8 C:\Users\Jose\DOCUME~1\rkt\rpk2\FIRMWA~1\LEOENC~1\ARDUIN~1\ARDUIN~1\ARDUIN~1\Debug\libArduinoCore.a(WString.o)
 .debug_ranges  0x000008d8       0xf0 C:\Users\Jose\DOCUME~1\rkt\rpk2\FIRMWA~1\LEOENC~1\ARDUIN~1\ARDUIN~1\ARDUIN~1\Debug\libArduinoCore.a(RHGenericDriver.o)
 .debug_ranges  0x000009c8       0x58 C:\Users\Jose\DOCUME~1\rkt\rpk2\FIRMWA~1\LEOENC~1\ARDUIN~1\ARDUIN~1\ARDUIN~1\Debug\libArduinoCore.a(RHHardwareSPI.o)
 .debug_ranges  0x00000a20      0x120 C:\Users\Jose\DOCUME~1\rkt\rpk2\FIRMWA~1\LEOENC~1\ARDUIN~1\ARDUIN~1\ARDUIN~1\Debug\libArduinoCore.a(RH_RF69.o)
 .debug_ranges  0x00000b40       0x28 C:\Users\Jose\DOCUME~1\rkt\rpk2\FIRMWA~1\LEOENC~1\ARDUIN~1\ARDUIN~1\ARDUIN~1\Debug\libArduinoCore.a(SPI.o)
 .debug_ranges  0x00000b68       0x10 C:\Users\Jose\DOCUME~1\rkt\rpk2\FIRMWA~1\LEOENC~1\ARDUIN~1\ARDUIN~1\ARDUIN~1\Debug\libArduinoCore.a(abi.o)
 .debug_ranges  0x00000b78       0x10 C:\Users\Jose\DOCUME~1\rkt\rpk2\FIRMWA~1\LEOENC~1\ARDUIN~1\ARDUIN~1\ARDUIN~1\Debug\libArduinoCore.a(hooks.o)
 .debug_ranges  0x00000b88       0x58 C:\Users\Jose\DOCUME~1\rkt\rpk2\FIRMWA~1\LEOENC~1\ARDUIN~1\ARDUIN~1\ARDUIN~1\Debug\libArduinoCore.a(PluggableUSB.o)
 .debug_ranges  0x00000be0       0x48 C:\Users\Jose\DOCUME~1\rkt\rpk2\FIRMWA~1\LEOENC~1\ARDUIN~1\ARDUIN~1\ARDUIN~1\Debug\libArduinoCore.a(WInterrupts.o)
 .debug_ranges  0x00000c28       0x38 C:\Users\Jose\DOCUME~1\rkt\rpk2\FIRMWA~1\LEOENC~1\ARDUIN~1\ARDUIN~1\ARDUIN~1\Debug\libArduinoCore.a(WMath.o)
 .debug_ranges  0x00000c60       0x50 C:\Users\Jose\DOCUME~1\rkt\rpk2\FIRMWA~1\LEOENC~1\ARDUIN~1\ARDUIN~1\ARDUIN~1\Debug\libArduinoCore.a(RHGenericSPI.o)
 .debug_ranges  0x00000cb0       0x48 C:\Users\Jose\DOCUME~1\rkt\rpk2\FIRMWA~1\LEOENC~1\ARDUIN~1\ARDUIN~1\ARDUIN~1\Debug\libArduinoCore.a(RHSPIDriver.o)

.debug_macro
 *(.debug_macro)
OUTPUT(recver.elf elf32-avr)
LOAD linker stubs
