Archive member included to satisfy reference by file (symbol)

C:\Users\xia\Desktop\rpk2\firmwares\leorf\ArduinoSketch1\ArduinoSketch1\ArduinoCore\Debug\libArduinoCore.a(HardwareSerial.o)
                              Sketch.o (_ZN14HardwareSerial5beginEmh)
C:\Users\xia\Desktop\rpk2\firmwares\leorf\ArduinoSketch1\ArduinoSketch1\ArduinoCore\Debug\libArduinoCore.a(HardwareSerial1.o)
                              Sketch.o (Serial1)
C:\Users\xia\Desktop\rpk2\firmwares\leorf\ArduinoSketch1\ArduinoSketch1\ArduinoCore\Debug\libArduinoCore.a(main.o)
                              C:/Program Files (x86)/Atmel/Studio/7.0/Packs/Atmel/ATmega_DFP/1.7.374/gcc/dev/atmega32u4/avr5/crtatmega32u4.o (main)
C:\Users\xia\Desktop\rpk2\firmwares\leorf\ArduinoSketch1\ArduinoSketch1\ArduinoCore\Debug\libArduinoCore.a(Print.o)
                              C:\Users\xia\Desktop\rpk2\firmwares\leorf\ArduinoSketch1\ArduinoSketch1\ArduinoCore\Debug\libArduinoCore.a(HardwareSerial.o) (_ZN5Print5writeEPKhj)
C:\Users\xia\Desktop\rpk2\firmwares\leorf\ArduinoSketch1\ArduinoSketch1\ArduinoCore\Debug\libArduinoCore.a(USBCore.o)
                              C:\Users\xia\Desktop\rpk2\firmwares\leorf\ArduinoSketch1\ArduinoSketch1\ArduinoCore\Debug\libArduinoCore.a(main.o) (_ZN10USBDevice_6attachEv)
C:\Users\xia\Desktop\rpk2\firmwares\leorf\ArduinoSketch1\ArduinoSketch1\ArduinoCore\Debug\libArduinoCore.a(wiring.o)
                              Sketch.o (delay)
C:\Users\xia\Desktop\rpk2\firmwares\leorf\ArduinoSketch1\ArduinoSketch1\ArduinoCore\Debug\libArduinoCore.a(wiring_digital.o)
                              Sketch.o (pinMode)
C:\Users\xia\Desktop\rpk2\firmwares\leorf\ArduinoSketch1\ArduinoSketch1\ArduinoCore\Debug\libArduinoCore.a(RHGenericDriver.o)
                              Sketch.o (_ZN15RHGenericDriver8lastRssiEv)
C:\Users\xia\Desktop\rpk2\firmwares\leorf\ArduinoSketch1\ArduinoSketch1\ArduinoCore\Debug\libArduinoCore.a(RHHardwareSPI.o)
                              Sketch.o (hardware_spi)
C:\Users\xia\Desktop\rpk2\firmwares\leorf\ArduinoSketch1\ArduinoSketch1\ArduinoCore\Debug\libArduinoCore.a(RH_RF69.o)
                              Sketch.o (_ZN7RH_RF694recvEPhS0_)
C:\Users\xia\Desktop\rpk2\firmwares\leorf\ArduinoSketch1\ArduinoSketch1\ArduinoCore\Debug\libArduinoCore.a(SPI.o)
                              C:\Users\xia\Desktop\rpk2\firmwares\leorf\ArduinoSketch1\ArduinoSketch1\ArduinoCore\Debug\libArduinoCore.a(RHHardwareSPI.o) (_ZN8SPIClass5beginEv)
C:\Users\xia\Desktop\rpk2\firmwares\leorf\ArduinoSketch1\ArduinoSketch1\ArduinoCore\Debug\libArduinoCore.a(abi.o)
                              C:\Users\xia\Desktop\rpk2\firmwares\leorf\ArduinoSketch1\ArduinoSketch1\ArduinoCore\Debug\libArduinoCore.a(Print.o) (__cxa_pure_virtual)
C:\Users\xia\Desktop\rpk2\firmwares\leorf\ArduinoSketch1\ArduinoSketch1\ArduinoCore\Debug\libArduinoCore.a(CDC.o)
                              C:\Users\xia\Desktop\rpk2\firmwares\leorf\ArduinoSketch1\ArduinoSketch1\ArduinoCore\Debug\libArduinoCore.a(USBCore.o) (_Z16CDC_GetInterfacePh)
C:\Users\xia\Desktop\rpk2\firmwares\leorf\ArduinoSketch1\ArduinoSketch1\ArduinoCore\Debug\libArduinoCore.a(hooks.o)
                              C:\Users\xia\Desktop\rpk2\firmwares\leorf\ArduinoSketch1\ArduinoSketch1\ArduinoCore\Debug\libArduinoCore.a(wiring.o) (yield)
C:\Users\xia\Desktop\rpk2\firmwares\leorf\ArduinoSketch1\ArduinoSketch1\ArduinoCore\Debug\libArduinoCore.a(PluggableUSB.o)
                              C:\Users\xia\Desktop\rpk2\firmwares\leorf\ArduinoSketch1\ArduinoSketch1\ArduinoCore\Debug\libArduinoCore.a(USBCore.o) (_ZN13PluggableUSB_12getInterfaceEPh)
C:\Users\xia\Desktop\rpk2\firmwares\leorf\ArduinoSketch1\ArduinoSketch1\ArduinoCore\Debug\libArduinoCore.a(WInterrupts.o)
                              C:\Users\xia\Desktop\rpk2\firmwares\leorf\ArduinoSketch1\ArduinoSketch1\ArduinoCore\Debug\libArduinoCore.a(RH_RF69.o) (attachInterrupt)
C:\Users\xia\Desktop\rpk2\firmwares\leorf\ArduinoSketch1\ArduinoSketch1\ArduinoCore\Debug\libArduinoCore.a(WMath.o)
                              C:\Users\xia\Desktop\rpk2\firmwares\leorf\ArduinoSketch1\ArduinoSketch1\ArduinoCore\Debug\libArduinoCore.a(RHGenericDriver.o) (_Z6randomll)
C:\Users\xia\Desktop\rpk2\firmwares\leorf\ArduinoSketch1\ArduinoSketch1\ArduinoCore\Debug\libArduinoCore.a(RHGenericSPI.o)
                              C:\Users\xia\Desktop\rpk2\firmwares\leorf\ArduinoSketch1\ArduinoSketch1\ArduinoCore\Debug\libArduinoCore.a(RHHardwareSPI.o) (_ZN12RHGenericSPI11setBitOrderENS_8BitOrderE)
C:\Users\xia\Desktop\rpk2\firmwares\leorf\ArduinoSketch1\ArduinoSketch1\ArduinoCore\Debug\libArduinoCore.a(RHSPIDriver.o)
                              C:\Users\xia\Desktop\rpk2\firmwares\leorf\ArduinoSketch1\ArduinoSketch1\ArduinoCore\Debug\libArduinoCore.a(RH_RF69.o) (_ZN11RHSPIDriver4initEv)
c:/program files (x86)/atmel/studio/7.0/toolchain/avr8/avr8-gnu-toolchain/bin/../lib/gcc/avr/5.4.0/../../../../avr/lib/avr5\libm.a(addsf3.o)
                              C:\Users\xia\Desktop\rpk2\firmwares\leorf\ArduinoSketch1\ArduinoSketch1\ArduinoCore\Debug\libArduinoCore.a(Print.o) (__subsf3)
c:/program files (x86)/atmel/studio/7.0/toolchain/avr8/avr8-gnu-toolchain/bin/../lib/gcc/avr/5.4.0/../../../../avr/lib/avr5\libm.a(addsf3x.o)
                              c:/program files (x86)/atmel/studio/7.0/toolchain/avr8/avr8-gnu-toolchain/bin/../lib/gcc/avr/5.4.0/../../../../avr/lib/avr5\libm.a(addsf3.o) (__addsf3x)
c:/program files (x86)/atmel/studio/7.0/toolchain/avr8/avr8-gnu-toolchain/bin/../lib/gcc/avr/5.4.0/../../../../avr/lib/avr5\libm.a(cmpsf2.o)
                              C:\Users\xia\Desktop\rpk2\firmwares\leorf\ArduinoSketch1\ArduinoSketch1\ArduinoCore\Debug\libArduinoCore.a(Print.o) (__ltsf2)
c:/program files (x86)/atmel/studio/7.0/toolchain/avr8/avr8-gnu-toolchain/bin/../lib/gcc/avr/5.4.0/../../../../avr/lib/avr5\libm.a(divsf3.o)
                              C:\Users\xia\Desktop\rpk2\firmwares\leorf\ArduinoSketch1\ArduinoSketch1\ArduinoCore\Debug\libArduinoCore.a(Print.o) (__divsf3)
c:/program files (x86)/atmel/studio/7.0/toolchain/avr8/avr8-gnu-toolchain/bin/../lib/gcc/avr/5.4.0/../../../../avr/lib/avr5\libm.a(divsf3x.o)
                              c:/program files (x86)/atmel/studio/7.0/toolchain/avr8/avr8-gnu-toolchain/bin/../lib/gcc/avr/5.4.0/../../../../avr/lib/avr5\libm.a(divsf3.o) (__divsf3x)
c:/program files (x86)/atmel/studio/7.0/toolchain/avr8/avr8-gnu-toolchain/bin/../lib/gcc/avr/5.4.0/../../../../avr/lib/avr5\libm.a(fixunssfsi.o)
                              C:\Users\xia\Desktop\rpk2\firmwares\leorf\ArduinoSketch1\ArduinoSketch1\ArduinoCore\Debug\libArduinoCore.a(Print.o) (__fixunssfsi)
c:/program files (x86)/atmel/studio/7.0/toolchain/avr8/avr8-gnu-toolchain/bin/../lib/gcc/avr/5.4.0/../../../../avr/lib/avr5\libm.a(floatsisf.o)
                              C:\Users\xia\Desktop\rpk2\firmwares\leorf\ArduinoSketch1\ArduinoSketch1\ArduinoCore\Debug\libArduinoCore.a(Print.o) (__floatunsisf)
c:/program files (x86)/atmel/studio/7.0/toolchain/avr8/avr8-gnu-toolchain/bin/../lib/gcc/avr/5.4.0/../../../../avr/lib/avr5\libm.a(fp_cmp.o)
                              c:/program files (x86)/atmel/studio/7.0/toolchain/avr8/avr8-gnu-toolchain/bin/../lib/gcc/avr/5.4.0/../../../../avr/lib/avr5\libm.a(cmpsf2.o) (__fp_cmp)
c:/program files (x86)/atmel/studio/7.0/toolchain/avr8/avr8-gnu-toolchain/bin/../lib/gcc/avr/5.4.0/../../../../avr/lib/avr5\libm.a(fp_inf.o)
                              c:/program files (x86)/atmel/studio/7.0/toolchain/avr8/avr8-gnu-toolchain/bin/../lib/gcc/avr/5.4.0/../../../../avr/lib/avr5\libm.a(addsf3x.o) (__fp_inf)
c:/program files (x86)/atmel/studio/7.0/toolchain/avr8/avr8-gnu-toolchain/bin/../lib/gcc/avr/5.4.0/../../../../avr/lib/avr5\libm.a(fp_nan.o)
                              c:/program files (x86)/atmel/studio/7.0/toolchain/avr8/avr8-gnu-toolchain/bin/../lib/gcc/avr/5.4.0/../../../../avr/lib/avr5\libm.a(addsf3x.o) (__fp_nan)
c:/program files (x86)/atmel/studio/7.0/toolchain/avr8/avr8-gnu-toolchain/bin/../lib/gcc/avr/5.4.0/../../../../avr/lib/avr5\libm.a(fp_pscA.o)
                              c:/program files (x86)/atmel/studio/7.0/toolchain/avr8/avr8-gnu-toolchain/bin/../lib/gcc/avr/5.4.0/../../../../avr/lib/avr5\libm.a(addsf3x.o) (__fp_pscA)
c:/program files (x86)/atmel/studio/7.0/toolchain/avr8/avr8-gnu-toolchain/bin/../lib/gcc/avr/5.4.0/../../../../avr/lib/avr5\libm.a(fp_pscB.o)
                              c:/program files (x86)/atmel/studio/7.0/toolchain/avr8/avr8-gnu-toolchain/bin/../lib/gcc/avr/5.4.0/../../../../avr/lib/avr5\libm.a(addsf3x.o) (__fp_pscB)
c:/program files (x86)/atmel/studio/7.0/toolchain/avr8/avr8-gnu-toolchain/bin/../lib/gcc/avr/5.4.0/../../../../avr/lib/avr5\libm.a(fp_round.o)
                              c:/program files (x86)/atmel/studio/7.0/toolchain/avr8/avr8-gnu-toolchain/bin/../lib/gcc/avr/5.4.0/../../../../avr/lib/avr5\libm.a(addsf3.o) (__fp_round)
c:/program files (x86)/atmel/studio/7.0/toolchain/avr8/avr8-gnu-toolchain/bin/../lib/gcc/avr/5.4.0/../../../../avr/lib/avr5\libm.a(fp_split3.o)
                              c:/program files (x86)/atmel/studio/7.0/toolchain/avr8/avr8-gnu-toolchain/bin/../lib/gcc/avr/5.4.0/../../../../avr/lib/avr5\libm.a(addsf3x.o) (__fp_split3)
c:/program files (x86)/atmel/studio/7.0/toolchain/avr8/avr8-gnu-toolchain/bin/../lib/gcc/avr/5.4.0/../../../../avr/lib/avr5\libm.a(fp_zero.o)
                              c:/program files (x86)/atmel/studio/7.0/toolchain/avr8/avr8-gnu-toolchain/bin/../lib/gcc/avr/5.4.0/../../../../avr/lib/avr5\libm.a(addsf3x.o) (__fp_zero)
c:/program files (x86)/atmel/studio/7.0/toolchain/avr8/avr8-gnu-toolchain/bin/../lib/gcc/avr/5.4.0/../../../../avr/lib/avr5\libm.a(gesf2.o)
                              C:\Users\xia\Desktop\rpk2\firmwares\leorf\ArduinoSketch1\ArduinoSketch1\ArduinoCore\Debug\libArduinoCore.a(Print.o) (__gtsf2)
c:/program files (x86)/atmel/studio/7.0/toolchain/avr8/avr8-gnu-toolchain/bin/../lib/gcc/avr/5.4.0/../../../../avr/lib/avr5\libm.a(mulsf3.o)
                              C:\Users\xia\Desktop\rpk2\firmwares\leorf\ArduinoSketch1\ArduinoSketch1\ArduinoCore\Debug\libArduinoCore.a(Print.o) (__mulsf3)
c:/program files (x86)/atmel/studio/7.0/toolchain/avr8/avr8-gnu-toolchain/bin/../lib/gcc/avr/5.4.0/../../../../avr/lib/avr5\libm.a(mulsf3x.o)
                              c:/program files (x86)/atmel/studio/7.0/toolchain/avr8/avr8-gnu-toolchain/bin/../lib/gcc/avr/5.4.0/../../../../avr/lib/avr5\libm.a(mulsf3.o) (__mulsf3x)
c:/program files (x86)/atmel/studio/7.0/toolchain/avr8/avr8-gnu-toolchain/bin/../lib/gcc/avr/5.4.0/../../../../avr/lib/avr5\libm.a(unordsf2.o)
                              C:\Users\xia\Desktop\rpk2\firmwares\leorf\ArduinoSketch1\ArduinoSketch1\ArduinoCore\Debug\libArduinoCore.a(Print.o) (__unordsf2)
c:/program files (x86)/atmel/studio/7.0/toolchain/avr8/avr8-gnu-toolchain/bin/../lib/gcc/avr/5.4.0/avr5\libgcc.a(_mulsi3.o)
                              C:\Users\xia\Desktop\rpk2\firmwares\leorf\ArduinoSketch1\ArduinoSketch1\ArduinoCore\Debug\libArduinoCore.a(WMath.o) (__mulsi3)
c:/program files (x86)/atmel/studio/7.0/toolchain/avr8/avr8-gnu-toolchain/bin/../lib/gcc/avr/5.4.0/avr5\libgcc.a(_udivmodsi4.o)
                              C:\Users\xia\Desktop\rpk2\firmwares\leorf\ArduinoSketch1\ArduinoSketch1\ArduinoCore\Debug\libArduinoCore.a(HardwareSerial.o) (__udivmodsi4)
c:/program files (x86)/atmel/studio/7.0/toolchain/avr8/avr8-gnu-toolchain/bin/../lib/gcc/avr/5.4.0/avr5\libgcc.a(_divmodsi4.o)
                              C:\Users\xia\Desktop\rpk2\firmwares\leorf\ArduinoSketch1\ArduinoSketch1\ArduinoCore\Debug\libArduinoCore.a(WMath.o) (__divmodsi4)
c:/program files (x86)/atmel/studio/7.0/toolchain/avr8/avr8-gnu-toolchain/bin/../lib/gcc/avr/5.4.0/avr5\libgcc.a(_negsi2.o)
                              c:/program files (x86)/atmel/studio/7.0/toolchain/avr8/avr8-gnu-toolchain/bin/../lib/gcc/avr/5.4.0/avr5\libgcc.a(_divmodsi4.o) (__negsi2)
c:/program files (x86)/atmel/studio/7.0/toolchain/avr8/avr8-gnu-toolchain/bin/../lib/gcc/avr/5.4.0/avr5\libgcc.a(_exit.o)
                              C:/Program Files (x86)/Atmel/Studio/7.0/Packs/Atmel/ATmega_DFP/1.7.374/gcc/dev/atmega32u4/avr5/crtatmega32u4.o (exit)
c:/program files (x86)/atmel/studio/7.0/toolchain/avr8/avr8-gnu-toolchain/bin/../lib/gcc/avr/5.4.0/avr5\libgcc.a(_tablejump2.o)
                              C:\Users\xia\Desktop\rpk2\firmwares\leorf\ArduinoSketch1\ArduinoSketch1\ArduinoCore\Debug\libArduinoCore.a(wiring_digital.o) (__tablejump2__)
c:/program files (x86)/atmel/studio/7.0/toolchain/avr8/avr8-gnu-toolchain/bin/../lib/gcc/avr/5.4.0/avr5\libgcc.a(_copy_data.o)
                              Sketch.o (__do_copy_data)
c:/program files (x86)/atmel/studio/7.0/toolchain/avr8/avr8-gnu-toolchain/bin/../lib/gcc/avr/5.4.0/avr5\libgcc.a(_clear_bss.o)
                              Sketch.o (__do_clear_bss)
c:/program files (x86)/atmel/studio/7.0/toolchain/avr8/avr8-gnu-toolchain/bin/../lib/gcc/avr/5.4.0/avr5\libgcc.a(_ctors.o)
                              Sketch.o (__do_global_ctors)
c:/program files (x86)/atmel/studio/7.0/toolchain/avr8/avr8-gnu-toolchain/bin/../lib/gcc/avr/5.4.0/avr5\libgcc.a(_muluhisi3.o)
                              C:\Users\xia\Desktop\rpk2\firmwares\leorf\ArduinoSketch1\ArduinoSketch1\ArduinoCore\Debug\libArduinoCore.a(RHGenericDriver.o) (__muluhisi3)
c:/program files (x86)/atmel/studio/7.0/toolchain/avr8/avr8-gnu-toolchain/bin/../lib/gcc/avr/5.4.0/avr5\libgcc.a(_umulhisi3.o)
                              c:/program files (x86)/atmel/studio/7.0/toolchain/avr8/avr8-gnu-toolchain/bin/../lib/gcc/avr/5.4.0/avr5\libgcc.a(_muluhisi3.o) (__umulhisi3)
c:/program files (x86)/atmel/studio/7.0/toolchain/avr8/avr8-gnu-toolchain/bin/../lib/gcc/avr/5.4.0/../../../../avr/lib/avr5\libc.a(random.o)
                              C:\Users\xia\Desktop\rpk2\firmwares\leorf\ArduinoSketch1\ArduinoSketch1\ArduinoCore\Debug\libArduinoCore.a(WMath.o) (random)
c:/program files (x86)/atmel/studio/7.0/toolchain/avr8/avr8-gnu-toolchain/bin/../lib/gcc/avr/5.4.0/../../../../avr/lib/avr5\libc.a(abort.o)
                              C:\Users\xia\Desktop\rpk2\firmwares\leorf\ArduinoSketch1\ArduinoSketch1\ArduinoCore\Debug\libArduinoCore.a(abi.o) (abort)
c:/program files (x86)/atmel/studio/7.0/toolchain/avr8/avr8-gnu-toolchain/bin/../lib/gcc/avr/5.4.0/../../../../avr/lib/avr5\libc.a(memcpy_P.o)
                              C:\Users\xia\Desktop\rpk2\firmwares\leorf\ArduinoSketch1\ArduinoSketch1\ArduinoCore\Debug\libArduinoCore.a(RH_RF69.o) (memcpy_P)
c:/program files (x86)/atmel/studio/7.0/toolchain/avr8/avr8-gnu-toolchain/bin/../lib/gcc/avr/5.4.0/../../../../avr/lib/avr5\libc.a(memcpy.o)
                              C:\Users\xia\Desktop\rpk2\firmwares\leorf\ArduinoSketch1\ArduinoSketch1\ArduinoCore\Debug\libArduinoCore.a(RH_RF69.o) (memcpy)
c:/program files (x86)/atmel/studio/7.0/toolchain/avr8/avr8-gnu-toolchain/bin/../lib/gcc/avr/5.4.0/../../../../avr/lib/avr5\libc.a(strstr.o)
                              Sketch.o (strstr)
c:/program files (x86)/atmel/studio/7.0/toolchain/avr8/avr8-gnu-toolchain/bin/../lib/gcc/avr/5.4.0/avr5\libgcc.a(_mulshisi3.o)
                              c:/program files (x86)/atmel/studio/7.0/toolchain/avr8/avr8-gnu-toolchain/bin/../lib/gcc/avr/5.4.0/../../../../avr/lib/avr5\libc.a(random.o) (__mulohisi3)

Discarded input sections

 .data          0x00000000        0x0 C:/Program Files (x86)/Atmel/Studio/7.0/Packs/Atmel/ATmega_DFP/1.7.374/gcc/dev/atmega32u4/avr5/crtatmega32u4.o
 .bss           0x00000000        0x0 C:/Program Files (x86)/Atmel/Studio/7.0/Packs/Atmel/ATmega_DFP/1.7.374/gcc/dev/atmega32u4/avr5/crtatmega32u4.o
 .text          0x00000000        0x0 Sketch.o
 .data          0x00000000        0x0 Sketch.o
 .bss           0x00000000        0x0 Sketch.o
 .text._Z5Blinkhhhh
                0x00000000       0x7a Sketch.o
 .bss.packetnum
                0x00000000        0x2 Sketch.o
 .group         0x00000000        0x8 C:\Users\xia\Desktop\rpk2\firmwares\leorf\ArduinoSketch1\ArduinoSketch1\ArduinoCore\Debug\libArduinoCore.a(HardwareSerial.o)
 .text          0x00000000        0x0 C:\Users\xia\Desktop\rpk2\firmwares\leorf\ArduinoSketch1\ArduinoSketch1\ArduinoCore\Debug\libArduinoCore.a(HardwareSerial.o)
 .data          0x00000000        0x0 C:\Users\xia\Desktop\rpk2\firmwares\leorf\ArduinoSketch1\ArduinoSketch1\ArduinoCore\Debug\libArduinoCore.a(HardwareSerial.o)
 .bss           0x00000000        0x0 C:\Users\xia\Desktop\rpk2\firmwares\leorf\ArduinoSketch1\ArduinoSketch1\ArduinoCore\Debug\libArduinoCore.a(HardwareSerial.o)
 .text._ZN14HardwareSerial3endEv
                0x00000000       0x44 C:\Users\xia\Desktop\rpk2\firmwares\leorf\ArduinoSketch1\ArduinoSketch1\ArduinoCore\Debug\libArduinoCore.a(HardwareSerial.o)
 .group         0x00000000        0x8 C:\Users\xia\Desktop\rpk2\firmwares\leorf\ArduinoSketch1\ArduinoSketch1\ArduinoCore\Debug\libArduinoCore.a(HardwareSerial1.o)
 .group         0x00000000        0x8 C:\Users\xia\Desktop\rpk2\firmwares\leorf\ArduinoSketch1\ArduinoSketch1\ArduinoCore\Debug\libArduinoCore.a(HardwareSerial1.o)
 .text          0x00000000        0x0 C:\Users\xia\Desktop\rpk2\firmwares\leorf\ArduinoSketch1\ArduinoSketch1\ArduinoCore\Debug\libArduinoCore.a(HardwareSerial1.o)
 .data          0x00000000        0x0 C:\Users\xia\Desktop\rpk2\firmwares\leorf\ArduinoSketch1\ArduinoSketch1\ArduinoCore\Debug\libArduinoCore.a(HardwareSerial1.o)
 .bss           0x00000000        0x0 C:\Users\xia\Desktop\rpk2\firmwares\leorf\ArduinoSketch1\ArduinoSketch1\ArduinoCore\Debug\libArduinoCore.a(HardwareSerial1.o)
 .text._ZN5Print17availableForWriteEv
                0x00000000        0x6 C:\Users\xia\Desktop\rpk2\firmwares\leorf\ArduinoSketch1\ArduinoSketch1\ArduinoCore\Debug\libArduinoCore.a(HardwareSerial1.o)
 .text._ZN5Print5flushEv
                0x00000000        0x2 C:\Users\xia\Desktop\rpk2\firmwares\leorf\ArduinoSketch1\ArduinoSketch1\ArduinoCore\Debug\libArduinoCore.a(HardwareSerial1.o)
 .text          0x00000000        0x0 C:\Users\xia\Desktop\rpk2\firmwares\leorf\ArduinoSketch1\ArduinoSketch1\ArduinoCore\Debug\libArduinoCore.a(main.o)
 .data          0x00000000        0x0 C:\Users\xia\Desktop\rpk2\firmwares\leorf\ArduinoSketch1\ArduinoSketch1\ArduinoCore\Debug\libArduinoCore.a(main.o)
 .bss           0x00000000        0x0 C:\Users\xia\Desktop\rpk2\firmwares\leorf\ArduinoSketch1\ArduinoSketch1\ArduinoCore\Debug\libArduinoCore.a(main.o)
 .text.atexit   0x00000000        0x6 C:\Users\xia\Desktop\rpk2\firmwares\leorf\ArduinoSketch1\ArduinoSketch1\ArduinoCore\Debug\libArduinoCore.a(main.o)
 .text._Z8setupUSBv
                0x00000000        0x2 C:\Users\xia\Desktop\rpk2\firmwares\leorf\ArduinoSketch1\ArduinoSketch1\ArduinoCore\Debug\libArduinoCore.a(main.o)
 .group         0x00000000        0x8 C:\Users\xia\Desktop\rpk2\firmwares\leorf\ArduinoSketch1\ArduinoSketch1\ArduinoCore\Debug\libArduinoCore.a(Print.o)
 .group         0x00000000        0x8 C:\Users\xia\Desktop\rpk2\firmwares\leorf\ArduinoSketch1\ArduinoSketch1\ArduinoCore\Debug\libArduinoCore.a(Print.o)
 .group         0x00000000        0x8 C:\Users\xia\Desktop\rpk2\firmwares\leorf\ArduinoSketch1\ArduinoSketch1\ArduinoCore\Debug\libArduinoCore.a(Print.o)
 .group         0x00000000        0x8 C:\Users\xia\Desktop\rpk2\firmwares\leorf\ArduinoSketch1\ArduinoSketch1\ArduinoCore\Debug\libArduinoCore.a(Print.o)
 .text          0x00000000        0x0 C:\Users\xia\Desktop\rpk2\firmwares\leorf\ArduinoSketch1\ArduinoSketch1\ArduinoCore\Debug\libArduinoCore.a(Print.o)
 .data          0x00000000        0x0 C:\Users\xia\Desktop\rpk2\firmwares\leorf\ArduinoSketch1\ArduinoSketch1\ArduinoCore\Debug\libArduinoCore.a(Print.o)
 .bss           0x00000000        0x0 C:\Users\xia\Desktop\rpk2\firmwares\leorf\ArduinoSketch1\ArduinoSketch1\ArduinoCore\Debug\libArduinoCore.a(Print.o)
 .text._ZN5Print17availableForWriteEv
                0x00000000        0x6 C:\Users\xia\Desktop\rpk2\firmwares\leorf\ArduinoSketch1\ArduinoSketch1\ArduinoCore\Debug\libArduinoCore.a(Print.o)
 .text._ZN5Print5flushEv
                0x00000000        0x2 C:\Users\xia\Desktop\rpk2\firmwares\leorf\ArduinoSketch1\ArduinoSketch1\ArduinoCore\Debug\libArduinoCore.a(Print.o)
 .text._ZN5Print5printEPK19__FlashStringHelper
                0x00000000       0x48 C:\Users\xia\Desktop\rpk2\firmwares\leorf\ArduinoSketch1\ArduinoSketch1\ArduinoCore\Debug\libArduinoCore.a(Print.o)
 .text._ZN5Print5printERK6String
                0x00000000       0x1c C:\Users\xia\Desktop\rpk2\firmwares\leorf\ArduinoSketch1\ArduinoSketch1\ArduinoCore\Debug\libArduinoCore.a(Print.o)
 .text._ZN5Print5printERK9Printable
                0x00000000       0x14 C:\Users\xia\Desktop\rpk2\firmwares\leorf\ArduinoSketch1\ArduinoSketch1\ArduinoCore\Debug\libArduinoCore.a(Print.o)
 .text._ZN5Print7printlnEPK19__FlashStringHelper
                0x00000000       0x24 C:\Users\xia\Desktop\rpk2\firmwares\leorf\ArduinoSketch1\ArduinoSketch1\ArduinoCore\Debug\libArduinoCore.a(Print.o)
 .text._ZN5Print7printlnERK6String
                0x00000000       0x24 C:\Users\xia\Desktop\rpk2\firmwares\leorf\ArduinoSketch1\ArduinoSketch1\ArduinoCore\Debug\libArduinoCore.a(Print.o)
 .text._ZN5Print7printlnEc
                0x00000000       0x24 C:\Users\xia\Desktop\rpk2\firmwares\leorf\ArduinoSketch1\ArduinoSketch1\ArduinoCore\Debug\libArduinoCore.a(Print.o)
 .text._ZN5Print7printlnERK9Printable
                0x00000000       0x24 C:\Users\xia\Desktop\rpk2\firmwares\leorf\ArduinoSketch1\ArduinoSketch1\ArduinoCore\Debug\libArduinoCore.a(Print.o)
 .text._ZN5Print7printlnEhi
                0x00000000       0x24 C:\Users\xia\Desktop\rpk2\firmwares\leorf\ArduinoSketch1\ArduinoSketch1\ArduinoCore\Debug\libArduinoCore.a(Print.o)
 .text._ZN5Print5printEji
                0x00000000        0xc C:\Users\xia\Desktop\rpk2\firmwares\leorf\ArduinoSketch1\ArduinoSketch1\ArduinoCore\Debug\libArduinoCore.a(Print.o)
 .text._ZN5Print7printlnEji
                0x00000000       0x24 C:\Users\xia\Desktop\rpk2\firmwares\leorf\ArduinoSketch1\ArduinoSketch1\ArduinoCore\Debug\libArduinoCore.a(Print.o)
 .text._ZN5Print7printlnEmi
                0x00000000       0x24 C:\Users\xia\Desktop\rpk2\firmwares\leorf\ArduinoSketch1\ArduinoSketch1\ArduinoCore\Debug\libArduinoCore.a(Print.o)
 .text._ZN5Print7printlnEli
                0x00000000       0x24 C:\Users\xia\Desktop\rpk2\firmwares\leorf\ArduinoSketch1\ArduinoSketch1\ArduinoCore\Debug\libArduinoCore.a(Print.o)
 .text._ZN5Print10printFloatEdh
                0x00000000      0x1b6 C:\Users\xia\Desktop\rpk2\firmwares\leorf\ArduinoSketch1\ArduinoSketch1\ArduinoCore\Debug\libArduinoCore.a(Print.o)
 .text._ZN5Print5printEdi
                0x00000000        0x4 C:\Users\xia\Desktop\rpk2\firmwares\leorf\ArduinoSketch1\ArduinoSketch1\ArduinoCore\Debug\libArduinoCore.a(Print.o)
 .text._ZN5Print7printlnEdi
                0x00000000       0x24 C:\Users\xia\Desktop\rpk2\firmwares\leorf\ArduinoSketch1\ArduinoSketch1\ArduinoCore\Debug\libArduinoCore.a(Print.o)
 .rodata._ZTV5Print
                0x00000000        0xc C:\Users\xia\Desktop\rpk2\firmwares\leorf\ArduinoSketch1\ArduinoSketch1\ArduinoCore\Debug\libArduinoCore.a(Print.o)
 .group         0x00000000        0x8 C:\Users\xia\Desktop\rpk2\firmwares\leorf\ArduinoSketch1\ArduinoSketch1\ArduinoCore\Debug\libArduinoCore.a(USBCore.o)
 .text          0x00000000        0x0 C:\Users\xia\Desktop\rpk2\firmwares\leorf\ArduinoSketch1\ArduinoSketch1\ArduinoCore\Debug\libArduinoCore.a(USBCore.o)
 .data          0x00000000        0x0 C:\Users\xia\Desktop\rpk2\firmwares\leorf\ArduinoSketch1\ArduinoSketch1\ArduinoCore\Debug\libArduinoCore.a(USBCore.o)
 .bss           0x00000000        0x0 C:\Users\xia\Desktop\rpk2\firmwares\leorf\ArduinoSketch1\ArduinoSketch1\ArduinoCore\Debug\libArduinoCore.a(USBCore.o)
 .text._Z19USBGetConfigurationv
                0x00000000        0x6 C:\Users\xia\Desktop\rpk2\firmwares\leorf\ArduinoSketch1\ArduinoSketch1\ArduinoCore\Debug\libArduinoCore.a(USBCore.o)
 .text._Z12USBConnectedv
                0x00000000       0x22 C:\Users\xia\Desktop\rpk2\firmwares\leorf\ArduinoSketch1\ArduinoSketch1\ArduinoCore\Debug\libArduinoCore.a(USBCore.o)
 .text._ZN10USBDevice_C2Ev
                0x00000000        0x2 C:\Users\xia\Desktop\rpk2\firmwares\leorf\ArduinoSketch1\ArduinoSketch1\ArduinoCore\Debug\libArduinoCore.a(USBCore.o)
 .text._ZN10USBDevice_6detachEv
                0x00000000        0x2 C:\Users\xia\Desktop\rpk2\firmwares\leorf\ArduinoSketch1\ArduinoSketch1\ArduinoCore\Debug\libArduinoCore.a(USBCore.o)
 .text._ZN10USBDevice_10configuredEv
                0x00000000        0xe C:\Users\xia\Desktop\rpk2\firmwares\leorf\ArduinoSketch1\ArduinoSketch1\ArduinoCore\Debug\libArduinoCore.a(USBCore.o)
 .text._ZN10USBDevice_4pollEv
                0x00000000        0x2 C:\Users\xia\Desktop\rpk2\firmwares\leorf\ArduinoSketch1\ArduinoSketch1\ArduinoCore\Debug\libArduinoCore.a(USBCore.o)
 .text._ZN10USBDevice_10wakeupHostEv
                0x00000000       0x38 C:\Users\xia\Desktop\rpk2\firmwares\leorf\ArduinoSketch1\ArduinoSketch1\ArduinoCore\Debug\libArduinoCore.a(USBCore.o)
 .text._ZN10USBDevice_11isSuspendedEv
                0x00000000        0x8 C:\Users\xia\Desktop\rpk2\firmwares\leorf\ArduinoSketch1\ArduinoSketch1\ArduinoCore\Debug\libArduinoCore.a(USBCore.o)
 .text          0x00000000        0x0 C:\Users\xia\Desktop\rpk2\firmwares\leorf\ArduinoSketch1\ArduinoSketch1\ArduinoCore\Debug\libArduinoCore.a(wiring.o)
 .data          0x00000000        0x0 C:\Users\xia\Desktop\rpk2\firmwares\leorf\ArduinoSketch1\ArduinoSketch1\ArduinoCore\Debug\libArduinoCore.a(wiring.o)
 .bss           0x00000000        0x0 C:\Users\xia\Desktop\rpk2\firmwares\leorf\ArduinoSketch1\ArduinoSketch1\ArduinoCore\Debug\libArduinoCore.a(wiring.o)
 .text.delayMicroseconds
                0x00000000       0x16 C:\Users\xia\Desktop\rpk2\firmwares\leorf\ArduinoSketch1\ArduinoSketch1\ArduinoCore\Debug\libArduinoCore.a(wiring.o)
 .text          0x00000000        0x0 C:\Users\xia\Desktop\rpk2\firmwares\leorf\ArduinoSketch1\ArduinoSketch1\ArduinoCore\Debug\libArduinoCore.a(wiring_digital.o)
 .data          0x00000000        0x0 C:\Users\xia\Desktop\rpk2\firmwares\leorf\ArduinoSketch1\ArduinoSketch1\ArduinoCore\Debug\libArduinoCore.a(wiring_digital.o)
 .bss           0x00000000        0x0 C:\Users\xia\Desktop\rpk2\firmwares\leorf\ArduinoSketch1\ArduinoSketch1\ArduinoCore\Debug\libArduinoCore.a(wiring_digital.o)
 .text.digitalRead
                0x00000000       0x52 C:\Users\xia\Desktop\rpk2\firmwares\leorf\ArduinoSketch1\ArduinoSketch1\ArduinoCore\Debug\libArduinoCore.a(wiring_digital.o)
 .progmem.data.analog_pin_to_channel_PGM
                0x00000000        0xc C:\Users\xia\Desktop\rpk2\firmwares\leorf\ArduinoSketch1\ArduinoSketch1\ArduinoCore\Debug\libArduinoCore.a(wiring_digital.o)
 .progmem.data.port_to_input_PGM
                0x00000000        0xe C:\Users\xia\Desktop\rpk2\firmwares\leorf\ArduinoSketch1\ArduinoSketch1\ArduinoCore\Debug\libArduinoCore.a(wiring_digital.o)
 .group         0x00000000        0x8 C:\Users\xia\Desktop\rpk2\firmwares\leorf\ArduinoSketch1\ArduinoSketch1\ArduinoCore\Debug\libArduinoCore.a(RHGenericDriver.o)
 .text          0x00000000        0x0 C:\Users\xia\Desktop\rpk2\firmwares\leorf\ArduinoSketch1\ArduinoSketch1\ArduinoCore\Debug\libArduinoCore.a(RHGenericDriver.o)
 .data          0x00000000        0x0 C:\Users\xia\Desktop\rpk2\firmwares\leorf\ArduinoSketch1\ArduinoSketch1\ArduinoCore\Debug\libArduinoCore.a(RHGenericDriver.o)
 .bss           0x00000000        0x0 C:\Users\xia\Desktop\rpk2\firmwares\leorf\ArduinoSketch1\ArduinoSketch1\ArduinoCore\Debug\libArduinoCore.a(RHGenericDriver.o)
 .rodata.str1.1
                0x00000000        0x1 C:\Users\xia\Desktop\rpk2\firmwares\leorf\ArduinoSketch1\ArduinoSketch1\ArduinoCore\Debug\libArduinoCore.a(RHGenericDriver.o)
 .text._ZN15RHGenericDriver11printBufferEPKcPKhh
                0x00000000       0x6a C:\Users\xia\Desktop\rpk2\firmwares\leorf\ArduinoSketch1\ArduinoSketch1\ArduinoCore\Debug\libArduinoCore.a(RHGenericDriver.o)
 .text._ZN15RHGenericDriver13setCADTimeoutEm
                0x00000000        0x8 C:\Users\xia\Desktop\rpk2\firmwares\leorf\ArduinoSketch1\ArduinoSketch1\ArduinoCore\Debug\libArduinoCore.a(RHGenericDriver.o)
 .group         0x00000000        0x8 C:\Users\xia\Desktop\rpk2\firmwares\leorf\ArduinoSketch1\ArduinoSketch1\ArduinoCore\Debug\libArduinoCore.a(RHHardwareSPI.o)
 .text          0x00000000        0x0 C:\Users\xia\Desktop\rpk2\firmwares\leorf\ArduinoSketch1\ArduinoSketch1\ArduinoCore\Debug\libArduinoCore.a(RHHardwareSPI.o)
 .data          0x00000000        0x0 C:\Users\xia\Desktop\rpk2\firmwares\leorf\ArduinoSketch1\ArduinoSketch1\ArduinoCore\Debug\libArduinoCore.a(RHHardwareSPI.o)
 .bss           0x00000000        0x0 C:\Users\xia\Desktop\rpk2\firmwares\leorf\ArduinoSketch1\ArduinoSketch1\ArduinoCore\Debug\libArduinoCore.a(RHHardwareSPI.o)
 .group         0x00000000        0x8 C:\Users\xia\Desktop\rpk2\firmwares\leorf\ArduinoSketch1\ArduinoSketch1\ArduinoCore\Debug\libArduinoCore.a(RH_RF69.o)
 .text          0x00000000        0x0 C:\Users\xia\Desktop\rpk2\firmwares\leorf\ArduinoSketch1\ArduinoSketch1\ArduinoCore\Debug\libArduinoCore.a(RH_RF69.o)
 .data          0x00000000        0x0 C:\Users\xia\Desktop\rpk2\firmwares\leorf\ArduinoSketch1\ArduinoSketch1\ArduinoCore\Debug\libArduinoCore.a(RH_RF69.o)
 .bss           0x00000000        0x0 C:\Users\xia\Desktop\rpk2\firmwares\leorf\ArduinoSketch1\ArduinoSketch1\ArduinoCore\Debug\libArduinoCore.a(RH_RF69.o)
 .text._ZN7RH_RF6911setIdleModeEh
                0x00000000        0x6 C:\Users\xia\Desktop\rpk2\firmwares\leorf\ArduinoSketch1\ArduinoSketch1\ArduinoCore\Debug\libArduinoCore.a(RH_RF69.o)
 .text._ZN7RH_RF6915temperatureReadEv
                0x00000000       0x2e C:\Users\xia\Desktop\rpk2\firmwares\leorf\ArduinoSketch1\ArduinoSketch1\ArduinoCore\Debug\libArduinoCore.a(RH_RF69.o)
 .text._ZN7RH_RF698rssiReadEv
                0x00000000        0xc C:\Users\xia\Desktop\rpk2\firmwares\leorf\ArduinoSketch1\ArduinoSketch1\ArduinoCore\Debug\libArduinoCore.a(RH_RF69.o)
 .rodata.str1.1
                0x00000000        0x2 C:\Users\xia\Desktop\rpk2\firmwares\leorf\ArduinoSketch1\ArduinoSketch1\ArduinoCore\Debug\libArduinoCore.a(RH_RF69.o)
 .text._ZN7RH_RF6913printRegisterEh
                0x00000000       0x42 C:\Users\xia\Desktop\rpk2\firmwares\leorf\ArduinoSketch1\ArduinoSketch1\ArduinoCore\Debug\libArduinoCore.a(RH_RF69.o)
 .text._ZN7RH_RF6914printRegistersEv
                0x00000000       0x3a C:\Users\xia\Desktop\rpk2\firmwares\leorf\ArduinoSketch1\ArduinoSketch1\ArduinoCore\Debug\libArduinoCore.a(RH_RF69.o)
 .text          0x00000000        0x0 C:\Users\xia\Desktop\rpk2\firmwares\leorf\ArduinoSketch1\ArduinoSketch1\ArduinoCore\Debug\libArduinoCore.a(SPI.o)
 .data          0x00000000        0x0 C:\Users\xia\Desktop\rpk2\firmwares\leorf\ArduinoSketch1\ArduinoSketch1\ArduinoCore\Debug\libArduinoCore.a(SPI.o)
 .bss           0x00000000        0x0 C:\Users\xia\Desktop\rpk2\firmwares\leorf\ArduinoSketch1\ArduinoSketch1\ArduinoCore\Debug\libArduinoCore.a(SPI.o)
 .text._ZN8SPIClass14usingInterruptEh
                0x00000000       0x52 C:\Users\xia\Desktop\rpk2\firmwares\leorf\ArduinoSketch1\ArduinoSketch1\ArduinoCore\Debug\libArduinoCore.a(SPI.o)
 .text._ZN8SPIClass17notUsingInterruptEh
                0x00000000       0x36 C:\Users\xia\Desktop\rpk2\firmwares\leorf\ArduinoSketch1\ArduinoSketch1\ArduinoCore\Debug\libArduinoCore.a(SPI.o)
 .rodata.CSWTCH.20
                0x00000000        0x5 C:\Users\xia\Desktop\rpk2\firmwares\leorf\ArduinoSketch1\ArduinoSketch1\ArduinoCore\Debug\libArduinoCore.a(SPI.o)
 .bss.SPI       0x00000000        0x1 C:\Users\xia\Desktop\rpk2\firmwares\leorf\ArduinoSketch1\ArduinoSketch1\ArduinoCore\Debug\libArduinoCore.a(SPI.o)
 .text          0x00000000        0x0 C:\Users\xia\Desktop\rpk2\firmwares\leorf\ArduinoSketch1\ArduinoSketch1\ArduinoCore\Debug\libArduinoCore.a(abi.o)
 .data          0x00000000        0x0 C:\Users\xia\Desktop\rpk2\firmwares\leorf\ArduinoSketch1\ArduinoSketch1\ArduinoCore\Debug\libArduinoCore.a(abi.o)
 .bss           0x00000000        0x0 C:\Users\xia\Desktop\rpk2\firmwares\leorf\ArduinoSketch1\ArduinoSketch1\ArduinoCore\Debug\libArduinoCore.a(abi.o)
 .text.__cxa_deleted_virtual
                0x00000000        0x4 C:\Users\xia\Desktop\rpk2\firmwares\leorf\ArduinoSketch1\ArduinoSketch1\ArduinoCore\Debug\libArduinoCore.a(abi.o)
 .group         0x00000000        0x8 C:\Users\xia\Desktop\rpk2\firmwares\leorf\ArduinoSketch1\ArduinoSketch1\ArduinoCore\Debug\libArduinoCore.a(CDC.o)
 .group         0x00000000        0x8 C:\Users\xia\Desktop\rpk2\firmwares\leorf\ArduinoSketch1\ArduinoSketch1\ArduinoCore\Debug\libArduinoCore.a(CDC.o)
 .group         0x00000000        0x8 C:\Users\xia\Desktop\rpk2\firmwares\leorf\ArduinoSketch1\ArduinoSketch1\ArduinoCore\Debug\libArduinoCore.a(CDC.o)
 .text          0x00000000        0x0 C:\Users\xia\Desktop\rpk2\firmwares\leorf\ArduinoSketch1\ArduinoSketch1\ArduinoCore\Debug\libArduinoCore.a(CDC.o)
 .data          0x00000000        0x0 C:\Users\xia\Desktop\rpk2\firmwares\leorf\ArduinoSketch1\ArduinoSketch1\ArduinoCore\Debug\libArduinoCore.a(CDC.o)
 .bss           0x00000000        0x0 C:\Users\xia\Desktop\rpk2\firmwares\leorf\ArduinoSketch1\ArduinoSketch1\ArduinoCore\Debug\libArduinoCore.a(CDC.o)
 .text._ZN5Print17availableForWriteEv
                0x00000000        0x6 C:\Users\xia\Desktop\rpk2\firmwares\leorf\ArduinoSketch1\ArduinoSketch1\ArduinoCore\Debug\libArduinoCore.a(CDC.o)
 .text._ZN5Print5flushEv
                0x00000000        0x2 C:\Users\xia\Desktop\rpk2\firmwares\leorf\ArduinoSketch1\ArduinoSketch1\ArduinoCore\Debug\libArduinoCore.a(CDC.o)
 .text._ZN7Serial_5beginEm
                0x00000000        0xc C:\Users\xia\Desktop\rpk2\firmwares\leorf\ArduinoSketch1\ArduinoSketch1\ArduinoCore\Debug\libArduinoCore.a(CDC.o)
 .text._ZN7Serial_5beginEmh
                0x00000000        0xc C:\Users\xia\Desktop\rpk2\firmwares\leorf\ArduinoSketch1\ArduinoSketch1\ArduinoCore\Debug\libArduinoCore.a(CDC.o)
 .text._ZN7Serial_3endEv
                0x00000000        0x2 C:\Users\xia\Desktop\rpk2\firmwares\leorf\ArduinoSketch1\ArduinoSketch1\ArduinoCore\Debug\libArduinoCore.a(CDC.o)
 .text._ZN7Serial_cvbEv
                0x00000000       0x1e C:\Users\xia\Desktop\rpk2\firmwares\leorf\ArduinoSketch1\ArduinoSketch1\ArduinoCore\Debug\libArduinoCore.a(CDC.o)
 .text._ZN7Serial_4baudEv
                0x00000000       0x18 C:\Users\xia\Desktop\rpk2\firmwares\leorf\ArduinoSketch1\ArduinoSketch1\ArduinoCore\Debug\libArduinoCore.a(CDC.o)
 .text._ZN7Serial_8stopbitsEv
                0x00000000        0x6 C:\Users\xia\Desktop\rpk2\firmwares\leorf\ArduinoSketch1\ArduinoSketch1\ArduinoCore\Debug\libArduinoCore.a(CDC.o)
 .text._ZN7Serial_10paritytypeEv
                0x00000000        0x6 C:\Users\xia\Desktop\rpk2\firmwares\leorf\ArduinoSketch1\ArduinoSketch1\ArduinoCore\Debug\libArduinoCore.a(CDC.o)
 .text._ZN7Serial_7numbitsEv
                0x00000000        0x6 C:\Users\xia\Desktop\rpk2\firmwares\leorf\ArduinoSketch1\ArduinoSketch1\ArduinoCore\Debug\libArduinoCore.a(CDC.o)
 .text._ZN7Serial_3dtrEv
                0x00000000        0x8 C:\Users\xia\Desktop\rpk2\firmwares\leorf\ArduinoSketch1\ArduinoSketch1\ArduinoCore\Debug\libArduinoCore.a(CDC.o)
 .text._ZN7Serial_3rtsEv
                0x00000000        0xa C:\Users\xia\Desktop\rpk2\firmwares\leorf\ArduinoSketch1\ArduinoSketch1\ArduinoCore\Debug\libArduinoCore.a(CDC.o)
 .text._ZN7Serial_9readBreakEv
                0x00000000       0x40 C:\Users\xia\Desktop\rpk2\firmwares\leorf\ArduinoSketch1\ArduinoSketch1\ArduinoCore\Debug\libArduinoCore.a(CDC.o)
 .text          0x00000000        0x0 C:\Users\xia\Desktop\rpk2\firmwares\leorf\ArduinoSketch1\ArduinoSketch1\ArduinoCore\Debug\libArduinoCore.a(hooks.o)
 .data          0x00000000        0x0 C:\Users\xia\Desktop\rpk2\firmwares\leorf\ArduinoSketch1\ArduinoSketch1\ArduinoCore\Debug\libArduinoCore.a(hooks.o)
 .bss           0x00000000        0x0 C:\Users\xia\Desktop\rpk2\firmwares\leorf\ArduinoSketch1\ArduinoSketch1\ArduinoCore\Debug\libArduinoCore.a(hooks.o)
 .text          0x00000000        0x0 C:\Users\xia\Desktop\rpk2\firmwares\leorf\ArduinoSketch1\ArduinoSketch1\ArduinoCore\Debug\libArduinoCore.a(PluggableUSB.o)
 .data          0x00000000        0x0 C:\Users\xia\Desktop\rpk2\firmwares\leorf\ArduinoSketch1\ArduinoSketch1\ArduinoCore\Debug\libArduinoCore.a(PluggableUSB.o)
 .bss           0x00000000        0x0 C:\Users\xia\Desktop\rpk2\firmwares\leorf\ArduinoSketch1\ArduinoSketch1\ArduinoCore\Debug\libArduinoCore.a(PluggableUSB.o)
 .text._ZN13PluggableUSB_4plugEP18PluggableUSBModule
                0x00000000       0x8e C:\Users\xia\Desktop\rpk2\firmwares\leorf\ArduinoSketch1\ArduinoSketch1\ArduinoCore\Debug\libArduinoCore.a(PluggableUSB.o)
 .text._ZN13PluggableUSB_C2Ev
                0x00000000       0x10 C:\Users\xia\Desktop\rpk2\firmwares\leorf\ArduinoSketch1\ArduinoSketch1\ArduinoCore\Debug\libArduinoCore.a(PluggableUSB.o)
 .text          0x00000000        0x0 C:\Users\xia\Desktop\rpk2\firmwares\leorf\ArduinoSketch1\ArduinoSketch1\ArduinoCore\Debug\libArduinoCore.a(WInterrupts.o)
 .data          0x00000000        0x0 C:\Users\xia\Desktop\rpk2\firmwares\leorf\ArduinoSketch1\ArduinoSketch1\ArduinoCore\Debug\libArduinoCore.a(WInterrupts.o)
 .bss           0x00000000        0x0 C:\Users\xia\Desktop\rpk2\firmwares\leorf\ArduinoSketch1\ArduinoSketch1\ArduinoCore\Debug\libArduinoCore.a(WInterrupts.o)
 .text.detachInterrupt
                0x00000000       0x40 C:\Users\xia\Desktop\rpk2\firmwares\leorf\ArduinoSketch1\ArduinoSketch1\ArduinoCore\Debug\libArduinoCore.a(WInterrupts.o)
 .text          0x00000000        0x0 C:\Users\xia\Desktop\rpk2\firmwares\leorf\ArduinoSketch1\ArduinoSketch1\ArduinoCore\Debug\libArduinoCore.a(WMath.o)
 .data          0x00000000        0x0 C:\Users\xia\Desktop\rpk2\firmwares\leorf\ArduinoSketch1\ArduinoSketch1\ArduinoCore\Debug\libArduinoCore.a(WMath.o)
 .bss           0x00000000        0x0 C:\Users\xia\Desktop\rpk2\firmwares\leorf\ArduinoSketch1\ArduinoSketch1\ArduinoCore\Debug\libArduinoCore.a(WMath.o)
 .text._Z10randomSeedm
                0x00000000       0x10 C:\Users\xia\Desktop\rpk2\firmwares\leorf\ArduinoSketch1\ArduinoSketch1\ArduinoCore\Debug\libArduinoCore.a(WMath.o)
 .text._Z3maplllll
                0x00000000       0x82 C:\Users\xia\Desktop\rpk2\firmwares\leorf\ArduinoSketch1\ArduinoSketch1\ArduinoCore\Debug\libArduinoCore.a(WMath.o)
 .text._Z8makeWordj
                0x00000000        0x2 C:\Users\xia\Desktop\rpk2\firmwares\leorf\ArduinoSketch1\ArduinoSketch1\ArduinoCore\Debug\libArduinoCore.a(WMath.o)
 .text._Z8makeWordhh
                0x00000000        0xa C:\Users\xia\Desktop\rpk2\firmwares\leorf\ArduinoSketch1\ArduinoSketch1\ArduinoCore\Debug\libArduinoCore.a(WMath.o)
 .group         0x00000000        0x8 C:\Users\xia\Desktop\rpk2\firmwares\leorf\ArduinoSketch1\ArduinoSketch1\ArduinoCore\Debug\libArduinoCore.a(RHGenericSPI.o)
 .group         0x00000000        0x8 C:\Users\xia\Desktop\rpk2\firmwares\leorf\ArduinoSketch1\ArduinoSketch1\ArduinoCore\Debug\libArduinoCore.a(RHGenericSPI.o)
 .group         0x00000000        0x8 C:\Users\xia\Desktop\rpk2\firmwares\leorf\ArduinoSketch1\ArduinoSketch1\ArduinoCore\Debug\libArduinoCore.a(RHGenericSPI.o)
 .group         0x00000000        0x8 C:\Users\xia\Desktop\rpk2\firmwares\leorf\ArduinoSketch1\ArduinoSketch1\ArduinoCore\Debug\libArduinoCore.a(RHGenericSPI.o)
 .group         0x00000000        0x8 C:\Users\xia\Desktop\rpk2\firmwares\leorf\ArduinoSketch1\ArduinoSketch1\ArduinoCore\Debug\libArduinoCore.a(RHGenericSPI.o)
 .group         0x00000000        0x8 C:\Users\xia\Desktop\rpk2\firmwares\leorf\ArduinoSketch1\ArduinoSketch1\ArduinoCore\Debug\libArduinoCore.a(RHGenericSPI.o)
 .text          0x00000000        0x0 C:\Users\xia\Desktop\rpk2\firmwares\leorf\ArduinoSketch1\ArduinoSketch1\ArduinoCore\Debug\libArduinoCore.a(RHGenericSPI.o)
 .data          0x00000000        0x0 C:\Users\xia\Desktop\rpk2\firmwares\leorf\ArduinoSketch1\ArduinoSketch1\ArduinoCore\Debug\libArduinoCore.a(RHGenericSPI.o)
 .bss           0x00000000        0x0 C:\Users\xia\Desktop\rpk2\firmwares\leorf\ArduinoSketch1\ArduinoSketch1\ArduinoCore\Debug\libArduinoCore.a(RHGenericSPI.o)
 .group         0x00000000        0x8 C:\Users\xia\Desktop\rpk2\firmwares\leorf\ArduinoSketch1\ArduinoSketch1\ArduinoCore\Debug\libArduinoCore.a(RHSPIDriver.o)
 .text          0x00000000        0x0 C:\Users\xia\Desktop\rpk2\firmwares\leorf\ArduinoSketch1\ArduinoSketch1\ArduinoCore\Debug\libArduinoCore.a(RHSPIDriver.o)
 .data          0x00000000        0x0 C:\Users\xia\Desktop\rpk2\firmwares\leorf\ArduinoSketch1\ArduinoSketch1\ArduinoCore\Debug\libArduinoCore.a(RHSPIDriver.o)
 .bss           0x00000000        0x0 C:\Users\xia\Desktop\rpk2\firmwares\leorf\ArduinoSketch1\ArduinoSketch1\ArduinoCore\Debug\libArduinoCore.a(RHSPIDriver.o)
 .text._ZN11RHSPIDriver12spiBurstReadEhPhh
                0x00000000       0xaa C:\Users\xia\Desktop\rpk2\firmwares\leorf\ArduinoSketch1\ArduinoSketch1\ArduinoCore\Debug\libArduinoCore.a(RHSPIDriver.o)
 .text._ZN11RHSPIDriver17setSlaveSelectPinEh
                0x00000000        0x6 C:\Users\xia\Desktop\rpk2\firmwares\leorf\ArduinoSketch1\ArduinoSketch1\ArduinoCore\Debug\libArduinoCore.a(RHSPIDriver.o)
 .text          0x00000000        0x0 c:/program files (x86)/atmel/studio/7.0/toolchain/avr8/avr8-gnu-toolchain/bin/../lib/gcc/avr/5.4.0/../../../../avr/lib/avr5\libm.a(addsf3.o)
 .data          0x00000000        0x0 c:/program files (x86)/atmel/studio/7.0/toolchain/avr8/avr8-gnu-toolchain/bin/../lib/gcc/avr/5.4.0/../../../../avr/lib/avr5\libm.a(addsf3.o)
 .bss           0x00000000        0x0 c:/program files (x86)/atmel/studio/7.0/toolchain/avr8/avr8-gnu-toolchain/bin/../lib/gcc/avr/5.4.0/../../../../avr/lib/avr5\libm.a(addsf3.o)
 .text.avr-libc.fplib
                0x00000000        0xe c:/program files (x86)/atmel/studio/7.0/toolchain/avr8/avr8-gnu-toolchain/bin/../lib/gcc/avr/5.4.0/../../../../avr/lib/avr5\libm.a(addsf3.o)
 .text          0x00000000        0x0 c:/program files (x86)/atmel/studio/7.0/toolchain/avr8/avr8-gnu-toolchain/bin/../lib/gcc/avr/5.4.0/../../../../avr/lib/avr5\libm.a(addsf3x.o)
 .data          0x00000000        0x0 c:/program files (x86)/atmel/studio/7.0/toolchain/avr8/avr8-gnu-toolchain/bin/../lib/gcc/avr/5.4.0/../../../../avr/lib/avr5\libm.a(addsf3x.o)
 .bss           0x00000000        0x0 c:/program files (x86)/atmel/studio/7.0/toolchain/avr8/avr8-gnu-toolchain/bin/../lib/gcc/avr/5.4.0/../../../../avr/lib/avr5\libm.a(addsf3x.o)
 .text.avr-libc.fplib
                0x00000000       0xcc c:/program files (x86)/atmel/studio/7.0/toolchain/avr8/avr8-gnu-toolchain/bin/../lib/gcc/avr/5.4.0/../../../../avr/lib/avr5\libm.a(addsf3x.o)
 .text          0x00000000        0x0 c:/program files (x86)/atmel/studio/7.0/toolchain/avr8/avr8-gnu-toolchain/bin/../lib/gcc/avr/5.4.0/../../../../avr/lib/avr5\libm.a(cmpsf2.o)
 .data          0x00000000        0x0 c:/program files (x86)/atmel/studio/7.0/toolchain/avr8/avr8-gnu-toolchain/bin/../lib/gcc/avr/5.4.0/../../../../avr/lib/avr5\libm.a(cmpsf2.o)
 .bss           0x00000000        0x0 c:/program files (x86)/atmel/studio/7.0/toolchain/avr8/avr8-gnu-toolchain/bin/../lib/gcc/avr/5.4.0/../../../../avr/lib/avr5\libm.a(cmpsf2.o)
 .text.avr-libc.fplib
                0x00000000        0xa c:/program files (x86)/atmel/studio/7.0/toolchain/avr8/avr8-gnu-toolchain/bin/../lib/gcc/avr/5.4.0/../../../../avr/lib/avr5\libm.a(cmpsf2.o)
 .text          0x00000000        0x0 c:/program files (x86)/atmel/studio/7.0/toolchain/avr8/avr8-gnu-toolchain/bin/../lib/gcc/avr/5.4.0/../../../../avr/lib/avr5\libm.a(divsf3.o)
 .data          0x00000000        0x0 c:/program files (x86)/atmel/studio/7.0/toolchain/avr8/avr8-gnu-toolchain/bin/../lib/gcc/avr/5.4.0/../../../../avr/lib/avr5\libm.a(divsf3.o)
 .bss           0x00000000        0x0 c:/program files (x86)/atmel/studio/7.0/toolchain/avr8/avr8-gnu-toolchain/bin/../lib/gcc/avr/5.4.0/../../../../avr/lib/avr5\libm.a(divsf3.o)
 .text          0x00000000        0x0 c:/program files (x86)/atmel/studio/7.0/toolchain/avr8/avr8-gnu-toolchain/bin/../lib/gcc/avr/5.4.0/../../../../avr/lib/avr5\libm.a(divsf3x.o)
 .data          0x00000000        0x0 c:/program files (x86)/atmel/studio/7.0/toolchain/avr8/avr8-gnu-toolchain/bin/../lib/gcc/avr/5.4.0/../../../../avr/lib/avr5\libm.a(divsf3x.o)
 .bss           0x00000000        0x0 c:/program files (x86)/atmel/studio/7.0/toolchain/avr8/avr8-gnu-toolchain/bin/../lib/gcc/avr/5.4.0/../../../../avr/lib/avr5\libm.a(divsf3x.o)
 .text          0x00000000        0x0 c:/program files (x86)/atmel/studio/7.0/toolchain/avr8/avr8-gnu-toolchain/bin/../lib/gcc/avr/5.4.0/../../../../avr/lib/avr5\libm.a(fixunssfsi.o)
 .data          0x00000000        0x0 c:/program files (x86)/atmel/studio/7.0/toolchain/avr8/avr8-gnu-toolchain/bin/../lib/gcc/avr/5.4.0/../../../../avr/lib/avr5\libm.a(fixunssfsi.o)
 .bss           0x00000000        0x0 c:/program files (x86)/atmel/studio/7.0/toolchain/avr8/avr8-gnu-toolchain/bin/../lib/gcc/avr/5.4.0/../../../../avr/lib/avr5\libm.a(fixunssfsi.o)
 .text          0x00000000        0x0 c:/program files (x86)/atmel/studio/7.0/toolchain/avr8/avr8-gnu-toolchain/bin/../lib/gcc/avr/5.4.0/../../../../avr/lib/avr5\libm.a(floatsisf.o)
 .data          0x00000000        0x0 c:/program files (x86)/atmel/studio/7.0/toolchain/avr8/avr8-gnu-toolchain/bin/../lib/gcc/avr/5.4.0/../../../../avr/lib/avr5\libm.a(floatsisf.o)
 .bss           0x00000000        0x0 c:/program files (x86)/atmel/studio/7.0/toolchain/avr8/avr8-gnu-toolchain/bin/../lib/gcc/avr/5.4.0/../../../../avr/lib/avr5\libm.a(floatsisf.o)
 .text.avr-libc.fplib
                0x00000000       0x7a c:/program files (x86)/atmel/studio/7.0/toolchain/avr8/avr8-gnu-toolchain/bin/../lib/gcc/avr/5.4.0/../../../../avr/lib/avr5\libm.a(floatsisf.o)
 .text          0x00000000        0x0 c:/program files (x86)/atmel/studio/7.0/toolchain/avr8/avr8-gnu-toolchain/bin/../lib/gcc/avr/5.4.0/../../../../avr/lib/avr5\libm.a(fp_cmp.o)
 .data          0x00000000        0x0 c:/program files (x86)/atmel/studio/7.0/toolchain/avr8/avr8-gnu-toolchain/bin/../lib/gcc/avr/5.4.0/../../../../avr/lib/avr5\libm.a(fp_cmp.o)
 .bss           0x00000000        0x0 c:/program files (x86)/atmel/studio/7.0/toolchain/avr8/avr8-gnu-toolchain/bin/../lib/gcc/avr/5.4.0/../../../../avr/lib/avr5\libm.a(fp_cmp.o)
 .text.avr-libc.fplib
                0x00000000       0x48 c:/program files (x86)/atmel/studio/7.0/toolchain/avr8/avr8-gnu-toolchain/bin/../lib/gcc/avr/5.4.0/../../../../avr/lib/avr5\libm.a(fp_cmp.o)
 .text          0x00000000        0x0 c:/program files (x86)/atmel/studio/7.0/toolchain/avr8/avr8-gnu-toolchain/bin/../lib/gcc/avr/5.4.0/../../../../avr/lib/avr5\libm.a(fp_inf.o)
 .data          0x00000000        0x0 c:/program files (x86)/atmel/studio/7.0/toolchain/avr8/avr8-gnu-toolchain/bin/../lib/gcc/avr/5.4.0/../../../../avr/lib/avr5\libm.a(fp_inf.o)
 .bss           0x00000000        0x0 c:/program files (x86)/atmel/studio/7.0/toolchain/avr8/avr8-gnu-toolchain/bin/../lib/gcc/avr/5.4.0/../../../../avr/lib/avr5\libm.a(fp_inf.o)
 .text          0x00000000        0x0 c:/program files (x86)/atmel/studio/7.0/toolchain/avr8/avr8-gnu-toolchain/bin/../lib/gcc/avr/5.4.0/../../../../avr/lib/avr5\libm.a(fp_nan.o)
 .data          0x00000000        0x0 c:/program files (x86)/atmel/studio/7.0/toolchain/avr8/avr8-gnu-toolchain/bin/../lib/gcc/avr/5.4.0/../../../../avr/lib/avr5\libm.a(fp_nan.o)
 .bss           0x00000000        0x0 c:/program files (x86)/atmel/studio/7.0/toolchain/avr8/avr8-gnu-toolchain/bin/../lib/gcc/avr/5.4.0/../../../../avr/lib/avr5\libm.a(fp_nan.o)
 .text          0x00000000        0x0 c:/program files (x86)/atmel/studio/7.0/toolchain/avr8/avr8-gnu-toolchain/bin/../lib/gcc/avr/5.4.0/../../../../avr/lib/avr5\libm.a(fp_pscA.o)
 .data          0x00000000        0x0 c:/program files (x86)/atmel/studio/7.0/toolchain/avr8/avr8-gnu-toolchain/bin/../lib/gcc/avr/5.4.0/../../../../avr/lib/avr5\libm.a(fp_pscA.o)
 .bss           0x00000000        0x0 c:/program files (x86)/atmel/studio/7.0/toolchain/avr8/avr8-gnu-toolchain/bin/../lib/gcc/avr/5.4.0/../../../../avr/lib/avr5\libm.a(fp_pscA.o)
 .text          0x00000000        0x0 c:/program files (x86)/atmel/studio/7.0/toolchain/avr8/avr8-gnu-toolchain/bin/../lib/gcc/avr/5.4.0/../../../../avr/lib/avr5\libm.a(fp_pscB.o)
 .data          0x00000000        0x0 c:/program files (x86)/atmel/studio/7.0/toolchain/avr8/avr8-gnu-toolchain/bin/../lib/gcc/avr/5.4.0/../../../../avr/lib/avr5\libm.a(fp_pscB.o)
 .bss           0x00000000        0x0 c:/program files (x86)/atmel/studio/7.0/toolchain/avr8/avr8-gnu-toolchain/bin/../lib/gcc/avr/5.4.0/../../../../avr/lib/avr5\libm.a(fp_pscB.o)
 .text          0x00000000        0x0 c:/program files (x86)/atmel/studio/7.0/toolchain/avr8/avr8-gnu-toolchain/bin/../lib/gcc/avr/5.4.0/../../../../avr/lib/avr5\libm.a(fp_round.o)
 .data          0x00000000        0x0 c:/program files (x86)/atmel/studio/7.0/toolchain/avr8/avr8-gnu-toolchain/bin/../lib/gcc/avr/5.4.0/../../../../avr/lib/avr5\libm.a(fp_round.o)
 .bss           0x00000000        0x0 c:/program files (x86)/atmel/studio/7.0/toolchain/avr8/avr8-gnu-toolchain/bin/../lib/gcc/avr/5.4.0/../../../../avr/lib/avr5\libm.a(fp_round.o)
 .text          0x00000000        0x0 c:/program files (x86)/atmel/studio/7.0/toolchain/avr8/avr8-gnu-toolchain/bin/../lib/gcc/avr/5.4.0/../../../../avr/lib/avr5\libm.a(fp_split3.o)
 .data          0x00000000        0x0 c:/program files (x86)/atmel/studio/7.0/toolchain/avr8/avr8-gnu-toolchain/bin/../lib/gcc/avr/5.4.0/../../../../avr/lib/avr5\libm.a(fp_split3.o)
 .bss           0x00000000        0x0 c:/program files (x86)/atmel/studio/7.0/toolchain/avr8/avr8-gnu-toolchain/bin/../lib/gcc/avr/5.4.0/../../../../avr/lib/avr5\libm.a(fp_split3.o)
 .text          0x00000000        0x0 c:/program files (x86)/atmel/studio/7.0/toolchain/avr8/avr8-gnu-toolchain/bin/../lib/gcc/avr/5.4.0/../../../../avr/lib/avr5\libm.a(fp_zero.o)
 .data          0x00000000        0x0 c:/program files (x86)/atmel/studio/7.0/toolchain/avr8/avr8-gnu-toolchain/bin/../lib/gcc/avr/5.4.0/../../../../avr/lib/avr5\libm.a(fp_zero.o)
 .bss           0x00000000        0x0 c:/program files (x86)/atmel/studio/7.0/toolchain/avr8/avr8-gnu-toolchain/bin/../lib/gcc/avr/5.4.0/../../../../avr/lib/avr5\libm.a(fp_zero.o)
 .text          0x00000000        0x0 c:/program files (x86)/atmel/studio/7.0/toolchain/avr8/avr8-gnu-toolchain/bin/../lib/gcc/avr/5.4.0/../../../../avr/lib/avr5\libm.a(gesf2.o)
 .data          0x00000000        0x0 c:/program files (x86)/atmel/studio/7.0/toolchain/avr8/avr8-gnu-toolchain/bin/../lib/gcc/avr/5.4.0/../../../../avr/lib/avr5\libm.a(gesf2.o)
 .bss           0x00000000        0x0 c:/program files (x86)/atmel/studio/7.0/toolchain/avr8/avr8-gnu-toolchain/bin/../lib/gcc/avr/5.4.0/../../../../avr/lib/avr5\libm.a(gesf2.o)
 .text.avr-libc.fplib
                0x00000000        0xa c:/program files (x86)/atmel/studio/7.0/toolchain/avr8/avr8-gnu-toolchain/bin/../lib/gcc/avr/5.4.0/../../../../avr/lib/avr5\libm.a(gesf2.o)
 .text          0x00000000        0x0 c:/program files (x86)/atmel/studio/7.0/toolchain/avr8/avr8-gnu-toolchain/bin/../lib/gcc/avr/5.4.0/../../../../avr/lib/avr5\libm.a(mulsf3.o)
 .data          0x00000000        0x0 c:/program files (x86)/atmel/studio/7.0/toolchain/avr8/avr8-gnu-toolchain/bin/../lib/gcc/avr/5.4.0/../../../../avr/lib/avr5\libm.a(mulsf3.o)
 .bss           0x00000000        0x0 c:/program files (x86)/atmel/studio/7.0/toolchain/avr8/avr8-gnu-toolchain/bin/../lib/gcc/avr/5.4.0/../../../../avr/lib/avr5\libm.a(mulsf3.o)
 .text          0x00000000        0x0 c:/program files (x86)/atmel/studio/7.0/toolchain/avr8/avr8-gnu-toolchain/bin/../lib/gcc/avr/5.4.0/../../../../avr/lib/avr5\libm.a(mulsf3x.o)
 .data          0x00000000        0x0 c:/program files (x86)/atmel/studio/7.0/toolchain/avr8/avr8-gnu-toolchain/bin/../lib/gcc/avr/5.4.0/../../../../avr/lib/avr5\libm.a(mulsf3x.o)
 .bss           0x00000000        0x0 c:/program files (x86)/atmel/studio/7.0/toolchain/avr8/avr8-gnu-toolchain/bin/../lib/gcc/avr/5.4.0/../../../../avr/lib/avr5\libm.a(mulsf3x.o)
 .text          0x00000000        0x0 c:/program files (x86)/atmel/studio/7.0/toolchain/avr8/avr8-gnu-toolchain/bin/../lib/gcc/avr/5.4.0/../../../../avr/lib/avr5\libm.a(unordsf2.o)
 .data          0x00000000        0x0 c:/program files (x86)/atmel/studio/7.0/toolchain/avr8/avr8-gnu-toolchain/bin/../lib/gcc/avr/5.4.0/../../../../avr/lib/avr5\libm.a(unordsf2.o)
 .bss           0x00000000        0x0 c:/program files (x86)/atmel/studio/7.0/toolchain/avr8/avr8-gnu-toolchain/bin/../lib/gcc/avr/5.4.0/../../../../avr/lib/avr5\libm.a(unordsf2.o)
 .text.avr-libc.fplib
                0x00000000        0xa c:/program files (x86)/atmel/studio/7.0/toolchain/avr8/avr8-gnu-toolchain/bin/../lib/gcc/avr/5.4.0/../../../../avr/lib/avr5\libm.a(unordsf2.o)
 .text          0x00000000        0x0 c:/program files (x86)/atmel/studio/7.0/toolchain/avr8/avr8-gnu-toolchain/bin/../lib/gcc/avr/5.4.0/avr5\libgcc.a(_mulsi3.o)
 .data          0x00000000        0x0 c:/program files (x86)/atmel/studio/7.0/toolchain/avr8/avr8-gnu-toolchain/bin/../lib/gcc/avr/5.4.0/avr5\libgcc.a(_mulsi3.o)
 .bss           0x00000000        0x0 c:/program files (x86)/atmel/studio/7.0/toolchain/avr8/avr8-gnu-toolchain/bin/../lib/gcc/avr/5.4.0/avr5\libgcc.a(_mulsi3.o)
 .text.libgcc.mul
                0x00000000       0x20 c:/program files (x86)/atmel/studio/7.0/toolchain/avr8/avr8-gnu-toolchain/bin/../lib/gcc/avr/5.4.0/avr5\libgcc.a(_mulsi3.o)
 .text.libgcc.div
                0x00000000        0x0 c:/program files (x86)/atmel/studio/7.0/toolchain/avr8/avr8-gnu-toolchain/bin/../lib/gcc/avr/5.4.0/avr5\libgcc.a(_mulsi3.o)
 .text.libgcc   0x00000000        0x0 c:/program files (x86)/atmel/studio/7.0/toolchain/avr8/avr8-gnu-toolchain/bin/../lib/gcc/avr/5.4.0/avr5\libgcc.a(_mulsi3.o)
 .text.libgcc.prologue
                0x00000000        0x0 c:/program files (x86)/atmel/studio/7.0/toolchain/avr8/avr8-gnu-toolchain/bin/../lib/gcc/avr/5.4.0/avr5\libgcc.a(_mulsi3.o)
 .text.libgcc.builtins
                0x00000000        0x0 c:/program files (x86)/atmel/studio/7.0/toolchain/avr8/avr8-gnu-toolchain/bin/../lib/gcc/avr/5.4.0/avr5\libgcc.a(_mulsi3.o)
 .text.libgcc.fmul
                0x00000000        0x0 c:/program files (x86)/atmel/studio/7.0/toolchain/avr8/avr8-gnu-toolchain/bin/../lib/gcc/avr/5.4.0/avr5\libgcc.a(_mulsi3.o)
 .text.libgcc.fixed
                0x00000000        0x0 c:/program files (x86)/atmel/studio/7.0/toolchain/avr8/avr8-gnu-toolchain/bin/../lib/gcc/avr/5.4.0/avr5\libgcc.a(_mulsi3.o)
 .text          0x00000000        0x0 c:/program files (x86)/atmel/studio/7.0/toolchain/avr8/avr8-gnu-toolchain/bin/../lib/gcc/avr/5.4.0/avr5\libgcc.a(_udivmodsi4.o)
 .data          0x00000000        0x0 c:/program files (x86)/atmel/studio/7.0/toolchain/avr8/avr8-gnu-toolchain/bin/../lib/gcc/avr/5.4.0/avr5\libgcc.a(_udivmodsi4.o)
 .bss           0x00000000        0x0 c:/program files (x86)/atmel/studio/7.0/toolchain/avr8/avr8-gnu-toolchain/bin/../lib/gcc/avr/5.4.0/avr5\libgcc.a(_udivmodsi4.o)
 .text.libgcc.mul
                0x00000000        0x0 c:/program files (x86)/atmel/studio/7.0/toolchain/avr8/avr8-gnu-toolchain/bin/../lib/gcc/avr/5.4.0/avr5\libgcc.a(_udivmodsi4.o)
 .text.libgcc   0x00000000        0x0 c:/program files (x86)/atmel/studio/7.0/toolchain/avr8/avr8-gnu-toolchain/bin/../lib/gcc/avr/5.4.0/avr5\libgcc.a(_udivmodsi4.o)
 .text.libgcc.prologue
                0x00000000        0x0 c:/program files (x86)/atmel/studio/7.0/toolchain/avr8/avr8-gnu-toolchain/bin/../lib/gcc/avr/5.4.0/avr5\libgcc.a(_udivmodsi4.o)
 .text.libgcc.builtins
                0x00000000        0x0 c:/program files (x86)/atmel/studio/7.0/toolchain/avr8/avr8-gnu-toolchain/bin/../lib/gcc/avr/5.4.0/avr5\libgcc.a(_udivmodsi4.o)
 .text.libgcc.fmul
                0x00000000        0x0 c:/program files (x86)/atmel/studio/7.0/toolchain/avr8/avr8-gnu-toolchain/bin/../lib/gcc/avr/5.4.0/avr5\libgcc.a(_udivmodsi4.o)
 .text.libgcc.fixed
                0x00000000        0x0 c:/program files (x86)/atmel/studio/7.0/toolchain/avr8/avr8-gnu-toolchain/bin/../lib/gcc/avr/5.4.0/avr5\libgcc.a(_udivmodsi4.o)
 .text          0x00000000        0x0 c:/program files (x86)/atmel/studio/7.0/toolchain/avr8/avr8-gnu-toolchain/bin/../lib/gcc/avr/5.4.0/avr5\libgcc.a(_divmodsi4.o)
 .data          0x00000000        0x0 c:/program files (x86)/atmel/studio/7.0/toolchain/avr8/avr8-gnu-toolchain/bin/../lib/gcc/avr/5.4.0/avr5\libgcc.a(_divmodsi4.o)
 .bss           0x00000000        0x0 c:/program files (x86)/atmel/studio/7.0/toolchain/avr8/avr8-gnu-toolchain/bin/../lib/gcc/avr/5.4.0/avr5\libgcc.a(_divmodsi4.o)
 .text.libgcc.mul
                0x00000000        0x0 c:/program files (x86)/atmel/studio/7.0/toolchain/avr8/avr8-gnu-toolchain/bin/../lib/gcc/avr/5.4.0/avr5\libgcc.a(_divmodsi4.o)
 .text.libgcc   0x00000000        0x0 c:/program files (x86)/atmel/studio/7.0/toolchain/avr8/avr8-gnu-toolchain/bin/../lib/gcc/avr/5.4.0/avr5\libgcc.a(_divmodsi4.o)
 .text.libgcc.prologue
                0x00000000        0x0 c:/program files (x86)/atmel/studio/7.0/toolchain/avr8/avr8-gnu-toolchain/bin/../lib/gcc/avr/5.4.0/avr5\libgcc.a(_divmodsi4.o)
 .text.libgcc.builtins
                0x00000000        0x0 c:/program files (x86)/atmel/studio/7.0/toolchain/avr8/avr8-gnu-toolchain/bin/../lib/gcc/avr/5.4.0/avr5\libgcc.a(_divmodsi4.o)
 .text.libgcc.fmul
                0x00000000        0x0 c:/program files (x86)/atmel/studio/7.0/toolchain/avr8/avr8-gnu-toolchain/bin/../lib/gcc/avr/5.4.0/avr5\libgcc.a(_divmodsi4.o)
 .text.libgcc.fixed
                0x00000000        0x0 c:/program files (x86)/atmel/studio/7.0/toolchain/avr8/avr8-gnu-toolchain/bin/../lib/gcc/avr/5.4.0/avr5\libgcc.a(_divmodsi4.o)
 .text          0x00000000        0x0 c:/program files (x86)/atmel/studio/7.0/toolchain/avr8/avr8-gnu-toolchain/bin/../lib/gcc/avr/5.4.0/avr5\libgcc.a(_negsi2.o)
 .data          0x00000000        0x0 c:/program files (x86)/atmel/studio/7.0/toolchain/avr8/avr8-gnu-toolchain/bin/../lib/gcc/avr/5.4.0/avr5\libgcc.a(_negsi2.o)
 .bss           0x00000000        0x0 c:/program files (x86)/atmel/studio/7.0/toolchain/avr8/avr8-gnu-toolchain/bin/../lib/gcc/avr/5.4.0/avr5\libgcc.a(_negsi2.o)
 .text.libgcc.mul
                0x00000000        0x0 c:/program files (x86)/atmel/studio/7.0/toolchain/avr8/avr8-gnu-toolchain/bin/../lib/gcc/avr/5.4.0/avr5\libgcc.a(_negsi2.o)
 .text.libgcc   0x00000000        0x0 c:/program files (x86)/atmel/studio/7.0/toolchain/avr8/avr8-gnu-toolchain/bin/../lib/gcc/avr/5.4.0/avr5\libgcc.a(_negsi2.o)
 .text.libgcc.prologue
                0x00000000        0x0 c:/program files (x86)/atmel/studio/7.0/toolchain/avr8/avr8-gnu-toolchain/bin/../lib/gcc/avr/5.4.0/avr5\libgcc.a(_negsi2.o)
 .text.libgcc.builtins
                0x00000000        0x0 c:/program files (x86)/atmel/studio/7.0/toolchain/avr8/avr8-gnu-toolchain/bin/../lib/gcc/avr/5.4.0/avr5\libgcc.a(_negsi2.o)
 .text.libgcc.fmul
                0x00000000        0x0 c:/program files (x86)/atmel/studio/7.0/toolchain/avr8/avr8-gnu-toolchain/bin/../lib/gcc/avr/5.4.0/avr5\libgcc.a(_negsi2.o)
 .text.libgcc.fixed
                0x00000000        0x0 c:/program files (x86)/atmel/studio/7.0/toolchain/avr8/avr8-gnu-toolchain/bin/../lib/gcc/avr/5.4.0/avr5\libgcc.a(_negsi2.o)
 .text          0x00000000        0x0 c:/program files (x86)/atmel/studio/7.0/toolchain/avr8/avr8-gnu-toolchain/bin/../lib/gcc/avr/5.4.0/avr5\libgcc.a(_exit.o)
 .data          0x00000000        0x0 c:/program files (x86)/atmel/studio/7.0/toolchain/avr8/avr8-gnu-toolchain/bin/../lib/gcc/avr/5.4.0/avr5\libgcc.a(_exit.o)
 .bss           0x00000000        0x0 c:/program files (x86)/atmel/studio/7.0/toolchain/avr8/avr8-gnu-toolchain/bin/../lib/gcc/avr/5.4.0/avr5\libgcc.a(_exit.o)
 .text.libgcc.mul
                0x00000000        0x0 c:/program files (x86)/atmel/studio/7.0/toolchain/avr8/avr8-gnu-toolchain/bin/../lib/gcc/avr/5.4.0/avr5\libgcc.a(_exit.o)
 .text.libgcc.div
                0x00000000        0x0 c:/program files (x86)/atmel/studio/7.0/toolchain/avr8/avr8-gnu-toolchain/bin/../lib/gcc/avr/5.4.0/avr5\libgcc.a(_exit.o)
 .text.libgcc   0x00000000        0x0 c:/program files (x86)/atmel/studio/7.0/toolchain/avr8/avr8-gnu-toolchain/bin/../lib/gcc/avr/5.4.0/avr5\libgcc.a(_exit.o)
 .text.libgcc.prologue
                0x00000000        0x0 c:/program files (x86)/atmel/studio/7.0/toolchain/avr8/avr8-gnu-toolchain/bin/../lib/gcc/avr/5.4.0/avr5\libgcc.a(_exit.o)
 .text.libgcc.builtins
                0x00000000        0x0 c:/program files (x86)/atmel/studio/7.0/toolchain/avr8/avr8-gnu-toolchain/bin/../lib/gcc/avr/5.4.0/avr5\libgcc.a(_exit.o)
 .text.libgcc.fmul
                0x00000000        0x0 c:/program files (x86)/atmel/studio/7.0/toolchain/avr8/avr8-gnu-toolchain/bin/../lib/gcc/avr/5.4.0/avr5\libgcc.a(_exit.o)
 .text.libgcc.fixed
                0x00000000        0x0 c:/program files (x86)/atmel/studio/7.0/toolchain/avr8/avr8-gnu-toolchain/bin/../lib/gcc/avr/5.4.0/avr5\libgcc.a(_exit.o)
 .text          0x00000000        0x0 c:/program files (x86)/atmel/studio/7.0/toolchain/avr8/avr8-gnu-toolchain/bin/../lib/gcc/avr/5.4.0/avr5\libgcc.a(_tablejump2.o)
 .data          0x00000000        0x0 c:/program files (x86)/atmel/studio/7.0/toolchain/avr8/avr8-gnu-toolchain/bin/../lib/gcc/avr/5.4.0/avr5\libgcc.a(_tablejump2.o)
 .bss           0x00000000        0x0 c:/program files (x86)/atmel/studio/7.0/toolchain/avr8/avr8-gnu-toolchain/bin/../lib/gcc/avr/5.4.0/avr5\libgcc.a(_tablejump2.o)
 .text.libgcc.mul
                0x00000000        0x0 c:/program files (x86)/atmel/studio/7.0/toolchain/avr8/avr8-gnu-toolchain/bin/../lib/gcc/avr/5.4.0/avr5\libgcc.a(_tablejump2.o)
 .text.libgcc.div
                0x00000000        0x0 c:/program files (x86)/atmel/studio/7.0/toolchain/avr8/avr8-gnu-toolchain/bin/../lib/gcc/avr/5.4.0/avr5\libgcc.a(_tablejump2.o)
 .text.libgcc.prologue
                0x00000000        0x0 c:/program files (x86)/atmel/studio/7.0/toolchain/avr8/avr8-gnu-toolchain/bin/../lib/gcc/avr/5.4.0/avr5\libgcc.a(_tablejump2.o)
 .text.libgcc.builtins
                0x00000000        0x0 c:/program files (x86)/atmel/studio/7.0/toolchain/avr8/avr8-gnu-toolchain/bin/../lib/gcc/avr/5.4.0/avr5\libgcc.a(_tablejump2.o)
 .text.libgcc.fmul
                0x00000000        0x0 c:/program files (x86)/atmel/studio/7.0/toolchain/avr8/avr8-gnu-toolchain/bin/../lib/gcc/avr/5.4.0/avr5\libgcc.a(_tablejump2.o)
 .text.libgcc.fixed
                0x00000000        0x0 c:/program files (x86)/atmel/studio/7.0/toolchain/avr8/avr8-gnu-toolchain/bin/../lib/gcc/avr/5.4.0/avr5\libgcc.a(_tablejump2.o)
 .text          0x00000000        0x0 c:/program files (x86)/atmel/studio/7.0/toolchain/avr8/avr8-gnu-toolchain/bin/../lib/gcc/avr/5.4.0/avr5\libgcc.a(_copy_data.o)
 .data          0x00000000        0x0 c:/program files (x86)/atmel/studio/7.0/toolchain/avr8/avr8-gnu-toolchain/bin/../lib/gcc/avr/5.4.0/avr5\libgcc.a(_copy_data.o)
 .bss           0x00000000        0x0 c:/program files (x86)/atmel/studio/7.0/toolchain/avr8/avr8-gnu-toolchain/bin/../lib/gcc/avr/5.4.0/avr5\libgcc.a(_copy_data.o)
 .text.libgcc.mul
                0x00000000        0x0 c:/program files (x86)/atmel/studio/7.0/toolchain/avr8/avr8-gnu-toolchain/bin/../lib/gcc/avr/5.4.0/avr5\libgcc.a(_copy_data.o)
 .text.libgcc.div
                0x00000000        0x0 c:/program files (x86)/atmel/studio/7.0/toolchain/avr8/avr8-gnu-toolchain/bin/../lib/gcc/avr/5.4.0/avr5\libgcc.a(_copy_data.o)
 .text.libgcc   0x00000000        0x0 c:/program files (x86)/atmel/studio/7.0/toolchain/avr8/avr8-gnu-toolchain/bin/../lib/gcc/avr/5.4.0/avr5\libgcc.a(_copy_data.o)
 .text.libgcc.prologue
                0x00000000        0x0 c:/program files (x86)/atmel/studio/7.0/toolchain/avr8/avr8-gnu-toolchain/bin/../lib/gcc/avr/5.4.0/avr5\libgcc.a(_copy_data.o)
 .text.libgcc.builtins
                0x00000000        0x0 c:/program files (x86)/atmel/studio/7.0/toolchain/avr8/avr8-gnu-toolchain/bin/../lib/gcc/avr/5.4.0/avr5\libgcc.a(_copy_data.o)
 .text.libgcc.fmul
                0x00000000        0x0 c:/program files (x86)/atmel/studio/7.0/toolchain/avr8/avr8-gnu-toolchain/bin/../lib/gcc/avr/5.4.0/avr5\libgcc.a(_copy_data.o)
 .text.libgcc.fixed
                0x00000000        0x0 c:/program files (x86)/atmel/studio/7.0/toolchain/avr8/avr8-gnu-toolchain/bin/../lib/gcc/avr/5.4.0/avr5\libgcc.a(_copy_data.o)
 .text          0x00000000        0x0 c:/program files (x86)/atmel/studio/7.0/toolchain/avr8/avr8-gnu-toolchain/bin/../lib/gcc/avr/5.4.0/avr5\libgcc.a(_clear_bss.o)
 .data          0x00000000        0x0 c:/program files (x86)/atmel/studio/7.0/toolchain/avr8/avr8-gnu-toolchain/bin/../lib/gcc/avr/5.4.0/avr5\libgcc.a(_clear_bss.o)
 .bss           0x00000000        0x0 c:/program files (x86)/atmel/studio/7.0/toolchain/avr8/avr8-gnu-toolchain/bin/../lib/gcc/avr/5.4.0/avr5\libgcc.a(_clear_bss.o)
 .text.libgcc.mul
                0x00000000        0x0 c:/program files (x86)/atmel/studio/7.0/toolchain/avr8/avr8-gnu-toolchain/bin/../lib/gcc/avr/5.4.0/avr5\libgcc.a(_clear_bss.o)
 .text.libgcc.div
                0x00000000        0x0 c:/program files (x86)/atmel/studio/7.0/toolchain/avr8/avr8-gnu-toolchain/bin/../lib/gcc/avr/5.4.0/avr5\libgcc.a(_clear_bss.o)
 .text.libgcc   0x00000000        0x0 c:/program files (x86)/atmel/studio/7.0/toolchain/avr8/avr8-gnu-toolchain/bin/../lib/gcc/avr/5.4.0/avr5\libgcc.a(_clear_bss.o)
 .text.libgcc.prologue
                0x00000000        0x0 c:/program files (x86)/atmel/studio/7.0/toolchain/avr8/avr8-gnu-toolchain/bin/../lib/gcc/avr/5.4.0/avr5\libgcc.a(_clear_bss.o)
 .text.libgcc.builtins
                0x00000000        0x0 c:/program files (x86)/atmel/studio/7.0/toolchain/avr8/avr8-gnu-toolchain/bin/../lib/gcc/avr/5.4.0/avr5\libgcc.a(_clear_bss.o)
 .text.libgcc.fmul
                0x00000000        0x0 c:/program files (x86)/atmel/studio/7.0/toolchain/avr8/avr8-gnu-toolchain/bin/../lib/gcc/avr/5.4.0/avr5\libgcc.a(_clear_bss.o)
 .text.libgcc.fixed
                0x00000000        0x0 c:/program files (x86)/atmel/studio/7.0/toolchain/avr8/avr8-gnu-toolchain/bin/../lib/gcc/avr/5.4.0/avr5\libgcc.a(_clear_bss.o)
 .text          0x00000000        0x0 c:/program files (x86)/atmel/studio/7.0/toolchain/avr8/avr8-gnu-toolchain/bin/../lib/gcc/avr/5.4.0/avr5\libgcc.a(_ctors.o)
 .data          0x00000000        0x0 c:/program files (x86)/atmel/studio/7.0/toolchain/avr8/avr8-gnu-toolchain/bin/../lib/gcc/avr/5.4.0/avr5\libgcc.a(_ctors.o)
 .bss           0x00000000        0x0 c:/program files (x86)/atmel/studio/7.0/toolchain/avr8/avr8-gnu-toolchain/bin/../lib/gcc/avr/5.4.0/avr5\libgcc.a(_ctors.o)
 .text.libgcc.mul
                0x00000000        0x0 c:/program files (x86)/atmel/studio/7.0/toolchain/avr8/avr8-gnu-toolchain/bin/../lib/gcc/avr/5.4.0/avr5\libgcc.a(_ctors.o)
 .text.libgcc.div
                0x00000000        0x0 c:/program files (x86)/atmel/studio/7.0/toolchain/avr8/avr8-gnu-toolchain/bin/../lib/gcc/avr/5.4.0/avr5\libgcc.a(_ctors.o)
 .text.libgcc   0x00000000        0x0 c:/program files (x86)/atmel/studio/7.0/toolchain/avr8/avr8-gnu-toolchain/bin/../lib/gcc/avr/5.4.0/avr5\libgcc.a(_ctors.o)
 .text.libgcc.prologue
                0x00000000        0x0 c:/program files (x86)/atmel/studio/7.0/toolchain/avr8/avr8-gnu-toolchain/bin/../lib/gcc/avr/5.4.0/avr5\libgcc.a(_ctors.o)
 .text.libgcc.builtins
                0x00000000        0x0 c:/program files (x86)/atmel/studio/7.0/toolchain/avr8/avr8-gnu-toolchain/bin/../lib/gcc/avr/5.4.0/avr5\libgcc.a(_ctors.o)
 .text.libgcc.fmul
                0x00000000        0x0 c:/program files (x86)/atmel/studio/7.0/toolchain/avr8/avr8-gnu-toolchain/bin/../lib/gcc/avr/5.4.0/avr5\libgcc.a(_ctors.o)
 .text.libgcc.fixed
                0x00000000        0x0 c:/program files (x86)/atmel/studio/7.0/toolchain/avr8/avr8-gnu-toolchain/bin/../lib/gcc/avr/5.4.0/avr5\libgcc.a(_ctors.o)
 .text          0x00000000        0x0 c:/program files (x86)/atmel/studio/7.0/toolchain/avr8/avr8-gnu-toolchain/bin/../lib/gcc/avr/5.4.0/avr5\libgcc.a(_muluhisi3.o)
 .data          0x00000000        0x0 c:/program files (x86)/atmel/studio/7.0/toolchain/avr8/avr8-gnu-toolchain/bin/../lib/gcc/avr/5.4.0/avr5\libgcc.a(_muluhisi3.o)
 .bss           0x00000000        0x0 c:/program files (x86)/atmel/studio/7.0/toolchain/avr8/avr8-gnu-toolchain/bin/../lib/gcc/avr/5.4.0/avr5\libgcc.a(_muluhisi3.o)
 .text.libgcc.div
                0x00000000        0x0 c:/program files (x86)/atmel/studio/7.0/toolchain/avr8/avr8-gnu-toolchain/bin/../lib/gcc/avr/5.4.0/avr5\libgcc.a(_muluhisi3.o)
 .text.libgcc   0x00000000        0x0 c:/program files (x86)/atmel/studio/7.0/toolchain/avr8/avr8-gnu-toolchain/bin/../lib/gcc/avr/5.4.0/avr5\libgcc.a(_muluhisi3.o)
 .text.libgcc.prologue
                0x00000000        0x0 c:/program files (x86)/atmel/studio/7.0/toolchain/avr8/avr8-gnu-toolchain/bin/../lib/gcc/avr/5.4.0/avr5\libgcc.a(_muluhisi3.o)
 .text.libgcc.builtins
                0x00000000        0x0 c:/program files (x86)/atmel/studio/7.0/toolchain/avr8/avr8-gnu-toolchain/bin/../lib/gcc/avr/5.4.0/avr5\libgcc.a(_muluhisi3.o)
 .text.libgcc.fmul
                0x00000000        0x0 c:/program files (x86)/atmel/studio/7.0/toolchain/avr8/avr8-gnu-toolchain/bin/../lib/gcc/avr/5.4.0/avr5\libgcc.a(_muluhisi3.o)
 .text.libgcc.fixed
                0x00000000        0x0 c:/program files (x86)/atmel/studio/7.0/toolchain/avr8/avr8-gnu-toolchain/bin/../lib/gcc/avr/5.4.0/avr5\libgcc.a(_muluhisi3.o)
 .text          0x00000000        0x0 c:/program files (x86)/atmel/studio/7.0/toolchain/avr8/avr8-gnu-toolchain/bin/../lib/gcc/avr/5.4.0/avr5\libgcc.a(_umulhisi3.o)
 .data          0x00000000        0x0 c:/program files (x86)/atmel/studio/7.0/toolchain/avr8/avr8-gnu-toolchain/bin/../lib/gcc/avr/5.4.0/avr5\libgcc.a(_umulhisi3.o)
 .bss           0x00000000        0x0 c:/program files (x86)/atmel/studio/7.0/toolchain/avr8/avr8-gnu-toolchain/bin/../lib/gcc/avr/5.4.0/avr5\libgcc.a(_umulhisi3.o)
 .text.libgcc.div
                0x00000000        0x0 c:/program files (x86)/atmel/studio/7.0/toolchain/avr8/avr8-gnu-toolchain/bin/../lib/gcc/avr/5.4.0/avr5\libgcc.a(_umulhisi3.o)
 .text.libgcc   0x00000000        0x0 c:/program files (x86)/atmel/studio/7.0/toolchain/avr8/avr8-gnu-toolchain/bin/../lib/gcc/avr/5.4.0/avr5\libgcc.a(_umulhisi3.o)
 .text.libgcc.prologue
                0x00000000        0x0 c:/program files (x86)/atmel/studio/7.0/toolchain/avr8/avr8-gnu-toolchain/bin/../lib/gcc/avr/5.4.0/avr5\libgcc.a(_umulhisi3.o)
 .text.libgcc.builtins
                0x00000000        0x0 c:/program files (x86)/atmel/studio/7.0/toolchain/avr8/avr8-gnu-toolchain/bin/../lib/gcc/avr/5.4.0/avr5\libgcc.a(_umulhisi3.o)
 .text.libgcc.fmul
                0x00000000        0x0 c:/program files (x86)/atmel/studio/7.0/toolchain/avr8/avr8-gnu-toolchain/bin/../lib/gcc/avr/5.4.0/avr5\libgcc.a(_umulhisi3.o)
 .text.libgcc.fixed
                0x00000000        0x0 c:/program files (x86)/atmel/studio/7.0/toolchain/avr8/avr8-gnu-toolchain/bin/../lib/gcc/avr/5.4.0/avr5\libgcc.a(_umulhisi3.o)
 .text          0x00000000        0x0 c:/program files (x86)/atmel/studio/7.0/toolchain/avr8/avr8-gnu-toolchain/bin/../lib/gcc/avr/5.4.0/../../../../avr/lib/avr5\libc.a(random.o)
 .bss           0x00000000        0x0 c:/program files (x86)/atmel/studio/7.0/toolchain/avr8/avr8-gnu-toolchain/bin/../lib/gcc/avr/5.4.0/../../../../avr/lib/avr5\libc.a(random.o)
 .text          0x00000000        0x0 c:/program files (x86)/atmel/studio/7.0/toolchain/avr8/avr8-gnu-toolchain/bin/../lib/gcc/avr/5.4.0/../../../../avr/lib/avr5\libc.a(abort.o)
 .data          0x00000000        0x0 c:/program files (x86)/atmel/studio/7.0/toolchain/avr8/avr8-gnu-toolchain/bin/../lib/gcc/avr/5.4.0/../../../../avr/lib/avr5\libc.a(abort.o)
 .bss           0x00000000        0x0 c:/program files (x86)/atmel/studio/7.0/toolchain/avr8/avr8-gnu-toolchain/bin/../lib/gcc/avr/5.4.0/../../../../avr/lib/avr5\libc.a(abort.o)
 .text          0x00000000        0x0 c:/program files (x86)/atmel/studio/7.0/toolchain/avr8/avr8-gnu-toolchain/bin/../lib/gcc/avr/5.4.0/../../../../avr/lib/avr5\libc.a(memcpy_P.o)
 .data          0x00000000        0x0 c:/program files (x86)/atmel/studio/7.0/toolchain/avr8/avr8-gnu-toolchain/bin/../lib/gcc/avr/5.4.0/../../../../avr/lib/avr5\libc.a(memcpy_P.o)
 .bss           0x00000000        0x0 c:/program files (x86)/atmel/studio/7.0/toolchain/avr8/avr8-gnu-toolchain/bin/../lib/gcc/avr/5.4.0/../../../../avr/lib/avr5\libc.a(memcpy_P.o)
 .text          0x00000000        0x0 c:/program files (x86)/atmel/studio/7.0/toolchain/avr8/avr8-gnu-toolchain/bin/../lib/gcc/avr/5.4.0/../../../../avr/lib/avr5\libc.a(memcpy.o)
 .data          0x00000000        0x0 c:/program files (x86)/atmel/studio/7.0/toolchain/avr8/avr8-gnu-toolchain/bin/../lib/gcc/avr/5.4.0/../../../../avr/lib/avr5\libc.a(memcpy.o)
 .bss           0x00000000        0x0 c:/program files (x86)/atmel/studio/7.0/toolchain/avr8/avr8-gnu-toolchain/bin/../lib/gcc/avr/5.4.0/../../../../avr/lib/avr5\libc.a(memcpy.o)
 .text          0x00000000        0x0 c:/program files (x86)/atmel/studio/7.0/toolchain/avr8/avr8-gnu-toolchain/bin/../lib/gcc/avr/5.4.0/../../../../avr/lib/avr5\libc.a(strstr.o)
 .data          0x00000000        0x0 c:/program files (x86)/atmel/studio/7.0/toolchain/avr8/avr8-gnu-toolchain/bin/../lib/gcc/avr/5.4.0/../../../../avr/lib/avr5\libc.a(strstr.o)
 .bss           0x00000000        0x0 c:/program files (x86)/atmel/studio/7.0/toolchain/avr8/avr8-gnu-toolchain/bin/../lib/gcc/avr/5.4.0/../../../../avr/lib/avr5\libc.a(strstr.o)
 .text          0x00000000        0x0 c:/program files (x86)/atmel/studio/7.0/toolchain/avr8/avr8-gnu-toolchain/bin/../lib/gcc/avr/5.4.0/avr5\libgcc.a(_mulshisi3.o)
 .data          0x00000000        0x0 c:/program files (x86)/atmel/studio/7.0/toolchain/avr8/avr8-gnu-toolchain/bin/../lib/gcc/avr/5.4.0/avr5\libgcc.a(_mulshisi3.o)
 .bss           0x00000000        0x0 c:/program files (x86)/atmel/studio/7.0/toolchain/avr8/avr8-gnu-toolchain/bin/../lib/gcc/avr/5.4.0/avr5\libgcc.a(_mulshisi3.o)
 .text.libgcc.div
                0x00000000        0x0 c:/program files (x86)/atmel/studio/7.0/toolchain/avr8/avr8-gnu-toolchain/bin/../lib/gcc/avr/5.4.0/avr5\libgcc.a(_mulshisi3.o)
 .text.libgcc   0x00000000        0x0 c:/program files (x86)/atmel/studio/7.0/toolchain/avr8/avr8-gnu-toolchain/bin/../lib/gcc/avr/5.4.0/avr5\libgcc.a(_mulshisi3.o)
 .text.libgcc.prologue
                0x00000000        0x0 c:/program files (x86)/atmel/studio/7.0/toolchain/avr8/avr8-gnu-toolchain/bin/../lib/gcc/avr/5.4.0/avr5\libgcc.a(_mulshisi3.o)
 .text.libgcc.builtins
                0x00000000        0x0 c:/program files (x86)/atmel/studio/7.0/toolchain/avr8/avr8-gnu-toolchain/bin/../lib/gcc/avr/5.4.0/avr5\libgcc.a(_mulshisi3.o)
 .text.libgcc.fmul
                0x00000000        0x0 c:/program files (x86)/atmel/studio/7.0/toolchain/avr8/avr8-gnu-toolchain/bin/../lib/gcc/avr/5.4.0/avr5\libgcc.a(_mulshisi3.o)
 .text.libgcc.fixed
                0x00000000        0x0 c:/program files (x86)/atmel/studio/7.0/toolchain/avr8/avr8-gnu-toolchain/bin/../lib/gcc/avr/5.4.0/avr5\libgcc.a(_mulshisi3.o)

Memory Configuration

Name             Origin             Length             Attributes
text             0x00000000         0x00008000         xr
data             0x00800100         0x00000a00         rw !x
eeprom           0x00810000         0x00000400         rw !x
fuse             0x00820000         0x00000003         rw !x
lock             0x00830000         0x00000400         rw !x
signature        0x00840000         0x00000400         rw !x
user_signatures  0x00850000         0x00000400         rw !x
*default*        0x00000000         0xffffffff

Linker script and memory map

Address of section .data set to 0x800100
LOAD C:/Program Files (x86)/Atmel/Studio/7.0/Packs/Atmel/ATmega_DFP/1.7.374/gcc/dev/atmega32u4/avr5/crtatmega32u4.o
LOAD Sketch.o
START GROUP
LOAD c:/program files (x86)/atmel/studio/7.0/toolchain/avr8/avr8-gnu-toolchain/bin/../lib/gcc/avr/5.4.0/../../../../avr/lib/avr5\libm.a
LOAD C:\Users\xia\Desktop\rpk2\firmwares\leorf\ArduinoSketch1\ArduinoSketch1\ArduinoCore\Debug\libArduinoCore.a
END GROUP
LOAD c:/program files (x86)/atmel/studio/7.0/toolchain/avr8/avr8-gnu-toolchain/bin/../lib/gcc/avr/5.4.0/avr5\libgcc.a
LOAD c:/program files (x86)/atmel/studio/7.0/toolchain/avr8/avr8-gnu-toolchain/bin/../lib/gcc/avr/5.4.0/../../../../avr/lib/avr5\libm.a
START GROUP
LOAD c:/program files (x86)/atmel/studio/7.0/toolchain/avr8/avr8-gnu-toolchain/bin/../lib/gcc/avr/5.4.0/avr5\libgcc.a
LOAD c:/program files (x86)/atmel/studio/7.0/toolchain/avr8/avr8-gnu-toolchain/bin/../lib/gcc/avr/5.4.0/../../../../avr/lib/avr5\libm.a
LOAD c:/program files (x86)/atmel/studio/7.0/toolchain/avr8/avr8-gnu-toolchain/bin/../lib/gcc/avr/5.4.0/../../../../avr/lib/avr5\libc.a
LOAD C:/Program Files (x86)/Atmel/Studio/7.0/Packs/Atmel/ATmega_DFP/1.7.374/gcc/dev/atmega32u4/avr5\libatmega32u4.a
END GROUP
                0x00000000                __TEXT_REGION_ORIGIN__ = DEFINED (__TEXT_REGION_ORIGIN__)?__TEXT_REGION_ORIGIN__:0x0
                [0x00800100]                __DATA_REGION_ORIGIN__ = DEFINED (__DATA_REGION_ORIGIN__)?__DATA_REGION_ORIGIN__:0x800060
                [0x00008000]                __TEXT_REGION_LENGTH__ = DEFINED (__TEXT_REGION_LENGTH__)?__TEXT_REGION_LENGTH__:0x20000
                [0x00000a00]                __DATA_REGION_LENGTH__ = DEFINED (__DATA_REGION_LENGTH__)?__DATA_REGION_LENGTH__:0xffa0
                [0x00000400]                __EEPROM_REGION_LENGTH__ = DEFINED (__EEPROM_REGION_LENGTH__)?__EEPROM_REGION_LENGTH__:0x10000
                [0x00000003]                __FUSE_REGION_LENGTH__ = DEFINED (__FUSE_REGION_LENGTH__)?__FUSE_REGION_LENGTH__:0x400
                0x00000400                __LOCK_REGION_LENGTH__ = DEFINED (__LOCK_REGION_LENGTH__)?__LOCK_REGION_LENGTH__:0x400
                0x00000400                __SIGNATURE_REGION_LENGTH__ = DEFINED (__SIGNATURE_REGION_LENGTH__)?__SIGNATURE_REGION_LENGTH__:0x400
                0x00000400                __USER_SIGNATURE_REGION_LENGTH__ = DEFINED (__USER_SIGNATURE_REGION_LENGTH__)?__USER_SIGNATURE_REGION_LENGTH__:0x400

.hash
 *(.hash)

.dynsym
 *(.dynsym)

.dynstr
 *(.dynstr)

.gnu.version
 *(.gnu.version)

.gnu.version_d
 *(.gnu.version_d)

.gnu.version_r
 *(.gnu.version_r)

.rel.init
 *(.rel.init)

.rela.init
 *(.rela.init)

.rel.text
 *(.rel.text)
 *(.rel.text.*)
 *(.rel.gnu.linkonce.t*)

.rela.text
 *(.rela.text)
 *(.rela.text.*)
 *(.rela.gnu.linkonce.t*)

.rel.fini
 *(.rel.fini)

.rela.fini
 *(.rela.fini)

.rel.rodata
 *(.rel.rodata)
 *(.rel.rodata.*)
 *(.rel.gnu.linkonce.r*)

.rela.rodata
 *(.rela.rodata)
 *(.rela.rodata.*)
 *(.rela.gnu.linkonce.r*)

.rel.data
 *(.rel.data)
 *(.rel.data.*)
 *(.rel.gnu.linkonce.d*)

.rela.data
 *(.rela.data)
 *(.rela.data.*)
 *(.rela.gnu.linkonce.d*)

.rel.ctors
 *(.rel.ctors)

.rela.ctors
 *(.rela.ctors)

.rel.dtors
 *(.rel.dtors)

.rela.dtors
 *(.rela.dtors)

.rel.got
 *(.rel.got)

.rela.got
 *(.rela.got)

.rel.bss
 *(.rel.bss)

.rela.bss
 *(.rela.bss)

.rel.plt
 *(.rel.plt)

.rela.plt
 *(.rela.plt)

.text           0x00000000     0x3250
 *(.vectors)
 .vectors       0x00000000       0xac C:/Program Files (x86)/Atmel/Studio/7.0/Packs/Atmel/ATmega_DFP/1.7.374/gcc/dev/atmega32u4/avr5/crtatmega32u4.o
                0x00000000                __vector_default
                0x00000000                __vectors
 *(.vectors)
 *(.progmem.gcc*)
 .progmem.gcc_sw_table.turnOffPWM
                0x000000ac       0x1e C:\Users\xia\Desktop\rpk2\firmwares\leorf\ArduinoSketch1\ArduinoSketch1\ArduinoCore\Debug\libArduinoCore.a(wiring_digital.o)
                0x000000ca                . = ALIGN (0x2)
                0x000000ca                __trampolines_start = .
 *(.trampolines)
 .trampolines   0x000000ca        0x0 linker stubs
 *(.trampolines*)
                0x000000ca                __trampolines_end = .
 *libprintf_flt.a:*(.progmem.data)
 *libc.a:*(.progmem.data)
 *(.progmem*)
 .progmem.data.USB_DeviceDescriptorIAD
                0x000000ca       0x12 C:\Users\xia\Desktop\rpk2\firmwares\leorf\ArduinoSketch1\ArduinoSketch1\ArduinoCore\Debug\libArduinoCore.a(USBCore.o)
                0x000000ca                USB_DeviceDescriptorIAD
 .progmem.data.STRING_MANUFACTURER
                0x000000dc        0xc C:\Users\xia\Desktop\rpk2\firmwares\leorf\ArduinoSketch1\ArduinoSketch1\ArduinoCore\Debug\libArduinoCore.a(USBCore.o)
                0x000000dc                STRING_MANUFACTURER
 .progmem.data.STRING_PRODUCT
                0x000000e8       0x11 C:\Users\xia\Desktop\rpk2\firmwares\leorf\ArduinoSketch1\ArduinoSketch1\ArduinoCore\Debug\libArduinoCore.a(USBCore.o)
                0x000000e8                STRING_PRODUCT
 .progmem.data.STRING_LANGUAGE
                0x000000f9        0x4 C:\Users\xia\Desktop\rpk2\firmwares\leorf\ArduinoSketch1\ArduinoSketch1\ArduinoCore\Debug\libArduinoCore.a(USBCore.o)
                0x000000f9                STRING_LANGUAGE
 .progmem.data.digital_pin_to_timer_PGM
                0x000000fd       0x1f C:\Users\xia\Desktop\rpk2\firmwares\leorf\ArduinoSketch1\ArduinoSketch1\ArduinoCore\Debug\libArduinoCore.a(wiring_digital.o)
                0x000000fd                digital_pin_to_timer_PGM
 .progmem.data.digital_pin_to_bit_mask_PGM
                0x0000011c       0x1f C:\Users\xia\Desktop\rpk2\firmwares\leorf\ArduinoSketch1\ArduinoSketch1\ArduinoCore\Debug\libArduinoCore.a(wiring_digital.o)
                0x0000011c                digital_pin_to_bit_mask_PGM
 .progmem.data.digital_pin_to_port_PGM
                0x0000013b       0x1f C:\Users\xia\Desktop\rpk2\firmwares\leorf\ArduinoSketch1\ArduinoSketch1\ArduinoCore\Debug\libArduinoCore.a(wiring_digital.o)
                0x0000013b                digital_pin_to_port_PGM
 .progmem.data.port_to_output_PGM
                0x0000015a        0xe C:\Users\xia\Desktop\rpk2\firmwares\leorf\ArduinoSketch1\ArduinoSketch1\ArduinoCore\Debug\libArduinoCore.a(wiring_digital.o)
                0x0000015a                port_to_output_PGM
 .progmem.data.port_to_mode_PGM
                0x00000168        0xe C:\Users\xia\Desktop\rpk2\firmwares\leorf\ArduinoSketch1\ArduinoSketch1\ArduinoCore\Debug\libArduinoCore.a(wiring_digital.o)
                0x00000168                port_to_mode_PGM
 .progmem.data._ZL18MODEM_CONFIG_TABLE
                0x00000176       0xd8 C:\Users\xia\Desktop\rpk2\firmwares\leorf\ArduinoSketch1\ArduinoSketch1\ArduinoCore\Debug\libArduinoCore.a(RH_RF69.o)
 .progmem.data._cdcInterface
                0x0000024e       0x42 C:\Users\xia\Desktop\rpk2\firmwares\leorf\ArduinoSketch1\ArduinoSketch1\ArduinoCore\Debug\libArduinoCore.a(CDC.o)
                0x0000024e                _cdcInterface
                0x00000290                . = ALIGN (0x2)
 *(.jumptables)
 *(.jumptables*)
 *(.lowtext)
 *(.lowtext*)
                0x00000290                __ctors_start = .
 *(.ctors)
 .ctors         0x00000290        0x2 Sketch.o
 .ctors         0x00000292        0x2 C:\Users\xia\Desktop\rpk2\firmwares\leorf\ArduinoSketch1\ArduinoSketch1\ArduinoCore\Debug\libArduinoCore.a(HardwareSerial1.o)
 .ctors         0x00000294        0x2 C:\Users\xia\Desktop\rpk2\firmwares\leorf\ArduinoSketch1\ArduinoSketch1\ArduinoCore\Debug\libArduinoCore.a(RHHardwareSPI.o)
 .ctors         0x00000296        0x2 C:\Users\xia\Desktop\rpk2\firmwares\leorf\ArduinoSketch1\ArduinoSketch1\ArduinoCore\Debug\libArduinoCore.a(CDC.o)
                0x00000298                __ctors_end = .
                0x00000298                __dtors_start = .
 *(.dtors)
                0x00000298                __dtors_end = .
 SORT(*)(.ctors)
 SORT(*)(.dtors)
 *(.init0)
 .init0         0x00000298        0x0 C:/Program Files (x86)/Atmel/Studio/7.0/Packs/Atmel/ATmega_DFP/1.7.374/gcc/dev/atmega32u4/avr5/crtatmega32u4.o
                0x00000298                __init
 *(.init0)
 *(.init1)
 *(.init1)
 *(.init2)
 .init2         0x00000298        0xc C:/Program Files (x86)/Atmel/Studio/7.0/Packs/Atmel/ATmega_DFP/1.7.374/gcc/dev/atmega32u4/avr5/crtatmega32u4.o
 *(.init2)
 *(.init3)
 *(.init3)
 *(.init4)
 .init4         0x000002a4       0x16 c:/program files (x86)/atmel/studio/7.0/toolchain/avr8/avr8-gnu-toolchain/bin/../lib/gcc/avr/5.4.0/avr5\libgcc.a(_copy_data.o)
                0x000002a4                __do_copy_data
 .init4         0x000002ba       0x10 c:/program files (x86)/atmel/studio/7.0/toolchain/avr8/avr8-gnu-toolchain/bin/../lib/gcc/avr/5.4.0/avr5\libgcc.a(_clear_bss.o)
                0x000002ba                __do_clear_bss
 *(.init4)
 *(.init5)
 *(.init5)
 *(.init6)
 .init6         0x000002ca       0x16 c:/program files (x86)/atmel/studio/7.0/toolchain/avr8/avr8-gnu-toolchain/bin/../lib/gcc/avr/5.4.0/avr5\libgcc.a(_ctors.o)
                0x000002ca                __do_global_ctors
 *(.init6)
 *(.init7)
 *(.init7)
 *(.init8)
 *(.init8)
 *(.init9)
 .init9         0x000002e0        0x8 C:/Program Files (x86)/Atmel/Studio/7.0/Packs/Atmel/ATmega_DFP/1.7.374/gcc/dev/atmega32u4/avr5/crtatmega32u4.o
 *(.init9)
 *(.text)
 .text          0x000002e8        0x4 C:/Program Files (x86)/Atmel/Studio/7.0/Packs/Atmel/ATmega_DFP/1.7.374/gcc/dev/atmega32u4/avr5/crtatmega32u4.o
                0x000002e8                __vector_38
                0x000002e8                __vector_22
                0x000002e8                __vector_28
                0x000002e8                __vector_32
                0x000002e8                __vector_34
                0x000002e8                __vector_24
                0x000002e8                __vector_12
                0x000002e8                __bad_interrupt
                0x000002e8                __vector_6
                0x000002e8                __vector_31
                0x000002e8                __vector_35
                0x000002e8                __vector_39
                0x000002e8                __vector_30
                0x000002e8                __vector_13
                0x000002e8                __vector_17
                0x000002e8                __vector_19
                0x000002e8                __vector_41
                0x000002e8                __vector_27
                0x000002e8                __vector_5
                0x000002e8                __vector_33
                0x000002e8                __vector_37
                0x000002e8                __vector_9
                0x000002e8                __vector_21
                0x000002e8                __vector_15
                0x000002e8                __vector_36
                0x000002e8                __vector_29
                0x000002e8                __vector_40
                0x000002e8                __vector_8
                0x000002e8                __vector_14
                0x000002e8                __vector_16
                0x000002e8                __vector_18
                0x000002e8                __vector_20
                0x000002e8                __vector_42
                0x000002ec                . = ALIGN (0x2)
 *(.text.*)
 .text._Z18switch_usb_to_at90v
                0x000002ec       0x62 Sketch.o
                0x000002ec                _Z18switch_usb_to_at90v
 .text.startup._GLOBAL__sub_I__Z5Blinkhhhh
                0x0000034e       0x10 Sketch.o
 .text.setup    0x0000035e      0x152 Sketch.o
                0x0000035e                setup
 .text.loop     0x000004b0      0x17a Sketch.o
                0x000004b0                loop
 .text._ZN14HardwareSerial9availableEv
                0x0000062a       0x18 C:\Users\xia\Desktop\rpk2\firmwares\leorf\ArduinoSketch1\ArduinoSketch1\ArduinoCore\Debug\libArduinoCore.a(HardwareSerial.o)
                0x0000062a                _ZN14HardwareSerial9availableEv
 .text._ZN14HardwareSerial4peekEv
                0x00000642       0x1c C:\Users\xia\Desktop\rpk2\firmwares\leorf\ArduinoSketch1\ArduinoSketch1\ArduinoCore\Debug\libArduinoCore.a(HardwareSerial.o)
                0x00000642                _ZN14HardwareSerial4peekEv
 .text._ZN14HardwareSerial4readEv
                0x0000065e       0x28 C:\Users\xia\Desktop\rpk2\firmwares\leorf\ArduinoSketch1\ArduinoSketch1\ArduinoCore\Debug\libArduinoCore.a(HardwareSerial.o)
                0x0000065e                _ZN14HardwareSerial4readEv
 .text._ZN14HardwareSerial17availableForWriteEv
                0x00000686       0x1e C:\Users\xia\Desktop\rpk2\firmwares\leorf\ArduinoSketch1\ArduinoSketch1\ArduinoCore\Debug\libArduinoCore.a(HardwareSerial.o)
                0x00000686                _ZN14HardwareSerial17availableForWriteEv
 .text._Z14serialEventRunv
                0x000006a4       0x1c C:\Users\xia\Desktop\rpk2\firmwares\leorf\ArduinoSketch1\ArduinoSketch1\ArduinoCore\Debug\libArduinoCore.a(HardwareSerial.o)
                0x000006a4                _Z14serialEventRunv
 .text._ZN14HardwareSerial17_tx_udr_empty_irqEv
                0x000006c0       0x42 C:\Users\xia\Desktop\rpk2\firmwares\leorf\ArduinoSketch1\ArduinoSketch1\ArduinoCore\Debug\libArduinoCore.a(HardwareSerial.o)
                0x000006c0                _ZN14HardwareSerial17_tx_udr_empty_irqEv
 .text._ZN14HardwareSerial5writeEh
                0x00000702       0x98 C:\Users\xia\Desktop\rpk2\firmwares\leorf\ArduinoSketch1\ArduinoSketch1\ArduinoCore\Debug\libArduinoCore.a(HardwareSerial.o)
                0x00000702                _ZN14HardwareSerial5writeEh
 .text._ZN14HardwareSerial5flushEv
                0x0000079a       0x44 C:\Users\xia\Desktop\rpk2\firmwares\leorf\ArduinoSketch1\ArduinoSketch1\ArduinoCore\Debug\libArduinoCore.a(HardwareSerial.o)
                0x0000079a                _ZN14HardwareSerial5flushEv
 .text._ZN14HardwareSerial5beginEmh
                0x000007de       0xca C:\Users\xia\Desktop\rpk2\firmwares\leorf\ArduinoSketch1\ArduinoSketch1\ArduinoCore\Debug\libArduinoCore.a(HardwareSerial.o)
                0x000007de                _ZN14HardwareSerial5beginEmh
 .text.__vector_25
                0x000008a8       0x64 C:\Users\xia\Desktop\rpk2\firmwares\leorf\ArduinoSketch1\ArduinoSketch1\ArduinoCore\Debug\libArduinoCore.a(HardwareSerial1.o)
                0x000008a8                __vector_25
 .text.__vector_26
                0x0000090c       0x4c C:\Users\xia\Desktop\rpk2\firmwares\leorf\ArduinoSketch1\ArduinoSketch1\ArduinoCore\Debug\libArduinoCore.a(HardwareSerial1.o)
                0x0000090c                __vector_26
 .text._Z17Serial1_availablev
                0x00000958       0x14 C:\Users\xia\Desktop\rpk2\firmwares\leorf\ArduinoSketch1\ArduinoSketch1\ArduinoCore\Debug\libArduinoCore.a(HardwareSerial1.o)
                0x00000958                _Z17Serial1_availablev
 .text.startup._GLOBAL__sub_I___vector_25
                0x0000096c       0x5a C:\Users\xia\Desktop\rpk2\firmwares\leorf\ArduinoSketch1\ArduinoSketch1\ArduinoCore\Debug\libArduinoCore.a(HardwareSerial1.o)
 .text.initVariant
                0x000009c6        0x2 C:\Users\xia\Desktop\rpk2\firmwares\leorf\ArduinoSketch1\ArduinoSketch1\ArduinoCore\Debug\libArduinoCore.a(main.o)
                0x000009c6                initVariant
 .text.startup.main
                0x000009c8       0x26 C:\Users\xia\Desktop\rpk2\firmwares\leorf\ArduinoSketch1\ArduinoSketch1\ArduinoCore\Debug\libArduinoCore.a(main.o)
                0x000009c8                main
 .text._ZN5Print5writeEPKhj
                0x000009ee       0x54 C:\Users\xia\Desktop\rpk2\firmwares\leorf\ArduinoSketch1\ArduinoSketch1\ArduinoCore\Debug\libArduinoCore.a(Print.o)
                0x000009ee                _ZN5Print5writeEPKhj
 .text._ZN5Print5writeEPKc
                0x00000a42       0x2a C:\Users\xia\Desktop\rpk2\firmwares\leorf\ArduinoSketch1\ArduinoSketch1\ArduinoCore\Debug\libArduinoCore.a(Print.o)
                0x00000a42                _ZN5Print5writeEPKc
 .text._ZN5Print5printEPKc
                0x00000a6c        0x4 C:\Users\xia\Desktop\rpk2\firmwares\leorf\ArduinoSketch1\ArduinoSketch1\ArduinoCore\Debug\libArduinoCore.a(Print.o)
                0x00000a6c                _ZN5Print5printEPKc
 .text._ZN5Print5printEc
                0x00000a70        0xe C:\Users\xia\Desktop\rpk2\firmwares\leorf\ArduinoSketch1\ArduinoSketch1\ArduinoCore\Debug\libArduinoCore.a(Print.o)
                0x00000a70                _ZN5Print5printEc
 .text._ZN5Print7printlnEv
                0x00000a7e        0x8 C:\Users\xia\Desktop\rpk2\firmwares\leorf\ArduinoSketch1\ArduinoSketch1\ArduinoCore\Debug\libArduinoCore.a(Print.o)
                0x00000a7e                _ZN5Print7printlnEv
 .text._ZN5Print7printlnEPKc
                0x00000a86       0x24 C:\Users\xia\Desktop\rpk2\firmwares\leorf\ArduinoSketch1\ArduinoSketch1\ArduinoCore\Debug\libArduinoCore.a(Print.o)
                0x00000a86                _ZN5Print7printlnEPKc
 .text._ZN5Print11printNumberEmh
                0x00000aaa       0x92 C:\Users\xia\Desktop\rpk2\firmwares\leorf\ArduinoSketch1\ArduinoSketch1\ArduinoCore\Debug\libArduinoCore.a(Print.o)
                0x00000aaa                _ZN5Print11printNumberEmh
 .text._ZN5Print5printEmi
                0x00000b3c       0x1a C:\Users\xia\Desktop\rpk2\firmwares\leorf\ArduinoSketch1\ArduinoSketch1\ArduinoCore\Debug\libArduinoCore.a(Print.o)
                0x00000b3c                _ZN5Print5printEmi
 .text._ZN5Print5printEhi
                0x00000b56        0xe C:\Users\xia\Desktop\rpk2\firmwares\leorf\ArduinoSketch1\ArduinoSketch1\ArduinoCore\Debug\libArduinoCore.a(Print.o)
                0x00000b56                _ZN5Print5printEhi
 .text._ZN5Print5printEli
                0x00000b64       0x90 C:\Users\xia\Desktop\rpk2\firmwares\leorf\ArduinoSketch1\ArduinoSketch1\ArduinoCore\Debug\libArduinoCore.a(Print.o)
                0x00000b64                _ZN5Print5printEli
 .text._ZN5Print5printEii
                0x00000bf4        0xe C:\Users\xia\Desktop\rpk2\firmwares\leorf\ArduinoSketch1\ArduinoSketch1\ArduinoCore\Debug\libArduinoCore.a(Print.o)
                0x00000bf4                _ZN5Print5printEii
 .text._ZN5Print7printlnEii
                0x00000c02       0x24 C:\Users\xia\Desktop\rpk2\firmwares\leorf\ArduinoSketch1\ArduinoSketch1\ArduinoCore\Debug\libArduinoCore.a(Print.o)
                0x00000c02                _ZN5Print7printlnEii
 .text._ZL4RecvPVhh
                0x00000c26       0x1a C:\Users\xia\Desktop\rpk2\firmwares\leorf\ArduinoSketch1\ArduinoSketch1\ArduinoCore\Debug\libArduinoCore.a(USBCore.o)
 .text._ZL11SendControlh
                0x00000c40       0x5c C:\Users\xia\Desktop\rpk2\firmwares\leorf\ArduinoSketch1\ArduinoSketch1\ArduinoCore\Debug\libArduinoCore.a(USBCore.o)
 .text._ZL24USB_SendStringDescriptorPKhhh
                0x00000c9c       0x6a C:\Users\xia\Desktop\rpk2\firmwares\leorf\ArduinoSketch1\ArduinoSketch1\ArduinoCore\Debug\libArduinoCore.a(USBCore.o)
 .text._ZL15USB_ClockEnablev
                0x00000d06       0x46 C:\Users\xia\Desktop\rpk2\firmwares\leorf\ArduinoSketch1\ArduinoSketch1\ArduinoCore\Debug\libArduinoCore.a(USBCore.o)
 .text._ZL14SendInterfacesv
                0x00000d4c       0x2c C:\Users\xia\Desktop\rpk2\firmwares\leorf\ArduinoSketch1\ArduinoSketch1\ArduinoCore\Debug\libArduinoCore.a(USBCore.o)
 .text._ZN6LockEPC2Eh
                0x00000d78       0x10 C:\Users\xia\Desktop\rpk2\firmwares\leorf\ArduinoSketch1\ArduinoSketch1\ArduinoCore\Debug\libArduinoCore.a(USBCore.o)
                0x00000d78                _ZN6LockEPC2Eh
                0x00000d78                _ZN6LockEPC1Eh
 .text._Z13USB_Availableh
                0x00000d88       0x24 C:\Users\xia\Desktop\rpk2\firmwares\leorf\ArduinoSketch1\ArduinoSketch1\ArduinoCore\Debug\libArduinoCore.a(USBCore.o)
                0x00000d88                _Z13USB_Availableh
 .text._Z8USB_RecvhPvi
                0x00000dac       0x86 C:\Users\xia\Desktop\rpk2\firmwares\leorf\ArduinoSketch1\ArduinoSketch1\ArduinoCore\Debug\libArduinoCore.a(USBCore.o)
                0x00000dac                _Z8USB_RecvhPvi
 .text._Z8USB_Recvh
                0x00000e32       0x2e C:\Users\xia\Desktop\rpk2\firmwares\leorf\ArduinoSketch1\ArduinoSketch1\ArduinoCore\Debug\libArduinoCore.a(USBCore.o)
                0x00000e32                _Z8USB_Recvh
 .text._Z13USB_SendSpaceh
                0x00000e60       0x34 C:\Users\xia\Desktop\rpk2\firmwares\leorf\ArduinoSketch1\ArduinoSketch1\ArduinoCore\Debug\libArduinoCore.a(USBCore.o)
                0x00000e60                _Z13USB_SendSpaceh
 .text._Z8USB_SendhPKvi
                0x00000e94      0x14a C:\Users\xia\Desktop\rpk2\firmwares\leorf\ArduinoSketch1\ArduinoSketch1\ArduinoCore\Debug\libArduinoCore.a(USBCore.o)
                0x00000e94                _Z8USB_SendhPKvi
 .text._Z11InitControli
                0x00000fde       0x16 C:\Users\xia\Desktop\rpk2\firmwares\leorf\ArduinoSketch1\ArduinoSketch1\ArduinoCore\Debug\libArduinoCore.a(USBCore.o)
                0x00000fde                _Z11InitControli
 .text._Z15USB_SendControlhPKvi
                0x00000ff4       0x4e C:\Users\xia\Desktop\rpk2\firmwares\leorf\ArduinoSketch1\ArduinoSketch1\ArduinoCore\Debug\libArduinoCore.a(USBCore.o)
                0x00000ff4                _Z15USB_SendControlhPKvi
 .text._Z15USB_RecvControlPvi
                0x00001042       0x66 C:\Users\xia\Desktop\rpk2\firmwares\leorf\ArduinoSketch1\ArduinoSketch1\ArduinoCore\Debug\libArduinoCore.a(USBCore.o)
                0x00001042                _Z15USB_RecvControlPvi
 .text.__vector_11
                0x000010a8      0x2b4 C:\Users\xia\Desktop\rpk2\firmwares\leorf\ArduinoSketch1\ArduinoSketch1\ArduinoCore\Debug\libArduinoCore.a(USBCore.o)
                0x000010a8                __vector_11
 .text._Z9USB_Flushh
                0x0000135c       0x14 C:\Users\xia\Desktop\rpk2\firmwares\leorf\ArduinoSketch1\ArduinoSketch1\ArduinoCore\Debug\libArduinoCore.a(USBCore.o)
                0x0000135c                _Z9USB_Flushh
 .text.__vector_10
                0x00001370      0x102 C:\Users\xia\Desktop\rpk2\firmwares\leorf\ArduinoSketch1\ArduinoSketch1\ArduinoCore\Debug\libArduinoCore.a(USBCore.o)
                0x00001370                __vector_10
 .text._ZN10USBDevice_6attachEv
                0x00001472       0x26 C:\Users\xia\Desktop\rpk2\firmwares\leorf\ArduinoSketch1\ArduinoSketch1\ArduinoCore\Debug\libArduinoCore.a(USBCore.o)
                0x00001472                _ZN10USBDevice_6attachEv
 .text.__vector_23
                0x00001498       0x94 C:\Users\xia\Desktop\rpk2\firmwares\leorf\ArduinoSketch1\ArduinoSketch1\ArduinoCore\Debug\libArduinoCore.a(wiring.o)
                0x00001498                __vector_23
 .text.millis   0x0000152c       0x18 C:\Users\xia\Desktop\rpk2\firmwares\leorf\ArduinoSketch1\ArduinoSketch1\ArduinoCore\Debug\libArduinoCore.a(wiring.o)
                0x0000152c                millis
 .text.micros   0x00001544       0x4a C:\Users\xia\Desktop\rpk2\firmwares\leorf\ArduinoSketch1\ArduinoSketch1\ArduinoCore\Debug\libArduinoCore.a(wiring.o)
                0x00001544                micros
 .text.delay    0x0000158e       0x78 C:\Users\xia\Desktop\rpk2\firmwares\leorf\ArduinoSketch1\ArduinoSketch1\ArduinoCore\Debug\libArduinoCore.a(wiring.o)
                0x0000158e                delay
 .text.init     0x00001606       0xac C:\Users\xia\Desktop\rpk2\firmwares\leorf\ArduinoSketch1\ArduinoSketch1\ArduinoCore\Debug\libArduinoCore.a(wiring.o)
                0x00001606                init
 .text.turnOffPWM
                0x000016b2       0x7a C:\Users\xia\Desktop\rpk2\firmwares\leorf\ArduinoSketch1\ArduinoSketch1\ArduinoCore\Debug\libArduinoCore.a(wiring_digital.o)
 .text.pinMode  0x0000172c       0x78 C:\Users\xia\Desktop\rpk2\firmwares\leorf\ArduinoSketch1\ArduinoSketch1\ArduinoCore\Debug\libArduinoCore.a(wiring_digital.o)
                0x0000172c                pinMode
 .text.digitalWrite
                0x000017a4       0x5e C:\Users\xia\Desktop\rpk2\firmwares\leorf\ArduinoSketch1\ArduinoSketch1\ArduinoCore\Debug\libArduinoCore.a(wiring_digital.o)
                0x000017a4                digitalWrite
 .text._ZN15RHGenericDriver4initEv
                0x00001802        0x4 C:\Users\xia\Desktop\rpk2\firmwares\leorf\ArduinoSketch1\ArduinoSketch1\ArduinoCore\Debug\libArduinoCore.a(RHGenericDriver.o)
                0x00001802                _ZN15RHGenericDriver4initEv
 .text._ZN15RHGenericDriver14setPromiscuousEb
                0x00001806        0x6 C:\Users\xia\Desktop\rpk2\firmwares\leorf\ArduinoSketch1\ArduinoSketch1\ArduinoCore\Debug\libArduinoCore.a(RHGenericDriver.o)
                0x00001806                _ZN15RHGenericDriver14setPromiscuousEb
 .text._ZN15RHGenericDriver14setThisAddressEh
                0x0000180c        0x6 C:\Users\xia\Desktop\rpk2\firmwares\leorf\ArduinoSketch1\ArduinoSketch1\ArduinoCore\Debug\libArduinoCore.a(RHGenericDriver.o)
                0x0000180c                _ZN15RHGenericDriver14setThisAddressEh
 .text._ZN15RHGenericDriver11setHeaderToEh
                0x00001812        0x6 C:\Users\xia\Desktop\rpk2\firmwares\leorf\ArduinoSketch1\ArduinoSketch1\ArduinoCore\Debug\libArduinoCore.a(RHGenericDriver.o)
                0x00001812                _ZN15RHGenericDriver11setHeaderToEh
 .text._ZN15RHGenericDriver13setHeaderFromEh
                0x00001818        0x6 C:\Users\xia\Desktop\rpk2\firmwares\leorf\ArduinoSketch1\ArduinoSketch1\ArduinoCore\Debug\libArduinoCore.a(RHGenericDriver.o)
                0x00001818                _ZN15RHGenericDriver13setHeaderFromEh
 .text._ZN15RHGenericDriver11setHeaderIdEh
                0x0000181e        0x6 C:\Users\xia\Desktop\rpk2\firmwares\leorf\ArduinoSketch1\ArduinoSketch1\ArduinoCore\Debug\libArduinoCore.a(RHGenericDriver.o)
                0x0000181e                _ZN15RHGenericDriver11setHeaderIdEh
 .text._ZN15RHGenericDriver14setHeaderFlagsEhh
                0x00001824        0xe C:\Users\xia\Desktop\rpk2\firmwares\leorf\ArduinoSketch1\ArduinoSketch1\ArduinoCore\Debug\libArduinoCore.a(RHGenericDriver.o)
                0x00001824                _ZN15RHGenericDriver14setHeaderFlagsEhh
 .text._ZN15RHGenericDriver8headerToEv
                0x00001832        0x6 C:\Users\xia\Desktop\rpk2\firmwares\leorf\ArduinoSketch1\ArduinoSketch1\ArduinoCore\Debug\libArduinoCore.a(RHGenericDriver.o)
                0x00001832                _ZN15RHGenericDriver8headerToEv
 .text._ZN15RHGenericDriver10headerFromEv
                0x00001838        0x6 C:\Users\xia\Desktop\rpk2\firmwares\leorf\ArduinoSketch1\ArduinoSketch1\ArduinoCore\Debug\libArduinoCore.a(RHGenericDriver.o)
                0x00001838                _ZN15RHGenericDriver10headerFromEv
 .text._ZN15RHGenericDriver8headerIdEv
                0x0000183e        0x6 C:\Users\xia\Desktop\rpk2\firmwares\leorf\ArduinoSketch1\ArduinoSketch1\ArduinoCore\Debug\libArduinoCore.a(RHGenericDriver.o)
                0x0000183e                _ZN15RHGenericDriver8headerIdEv
 .text._ZN15RHGenericDriver11headerFlagsEv
                0x00001844        0x6 C:\Users\xia\Desktop\rpk2\firmwares\leorf\ArduinoSketch1\ArduinoSketch1\ArduinoCore\Debug\libArduinoCore.a(RHGenericDriver.o)
                0x00001844                _ZN15RHGenericDriver11headerFlagsEv
 .text._ZN15RHGenericDriver8lastRssiEv
                0x0000184a        0x8 C:\Users\xia\Desktop\rpk2\firmwares\leorf\ArduinoSketch1\ArduinoSketch1\ArduinoCore\Debug\libArduinoCore.a(RHGenericDriver.o)
                0x0000184a                _ZN15RHGenericDriver8lastRssiEv
 .text._ZN15RHGenericDriver4modeEv
                0x00001852        0x6 C:\Users\xia\Desktop\rpk2\firmwares\leorf\ArduinoSketch1\ArduinoSketch1\ArduinoCore\Debug\libArduinoCore.a(RHGenericDriver.o)
                0x00001852                _ZN15RHGenericDriver4modeEv
 .text._ZN15RHGenericDriver7setModeENS_6RHModeE
                0x00001858        0x6 C:\Users\xia\Desktop\rpk2\firmwares\leorf\ArduinoSketch1\ArduinoSketch1\ArduinoCore\Debug\libArduinoCore.a(RHGenericDriver.o)
                0x00001858                _ZN15RHGenericDriver7setModeENS_6RHModeE
 .text._ZN15RHGenericDriver5sleepEv
                0x0000185e        0x4 C:\Users\xia\Desktop\rpk2\firmwares\leorf\ArduinoSketch1\ArduinoSketch1\ArduinoCore\Debug\libArduinoCore.a(RHGenericDriver.o)
                0x0000185e                _ZN15RHGenericDriver15isChannelActiveEv
                0x0000185e                _ZN15RHGenericDriver5sleepEv
 .text._ZN15RHGenericDriver5rxBadEv
                0x00001862        0x8 C:\Users\xia\Desktop\rpk2\firmwares\leorf\ArduinoSketch1\ArduinoSketch1\ArduinoCore\Debug\libArduinoCore.a(RHGenericDriver.o)
                0x00001862                _ZN15RHGenericDriver5rxBadEv
 .text._ZN15RHGenericDriver6rxGoodEv
                0x0000186a        0x8 C:\Users\xia\Desktop\rpk2\firmwares\leorf\ArduinoSketch1\ArduinoSketch1\ArduinoCore\Debug\libArduinoCore.a(RHGenericDriver.o)
                0x0000186a                _ZN15RHGenericDriver6rxGoodEv
 .text._ZN15RHGenericDriver6txGoodEv
                0x00001872        0x8 C:\Users\xia\Desktop\rpk2\firmwares\leorf\ArduinoSketch1\ArduinoSketch1\ArduinoCore\Debug\libArduinoCore.a(RHGenericDriver.o)
                0x00001872                _ZN15RHGenericDriver6txGoodEv
 .text._ZN15RHGenericDriver13waitAvailableEv
                0x0000187a       0x24 C:\Users\xia\Desktop\rpk2\firmwares\leorf\ArduinoSketch1\ArduinoSketch1\ArduinoCore\Debug\libArduinoCore.a(RHGenericDriver.o)
                0x0000187a                _ZN15RHGenericDriver13waitAvailableEv
 .text._ZN15RHGenericDriver14waitPacketSentEv
                0x0000189e       0x1a C:\Users\xia\Desktop\rpk2\firmwares\leorf\ArduinoSketch1\ArduinoSketch1\ArduinoCore\Debug\libArduinoCore.a(RHGenericDriver.o)
                0x0000189e                _ZN15RHGenericDriver14waitPacketSentEv
 .text._ZN15RHGenericDriver20waitAvailableTimeoutEj
                0x000018b8       0x6e C:\Users\xia\Desktop\rpk2\firmwares\leorf\ArduinoSketch1\ArduinoSketch1\ArduinoCore\Debug\libArduinoCore.a(RHGenericDriver.o)
                0x000018b8                _ZN15RHGenericDriver20waitAvailableTimeoutEj
 .text._ZN15RHGenericDriver14waitPacketSentEj
                0x00001926       0x66 C:\Users\xia\Desktop\rpk2\firmwares\leorf\ArduinoSketch1\ArduinoSketch1\ArduinoCore\Debug\libArduinoCore.a(RHGenericDriver.o)
                0x00001926                _ZN15RHGenericDriver14waitPacketSentEj
 .text._ZN15RHGenericDriver7waitCADEv
                0x0000198c       0x8e C:\Users\xia\Desktop\rpk2\firmwares\leorf\ArduinoSketch1\ArduinoSketch1\ArduinoCore\Debug\libArduinoCore.a(RHGenericDriver.o)
                0x0000198c                _ZN15RHGenericDriver7waitCADEv
 .text._ZN15RHGenericDriverC2Ev
                0x00001a1a       0x2a C:\Users\xia\Desktop\rpk2\firmwares\leorf\ArduinoSketch1\ArduinoSketch1\ArduinoCore\Debug\libArduinoCore.a(RHGenericDriver.o)
                0x00001a1a                _ZN15RHGenericDriverC1Ev
                0x00001a1a                _ZN15RHGenericDriverC2Ev
 .text._ZN13RHHardwareSPI8transferEh
                0x00001a44        0xe C:\Users\xia\Desktop\rpk2\firmwares\leorf\ArduinoSketch1\ArduinoSketch1\ArduinoCore\Debug\libArduinoCore.a(RHHardwareSPI.o)
                0x00001a44                _ZN13RHHardwareSPI8transferEh
 .text._ZN13RHHardwareSPI15attachInterruptEv
                0x00001a52        0x8 C:\Users\xia\Desktop\rpk2\firmwares\leorf\ArduinoSketch1\ArduinoSketch1\ArduinoCore\Debug\libArduinoCore.a(RHHardwareSPI.o)
                0x00001a52                _ZN13RHHardwareSPI15attachInterruptEv
 .text._ZN13RHHardwareSPI15detachInterruptEv
                0x00001a5a        0x8 C:\Users\xia\Desktop\rpk2\firmwares\leorf\ArduinoSketch1\ArduinoSketch1\ArduinoCore\Debug\libArduinoCore.a(RHHardwareSPI.o)
                0x00001a5a                _ZN13RHHardwareSPI15detachInterruptEv
 .text._ZN13RHHardwareSPI16beginTransactionEv
                0x00001a62       0x3a C:\Users\xia\Desktop\rpk2\firmwares\leorf\ArduinoSketch1\ArduinoSketch1\ArduinoCore\Debug\libArduinoCore.a(RHHardwareSPI.o)
                0x00001a62                _ZN13RHHardwareSPI16beginTransactionEv
 .text._ZN13RHHardwareSPI14usingInterruptEh
                0x00001a9c        0x2 C:\Users\xia\Desktop\rpk2\firmwares\leorf\ArduinoSketch1\ArduinoSketch1\ArduinoCore\Debug\libArduinoCore.a(RHHardwareSPI.o)
                0x00001a9c                _ZN13RHHardwareSPI14usingInterruptEh
 .text._ZN13RHHardwareSPI5beginEv
                0x00001a9e       0xb2 C:\Users\xia\Desktop\rpk2\firmwares\leorf\ArduinoSketch1\ArduinoSketch1\ArduinoCore\Debug\libArduinoCore.a(RHHardwareSPI.o)
                0x00001a9e                _ZN13RHHardwareSPI5beginEv
 .text._ZN13RHHardwareSPI3endEv
                0x00001b50        0x4 C:\Users\xia\Desktop\rpk2\firmwares\leorf\ArduinoSketch1\ArduinoSketch1\ArduinoCore\Debug\libArduinoCore.a(RHHardwareSPI.o)
                0x00001b50                _ZN13RHHardwareSPI3endEv
 .text._ZN13RHHardwareSPI14endTransactionEv
                0x00001b54       0x22 C:\Users\xia\Desktop\rpk2\firmwares\leorf\ArduinoSketch1\ArduinoSketch1\ArduinoCore\Debug\libArduinoCore.a(RHHardwareSPI.o)
                0x00001b54                _ZN13RHHardwareSPI14endTransactionEv
 .text._ZN13RHHardwareSPIC2EN12RHGenericSPI9FrequencyENS0_8BitOrderENS0_8DataModeE
                0x00001b76       0x1e C:\Users\xia\Desktop\rpk2\firmwares\leorf\ArduinoSketch1\ArduinoSketch1\ArduinoCore\Debug\libArduinoCore.a(RHHardwareSPI.o)
                0x00001b76                _ZN13RHHardwareSPIC2EN12RHGenericSPI9FrequencyENS0_8BitOrderENS0_8DataModeE
                0x00001b76                _ZN13RHHardwareSPIC1EN12RHGenericSPI9FrequencyENS0_8BitOrderENS0_8DataModeE
 .text.startup._GLOBAL__sub_I_hardware_spi
                0x00001b94        0xe C:\Users\xia\Desktop\rpk2\firmwares\leorf\ArduinoSketch1\ArduinoSketch1\ArduinoCore\Debug\libArduinoCore.a(RHHardwareSPI.o)
 .text._ZN7RH_RF6916maxMessageLengthEv
                0x00001ba2        0x4 C:\Users\xia\Desktop\rpk2\firmwares\leorf\ArduinoSketch1\ArduinoSketch1\ArduinoCore\Debug\libArduinoCore.a(RH_RF69.o)
                0x00001ba2                _ZN7RH_RF6916maxMessageLengthEv
 .text._ZN7RH_RF6916setEncryptionKeyEPh.part.4.constprop.5
                0x00001ba6       0x1c C:\Users\xia\Desktop\rpk2\firmwares\leorf\ArduinoSketch1\ArduinoSketch1\ArduinoCore\Debug\libArduinoCore.a(RH_RF69.o)
 .text._ZN7RH_RF694recvEPhS0_
                0x00001bc2       0x74 C:\Users\xia\Desktop\rpk2\firmwares\leorf\ArduinoSketch1\ArduinoSketch1\ArduinoCore\Debug\libArduinoCore.a(RH_RF69.o)
                0x00001bc2                _ZN7RH_RF694recvEPhS0_
 .text._ZN7RH_RF695sleepEv
                0x00001c36       0x22 C:\Users\xia\Desktop\rpk2\firmwares\leorf\ArduinoSketch1\ArduinoSketch1\ArduinoCore\Debug\libArduinoCore.a(RH_RF69.o)
                0x00001c36                _ZN7RH_RF695sleepEv
 .text._ZN7RH_RF69C2EhhR12RHGenericSPI
                0x00001c58       0x2a C:\Users\xia\Desktop\rpk2\firmwares\leorf\ArduinoSketch1\ArduinoSketch1\ArduinoCore\Debug\libArduinoCore.a(RH_RF69.o)
                0x00001c58                _ZN7RH_RF69C2EhhR12RHGenericSPI
                0x00001c58                _ZN7RH_RF69C1EhhR12RHGenericSPI
 .text._ZN7RH_RF698readFifoEv
                0x00001c82      0x144 C:\Users\xia\Desktop\rpk2\firmwares\leorf\ArduinoSketch1\ArduinoSketch1\ArduinoCore\Debug\libArduinoCore.a(RH_RF69.o)
                0x00001c82                _ZN7RH_RF698readFifoEv
 .text._ZN7RH_RF6912setFrequencyEff
                0x00001dc6       0x6a C:\Users\xia\Desktop\rpk2\firmwares\leorf\ArduinoSketch1\ArduinoSketch1\ArduinoCore\Debug\libArduinoCore.a(RH_RF69.o)
                0x00001dc6                _ZN7RH_RF6912setFrequencyEff
 .text._ZN7RH_RF699setOpModeEh
                0x00001e30       0x34 C:\Users\xia\Desktop\rpk2\firmwares\leorf\ArduinoSketch1\ArduinoSketch1\ArduinoCore\Debug\libArduinoCore.a(RH_RF69.o)
                0x00001e30                _ZN7RH_RF699setOpModeEh
 .text._ZN7RH_RF6911setModeIdleEv
                0x00001e64       0x3a C:\Users\xia\Desktop\rpk2\firmwares\leorf\ArduinoSketch1\ArduinoSketch1\ArduinoCore\Debug\libArduinoCore.a(RH_RF69.o)
                0x00001e64                _ZN7RH_RF6911setModeIdleEv
 .text._ZN7RH_RF6915handleInterruptEv
                0x00001e9e       0x7a C:\Users\xia\Desktop\rpk2\firmwares\leorf\ArduinoSketch1\ArduinoSketch1\ArduinoCore\Debug\libArduinoCore.a(RH_RF69.o)
                0x00001e9e                _ZN7RH_RF6915handleInterruptEv
 .text._ZN7RH_RF694isr0Ev
                0x00001f18       0x12 C:\Users\xia\Desktop\rpk2\firmwares\leorf\ArduinoSketch1\ArduinoSketch1\ArduinoCore\Debug\libArduinoCore.a(RH_RF69.o)
                0x00001f18                _ZN7RH_RF694isr0Ev
 .text._ZN7RH_RF694isr1Ev
                0x00001f2a       0x12 C:\Users\xia\Desktop\rpk2\firmwares\leorf\ArduinoSketch1\ArduinoSketch1\ArduinoCore\Debug\libArduinoCore.a(RH_RF69.o)
                0x00001f2a                _ZN7RH_RF694isr1Ev
 .text._ZN7RH_RF694isr2Ev
                0x00001f3c       0x12 C:\Users\xia\Desktop\rpk2\firmwares\leorf\ArduinoSketch1\ArduinoSketch1\ArduinoCore\Debug\libArduinoCore.a(RH_RF69.o)
                0x00001f3c                _ZN7RH_RF694isr2Ev
 .text._ZN7RH_RF699setModeRxEv
                0x00001f4e       0x44 C:\Users\xia\Desktop\rpk2\firmwares\leorf\ArduinoSketch1\ArduinoSketch1\ArduinoCore\Debug\libArduinoCore.a(RH_RF69.o)
                0x00001f4e                _ZN7RH_RF699setModeRxEv
 .text._ZN7RH_RF699availableEv
                0x00001f92       0x22 C:\Users\xia\Desktop\rpk2\firmwares\leorf\ArduinoSketch1\ArduinoSketch1\ArduinoCore\Debug\libArduinoCore.a(RH_RF69.o)
                0x00001f92                _ZN7RH_RF699availableEv
 .text._ZN7RH_RF699setModeTxEv
                0x00001fb4       0x44 C:\Users\xia\Desktop\rpk2\firmwares\leorf\ArduinoSketch1\ArduinoSketch1\ArduinoCore\Debug\libArduinoCore.a(RH_RF69.o)
                0x00001fb4                _ZN7RH_RF699setModeTxEv
 .text._ZN7RH_RF694sendEPKhh
                0x00001ff8      0x116 C:\Users\xia\Desktop\rpk2\firmwares\leorf\ArduinoSketch1\ArduinoSketch1\ArduinoCore\Debug\libArduinoCore.a(RH_RF69.o)
                0x00001ff8                _ZN7RH_RF694sendEPKhh
 .text._ZN7RH_RF6910setTxPowerEab
                0x0000210e       0x50 C:\Users\xia\Desktop\rpk2\firmwares\leorf\ArduinoSketch1\ArduinoSketch1\ArduinoCore\Debug\libArduinoCore.a(RH_RF69.o)
                0x0000210e                _ZN7RH_RF6910setTxPowerEab
 .text._ZN7RH_RF6917setModemRegistersEPKNS_11ModemConfigE
                0x0000215e       0x3a C:\Users\xia\Desktop\rpk2\firmwares\leorf\ArduinoSketch1\ArduinoSketch1\ArduinoCore\Debug\libArduinoCore.a(RH_RF69.o)
                0x0000215e                _ZN7RH_RF6917setModemRegistersEPKNS_11ModemConfigE
 .text._ZN7RH_RF6914setModemConfigENS_17ModemConfigChoiceE
                0x00002198       0x64 C:\Users\xia\Desktop\rpk2\firmwares\leorf\ArduinoSketch1\ArduinoSketch1\ArduinoCore\Debug\libArduinoCore.a(RH_RF69.o)
                0x00002198                _ZN7RH_RF6914setModemConfigENS_17ModemConfigChoiceE
 .text._ZN7RH_RF6917setPreambleLengthEj
                0x000021fc       0x22 C:\Users\xia\Desktop\rpk2\firmwares\leorf\ArduinoSketch1\ArduinoSketch1\ArduinoCore\Debug\libArduinoCore.a(RH_RF69.o)
                0x000021fc                _ZN7RH_RF6917setPreambleLengthEj
 .text._ZN7RH_RF6912setSyncWordsEPKhh
                0x0000221e       0x66 C:\Users\xia\Desktop\rpk2\firmwares\leorf\ArduinoSketch1\ArduinoSketch1\ArduinoCore\Debug\libArduinoCore.a(RH_RF69.o)
                0x0000221e                _ZN7RH_RF6912setSyncWordsEPKhh
 .text._ZN7RH_RF6916setEncryptionKeyEPh
                0x00002284       0x36 C:\Users\xia\Desktop\rpk2\firmwares\leorf\ArduinoSketch1\ArduinoSketch1\ArduinoCore\Debug\libArduinoCore.a(RH_RF69.o)
                0x00002284                _ZN7RH_RF6916setEncryptionKeyEPh
 .text._ZN7RH_RF694initEv
                0x000022ba      0x162 C:\Users\xia\Desktop\rpk2\firmwares\leorf\ArduinoSketch1\ArduinoSketch1\ArduinoCore\Debug\libArduinoCore.a(RH_RF69.o)
                0x000022ba                _ZN7RH_RF694initEv
 .text._ZN8SPIClass5beginEv
                0x0000241c       0x6c C:\Users\xia\Desktop\rpk2\firmwares\leorf\ArduinoSketch1\ArduinoSketch1\ArduinoCore\Debug\libArduinoCore.a(SPI.o)
                0x0000241c                _ZN8SPIClass5beginEv
 .text._ZN8SPIClass3endEv
                0x00002488       0x28 C:\Users\xia\Desktop\rpk2\firmwares\leorf\ArduinoSketch1\ArduinoSketch1\ArduinoCore\Debug\libArduinoCore.a(SPI.o)
                0x00002488                _ZN8SPIClass3endEv
 .text.__cxa_pure_virtual
                0x000024b0        0x4 C:\Users\xia\Desktop\rpk2\firmwares\leorf\ArduinoSketch1\ArduinoSketch1\ArduinoCore\Debug\libArduinoCore.a(abi.o)
                0x000024b0                __cxa_pure_virtual
 .text._ZN7Serial_5writeEh
                0x000024b4       0x2c C:\Users\xia\Desktop\rpk2\firmwares\leorf\ArduinoSketch1\ArduinoSketch1\ArduinoCore\Debug\libArduinoCore.a(CDC.o)
                0x000024b4                _ZN7Serial_5writeEh
 .text._ZN7Serial_4peekEv
                0x000024e0       0x22 C:\Users\xia\Desktop\rpk2\firmwares\leorf\ArduinoSketch1\ArduinoSketch1\ArduinoCore\Debug\libArduinoCore.a(CDC.o)
                0x000024e0                _ZN7Serial_4peekEv
 .text._ZN7Serial_17availableForWriteEv
                0x00002502        0xa C:\Users\xia\Desktop\rpk2\firmwares\leorf\ArduinoSketch1\ArduinoSketch1\ArduinoCore\Debug\libArduinoCore.a(CDC.o)
                0x00002502                _ZN7Serial_17availableForWriteEv
 .text._ZN7Serial_5flushEv
                0x0000250c        0x6 C:\Users\xia\Desktop\rpk2\firmwares\leorf\ArduinoSketch1\ArduinoSketch1\ArduinoCore\Debug\libArduinoCore.a(CDC.o)
                0x0000250c                _ZN7Serial_5flushEv
 .text._ZN7Serial_9availableEv
                0x00002512       0x20 C:\Users\xia\Desktop\rpk2\firmwares\leorf\ArduinoSketch1\ArduinoSketch1\ArduinoCore\Debug\libArduinoCore.a(CDC.o)
                0x00002512                _ZN7Serial_9availableEv
 .text._ZN7Serial_4readEv
                0x00002532       0x1a C:\Users\xia\Desktop\rpk2\firmwares\leorf\ArduinoSketch1\ArduinoSketch1\ArduinoCore\Debug\libArduinoCore.a(CDC.o)
                0x00002532                _ZN7Serial_4readEv
 .text._ZN7Serial_5writeEPKhj
                0x0000254c       0x2c C:\Users\xia\Desktop\rpk2\firmwares\leorf\ArduinoSketch1\ArduinoSketch1\ArduinoCore\Debug\libArduinoCore.a(CDC.o)
                0x0000254c                _ZN7Serial_5writeEPKhj
 .text._Z16isLUFAbootloaderv
                0x00002578       0x14 C:\Users\xia\Desktop\rpk2\firmwares\leorf\ArduinoSketch1\ArduinoSketch1\ArduinoCore\Debug\libArduinoCore.a(CDC.o)
                0x00002578                _Z16isLUFAbootloaderv
 .text._Z16CDC_GetInterfacePh
                0x0000258c       0x16 C:\Users\xia\Desktop\rpk2\firmwares\leorf\ArduinoSketch1\ArduinoSketch1\ArduinoCore\Debug\libArduinoCore.a(CDC.o)
                0x0000258c                _Z16CDC_GetInterfacePh
 .text._Z9CDC_SetupR8USBSetup
                0x000025a2      0x11c C:\Users\xia\Desktop\rpk2\firmwares\leorf\ArduinoSketch1\ArduinoSketch1\ArduinoCore\Debug\libArduinoCore.a(CDC.o)
                0x000025a2                _Z9CDC_SetupR8USBSetup
 .text.startup._GLOBAL__sub_I__cdcInterface
                0x000026be       0x2a C:\Users\xia\Desktop\rpk2\firmwares\leorf\ArduinoSketch1\ArduinoSketch1\ArduinoCore\Debug\libArduinoCore.a(CDC.o)
 .text.__empty  0x000026e8        0x2 C:\Users\xia\Desktop\rpk2\firmwares\leorf\ArduinoSketch1\ArduinoSketch1\ArduinoCore\Debug\libArduinoCore.a(hooks.o)
                0x000026e8                yield
 .text._ZN13PluggableUSB_12getInterfaceEPh
                0x000026ea       0x52 C:\Users\xia\Desktop\rpk2\firmwares\leorf\ArduinoSketch1\ArduinoSketch1\ArduinoCore\Debug\libArduinoCore.a(PluggableUSB.o)
                0x000026ea                _ZN13PluggableUSB_12getInterfaceEPh
 .text._ZN13PluggableUSB_13getDescriptorER8USBSetup
                0x0000273c       0x3e C:\Users\xia\Desktop\rpk2\firmwares\leorf\ArduinoSketch1\ArduinoSketch1\ArduinoCore\Debug\libArduinoCore.a(PluggableUSB.o)
                0x0000273c                _ZN13PluggableUSB_13getDescriptorER8USBSetup
 .text._ZN13PluggableUSB_12getShortNameEPc
                0x0000277a       0x3e C:\Users\xia\Desktop\rpk2\firmwares\leorf\ArduinoSketch1\ArduinoSketch1\ArduinoCore\Debug\libArduinoCore.a(PluggableUSB.o)
                0x0000277a                _ZN13PluggableUSB_12getShortNameEPc
 .text._ZN13PluggableUSB_5setupER8USBSetup
                0x000027b8       0x3c C:\Users\xia\Desktop\rpk2\firmwares\leorf\ArduinoSketch1\ArduinoSketch1\ArduinoCore\Debug\libArduinoCore.a(PluggableUSB.o)
                0x000027b8                _ZN13PluggableUSB_5setupER8USBSetup
 .text._Z12PluggableUSBv
                0x000027f4       0x28 C:\Users\xia\Desktop\rpk2\firmwares\leorf\ArduinoSketch1\ArduinoSketch1\ArduinoCore\Debug\libArduinoCore.a(PluggableUSB.o)
                0x000027f4                _Z12PluggableUSBv
 .text.nothing  0x0000281c        0x2 C:\Users\xia\Desktop\rpk2\firmwares\leorf\ArduinoSketch1\ArduinoSketch1\ArduinoCore\Debug\libArduinoCore.a(WInterrupts.o)
 .text.attachInterrupt
                0x0000281e       0xa0 C:\Users\xia\Desktop\rpk2\firmwares\leorf\ArduinoSketch1\ArduinoSketch1\ArduinoCore\Debug\libArduinoCore.a(WInterrupts.o)
                0x0000281e                attachInterrupt
 .text.__vector_1
                0x000028be       0x4e C:\Users\xia\Desktop\rpk2\firmwares\leorf\ArduinoSketch1\ArduinoSketch1\ArduinoCore\Debug\libArduinoCore.a(WInterrupts.o)
                0x000028be                __vector_1
 .text.__vector_2
                0x0000290c       0x4e C:\Users\xia\Desktop\rpk2\firmwares\leorf\ArduinoSketch1\ArduinoSketch1\ArduinoCore\Debug\libArduinoCore.a(WInterrupts.o)
                0x0000290c                __vector_2
 .text.__vector_3
                0x0000295a       0x4e C:\Users\xia\Desktop\rpk2\firmwares\leorf\ArduinoSketch1\ArduinoSketch1\ArduinoCore\Debug\libArduinoCore.a(WInterrupts.o)
                0x0000295a                __vector_3
 .text.__vector_4
                0x000029a8       0x4e C:\Users\xia\Desktop\rpk2\firmwares\leorf\ArduinoSketch1\ArduinoSketch1\ArduinoCore\Debug\libArduinoCore.a(WInterrupts.o)
                0x000029a8                __vector_4
 .text.__vector_7
                0x000029f6       0x4e C:\Users\xia\Desktop\rpk2\firmwares\leorf\ArduinoSketch1\ArduinoSketch1\ArduinoCore\Debug\libArduinoCore.a(WInterrupts.o)
                0x000029f6                __vector_7
 .text._Z6randoml
                0x00002a44       0x34 C:\Users\xia\Desktop\rpk2\firmwares\leorf\ArduinoSketch1\ArduinoSketch1\ArduinoCore\Debug\libArduinoCore.a(WMath.o)
                0x00002a44                _Z6randoml
 .text._Z6randomll
                0x00002a78       0x44 C:\Users\xia\Desktop\rpk2\firmwares\leorf\ArduinoSketch1\ArduinoSketch1\ArduinoCore\Debug\libArduinoCore.a(WMath.o)
                0x00002a78                _Z6randomll
 .text._ZN12RHGenericSPI15attachInterruptEv
                0x00002abc        0x2 C:\Users\xia\Desktop\rpk2\firmwares\leorf\ArduinoSketch1\ArduinoSketch1\ArduinoCore\Debug\libArduinoCore.a(RHGenericSPI.o)
                0x00002abc                _ZN12RHGenericSPI15attachInterruptEv
 .text._ZN12RHGenericSPI15detachInterruptEv
                0x00002abe        0x2 C:\Users\xia\Desktop\rpk2\firmwares\leorf\ArduinoSketch1\ArduinoSketch1\ArduinoCore\Debug\libArduinoCore.a(RHGenericSPI.o)
                0x00002abe                _ZN12RHGenericSPI15detachInterruptEv
 .text._ZN12RHGenericSPI16beginTransactionEv
                0x00002ac0        0x2 C:\Users\xia\Desktop\rpk2\firmwares\leorf\ArduinoSketch1\ArduinoSketch1\ArduinoCore\Debug\libArduinoCore.a(RHGenericSPI.o)
                0x00002ac0                _ZN12RHGenericSPI16beginTransactionEv
 .text._ZN12RHGenericSPI14endTransactionEv
                0x00002ac2        0x2 C:\Users\xia\Desktop\rpk2\firmwares\leorf\ArduinoSketch1\ArduinoSketch1\ArduinoCore\Debug\libArduinoCore.a(RHGenericSPI.o)
                0x00002ac2                _ZN12RHGenericSPI14endTransactionEv
 .text._ZN12RHGenericSPI14usingInterruptEh
                0x00002ac4        0x2 C:\Users\xia\Desktop\rpk2\firmwares\leorf\ArduinoSketch1\ArduinoSketch1\ArduinoCore\Debug\libArduinoCore.a(RHGenericSPI.o)
                0x00002ac4                _ZN12RHGenericSPI14usingInterruptEh
 .text._ZN12RHGenericSPI11setBitOrderENS_8BitOrderE
                0x00002ac6        0x6 C:\Users\xia\Desktop\rpk2\firmwares\leorf\ArduinoSketch1\ArduinoSketch1\ArduinoCore\Debug\libArduinoCore.a(RHGenericSPI.o)
                0x00002ac6                _ZN12RHGenericSPI11setBitOrderENS_8BitOrderE
 .text._ZN12RHGenericSPI11setDataModeENS_8DataModeE
                0x00002acc        0x6 C:\Users\xia\Desktop\rpk2\firmwares\leorf\ArduinoSketch1\ArduinoSketch1\ArduinoCore\Debug\libArduinoCore.a(RHGenericSPI.o)
                0x00002acc                _ZN12RHGenericSPI11setDataModeENS_8DataModeE
 .text._ZN12RHGenericSPI12setFrequencyENS_9FrequencyE
                0x00002ad2        0x6 C:\Users\xia\Desktop\rpk2\firmwares\leorf\ArduinoSketch1\ArduinoSketch1\ArduinoCore\Debug\libArduinoCore.a(RHGenericSPI.o)
                0x00002ad2                _ZN12RHGenericSPI12setFrequencyENS_9FrequencyE
 .text._ZN12RHGenericSPIC2ENS_9FrequencyENS_8BitOrderENS_8DataModeE
                0x00002ad8       0x12 C:\Users\xia\Desktop\rpk2\firmwares\leorf\ArduinoSketch1\ArduinoSketch1\ArduinoCore\Debug\libArduinoCore.a(RHGenericSPI.o)
                0x00002ad8                _ZN12RHGenericSPIC1ENS_9FrequencyENS_8BitOrderENS_8DataModeE
                0x00002ad8                _ZN12RHGenericSPIC2ENS_9FrequencyENS_8BitOrderENS_8DataModeE
 .text._ZN11RHSPIDriver4initEv
                0x00002aea       0x3c C:\Users\xia\Desktop\rpk2\firmwares\leorf\ArduinoSketch1\ArduinoSketch1\ArduinoCore\Debug\libArduinoCore.a(RHSPIDriver.o)
                0x00002aea                _ZN11RHSPIDriver4initEv
 .text._ZN11RHSPIDriverC2EhR12RHGenericSPI
                0x00002b26       0x2e C:\Users\xia\Desktop\rpk2\firmwares\leorf\ArduinoSketch1\ArduinoSketch1\ArduinoCore\Debug\libArduinoCore.a(RHSPIDriver.o)
                0x00002b26                _ZN11RHSPIDriverC1EhR12RHGenericSPI
                0x00002b26                _ZN11RHSPIDriverC2EhR12RHGenericSPI
 .text._ZN11RHSPIDriver7spiReadEh
                0x00002b54       0x7e C:\Users\xia\Desktop\rpk2\firmwares\leorf\ArduinoSketch1\ArduinoSketch1\ArduinoCore\Debug\libArduinoCore.a(RHSPIDriver.o)
                0x00002b54                _ZN11RHSPIDriver7spiReadEh
 .text._ZN11RHSPIDriver8spiWriteEhh
                0x00002bd2       0x84 C:\Users\xia\Desktop\rpk2\firmwares\leorf\ArduinoSketch1\ArduinoSketch1\ArduinoCore\Debug\libArduinoCore.a(RHSPIDriver.o)
                0x00002bd2                _ZN11RHSPIDriver8spiWriteEhh
 .text._ZN11RHSPIDriver13spiBurstWriteEhPKhh
                0x00002c56       0xa8 C:\Users\xia\Desktop\rpk2\firmwares\leorf\ArduinoSketch1\ArduinoSketch1\ArduinoCore\Debug\libArduinoCore.a(RHSPIDriver.o)
                0x00002c56                _ZN11RHSPIDriver13spiBurstWriteEhPKhh
 .text._ZN11RHSPIDriver17spiUsingInterruptEh
                0x00002cfe       0x18 C:\Users\xia\Desktop\rpk2\firmwares\leorf\ArduinoSketch1\ArduinoSketch1\ArduinoCore\Debug\libArduinoCore.a(RHSPIDriver.o)
                0x00002cfe                _ZN11RHSPIDriver17spiUsingInterruptEh
 .text.avr-libc.fplib
                0x00002d16        0x8 c:/program files (x86)/atmel/studio/7.0/toolchain/avr8/avr8-gnu-toolchain/bin/../lib/gcc/avr/5.4.0/../../../../avr/lib/avr5\libm.a(divsf3.o)
                0x00002d16                __divsf3
 .text.avr-libc.fplib
                0x00002d1e       0xdc c:/program files (x86)/atmel/studio/7.0/toolchain/avr8/avr8-gnu-toolchain/bin/../lib/gcc/avr/5.4.0/../../../../avr/lib/avr5\libm.a(divsf3x.o)
                0x00002d3e                __divsf3x
                0x00002d44                __divsf3_pse
 .text.avr-libc.fplib
                0x00002dfa       0x5e c:/program files (x86)/atmel/studio/7.0/toolchain/avr8/avr8-gnu-toolchain/bin/../lib/gcc/avr/5.4.0/../../../../avr/lib/avr5\libm.a(fixunssfsi.o)
                0x00002dfa                __fixunssfsi
 .text.avr-libc.fplib
                0x00002e58        0xc c:/program files (x86)/atmel/studio/7.0/toolchain/avr8/avr8-gnu-toolchain/bin/../lib/gcc/avr/5.4.0/../../../../avr/lib/avr5\libm.a(fp_inf.o)
                0x00002e58                __fp_inf
 .text.avr-libc.fplib
                0x00002e64        0x6 c:/program files (x86)/atmel/studio/7.0/toolchain/avr8/avr8-gnu-toolchain/bin/../lib/gcc/avr/5.4.0/../../../../avr/lib/avr5\libm.a(fp_nan.o)
                0x00002e64                __fp_nan
 .text.avr-libc.fplib
                0x00002e6a        0xe c:/program files (x86)/atmel/studio/7.0/toolchain/avr8/avr8-gnu-toolchain/bin/../lib/gcc/avr/5.4.0/../../../../avr/lib/avr5\libm.a(fp_pscA.o)
                0x00002e6a                __fp_pscA
 .text.avr-libc.fplib
                0x00002e78        0xe c:/program files (x86)/atmel/studio/7.0/toolchain/avr8/avr8-gnu-toolchain/bin/../lib/gcc/avr/5.4.0/../../../../avr/lib/avr5\libm.a(fp_pscB.o)
                0x00002e78                __fp_pscB
 .text.avr-libc.fplib
                0x00002e86       0x22 c:/program files (x86)/atmel/studio/7.0/toolchain/avr8/avr8-gnu-toolchain/bin/../lib/gcc/avr/5.4.0/../../../../avr/lib/avr5\libm.a(fp_round.o)
                0x00002e86                __fp_round
 .text.avr-libc.fplib
                0x00002ea8       0x44 c:/program files (x86)/atmel/studio/7.0/toolchain/avr8/avr8-gnu-toolchain/bin/../lib/gcc/avr/5.4.0/../../../../avr/lib/avr5\libm.a(fp_split3.o)
                0x00002ea8                __fp_split3
                0x00002eb8                __fp_splitA
 .text.avr-libc.fplib
                0x00002eec        0xe c:/program files (x86)/atmel/studio/7.0/toolchain/avr8/avr8-gnu-toolchain/bin/../lib/gcc/avr/5.4.0/../../../../avr/lib/avr5\libm.a(fp_zero.o)
                0x00002eec                __fp_zero
                0x00002eee                __fp_szero
 .text.avr-libc.fplib
                0x00002efa        0x8 c:/program files (x86)/atmel/studio/7.0/toolchain/avr8/avr8-gnu-toolchain/bin/../lib/gcc/avr/5.4.0/../../../../avr/lib/avr5\libm.a(mulsf3.o)
                0x00002efa                __mulsf3
 .text.avr-libc.fplib
                0x00002f02       0xd2 c:/program files (x86)/atmel/studio/7.0/toolchain/avr8/avr8-gnu-toolchain/bin/../lib/gcc/avr/5.4.0/../../../../avr/lib/avr5\libm.a(mulsf3x.o)
                0x00002f20                __mulsf3x
                0x00002f26                __mulsf3_pse
 .text.libgcc.div
                0x00002fd4       0x44 c:/program files (x86)/atmel/studio/7.0/toolchain/avr8/avr8-gnu-toolchain/bin/../lib/gcc/avr/5.4.0/avr5\libgcc.a(_udivmodsi4.o)
                0x00002fd4                __udivmodsi4
 .text.libgcc.div
                0x00003018       0x2e c:/program files (x86)/atmel/studio/7.0/toolchain/avr8/avr8-gnu-toolchain/bin/../lib/gcc/avr/5.4.0/avr5\libgcc.a(_divmodsi4.o)
                0x00003018                __divmodsi4
 .text.libgcc.div
                0x00003046       0x10 c:/program files (x86)/atmel/studio/7.0/toolchain/avr8/avr8-gnu-toolchain/bin/../lib/gcc/avr/5.4.0/avr5\libgcc.a(_negsi2.o)
                0x00003046                __negsi2
 .text.libgcc   0x00003056        0xc c:/program files (x86)/atmel/studio/7.0/toolchain/avr8/avr8-gnu-toolchain/bin/../lib/gcc/avr/5.4.0/avr5\libgcc.a(_tablejump2.o)
                0x00003056                __tablejump2__
 .text.libgcc.mul
                0x00003062       0x16 c:/program files (x86)/atmel/studio/7.0/toolchain/avr8/avr8-gnu-toolchain/bin/../lib/gcc/avr/5.4.0/avr5\libgcc.a(_muluhisi3.o)
                0x00003062                __muluhisi3
 .text.libgcc.mul
                0x00003078       0x1e c:/program files (x86)/atmel/studio/7.0/toolchain/avr8/avr8-gnu-toolchain/bin/../lib/gcc/avr/5.4.0/avr5\libgcc.a(_umulhisi3.o)
                0x00003078                __umulhisi3
 .text.avr-libc
                0x00003096      0x144 c:/program files (x86)/atmel/studio/7.0/toolchain/avr8/avr8-gnu-toolchain/bin/../lib/gcc/avr/5.4.0/../../../../avr/lib/avr5\libc.a(random.o)
                0x00003096                random_r
                0x0000312c                random
                0x000031c8                srandom
 .text.avr-libc
                0x000031da        0xa c:/program files (x86)/atmel/studio/7.0/toolchain/avr8/avr8-gnu-toolchain/bin/../lib/gcc/avr/5.4.0/../../../../avr/lib/avr5\libc.a(abort.o)
                0x000031da                abort
 .text.avr-libc
                0x000031e4       0x12 c:/program files (x86)/atmel/studio/7.0/toolchain/avr8/avr8-gnu-toolchain/bin/../lib/gcc/avr/5.4.0/../../../../avr/lib/avr5\libc.a(memcpy_P.o)
                0x000031e4                memcpy_P
 .text.avr-libc
                0x000031f6       0x12 c:/program files (x86)/atmel/studio/7.0/toolchain/avr8/avr8-gnu-toolchain/bin/../lib/gcc/avr/5.4.0/../../../../avr/lib/avr5\libc.a(memcpy.o)
                0x000031f6                memcpy
 .text.avr-libc
                0x00003208       0x34 c:/program files (x86)/atmel/studio/7.0/toolchain/avr8/avr8-gnu-toolchain/bin/../lib/gcc/avr/5.4.0/../../../../avr/lib/avr5\libc.a(strstr.o)
                0x00003208                strstr
 .text.libgcc.mul
                0x0000323c       0x10 c:/program files (x86)/atmel/studio/7.0/toolchain/avr8/avr8-gnu-toolchain/bin/../lib/gcc/avr/5.4.0/avr5\libgcc.a(_mulshisi3.o)
                0x0000323c                __mulshisi3
                0x00003242                __mulohisi3
                0x0000324c                . = ALIGN (0x2)
 *(.fini9)
 .fini9         0x0000324c        0x0 c:/program files (x86)/atmel/studio/7.0/toolchain/avr8/avr8-gnu-toolchain/bin/../lib/gcc/avr/5.4.0/avr5\libgcc.a(_exit.o)
                0x0000324c                _exit
                0x0000324c                exit
 *(.fini9)
 *(.fini8)
 *(.fini8)
 *(.fini7)
 *(.fini7)
 *(.fini6)
 *(.fini6)
 *(.fini5)
 *(.fini5)
 *(.fini4)
 *(.fini4)
 *(.fini3)
 *(.fini3)
 *(.fini2)
 *(.fini2)
 *(.fini1)
 *(.fini1)
 *(.fini0)
 .fini0         0x0000324c        0x4 c:/program files (x86)/atmel/studio/7.0/toolchain/avr8/avr8-gnu-toolchain/bin/../lib/gcc/avr/5.4.0/avr5\libgcc.a(_exit.o)
 *(.fini0)
                0x00003250                _etext = .

.data           0x00800100      0x218 load address 0x00003250
                0x00800100                PROVIDE (__data_start, .)
 *(.data)
 .data          0x00800100        0x4 c:/program files (x86)/atmel/studio/7.0/toolchain/avr8/avr8-gnu-toolchain/bin/../lib/gcc/avr/5.4.0/../../../../avr/lib/avr5\libc.a(random.o)
 *(.data*)
 .data._initEndpoints
                0x00800104        0x7 C:\Users\xia\Desktop\rpk2\firmwares\leorf\ArduinoSketch1\ArduinoSketch1\ArduinoCore\Debug\libArduinoCore.a(USBCore.o)
                0x00800104                _initEndpoints
 .data._ZL10breakValue
                0x0080010b        0x4 C:\Users\xia\Desktop\rpk2\firmwares\leorf\ArduinoSketch1\ArduinoSketch1\ArduinoCore\Debug\libArduinoCore.a(CDC.o)
 .data._ZL12_usbLineInfo
                0x0080010f        0x8 C:\Users\xia\Desktop\rpk2\firmwares\leorf\ArduinoSketch1\ArduinoSketch1\ArduinoCore\Debug\libArduinoCore.a(CDC.o)
 .data.intFunc  0x00800117        0xa C:\Users\xia\Desktop\rpk2\firmwares\leorf\ArduinoSketch1\ArduinoSketch1\ArduinoCore\Debug\libArduinoCore.a(WInterrupts.o)
 *(.gnu.linkonce.d*)
 *(.rodata)
 .rodata        0x00800121       0x10 Sketch.o
 *(.rodata*)
 .rodata.str1.1
                0x00800131       0xcc Sketch.o
 .rodata._ZTV14HardwareSerial
                0x008001fd       0x12 C:\Users\xia\Desktop\rpk2\firmwares\leorf\ArduinoSketch1\ArduinoSketch1\ArduinoCore\Debug\libArduinoCore.a(HardwareSerial.o)
                0x008001fd                _ZTV14HardwareSerial
 .rodata.str1.1
                0x0080020f        0xf C:\Users\xia\Desktop\rpk2\firmwares\leorf\ArduinoSketch1\ArduinoSketch1\ArduinoCore\Debug\libArduinoCore.a(Print.o)
 .rodata._ZTV15RHGenericDriver
                0x0080021e       0x3c C:\Users\xia\Desktop\rpk2\firmwares\leorf\ArduinoSketch1\ArduinoSketch1\ArduinoCore\Debug\libArduinoCore.a(RHGenericDriver.o)
                0x0080021e                _ZTV15RHGenericDriver
 .rodata._ZTV13RHHardwareSPI
                0x0080025a       0x1a C:\Users\xia\Desktop\rpk2\firmwares\leorf\ArduinoSketch1\ArduinoSketch1\ArduinoCore\Debug\libArduinoCore.a(RHHardwareSPI.o)
                0x0080025a                _ZTV13RHHardwareSPI
 .rodata._ZTV7RH_RF69
                0x00800274       0x3c C:\Users\xia\Desktop\rpk2\firmwares\leorf\ArduinoSketch1\ArduinoSketch1\ArduinoCore\Debug\libArduinoCore.a(RH_RF69.o)
                0x00800274                _ZTV7RH_RF69
 .rodata._ZTV7Serial_
                0x008002b0       0x12 C:\Users\xia\Desktop\rpk2\firmwares\leorf\ArduinoSketch1\ArduinoSketch1\ArduinoCore\Debug\libArduinoCore.a(CDC.o)
                0x008002b0                _ZTV7Serial_
 .rodata._ZTV12RHGenericSPI
                0x008002c2       0x1a C:\Users\xia\Desktop\rpk2\firmwares\leorf\ArduinoSketch1\ArduinoSketch1\ArduinoCore\Debug\libArduinoCore.a(RHGenericSPI.o)
                0x008002c2                _ZTV12RHGenericSPI
 .rodata._ZTV11RHSPIDriver
                0x008002dc       0x3c C:\Users\xia\Desktop\rpk2\firmwares\leorf\ArduinoSketch1\ArduinoSketch1\ArduinoCore\Debug\libArduinoCore.a(RHSPIDriver.o)
                0x008002dc                _ZTV11RHSPIDriver
 *(.gnu.linkonce.r*)
                0x00800318                . = ALIGN (0x2)
                0x00800318                _edata = .
                0x00800318                PROVIDE (__data_end, .)

.bss            0x00800318      0x182
                0x00800318                PROVIDE (__bss_start, .)
 *(.bss)
 *(.bss*)
 .bss.rf69      0x00800318       0x63 Sketch.o
                0x00800318                rf69
 .bss.Serial1   0x0080037b       0x9d C:\Users\xia\Desktop\rpk2\firmwares\leorf\ArduinoSketch1\ArduinoSketch1\ArduinoCore\Debug\libArduinoCore.a(HardwareSerial1.o)
                0x0080037b                Serial1
 .bss.USBDevice
                0x00800418        0x1 C:\Users\xia\Desktop\rpk2\firmwares\leorf\ArduinoSketch1\ArduinoSketch1\ArduinoCore\Debug\libArduinoCore.a(USBCore.o)
                0x00800418                USBDevice
 .bss._ZL5_cend
                0x00800419        0x2 C:\Users\xia\Desktop\rpk2\firmwares\leorf\ArduinoSketch1\ArduinoSketch1\ArduinoCore\Debug\libArduinoCore.a(USBCore.o)
 .bss._ZL6_cmark
                0x0080041b        0x2 C:\Users\xia\Desktop\rpk2\firmwares\leorf\ArduinoSketch1\ArduinoSketch1\ArduinoCore\Debug\libArduinoCore.a(USBCore.o)
 .bss._usbSuspendState
                0x0080041d        0x1 C:\Users\xia\Desktop\rpk2\firmwares\leorf\ArduinoSketch1\ArduinoSketch1\ArduinoCore\Debug\libArduinoCore.a(USBCore.o)
                0x0080041d                _usbSuspendState
 .bss._usbCurrentStatus
                0x0080041e        0x1 C:\Users\xia\Desktop\rpk2\firmwares\leorf\ArduinoSketch1\ArduinoSketch1\ArduinoCore\Debug\libArduinoCore.a(USBCore.o)
                0x0080041e                _usbCurrentStatus
 .bss._usbConfiguration
                0x0080041f        0x1 C:\Users\xia\Desktop\rpk2\firmwares\leorf\ArduinoSketch1\ArduinoSketch1\ArduinoCore\Debug\libArduinoCore.a(USBCore.o)
                0x0080041f                _usbConfiguration
 .bss.RxLEDPulse
                0x00800420        0x1 C:\Users\xia\Desktop\rpk2\firmwares\leorf\ArduinoSketch1\ArduinoSketch1\ArduinoCore\Debug\libArduinoCore.a(USBCore.o)
                0x00800420                RxLEDPulse
 .bss.TxLEDPulse
                0x00800421        0x1 C:\Users\xia\Desktop\rpk2\firmwares\leorf\ArduinoSketch1\ArduinoSketch1\ArduinoCore\Debug\libArduinoCore.a(USBCore.o)
                0x00800421                TxLEDPulse
 .bss.timer0_fract
                0x00800422        0x1 C:\Users\xia\Desktop\rpk2\firmwares\leorf\ArduinoSketch1\ArduinoSketch1\ArduinoCore\Debug\libArduinoCore.a(wiring.o)
 .bss.timer0_millis
                0x00800423        0x4 C:\Users\xia\Desktop\rpk2\firmwares\leorf\ArduinoSketch1\ArduinoSketch1\ArduinoCore\Debug\libArduinoCore.a(wiring.o)
                0x00800423                timer0_millis
 .bss.timer0_overflow_count
                0x00800427        0x4 C:\Users\xia\Desktop\rpk2\firmwares\leorf\ArduinoSketch1\ArduinoSketch1\ArduinoCore\Debug\libArduinoCore.a(wiring.o)
                0x00800427                timer0_overflow_count
 .bss.hardware_spi
                0x0080042b        0x7 C:\Users\xia\Desktop\rpk2\firmwares\leorf\ArduinoSketch1\ArduinoSketch1\ArduinoCore\Debug\libArduinoCore.a(RHHardwareSPI.o)
                0x0080042b                hardware_spi
 .bss._ZN7RH_RF6915_interruptCountE
                0x00800432        0x1 C:\Users\xia\Desktop\rpk2\firmwares\leorf\ArduinoSketch1\ArduinoSketch1\ArduinoCore\Debug\libArduinoCore.a(RH_RF69.o)
                0x00800432                _ZN7RH_RF6915_interruptCountE
 .bss._ZN7RH_RF6919_deviceForInterruptE
                0x00800433        0x6 C:\Users\xia\Desktop\rpk2\firmwares\leorf\ArduinoSketch1\ArduinoSketch1\ArduinoCore\Debug\libArduinoCore.a(RH_RF69.o)
                0x00800433                _ZN7RH_RF6919_deviceForInterruptE
 .bss._ZN8SPIClass13interruptSaveE
                0x00800439        0x1 C:\Users\xia\Desktop\rpk2\firmwares\leorf\ArduinoSketch1\ArduinoSketch1\ArduinoCore\Debug\libArduinoCore.a(SPI.o)
                0x00800439                _ZN8SPIClass13interruptSaveE
 .bss._ZN8SPIClass13interruptMaskE
                0x0080043a        0x1 C:\Users\xia\Desktop\rpk2\firmwares\leorf\ArduinoSketch1\ArduinoSketch1\ArduinoCore\Debug\libArduinoCore.a(SPI.o)
                0x0080043a                _ZN8SPIClass13interruptMaskE
 .bss._ZN8SPIClass13interruptModeE
                0x0080043b        0x1 C:\Users\xia\Desktop\rpk2\firmwares\leorf\ArduinoSketch1\ArduinoSketch1\ArduinoCore\Debug\libArduinoCore.a(SPI.o)
                0x0080043b                _ZN8SPIClass13interruptModeE
 .bss._ZN8SPIClass11initializedE
                0x0080043c        0x1 C:\Users\xia\Desktop\rpk2\firmwares\leorf\ArduinoSketch1\ArduinoSketch1\ArduinoCore\Debug\libArduinoCore.a(SPI.o)
                0x0080043c                _ZN8SPIClass11initializedE
 .bss.Serial    0x0080043d       0x50 C:\Users\xia\Desktop\rpk2\firmwares\leorf\ArduinoSketch1\ArduinoSketch1\ArduinoCore\Debug\libArduinoCore.a(CDC.o)
                0x0080043d                Serial
 .bss._ZL11wdtcsr_save
                0x0080048d        0x1 C:\Users\xia\Desktop\rpk2\firmwares\leorf\ArduinoSketch1\ArduinoSketch1\ArduinoCore\Debug\libArduinoCore.a(CDC.o)
 .bss._ZZ12PluggableUSBvE3obj
                0x0080048e        0x4 C:\Users\xia\Desktop\rpk2\firmwares\leorf\ArduinoSketch1\ArduinoSketch1\ArduinoCore\Debug\libArduinoCore.a(PluggableUSB.o)
 .bss._ZGVZ12PluggableUSBvE3obj
                0x00800492        0x8 C:\Users\xia\Desktop\rpk2\firmwares\leorf\ArduinoSketch1\ArduinoSketch1\ArduinoCore\Debug\libArduinoCore.a(PluggableUSB.o)
 *(COMMON)
                0x0080049a                PROVIDE (__bss_end, .)
                0x00003250                __data_load_start = LOADADDR (.data)
                0x00003468                __data_load_end = (__data_load_start + SIZEOF (.data))

.noinit         0x0080049a        0x0
                [!provide]                PROVIDE (__noinit_start, .)
 *(.noinit*)
                [!provide]                PROVIDE (__noinit_end, .)
                0x0080049a                _end = .
                [!provide]                PROVIDE (__heap_start, .)

.eeprom         0x00810000        0x0
 *(.eeprom*)
                0x00810000                __eeprom_end = .

.fuse
 *(.fuse)
 *(.lfuse)
 *(.hfuse)
 *(.efuse)

.lock
 *(.lock*)

.signature
 *(.signature*)

.user_signatures
 *(.user_signatures*)

.stab
 *(.stab)

.stabstr
 *(.stabstr)

.stab.excl
 *(.stab.excl)

.stab.exclstr
 *(.stab.exclstr)

.stab.index
 *(.stab.index)

.stab.indexstr
 *(.stab.indexstr)

.comment        0x00000000       0x30
 *(.comment)
 .comment       0x00000000       0x30 Sketch.o
                                 0x31 (size before relaxing)
 .comment       0x00000030       0x31 C:\Users\xia\Desktop\rpk2\firmwares\leorf\ArduinoSketch1\ArduinoSketch1\ArduinoCore\Debug\libArduinoCore.a(HardwareSerial.o)
 .comment       0x00000030       0x31 C:\Users\xia\Desktop\rpk2\firmwares\leorf\ArduinoSketch1\ArduinoSketch1\ArduinoCore\Debug\libArduinoCore.a(HardwareSerial1.o)
 .comment       0x00000030       0x31 C:\Users\xia\Desktop\rpk2\firmwares\leorf\ArduinoSketch1\ArduinoSketch1\ArduinoCore\Debug\libArduinoCore.a(main.o)
 .comment       0x00000030       0x31 C:\Users\xia\Desktop\rpk2\firmwares\leorf\ArduinoSketch1\ArduinoSketch1\ArduinoCore\Debug\libArduinoCore.a(Print.o)
 .comment       0x00000030       0x31 C:\Users\xia\Desktop\rpk2\firmwares\leorf\ArduinoSketch1\ArduinoSketch1\ArduinoCore\Debug\libArduinoCore.a(USBCore.o)
 .comment       0x00000030       0x31 C:\Users\xia\Desktop\rpk2\firmwares\leorf\ArduinoSketch1\ArduinoSketch1\ArduinoCore\Debug\libArduinoCore.a(wiring.o)
 .comment       0x00000030       0x31 C:\Users\xia\Desktop\rpk2\firmwares\leorf\ArduinoSketch1\ArduinoSketch1\ArduinoCore\Debug\libArduinoCore.a(wiring_digital.o)
 .comment       0x00000030       0x31 C:\Users\xia\Desktop\rpk2\firmwares\leorf\ArduinoSketch1\ArduinoSketch1\ArduinoCore\Debug\libArduinoCore.a(RHGenericDriver.o)
 .comment       0x00000030       0x31 C:\Users\xia\Desktop\rpk2\firmwares\leorf\ArduinoSketch1\ArduinoSketch1\ArduinoCore\Debug\libArduinoCore.a(RHHardwareSPI.o)
 .comment       0x00000030       0x31 C:\Users\xia\Desktop\rpk2\firmwares\leorf\ArduinoSketch1\ArduinoSketch1\ArduinoCore\Debug\libArduinoCore.a(RH_RF69.o)
 .comment       0x00000030       0x31 C:\Users\xia\Desktop\rpk2\firmwares\leorf\ArduinoSketch1\ArduinoSketch1\ArduinoCore\Debug\libArduinoCore.a(SPI.o)
 .comment       0x00000030       0x31 C:\Users\xia\Desktop\rpk2\firmwares\leorf\ArduinoSketch1\ArduinoSketch1\ArduinoCore\Debug\libArduinoCore.a(abi.o)
 .comment       0x00000030       0x31 C:\Users\xia\Desktop\rpk2\firmwares\leorf\ArduinoSketch1\ArduinoSketch1\ArduinoCore\Debug\libArduinoCore.a(CDC.o)
 .comment       0x00000030       0x31 C:\Users\xia\Desktop\rpk2\firmwares\leorf\ArduinoSketch1\ArduinoSketch1\ArduinoCore\Debug\libArduinoCore.a(hooks.o)
 .comment       0x00000030       0x31 C:\Users\xia\Desktop\rpk2\firmwares\leorf\ArduinoSketch1\ArduinoSketch1\ArduinoCore\Debug\libArduinoCore.a(PluggableUSB.o)
 .comment       0x00000030       0x31 C:\Users\xia\Desktop\rpk2\firmwares\leorf\ArduinoSketch1\ArduinoSketch1\ArduinoCore\Debug\libArduinoCore.a(WInterrupts.o)
 .comment       0x00000030       0x31 C:\Users\xia\Desktop\rpk2\firmwares\leorf\ArduinoSketch1\ArduinoSketch1\ArduinoCore\Debug\libArduinoCore.a(WMath.o)
 .comment       0x00000030       0x31 C:\Users\xia\Desktop\rpk2\firmwares\leorf\ArduinoSketch1\ArduinoSketch1\ArduinoCore\Debug\libArduinoCore.a(RHGenericSPI.o)
 .comment       0x00000030       0x31 C:\Users\xia\Desktop\rpk2\firmwares\leorf\ArduinoSketch1\ArduinoSketch1\ArduinoCore\Debug\libArduinoCore.a(RHSPIDriver.o)
 .comment       0x00000030       0x31 c:/program files (x86)/atmel/studio/7.0/toolchain/avr8/avr8-gnu-toolchain/bin/../lib/gcc/avr/5.4.0/../../../../avr/lib/avr5\libc.a(random.o)

.note.gnu.avr.deviceinfo
                0x00000000       0x40
 .note.gnu.avr.deviceinfo
                0x00000000       0x40 C:/Program Files (x86)/Atmel/Studio/7.0/Packs/Atmel/ATmega_DFP/1.7.374/gcc/dev/atmega32u4/avr5/crtatmega32u4.o

.note.gnu.build-id
 *(.note.gnu.build-id)

.debug
 *(.debug)

.line
 *(.line)

.debug_srcinfo
 *(.debug_srcinfo)

.debug_sfnames
 *(.debug_sfnames)

.debug_aranges  0x00000000      0x8c8
 *(.debug_aranges)
 .debug_aranges
                0x00000000       0x40 Sketch.o
 .debug_aranges
                0x00000040       0x68 C:\Users\xia\Desktop\rpk2\firmwares\leorf\ArduinoSketch1\ArduinoSketch1\ArduinoCore\Debug\libArduinoCore.a(HardwareSerial.o)
 .debug_aranges
                0x000000a8       0x48 C:\Users\xia\Desktop\rpk2\firmwares\leorf\ArduinoSketch1\ArduinoSketch1\ArduinoCore\Debug\libArduinoCore.a(HardwareSerial1.o)
 .debug_aranges
                0x000000f0       0x30 C:\Users\xia\Desktop\rpk2\firmwares\leorf\ArduinoSketch1\ArduinoSketch1\ArduinoCore\Debug\libArduinoCore.a(main.o)
 .debug_aranges
                0x00000120      0x100 C:\Users\xia\Desktop\rpk2\firmwares\leorf\ArduinoSketch1\ArduinoSketch1\ArduinoCore\Debug\libArduinoCore.a(Print.o)
 .debug_aranges
                0x00000220       0xe0 C:\Users\xia\Desktop\rpk2\firmwares\leorf\ArduinoSketch1\ArduinoSketch1\ArduinoCore\Debug\libArduinoCore.a(USBCore.o)
 .debug_aranges
                0x00000300       0x48 C:\Users\xia\Desktop\rpk2\firmwares\leorf\ArduinoSketch1\ArduinoSketch1\ArduinoCore\Debug\libArduinoCore.a(wiring.o)
 .debug_aranges
                0x00000348       0x38 C:\Users\xia\Desktop\rpk2\firmwares\leorf\ArduinoSketch1\ArduinoSketch1\ArduinoCore\Debug\libArduinoCore.a(wiring_digital.o)
 .debug_aranges
                0x00000380       0xe8 C:\Users\xia\Desktop\rpk2\firmwares\leorf\ArduinoSketch1\ArduinoSketch1\ArduinoCore\Debug\libArduinoCore.a(RHGenericDriver.o)
 .debug_aranges
                0x00000468       0x68 C:\Users\xia\Desktop\rpk2\firmwares\leorf\ArduinoSketch1\ArduinoSketch1\ArduinoCore\Debug\libArduinoCore.a(RHHardwareSPI.o)
 .debug_aranges
                0x000004d0      0x100 C:\Users\xia\Desktop\rpk2\firmwares\leorf\ArduinoSketch1\ArduinoSketch1\ArduinoCore\Debug\libArduinoCore.a(RH_RF69.o)
 .debug_aranges
                0x000005d0       0x38 C:\Users\xia\Desktop\rpk2\firmwares\leorf\ArduinoSketch1\ArduinoSketch1\ArduinoCore\Debug\libArduinoCore.a(SPI.o)
 .debug_aranges
                0x00000608       0x20 C:\Users\xia\Desktop\rpk2\firmwares\leorf\ArduinoSketch1\ArduinoSketch1\ArduinoCore\Debug\libArduinoCore.a(abi.o)
 .debug_aranges
                0x00000628       0xd8 C:\Users\xia\Desktop\rpk2\firmwares\leorf\ArduinoSketch1\ArduinoSketch1\ArduinoCore\Debug\libArduinoCore.a(CDC.o)
 .debug_aranges
                0x00000700       0x20 C:\Users\xia\Desktop\rpk2\firmwares\leorf\ArduinoSketch1\ArduinoSketch1\ArduinoCore\Debug\libArduinoCore.a(hooks.o)
 .debug_aranges
                0x00000720       0x50 C:\Users\xia\Desktop\rpk2\firmwares\leorf\ArduinoSketch1\ArduinoSketch1\ArduinoCore\Debug\libArduinoCore.a(PluggableUSB.o)
 .debug_aranges
                0x00000770       0x58 C:\Users\xia\Desktop\rpk2\firmwares\leorf\ArduinoSketch1\ArduinoSketch1\ArduinoCore\Debug\libArduinoCore.a(WInterrupts.o)
 .debug_aranges
                0x000007c8       0x48 C:\Users\xia\Desktop\rpk2\firmwares\leorf\ArduinoSketch1\ArduinoSketch1\ArduinoCore\Debug\libArduinoCore.a(WMath.o)
 .debug_aranges
                0x00000810       0x60 C:\Users\xia\Desktop\rpk2\firmwares\leorf\ArduinoSketch1\ArduinoSketch1\ArduinoCore\Debug\libArduinoCore.a(RHGenericSPI.o)
 .debug_aranges
                0x00000870       0x58 C:\Users\xia\Desktop\rpk2\firmwares\leorf\ArduinoSketch1\ArduinoSketch1\ArduinoCore\Debug\libArduinoCore.a(RHSPIDriver.o)

.debug_pubnames
 *(.debug_pubnames)

.debug_info     0x00000000    0x12990
 *(.debug_info .gnu.linkonce.wi.*)
 .debug_info    0x00000000      0x9f4 C:/Program Files (x86)/Atmel/Studio/7.0/Packs/Atmel/ATmega_DFP/1.7.374/gcc/dev/atmega32u4/avr5/crtatmega32u4.o
 .debug_info    0x000009f4      0xd58 Sketch.o
 .debug_info    0x0000174c     0x1f92 C:\Users\xia\Desktop\rpk2\firmwares\leorf\ArduinoSketch1\ArduinoSketch1\ArduinoCore\Debug\libArduinoCore.a(HardwareSerial.o)
 .debug_info    0x000036de     0x1b44 C:\Users\xia\Desktop\rpk2\firmwares\leorf\ArduinoSketch1\ArduinoSketch1\ArduinoCore\Debug\libArduinoCore.a(HardwareSerial1.o)
 .debug_info    0x00005222      0x35a C:\Users\xia\Desktop\rpk2\firmwares\leorf\ArduinoSketch1\ArduinoSketch1\ArduinoCore\Debug\libArduinoCore.a(main.o)
 .debug_info    0x0000557c     0x292d C:\Users\xia\Desktop\rpk2\firmwares\leorf\ArduinoSketch1\ArduinoSketch1\ArduinoCore\Debug\libArduinoCore.a(Print.o)
 .debug_info    0x00007ea9     0x1a3a C:\Users\xia\Desktop\rpk2\firmwares\leorf\ArduinoSketch1\ArduinoSketch1\ArduinoCore\Debug\libArduinoCore.a(USBCore.o)
 .debug_info    0x000098e3      0x2f9 C:\Users\xia\Desktop\rpk2\firmwares\leorf\ArduinoSketch1\ArduinoSketch1\ArduinoCore\Debug\libArduinoCore.a(wiring.o)
 .debug_info    0x00009bdc      0x633 C:\Users\xia\Desktop\rpk2\firmwares\leorf\ArduinoSketch1\ArduinoSketch1\ArduinoCore\Debug\libArduinoCore.a(wiring_digital.o)
 .debug_info    0x0000a20f     0x1038 C:\Users\xia\Desktop\rpk2\firmwares\leorf\ArduinoSketch1\ArduinoSketch1\ArduinoCore\Debug\libArduinoCore.a(RHGenericDriver.o)
 .debug_info    0x0000b247      0xc1f C:\Users\xia\Desktop\rpk2\firmwares\leorf\ArduinoSketch1\ArduinoSketch1\ArduinoCore\Debug\libArduinoCore.a(RHHardwareSPI.o)
 .debug_info    0x0000be66     0x1db3 C:\Users\xia\Desktop\rpk2\firmwares\leorf\ArduinoSketch1\ArduinoSketch1\ArduinoCore\Debug\libArduinoCore.a(RH_RF69.o)
 .debug_info    0x0000dc19      0x699 C:\Users\xia\Desktop\rpk2\firmwares\leorf\ArduinoSketch1\ArduinoSketch1\ArduinoCore\Debug\libArduinoCore.a(SPI.o)
 .debug_info    0x0000e2b2       0x76 C:\Users\xia\Desktop\rpk2\firmwares\leorf\ArduinoSketch1\ArduinoSketch1\ArduinoCore\Debug\libArduinoCore.a(abi.o)
 .debug_info    0x0000e328     0x29f0 C:\Users\xia\Desktop\rpk2\firmwares\leorf\ArduinoSketch1\ArduinoSketch1\ArduinoCore\Debug\libArduinoCore.a(CDC.o)
 .debug_info    0x00010d18       0x3e C:\Users\xia\Desktop\rpk2\firmwares\leorf\ArduinoSketch1\ArduinoSketch1\ArduinoCore\Debug\libArduinoCore.a(hooks.o)
 .debug_info    0x00010d56      0x79f C:\Users\xia\Desktop\rpk2\firmwares\leorf\ArduinoSketch1\ArduinoSketch1\ArduinoCore\Debug\libArduinoCore.a(PluggableUSB.o)
 .debug_info    0x000114f5      0x28c C:\Users\xia\Desktop\rpk2\firmwares\leorf\ArduinoSketch1\ArduinoSketch1\ArduinoCore\Debug\libArduinoCore.a(WInterrupts.o)
 .debug_info    0x00011781      0x230 C:\Users\xia\Desktop\rpk2\firmwares\leorf\ArduinoSketch1\ArduinoSketch1\ArduinoCore\Debug\libArduinoCore.a(WMath.o)
 .debug_info    0x000119b1      0x6c4 C:\Users\xia\Desktop\rpk2\firmwares\leorf\ArduinoSketch1\ArduinoSketch1\ArduinoCore\Debug\libArduinoCore.a(RHGenericSPI.o)
 .debug_info    0x00012075      0x91b C:\Users\xia\Desktop\rpk2\firmwares\leorf\ArduinoSketch1\ArduinoSketch1\ArduinoCore\Debug\libArduinoCore.a(RHSPIDriver.o)

.debug_abbrev   0x00000000     0x43ad
 *(.debug_abbrev)
 .debug_abbrev  0x00000000      0x96a C:/Program Files (x86)/Atmel/Studio/7.0/Packs/Atmel/ATmega_DFP/1.7.374/gcc/dev/atmega32u4/avr5/crtatmega32u4.o
 .debug_abbrev  0x0000096a      0x315 Sketch.o
 .debug_abbrev  0x00000c7f      0x4b7 C:\Users\xia\Desktop\rpk2\firmwares\leorf\ArduinoSketch1\ArduinoSketch1\ArduinoCore\Debug\libArduinoCore.a(HardwareSerial.o)
 .debug_abbrev  0x00001136      0x3ce C:\Users\xia\Desktop\rpk2\firmwares\leorf\ArduinoSketch1\ArduinoSketch1\ArduinoCore\Debug\libArduinoCore.a(HardwareSerial1.o)
 .debug_abbrev  0x00001504      0x19a C:\Users\xia\Desktop\rpk2\firmwares\leorf\ArduinoSketch1\ArduinoSketch1\ArduinoCore\Debug\libArduinoCore.a(main.o)
 .debug_abbrev  0x0000169e      0x47a C:\Users\xia\Desktop\rpk2\firmwares\leorf\ArduinoSketch1\ArduinoSketch1\ArduinoCore\Debug\libArduinoCore.a(Print.o)
 .debug_abbrev  0x00001b18      0x5e0 C:\Users\xia\Desktop\rpk2\firmwares\leorf\ArduinoSketch1\ArduinoSketch1\ArduinoCore\Debug\libArduinoCore.a(USBCore.o)
 .debug_abbrev  0x000020f8      0x146 C:\Users\xia\Desktop\rpk2\firmwares\leorf\ArduinoSketch1\ArduinoSketch1\ArduinoCore\Debug\libArduinoCore.a(wiring.o)
 .debug_abbrev  0x0000223e      0x15a C:\Users\xia\Desktop\rpk2\firmwares\leorf\ArduinoSketch1\ArduinoSketch1\ArduinoCore\Debug\libArduinoCore.a(wiring_digital.o)
 .debug_abbrev  0x00002398      0x36b C:\Users\xia\Desktop\rpk2\firmwares\leorf\ArduinoSketch1\ArduinoSketch1\ArduinoCore\Debug\libArduinoCore.a(RHGenericDriver.o)
 .debug_abbrev  0x00002703      0x44b C:\Users\xia\Desktop\rpk2\firmwares\leorf\ArduinoSketch1\ArduinoSketch1\ArduinoCore\Debug\libArduinoCore.a(RHHardwareSPI.o)
 .debug_abbrev  0x00002b4e      0x572 C:\Users\xia\Desktop\rpk2\firmwares\leorf\ArduinoSketch1\ArduinoSketch1\ArduinoCore\Debug\libArduinoCore.a(RH_RF69.o)
 .debug_abbrev  0x000030c0      0x283 C:\Users\xia\Desktop\rpk2\firmwares\leorf\ArduinoSketch1\ArduinoSketch1\ArduinoCore\Debug\libArduinoCore.a(SPI.o)
 .debug_abbrev  0x00003343       0x6d C:\Users\xia\Desktop\rpk2\firmwares\leorf\ArduinoSketch1\ArduinoSketch1\ArduinoCore\Debug\libArduinoCore.a(abi.o)
 .debug_abbrev  0x000033b0      0x602 C:\Users\xia\Desktop\rpk2\firmwares\leorf\ArduinoSketch1\ArduinoSketch1\ArduinoCore\Debug\libArduinoCore.a(CDC.o)
 .debug_abbrev  0x000039b2       0x2a C:\Users\xia\Desktop\rpk2\firmwares\leorf\ArduinoSketch1\ArduinoSketch1\ArduinoCore\Debug\libArduinoCore.a(hooks.o)
 .debug_abbrev  0x000039dc      0x2c5 C:\Users\xia\Desktop\rpk2\firmwares\leorf\ArduinoSketch1\ArduinoSketch1\ArduinoCore\Debug\libArduinoCore.a(PluggableUSB.o)
 .debug_abbrev  0x00003ca1       0xed C:\Users\xia\Desktop\rpk2\firmwares\leorf\ArduinoSketch1\ArduinoSketch1\ArduinoCore\Debug\libArduinoCore.a(WInterrupts.o)
 .debug_abbrev  0x00003d8e      0x12b C:\Users\xia\Desktop\rpk2\firmwares\leorf\ArduinoSketch1\ArduinoSketch1\ArduinoCore\Debug\libArduinoCore.a(WMath.o)
 .debug_abbrev  0x00003eb9      0x213 C:\Users\xia\Desktop\rpk2\firmwares\leorf\ArduinoSketch1\ArduinoSketch1\ArduinoCore\Debug\libArduinoCore.a(RHGenericSPI.o)
 .debug_abbrev  0x000040cc      0x2e1 C:\Users\xia\Desktop\rpk2\firmwares\leorf\ArduinoSketch1\ArduinoSketch1\ArduinoCore\Debug\libArduinoCore.a(RHSPIDriver.o)

.debug_line     0x00000000     0x4ed9
 *(.debug_line .debug_line.* .debug_line_end)
 .debug_line    0x00000000      0x19a C:/Program Files (x86)/Atmel/Studio/7.0/Packs/Atmel/ATmega_DFP/1.7.374/gcc/dev/atmega32u4/avr5/crtatmega32u4.o
 .debug_line    0x0000019a      0x4c7 Sketch.o
 .debug_line    0x00000661      0x4c4 C:\Users\xia\Desktop\rpk2\firmwares\leorf\ArduinoSketch1\ArduinoSketch1\ArduinoCore\Debug\libArduinoCore.a(HardwareSerial.o)
 .debug_line    0x00000b25      0x28c C:\Users\xia\Desktop\rpk2\firmwares\leorf\ArduinoSketch1\ArduinoSketch1\ArduinoCore\Debug\libArduinoCore.a(HardwareSerial1.o)
 .debug_line    0x00000db1      0x177 C:\Users\xia\Desktop\rpk2\firmwares\leorf\ArduinoSketch1\ArduinoSketch1\ArduinoCore\Debug\libArduinoCore.a(main.o)
 .debug_line    0x00000f28      0x685 C:\Users\xia\Desktop\rpk2\firmwares\leorf\ArduinoSketch1\ArduinoSketch1\ArduinoCore\Debug\libArduinoCore.a(Print.o)
 .debug_line    0x000015ad      0x9e7 C:\Users\xia\Desktop\rpk2\firmwares\leorf\ArduinoSketch1\ArduinoSketch1\ArduinoCore\Debug\libArduinoCore.a(USBCore.o)
 .debug_line    0x00001f94      0x2bd C:\Users\xia\Desktop\rpk2\firmwares\leorf\ArduinoSketch1\ArduinoSketch1\ArduinoCore\Debug\libArduinoCore.a(wiring.o)
 .debug_line    0x00002251      0x26a C:\Users\xia\Desktop\rpk2\firmwares\leorf\ArduinoSketch1\ArduinoSketch1\ArduinoCore\Debug\libArduinoCore.a(wiring_digital.o)
 .debug_line    0x000024bb      0x533 C:\Users\xia\Desktop\rpk2\firmwares\leorf\ArduinoSketch1\ArduinoSketch1\ArduinoCore\Debug\libArduinoCore.a(RHGenericDriver.o)
 .debug_line    0x000029ee      0x3ed C:\Users\xia\Desktop\rpk2\firmwares\leorf\ArduinoSketch1\ArduinoSketch1\ArduinoCore\Debug\libArduinoCore.a(RHHardwareSPI.o)
 .debug_line    0x00002ddb      0xaa0 C:\Users\xia\Desktop\rpk2\firmwares\leorf\ArduinoSketch1\ArduinoSketch1\ArduinoCore\Debug\libArduinoCore.a(RH_RF69.o)
 .debug_line    0x0000387b      0x2e3 C:\Users\xia\Desktop\rpk2\firmwares\leorf\ArduinoSketch1\ArduinoSketch1\ArduinoCore\Debug\libArduinoCore.a(SPI.o)
 .debug_line    0x00003b5e       0xa9 C:\Users\xia\Desktop\rpk2\firmwares\leorf\ArduinoSketch1\ArduinoSketch1\ArduinoCore\Debug\libArduinoCore.a(abi.o)
 .debug_line    0x00003c07      0x68b C:\Users\xia\Desktop\rpk2\firmwares\leorf\ArduinoSketch1\ArduinoSketch1\ArduinoCore\Debug\libArduinoCore.a(CDC.o)
 .debug_line    0x00004292       0x41 C:\Users\xia\Desktop\rpk2\firmwares\leorf\ArduinoSketch1\ArduinoSketch1\ArduinoCore\Debug\libArduinoCore.a(hooks.o)
 .debug_line    0x000042d3      0x2de C:\Users\xia\Desktop\rpk2\firmwares\leorf\ArduinoSketch1\ArduinoSketch1\ArduinoCore\Debug\libArduinoCore.a(PluggableUSB.o)
 .debug_line    0x000045b1      0x240 C:\Users\xia\Desktop\rpk2\firmwares\leorf\ArduinoSketch1\ArduinoSketch1\ArduinoCore\Debug\libArduinoCore.a(WInterrupts.o)
 .debug_line    0x000047f1      0x143 C:\Users\xia\Desktop\rpk2\firmwares\leorf\ArduinoSketch1\ArduinoSketch1\ArduinoCore\Debug\libArduinoCore.a(WMath.o)
 .debug_line    0x00004934      0x1da C:\Users\xia\Desktop\rpk2\firmwares\leorf\ArduinoSketch1\ArduinoSketch1\ArduinoCore\Debug\libArduinoCore.a(RHGenericSPI.o)
 .debug_line    0x00004b0e      0x3cb C:\Users\xia\Desktop\rpk2\firmwares\leorf\ArduinoSketch1\ArduinoSketch1\ArduinoCore\Debug\libArduinoCore.a(RHSPIDriver.o)

.debug_frame    0x00000000     0x1ae0
 *(.debug_frame)
 .debug_frame   0x00000000       0xb8 Sketch.o
 .debug_frame   0x000000b8      0x110 C:\Users\xia\Desktop\rpk2\firmwares\leorf\ArduinoSketch1\ArduinoSketch1\ArduinoCore\Debug\libArduinoCore.a(HardwareSerial.o)
 .debug_frame   0x000001c8       0xe0 C:\Users\xia\Desktop\rpk2\firmwares\leorf\ArduinoSketch1\ArduinoSketch1\ArduinoCore\Debug\libArduinoCore.a(HardwareSerial1.o)
 .debug_frame   0x000002a8       0x54 C:\Users\xia\Desktop\rpk2\firmwares\leorf\ArduinoSketch1\ArduinoSketch1\ArduinoCore\Debug\libArduinoCore.a(main.o)
 .debug_frame   0x000002fc      0x3ac C:\Users\xia\Desktop\rpk2\firmwares\leorf\ArduinoSketch1\ArduinoSketch1\ArduinoCore\Debug\libArduinoCore.a(Print.o)
 .debug_frame   0x000006a8      0x3ac C:\Users\xia\Desktop\rpk2\firmwares\leorf\ArduinoSketch1\ArduinoSketch1\ArduinoCore\Debug\libArduinoCore.a(USBCore.o)
 .debug_frame   0x00000a54       0xc4 C:\Users\xia\Desktop\rpk2\firmwares\leorf\ArduinoSketch1\ArduinoSketch1\ArduinoCore\Debug\libArduinoCore.a(wiring.o)
 .debug_frame   0x00000b18       0x7c C:\Users\xia\Desktop\rpk2\firmwares\leorf\ArduinoSketch1\ArduinoSketch1\ArduinoCore\Debug\libArduinoCore.a(wiring_digital.o)
 .debug_frame   0x00000b94      0x270 C:\Users\xia\Desktop\rpk2\firmwares\leorf\ArduinoSketch1\ArduinoSketch1\ArduinoCore\Debug\libArduinoCore.a(RHGenericDriver.o)
 .debug_frame   0x00000e04       0xcc C:\Users\xia\Desktop\rpk2\firmwares\leorf\ArduinoSketch1\ArduinoSketch1\ArduinoCore\Debug\libArduinoCore.a(RHHardwareSPI.o)
 .debug_frame   0x00000ed0      0x3b8 C:\Users\xia\Desktop\rpk2\firmwares\leorf\ArduinoSketch1\ArduinoSketch1\ArduinoCore\Debug\libArduinoCore.a(RH_RF69.o)
 .debug_frame   0x00001288       0x5c C:\Users\xia\Desktop\rpk2\firmwares\leorf\ArduinoSketch1\ArduinoSketch1\ArduinoCore\Debug\libArduinoCore.a(SPI.o)
 .debug_frame   0x000012e4       0x34 C:\Users\xia\Desktop\rpk2\firmwares\leorf\ArduinoSketch1\ArduinoSketch1\ArduinoCore\Debug\libArduinoCore.a(abi.o)
 .debug_frame   0x00001318      0x1d8 C:\Users\xia\Desktop\rpk2\firmwares\leorf\ArduinoSketch1\ArduinoSketch1\ArduinoCore\Debug\libArduinoCore.a(CDC.o)
 .debug_frame   0x000014f0       0x24 C:\Users\xia\Desktop\rpk2\firmwares\leorf\ArduinoSketch1\ArduinoSketch1\ArduinoCore\Debug\libArduinoCore.a(hooks.o)
 .debug_frame   0x00001514       0xec C:\Users\xia\Desktop\rpk2\firmwares\leorf\ArduinoSketch1\ArduinoSketch1\ArduinoCore\Debug\libArduinoCore.a(PluggableUSB.o)
 .debug_frame   0x00001600      0x1fc C:\Users\xia\Desktop\rpk2\firmwares\leorf\ArduinoSketch1\ArduinoSketch1\ArduinoCore\Debug\libArduinoCore.a(WInterrupts.o)
 .debug_frame   0x000017fc       0xf4 C:\Users\xia\Desktop\rpk2\firmwares\leorf\ArduinoSketch1\ArduinoSketch1\ArduinoCore\Debug\libArduinoCore.a(WMath.o)
 .debug_frame   0x000018f0       0xa4 C:\Users\xia\Desktop\rpk2\firmwares\leorf\ArduinoSketch1\ArduinoSketch1\ArduinoCore\Debug\libArduinoCore.a(RHGenericSPI.o)
 .debug_frame   0x00001994      0x14c C:\Users\xia\Desktop\rpk2\firmwares\leorf\ArduinoSketch1\ArduinoSketch1\ArduinoCore\Debug\libArduinoCore.a(RHSPIDriver.o)

.debug_str      0x00000000     0x4b28
 *(.debug_str)
 .debug_str     0x00000000      0x371 C:/Program Files (x86)/Atmel/Studio/7.0/Packs/Atmel/ATmega_DFP/1.7.374/gcc/dev/atmega32u4/avr5/crtatmega32u4.o
 .debug_str     0x00000371      0x5bb Sketch.o
                                0x64b (size before relaxing)
 .debug_str     0x0000092c     0x130f C:\Users\xia\Desktop\rpk2\firmwares\leorf\ArduinoSketch1\ArduinoSketch1\ArduinoCore\Debug\libArduinoCore.a(HardwareSerial.o)
                               0x161c (size before relaxing)
 .debug_str     0x00001c3b       0x86 C:\Users\xia\Desktop\rpk2\firmwares\leorf\ArduinoSketch1\ArduinoSketch1\ArduinoCore\Debug\libArduinoCore.a(HardwareSerial1.o)
                               0x140e (size before relaxing)
 .debug_str     0x00001cc1      0x139 C:\Users\xia\Desktop\rpk2\firmwares\leorf\ArduinoSketch1\ArduinoSketch1\ArduinoCore\Debug\libArduinoCore.a(main.o)
                                0x3bb (size before relaxing)
 .debug_str     0x00001dfa      0x36a C:\Users\xia\Desktop\rpk2\firmwares\leorf\ArduinoSketch1\ArduinoSketch1\ArduinoCore\Debug\libArduinoCore.a(Print.o)
                               0x1247 (size before relaxing)
 .debug_str     0x00002164      0x80b C:\Users\xia\Desktop\rpk2\firmwares\leorf\ArduinoSketch1\ArduinoSketch1\ArduinoCore\Debug\libArduinoCore.a(USBCore.o)
                                0xc7b (size before relaxing)
 .debug_str     0x0000296f      0x153 C:\Users\xia\Desktop\rpk2\firmwares\leorf\ArduinoSketch1\ArduinoSketch1\ArduinoCore\Debug\libArduinoCore.a(wiring.o)
                                0x24f (size before relaxing)
 .debug_str     0x00002ac2       0xdc C:\Users\xia\Desktop\rpk2\firmwares\leorf\ArduinoSketch1\ArduinoSketch1\ArduinoCore\Debug\libArduinoCore.a(wiring_digital.o)
                                0x2ce (size before relaxing)
 .debug_str     0x00002b9e      0x6d7 C:\Users\xia\Desktop\rpk2\firmwares\leorf\ArduinoSketch1\ArduinoSketch1\ArduinoCore\Debug\libArduinoCore.a(RHGenericDriver.o)
                                0xab4 (size before relaxing)
 .debug_str     0x00003275      0x651 C:\Users\xia\Desktop\rpk2\firmwares\leorf\ArduinoSketch1\ArduinoSketch1\ArduinoCore\Debug\libArduinoCore.a(RHHardwareSPI.o)
                                0x987 (size before relaxing)
 .debug_str     0x000038c6      0x7bb C:\Users\xia\Desktop\rpk2\firmwares\leorf\ArduinoSketch1\ArduinoSketch1\ArduinoCore\Debug\libArduinoCore.a(RH_RF69.o)
                                0xe1a (size before relaxing)
 .debug_str     0x00004081       0x94 C:\Users\xia\Desktop\rpk2\firmwares\leorf\ArduinoSketch1\ArduinoSketch1\ArduinoCore\Debug\libArduinoCore.a(SPI.o)
                                0x6b2 (size before relaxing)
 .debug_str     0x00004115       0x30 C:\Users\xia\Desktop\rpk2\firmwares\leorf\ArduinoSketch1\ArduinoSketch1\ArduinoCore\Debug\libArduinoCore.a(abi.o)
                                0x1a3 (size before relaxing)
 .debug_str     0x00004145      0x47f C:\Users\xia\Desktop\rpk2\firmwares\leorf\ArduinoSketch1\ArduinoSketch1\ArduinoCore\Debug\libArduinoCore.a(CDC.o)
                               0x1a2e (size before relaxing)
 .debug_str     0x000045c4       0x1c C:\Users\xia\Desktop\rpk2\firmwares\leorf\ArduinoSketch1\ArduinoSketch1\ArduinoCore\Debug\libArduinoCore.a(hooks.o)
                                0x144 (size before relaxing)
 .debug_str     0x000045e0       0x4c C:\Users\xia\Desktop\rpk2\firmwares\leorf\ArduinoSketch1\ArduinoSketch1\ArduinoCore\Debug\libArduinoCore.a(PluggableUSB.o)
                                0x5c0 (size before relaxing)
 .debug_str     0x0000462c       0x83 C:\Users\xia\Desktop\rpk2\firmwares\leorf\ArduinoSketch1\ArduinoSketch1\ArduinoCore\Debug\libArduinoCore.a(WInterrupts.o)
                                0x25d (size before relaxing)
 .debug_str     0x000046af       0xac C:\Users\xia\Desktop\rpk2\firmwares\leorf\ArduinoSketch1\ArduinoSketch1\ArduinoCore\Debug\libArduinoCore.a(WMath.o)
                                0x252 (size before relaxing)
 .debug_str     0x0000475b      0x299 C:\Users\xia\Desktop\rpk2\firmwares\leorf\ArduinoSketch1\ArduinoSketch1\ArduinoCore\Debug\libArduinoCore.a(RHGenericSPI.o)
                                0x6b5 (size before relaxing)
 .debug_str     0x000049f4      0x134 C:\Users\xia\Desktop\rpk2\firmwares\leorf\ArduinoSketch1\ArduinoSketch1\ArduinoCore\Debug\libArduinoCore.a(RHSPIDriver.o)
                                0x506 (size before relaxing)

.debug_loc      0x00000000     0x7f14
 *(.debug_loc)
 .debug_loc     0x00000000      0x2e3 Sketch.o
 .debug_loc     0x000002e3      0x4dc C:\Users\xia\Desktop\rpk2\firmwares\leorf\ArduinoSketch1\ArduinoSketch1\ArduinoCore\Debug\libArduinoCore.a(HardwareSerial.o)
 .debug_loc     0x000007bf      0x1b0 C:\Users\xia\Desktop\rpk2\firmwares\leorf\ArduinoSketch1\ArduinoSketch1\ArduinoCore\Debug\libArduinoCore.a(HardwareSerial1.o)
 .debug_loc     0x0000096f     0x1c87 C:\Users\xia\Desktop\rpk2\firmwares\leorf\ArduinoSketch1\ArduinoSketch1\ArduinoCore\Debug\libArduinoCore.a(Print.o)
 .debug_loc     0x000025f6     0x1277 C:\Users\xia\Desktop\rpk2\firmwares\leorf\ArduinoSketch1\ArduinoSketch1\ArduinoCore\Debug\libArduinoCore.a(USBCore.o)
 .debug_loc     0x0000386d      0x28d C:\Users\xia\Desktop\rpk2\firmwares\leorf\ArduinoSketch1\ArduinoSketch1\ArduinoCore\Debug\libArduinoCore.a(wiring.o)
 .debug_loc     0x00003afa      0x665 C:\Users\xia\Desktop\rpk2\firmwares\leorf\ArduinoSketch1\ArduinoSketch1\ArduinoCore\Debug\libArduinoCore.a(wiring_digital.o)
 .debug_loc     0x0000415f      0x758 C:\Users\xia\Desktop\rpk2\firmwares\leorf\ArduinoSketch1\ArduinoSketch1\ArduinoCore\Debug\libArduinoCore.a(RHGenericDriver.o)
 .debug_loc     0x000048b7      0x398 C:\Users\xia\Desktop\rpk2\firmwares\leorf\ArduinoSketch1\ArduinoSketch1\ArduinoCore\Debug\libArduinoCore.a(RHHardwareSPI.o)
 .debug_loc     0x00004c4f     0x1361 C:\Users\xia\Desktop\rpk2\firmwares\leorf\ArduinoSketch1\ArduinoSketch1\ArduinoCore\Debug\libArduinoCore.a(RH_RF69.o)
 .debug_loc     0x00005fb0      0x22f C:\Users\xia\Desktop\rpk2\firmwares\leorf\ArduinoSketch1\ArduinoSketch1\ArduinoCore\Debug\libArduinoCore.a(SPI.o)
 .debug_loc     0x000061df      0x790 C:\Users\xia\Desktop\rpk2\firmwares\leorf\ArduinoSketch1\ArduinoSketch1\ArduinoCore\Debug\libArduinoCore.a(CDC.o)
 .debug_loc     0x0000696f      0x445 C:\Users\xia\Desktop\rpk2\firmwares\leorf\ArduinoSketch1\ArduinoSketch1\ArduinoCore\Debug\libArduinoCore.a(PluggableUSB.o)
 .debug_loc     0x00006db4      0x57d C:\Users\xia\Desktop\rpk2\firmwares\leorf\ArduinoSketch1\ArduinoSketch1\ArduinoCore\Debug\libArduinoCore.a(WInterrupts.o)
 .debug_loc     0x00007331      0x3d6 C:\Users\xia\Desktop\rpk2\firmwares\leorf\ArduinoSketch1\ArduinoSketch1\ArduinoCore\Debug\libArduinoCore.a(WMath.o)
 .debug_loc     0x00007707       0x28 C:\Users\xia\Desktop\rpk2\firmwares\leorf\ArduinoSketch1\ArduinoSketch1\ArduinoCore\Debug\libArduinoCore.a(RHGenericSPI.o)
 .debug_loc     0x0000772f      0x7e5 C:\Users\xia\Desktop\rpk2\firmwares\leorf\ArduinoSketch1\ArduinoSketch1\ArduinoCore\Debug\libArduinoCore.a(RHSPIDriver.o)

.debug_macinfo
 *(.debug_macinfo)

.debug_weaknames
 *(.debug_weaknames)

.debug_funcnames
 *(.debug_funcnames)

.debug_typenames
 *(.debug_typenames)

.debug_varnames
 *(.debug_varnames)

.debug_pubtypes
 *(.debug_pubtypes)

.debug_ranges   0x00000000      0x920
 *(.debug_ranges)
 .debug_ranges  0x00000000       0x30 Sketch.o
 .debug_ranges  0x00000030       0x58 C:\Users\xia\Desktop\rpk2\firmwares\leorf\ArduinoSketch1\ArduinoSketch1\ArduinoCore\Debug\libArduinoCore.a(HardwareSerial.o)
 .debug_ranges  0x00000088       0x38 C:\Users\xia\Desktop\rpk2\firmwares\leorf\ArduinoSketch1\ArduinoSketch1\ArduinoCore\Debug\libArduinoCore.a(HardwareSerial1.o)
 .debug_ranges  0x000000c0       0x20 C:\Users\xia\Desktop\rpk2\firmwares\leorf\ArduinoSketch1\ArduinoSketch1\ArduinoCore\Debug\libArduinoCore.a(main.o)
 .debug_ranges  0x000000e0      0x120 C:\Users\xia\Desktop\rpk2\firmwares\leorf\ArduinoSketch1\ArduinoSketch1\ArduinoCore\Debug\libArduinoCore.a(Print.o)
 .debug_ranges  0x00000200      0x1c0 C:\Users\xia\Desktop\rpk2\firmwares\leorf\ArduinoSketch1\ArduinoSketch1\ArduinoCore\Debug\libArduinoCore.a(USBCore.o)
 .debug_ranges  0x000003c0       0x38 C:\Users\xia\Desktop\rpk2\firmwares\leorf\ArduinoSketch1\ArduinoSketch1\ArduinoCore\Debug\libArduinoCore.a(wiring.o)
 .debug_ranges  0x000003f8       0x28 C:\Users\xia\Desktop\rpk2\firmwares\leorf\ArduinoSketch1\ArduinoSketch1\ArduinoCore\Debug\libArduinoCore.a(wiring_digital.o)
 .debug_ranges  0x00000420       0xf0 C:\Users\xia\Desktop\rpk2\firmwares\leorf\ArduinoSketch1\ArduinoSketch1\ArduinoCore\Debug\libArduinoCore.a(RHGenericDriver.o)
 .debug_ranges  0x00000510       0x58 C:\Users\xia\Desktop\rpk2\firmwares\leorf\ArduinoSketch1\ArduinoSketch1\ArduinoCore\Debug\libArduinoCore.a(RHHardwareSPI.o)
 .debug_ranges  0x00000568      0x120 C:\Users\xia\Desktop\rpk2\firmwares\leorf\ArduinoSketch1\ArduinoSketch1\ArduinoCore\Debug\libArduinoCore.a(RH_RF69.o)
 .debug_ranges  0x00000688       0x28 C:\Users\xia\Desktop\rpk2\firmwares\leorf\ArduinoSketch1\ArduinoSketch1\ArduinoCore\Debug\libArduinoCore.a(SPI.o)
 .debug_ranges  0x000006b0       0x10 C:\Users\xia\Desktop\rpk2\firmwares\leorf\ArduinoSketch1\ArduinoSketch1\ArduinoCore\Debug\libArduinoCore.a(abi.o)
 .debug_ranges  0x000006c0       0xe0 C:\Users\xia\Desktop\rpk2\firmwares\leorf\ArduinoSketch1\ArduinoSketch1\ArduinoCore\Debug\libArduinoCore.a(CDC.o)
 .debug_ranges  0x000007a0       0x10 C:\Users\xia\Desktop\rpk2\firmwares\leorf\ArduinoSketch1\ArduinoSketch1\ArduinoCore\Debug\libArduinoCore.a(hooks.o)
 .debug_ranges  0x000007b0       0x58 C:\Users\xia\Desktop\rpk2\firmwares\leorf\ArduinoSketch1\ArduinoSketch1\ArduinoCore\Debug\libArduinoCore.a(PluggableUSB.o)
 .debug_ranges  0x00000808       0x48 C:\Users\xia\Desktop\rpk2\firmwares\leorf\ArduinoSketch1\ArduinoSketch1\ArduinoCore\Debug\libArduinoCore.a(WInterrupts.o)
 .debug_ranges  0x00000850       0x38 C:\Users\xia\Desktop\rpk2\firmwares\leorf\ArduinoSketch1\ArduinoSketch1\ArduinoCore\Debug\libArduinoCore.a(WMath.o)
 .debug_ranges  0x00000888       0x50 C:\Users\xia\Desktop\rpk2\firmwares\leorf\ArduinoSketch1\ArduinoSketch1\ArduinoCore\Debug\libArduinoCore.a(RHGenericSPI.o)
 .debug_ranges  0x000008d8       0x48 C:\Users\xia\Desktop\rpk2\firmwares\leorf\ArduinoSketch1\ArduinoSketch1\ArduinoCore\Debug\libArduinoCore.a(RHSPIDriver.o)

.debug_macro
 *(.debug_macro)
OUTPUT(recver.elf elf32-avr)
LOAD linker stubs
