
at90masskeyboardfatfs.elf:     file format elf32-avr

Sections:
Idx Name          Size      VMA       LMA       File off  Algn
  0 .data         000004dc  00800100  000068f0  00006984  2**0
                  CONTENTS, ALLOC, LOAD, DATA
  1 .text         000068f0  00000000  00000000  00000094  2**1
                  CONTENTS, ALLOC, LOAD, READONLY, CODE
  2 .bss          000006ab  008005dc  008005dc  00006e60  2**0
                  ALLOC
  3 .noinit       00000004  00800c87  00800c87  00006e60  2**0
                  ALLOC
  4 .comment      0000005c  00000000  00000000  00006e60  2**0
                  CONTENTS, READONLY
  5 .note.gnu.avr.deviceinfo 00000040  00000000  00000000  00006ebc  2**2
                  CONTENTS, READONLY
  6 .debug_aranges 000008b8  00000000  00000000  00006f00  2**3
                  CONTENTS, READONLY, DEBUGGING
  7 .debug_info   0001049d  00000000  00000000  000077b8  2**0
                  CONTENTS, READONLY, DEBUGGING
  8 .debug_abbrev 000033e9  00000000  00000000  00017c55  2**0
                  CONTENTS, READONLY, DEBUGGING
  9 .debug_line   000118ad  00000000  00000000  0001b03e  2**0
                  CONTENTS, READONLY, DEBUGGING
 10 .debug_frame  00002438  00000000  00000000  0002c8ec  2**2
                  CONTENTS, READONLY, DEBUGGING
 11 .debug_str    0001d8b1  00000000  00000000  0002ed24  2**0
                  CONTENTS, READONLY, DEBUGGING
 12 .debug_loc    0000e66d  00000000  00000000  0004c5d5  2**0
                  CONTENTS, READONLY, DEBUGGING
 13 .debug_ranges 00000a88  00000000  00000000  0005ac42  2**0
                  CONTENTS, READONLY, DEBUGGING
 14 .debug_macro  0000994d  00000000  00000000  0005b6ca  2**0
                  CONTENTS, READONLY, DEBUGGING

Disassembly of section .text:

00000000 <__vectors>:
       0:	e0 c0       	rjmp	.+448    	; 0x1c2 <__ctors_end>
       2:	00 00       	nop
       4:	fd c0       	rjmp	.+506    	; 0x200 <__bad_interrupt>
       6:	00 00       	nop
       8:	fb c0       	rjmp	.+502    	; 0x200 <__bad_interrupt>
       a:	00 00       	nop
       c:	f9 c0       	rjmp	.+498    	; 0x200 <__bad_interrupt>
       e:	00 00       	nop
      10:	f7 c0       	rjmp	.+494    	; 0x200 <__bad_interrupt>
      12:	00 00       	nop
      14:	f5 c0       	rjmp	.+490    	; 0x200 <__bad_interrupt>
      16:	00 00       	nop
      18:	f3 c0       	rjmp	.+486    	; 0x200 <__bad_interrupt>
      1a:	00 00       	nop
      1c:	f1 c0       	rjmp	.+482    	; 0x200 <__bad_interrupt>
      1e:	00 00       	nop
      20:	ef c0       	rjmp	.+478    	; 0x200 <__bad_interrupt>
      22:	00 00       	nop
      24:	ed c0       	rjmp	.+474    	; 0x200 <__bad_interrupt>
      26:	00 00       	nop
      28:	0c 94 c4 2d 	jmp	0x5b88	; 0x5b88 <__vector_10>
      2c:	0c 94 90 2e 	jmp	0x5d20	; 0x5d20 <__vector_11>
      30:	e7 c0       	rjmp	.+462    	; 0x200 <__bad_interrupt>
      32:	00 00       	nop
      34:	e5 c0       	rjmp	.+458    	; 0x200 <__bad_interrupt>
      36:	00 00       	nop
      38:	e3 c0       	rjmp	.+454    	; 0x200 <__bad_interrupt>
      3a:	00 00       	nop
      3c:	e1 c0       	rjmp	.+450    	; 0x200 <__bad_interrupt>
      3e:	00 00       	nop
      40:	df c0       	rjmp	.+446    	; 0x200 <__bad_interrupt>
      42:	00 00       	nop
      44:	dd c0       	rjmp	.+442    	; 0x200 <__bad_interrupt>
      46:	00 00       	nop
      48:	db c0       	rjmp	.+438    	; 0x200 <__bad_interrupt>
      4a:	00 00       	nop
      4c:	d9 c0       	rjmp	.+434    	; 0x200 <__bad_interrupt>
      4e:	00 00       	nop
      50:	d7 c0       	rjmp	.+430    	; 0x200 <__bad_interrupt>
      52:	00 00       	nop
      54:	d5 c0       	rjmp	.+426    	; 0x200 <__bad_interrupt>
      56:	00 00       	nop
      58:	d3 c0       	rjmp	.+422    	; 0x200 <__bad_interrupt>
      5a:	00 00       	nop
      5c:	d1 c0       	rjmp	.+418    	; 0x200 <__bad_interrupt>
      5e:	00 00       	nop
      60:	cf c0       	rjmp	.+414    	; 0x200 <__bad_interrupt>
      62:	00 00       	nop
      64:	cd c0       	rjmp	.+410    	; 0x200 <__bad_interrupt>
      66:	00 00       	nop
      68:	cb c0       	rjmp	.+406    	; 0x200 <__bad_interrupt>
      6a:	00 00       	nop
      6c:	c9 c0       	rjmp	.+402    	; 0x200 <__bad_interrupt>
      6e:	00 00       	nop
      70:	c7 c0       	rjmp	.+398    	; 0x200 <__bad_interrupt>
      72:	00 00       	nop
      74:	c5 c0       	rjmp	.+394    	; 0x200 <__bad_interrupt>
      76:	00 00       	nop
      78:	c3 c0       	rjmp	.+390    	; 0x200 <__bad_interrupt>
      7a:	00 00       	nop
      7c:	c1 c0       	rjmp	.+386    	; 0x200 <__bad_interrupt>
      7e:	00 00       	nop
      80:	0c 94 b0 18 	jmp	0x3160	; 0x3160 <__vector_32>
      84:	bd c0       	rjmp	.+378    	; 0x200 <__bad_interrupt>
      86:	00 00       	nop
      88:	bb c0       	rjmp	.+374    	; 0x200 <__bad_interrupt>
      8a:	00 00       	nop
      8c:	b9 c0       	rjmp	.+370    	; 0x200 <__bad_interrupt>
      8e:	00 00       	nop
      90:	b7 c0       	rjmp	.+366    	; 0x200 <__bad_interrupt>
      92:	00 00       	nop
      94:	b5 c0       	rjmp	.+362    	; 0x200 <__bad_interrupt>
	...

00000098 <__trampolines_end>:
      98:	52 65       	ori	r21, 0x52	; 82
      9a:	61 64       	ori	r22, 0x41	; 65
      9c:	79 0d       	add	r23, r9
      9e:	0a 00       	.word	0x000a	; ????

000000a0 <__c.4999>:
      a0:	44 69 73 63 6f 6e 6e 65 63 74 0d 0a 00              Disconnect...

000000ad <__c.4994>:
      ad:	43 6f 6e 6e 65 63 74 0d 0a 00                       Connect...

000000b7 <__c.4989>:
      b7:	68 74 74 70 73 3a 2f 2f 77 77 77 2e 66 72 33 33     https://www.fr33
      c7:	70 72 6f 6a 65 63 74 2e 6f 72 67 0d 0a 70 6f 77     project.org..pow
      d7:	65 72 65 64 20 62 79 20 4c 55 46 41 20 68 74 74     ered by LUFA htt
      e7:	70 3a 2f 2f 65 6c 6d 2d 63 68 61 6e 2e 6f 72 67     p://elm-chan.org
      f7:	2f 66 73 77 2f 66 66 2f 30 30 69 6e 64 65 78 5f     /fsw/ff/00index_
     107:	65 2e 68 74 6d 6c 20 61 6e 64 20 46 61 74 46 73     e.html and FatFs
     117:	20 68 74 74 70 3a 2f 2f 65 6c 6d 2d 63 68 61 6e      http://elm-chan
     127:	2e 6f 72 67 2f 66 73 77 2f 66 66 2f 30 30 69 6e     .org/fsw/ff/00in
     137:	64 65 78 5f 65 2e 68 74 6d 6c 0d 0a 0d 0a 00        dex_e.html.....

00000146 <__c.4995>:
     146:	52 20 25 6c 69 20 25 69 0d 0a 00                    R %li %i...

00000151 <__c.4975>:
     151:	57 20 25 6c 69 20 25 69 0d 0a 00                    W %li %i...

0000015c <__c.4961>:
     15c:	53 44 20 62 6c 6f 63 6b 73 3a 20 25 6c 69 0d 0a     SD blocks: %li..
	...

0000016d <__c.4954>:
     16d:	0d 0a 0d 0a 00                                      .....

00000172 <__c.4952>:
     172:	66 69 72 73 74 20 53 44 20 73 65 63 74 6f 72 3a     first SD sector:
     182:	0d 0a 00                                            ...

00000185 <__c.4949>:
     185:	64 69 73 6b 5f 69 6e 69 74 69 61 6c 69 7a 65 20     disk_initialize 
     195:	73 75 63 63 65 73 73 0d 0a 00                       success...

0000019f <__c.4945>:
     19f:	74 72 79 69 6e 67 20 2e 2e 2e 20 64 69 73 6b 5f     trying ... disk_
     1af:	69 6e 69 74 69 61 6c 69 7a 65 0d 0a 00              initialize...

000001bc <__c.4943>:
     1bc:	0d 0a 0d 0a 00 00                                   ......

000001c2 <__ctors_end>:
     1c2:	11 24       	eor	r1, r1
     1c4:	1f be       	out	0x3f, r1	; 63
     1c6:	cf ef       	ldi	r28, 0xFF	; 255
     1c8:	d0 e2       	ldi	r29, 0x20	; 32
     1ca:	de bf       	out	0x3e, r29	; 62
     1cc:	cd bf       	out	0x3d, r28	; 61

000001ce <__do_copy_data>:
     1ce:	15 e0       	ldi	r17, 0x05	; 5
     1d0:	a0 e0       	ldi	r26, 0x00	; 0
     1d2:	b1 e0       	ldi	r27, 0x01	; 1
     1d4:	e0 ef       	ldi	r30, 0xF0	; 240
     1d6:	f8 e6       	ldi	r31, 0x68	; 104
     1d8:	00 e0       	ldi	r16, 0x00	; 0
     1da:	0b bf       	out	0x3b, r16	; 59
     1dc:	02 c0       	rjmp	.+4      	; 0x1e2 <__do_copy_data+0x14>
     1de:	07 90       	elpm	r0, Z+
     1e0:	0d 92       	st	X+, r0
     1e2:	ac 3d       	cpi	r26, 0xDC	; 220
     1e4:	b1 07       	cpc	r27, r17
     1e6:	d9 f7       	brne	.-10     	; 0x1de <__do_copy_data+0x10>

000001e8 <__do_clear_bss>:
     1e8:	2c e0       	ldi	r18, 0x0C	; 12
     1ea:	ac ed       	ldi	r26, 0xDC	; 220
     1ec:	b5 e0       	ldi	r27, 0x05	; 5
     1ee:	01 c0       	rjmp	.+2      	; 0x1f2 <.do_clear_bss_start>

000001f0 <.do_clear_bss_loop>:
     1f0:	1d 92       	st	X+, r1

000001f2 <.do_clear_bss_start>:
     1f2:	a7 38       	cpi	r26, 0x87	; 135
     1f4:	b2 07       	cpc	r27, r18
     1f6:	e1 f7       	brne	.-8      	; 0x1f0 <.do_clear_bss_loop>
     1f8:	0e 94 3a 19 	call	0x3274	; 0x3274 <main>
     1fc:	0c 94 76 34 	jmp	0x68ec	; 0x68ec <_exit>

00000200 <__bad_interrupt>:
     200:	ff ce       	rjmp	.-514    	; 0x0 <__vectors>

00000202 <on_sd>:
    CS_DISABLE();

    SPI_FAST();

    return SD_INIT_OK;
}
     202:	84 b1       	in	r24, 0x04	; 4
     204:	80 64       	ori	r24, 0x40	; 64
     206:	84 b9       	out	0x04, r24	; 4
     208:	85 b1       	in	r24, 0x05	; 5
     20a:	8f 7b       	andi	r24, 0xBF	; 191
     20c:	85 b9       	out	0x05, r24	; 5
     20e:	08 95       	ret

00000210 <uart_putc>:
     210:	90 91 c8 00 	lds	r25, 0x00C8	; 0x8000c8 <__TEXT_REGION_LENGTH__+0x7e00c8>
     214:	95 ff       	sbrs	r25, 5
     216:	fc cf       	rjmp	.-8      	; 0x210 <uart_putc>
     218:	80 93 ce 00 	sts	0x00CE, r24	; 0x8000ce <__TEXT_REGION_LENGTH__+0x7e00ce>
     21c:	08 95       	ret

0000021e <uart_puts>:
     21e:	cf 93       	push	r28
     220:	df 93       	push	r29
     222:	ec 01       	movw	r28, r24
     224:	0f c0       	rjmp	.+30     	; 0x244 <uart_puts+0x26>
     226:	8a 30       	cpi	r24, 0x0A	; 10
     228:	49 f4       	brne	.+18     	; 0x23c <uart_puts+0x1e>
     22a:	90 91 dc 05 	lds	r25, 0x05DC	; 0x8005dc <__data_end>
     22e:	9d 30       	cpi	r25, 0x0D	; 13
     230:	29 f0       	breq	.+10     	; 0x23c <uart_puts+0x1e>
     232:	8d e0       	ldi	r24, 0x0D	; 13
     234:	ed df       	rcall	.-38     	; 0x210 <uart_putc>
     236:	8a e0       	ldi	r24, 0x0A	; 10
     238:	eb df       	rcall	.-42     	; 0x210 <uart_putc>
     23a:	01 c0       	rjmp	.+2      	; 0x23e <uart_puts+0x20>
     23c:	e9 df       	rcall	.-46     	; 0x210 <uart_putc>
     23e:	89 91       	ld	r24, Y+
     240:	80 93 dc 05 	sts	0x05DC, r24	; 0x8005dc <__data_end>
     244:	88 81       	ld	r24, Y
     246:	81 11       	cpse	r24, r1
     248:	ee cf       	rjmp	.-36     	; 0x226 <uart_puts+0x8>
     24a:	df 91       	pop	r29
     24c:	cf 91       	pop	r28
     24e:	08 95       	ret

00000250 <uart_putsnl>:
     250:	e6 df       	rcall	.-52     	; 0x21e <uart_puts>
     252:	8f e3       	ldi	r24, 0x3F	; 63
     254:	92 e0       	ldi	r25, 0x02	; 2
     256:	e3 cf       	rjmp	.-58     	; 0x21e <uart_puts>
     258:	08 95       	ret

0000025a <uart_printhexchar>:
     25a:	1f 93       	push	r17
     25c:	cf 93       	push	r28
     25e:	df 93       	push	r29
     260:	cd b7       	in	r28, 0x3d	; 61
     262:	de b7       	in	r29, 0x3e	; 62
     264:	61 97       	sbiw	r28, 0x11	; 17
     266:	0f b6       	in	r0, 0x3f	; 63
     268:	f8 94       	cli
     26a:	de bf       	out	0x3e, r29	; 62
     26c:	0f be       	out	0x3f, r0	; 63
     26e:	cd bf       	out	0x3d, r28	; 61
     270:	18 2f       	mov	r17, r24
     272:	81 e1       	ldi	r24, 0x11	; 17
     274:	eb e8       	ldi	r30, 0x8B	; 139
     276:	f1 e0       	ldi	r31, 0x01	; 1
     278:	de 01       	movw	r26, r28
     27a:	11 96       	adiw	r26, 0x01	; 1
     27c:	01 90       	ld	r0, Z+
     27e:	0d 92       	st	X+, r0
     280:	8a 95       	dec	r24
     282:	e1 f7       	brne	.-8      	; 0x27c <uart_printhexchar+0x22>
     284:	81 2f       	mov	r24, r17
     286:	82 95       	swap	r24
     288:	8f 70       	andi	r24, 0x0F	; 15
     28a:	e1 e0       	ldi	r30, 0x01	; 1
     28c:	f0 e0       	ldi	r31, 0x00	; 0
     28e:	ec 0f       	add	r30, r28
     290:	fd 1f       	adc	r31, r29
     292:	e8 0f       	add	r30, r24
     294:	f1 1d       	adc	r31, r1
     296:	80 81       	ld	r24, Z
     298:	bb df       	rcall	.-138    	; 0x210 <uart_putc>
     29a:	1f 70       	andi	r17, 0x0F	; 15
     29c:	e1 e0       	ldi	r30, 0x01	; 1
     29e:	f0 e0       	ldi	r31, 0x00	; 0
     2a0:	ec 0f       	add	r30, r28
     2a2:	fd 1f       	adc	r31, r29
     2a4:	e1 0f       	add	r30, r17
     2a6:	f1 1d       	adc	r31, r1
     2a8:	80 81       	ld	r24, Z
     2aa:	b2 df       	rcall	.-156    	; 0x210 <uart_putc>
     2ac:	61 96       	adiw	r28, 0x11	; 17
     2ae:	0f b6       	in	r0, 0x3f	; 63
     2b0:	f8 94       	cli
     2b2:	de bf       	out	0x3e, r29	; 62
     2b4:	0f be       	out	0x3f, r0	; 63
     2b6:	cd bf       	out	0x3d, r28	; 61
     2b8:	df 91       	pop	r29
     2ba:	cf 91       	pop	r28
     2bc:	1f 91       	pop	r17
     2be:	08 95       	ret

000002c0 <uart_printhexdump>:
     2c0:	9f 92       	push	r9
     2c2:	af 92       	push	r10
     2c4:	bf 92       	push	r11
     2c6:	cf 92       	push	r12
     2c8:	df 92       	push	r13
     2ca:	ef 92       	push	r14
     2cc:	ff 92       	push	r15
     2ce:	0f 93       	push	r16
     2d0:	1f 93       	push	r17
     2d2:	cf 93       	push	r28
     2d4:	df 93       	push	r29
     2d6:	ec 01       	movw	r28, r24
     2d8:	5b 01       	movw	r10, r22
     2da:	67 2b       	or	r22, r23
     2dc:	09 f4       	brne	.+2      	; 0x2e0 <uart_printhexdump+0x20>
     2de:	3c c0       	rjmp	.+120    	; 0x358 <uart_printhexdump+0x98>
     2e0:	e1 2c       	mov	r14, r1
     2e2:	f1 2c       	mov	r15, r1
     2e4:	32 c0       	rjmp	.+100    	; 0x34a <uart_printhexdump+0x8a>
     2e6:	6e 01       	movw	r12, r28
     2e8:	8f ef       	ldi	r24, 0xFF	; 255
     2ea:	c8 1a       	sub	r12, r24
     2ec:	d8 0a       	sbc	r13, r24
     2ee:	88 81       	ld	r24, Y
     2f0:	b4 df       	rcall	.-152    	; 0x25a <uart_printhexchar>
     2f2:	80 e2       	ldi	r24, 0x20	; 32
     2f4:	8d df       	rcall	.-230    	; 0x210 <uart_putc>
     2f6:	ef ef       	ldi	r30, 0xFF	; 255
     2f8:	ee 1a       	sub	r14, r30
     2fa:	fe 0a       	sbc	r15, r30
     2fc:	c7 01       	movw	r24, r14
     2fe:	8f 70       	andi	r24, 0x0F	; 15
     300:	99 27       	eor	r25, r25
     302:	89 2b       	or	r24, r25
     304:	29 f0       	breq	.+10     	; 0x310 <uart_printhexdump+0x50>
     306:	c5 01       	movw	r24, r10
     308:	01 97       	sbiw	r24, 0x01	; 1
     30a:	08 17       	cp	r16, r24
     30c:	19 07       	cpc	r17, r25
     30e:	e1 f4       	brne	.+56     	; 0x348 <uart_printhexdump+0x88>
     310:	8e 01       	movw	r16, r28
     312:	0f 50       	subi	r16, 0x0F	; 15
     314:	11 09       	sbc	r17, r1
     316:	c0 e0       	ldi	r28, 0x00	; 0
     318:	d0 e0       	ldi	r29, 0x00	; 0
     31a:	10 c0       	rjmp	.+32     	; 0x33c <uart_printhexdump+0x7c>
     31c:	f8 01       	movw	r30, r16
     31e:	90 80       	ld	r9, Z
     320:	89 2d       	mov	r24, r9
     322:	90 e0       	ldi	r25, 0x00	; 0
     324:	0e 94 ea 30 	call	0x61d4	; 0x61d4 <isprint>
     328:	89 2b       	or	r24, r25
     32a:	19 f0       	breq	.+6      	; 0x332 <uart_printhexdump+0x72>
     32c:	89 2d       	mov	r24, r9
     32e:	70 df       	rcall	.-288    	; 0x210 <uart_putc>
     330:	02 c0       	rjmp	.+4      	; 0x336 <uart_printhexdump+0x76>
     332:	8e e2       	ldi	r24, 0x2E	; 46
     334:	6d df       	rcall	.-294    	; 0x210 <uart_putc>
     336:	0f 5f       	subi	r16, 0xFF	; 255
     338:	1f 4f       	sbci	r17, 0xFF	; 255
     33a:	21 96       	adiw	r28, 0x01	; 1
     33c:	c0 31       	cpi	r28, 0x10	; 16
     33e:	d1 05       	cpc	r29, r1
     340:	6c f3       	brlt	.-38     	; 0x31c <uart_printhexdump+0x5c>
     342:	8f e3       	ldi	r24, 0x3F	; 63
     344:	92 e0       	ldi	r25, 0x02	; 2
     346:	6b df       	rcall	.-298    	; 0x21e <uart_puts>
     348:	e6 01       	movw	r28, r12
     34a:	87 01       	movw	r16, r14
     34c:	ea 14       	cp	r14, r10
     34e:	fb 04       	cpc	r15, r11
     350:	50 f2       	brcs	.-108    	; 0x2e6 <uart_printhexdump+0x26>
     352:	8f e3       	ldi	r24, 0x3F	; 63
     354:	92 e0       	ldi	r25, 0x02	; 2
     356:	63 df       	rcall	.-314    	; 0x21e <uart_puts>
     358:	df 91       	pop	r29
     35a:	cf 91       	pop	r28
     35c:	1f 91       	pop	r17
     35e:	0f 91       	pop	r16
     360:	ff 90       	pop	r15
     362:	ef 90       	pop	r14
     364:	df 90       	pop	r13
     366:	cf 90       	pop	r12
     368:	bf 90       	pop	r11
     36a:	af 90       	pop	r10
     36c:	9f 90       	pop	r9
     36e:	08 95       	ret

00000370 <SPI_write>:
     370:	8e bd       	out	0x2e, r24	; 46
     372:	0d b4       	in	r0, 0x2d	; 45
     374:	07 fe       	sbrs	r0, 7
     376:	fd cf       	rjmp	.-6      	; 0x372 <SPI_write+0x2>
     378:	8e b5       	in	r24, 0x2e	; 46
     37a:	08 95       	ret

0000037c <wait_sd_some_cycl>:
     37c:	8f ef       	ldi	r24, 0xFF	; 255
     37e:	f8 df       	rcall	.-16     	; 0x370 <SPI_write>
     380:	8f ef       	ldi	r24, 0xFF	; 255
     382:	f6 df       	rcall	.-20     	; 0x370 <SPI_write>
     384:	8f ef       	ldi	r24, 0xFF	; 255
     386:	f4 df       	rcall	.-24     	; 0x370 <SPI_write>
     388:	8f ef       	ldi	r24, 0xFF	; 255
     38a:	f2 df       	rcall	.-28     	; 0x370 <SPI_write>
     38c:	8f ef       	ldi	r24, 0xFF	; 255
     38e:	f0 df       	rcall	.-32     	; 0x370 <SPI_write>
     390:	8f ef       	ldi	r24, 0xFF	; 255
     392:	ee df       	rcall	.-36     	; 0x370 <SPI_write>
     394:	8f ef       	ldi	r24, 0xFF	; 255
     396:	ec df       	rcall	.-40     	; 0x370 <SPI_write>
     398:	8f ef       	ldi	r24, 0xFF	; 255
     39a:	ea df       	rcall	.-44     	; 0x370 <SPI_write>
     39c:	8f ef       	ldi	r24, 0xFF	; 255
     39e:	e8 df       	rcall	.-48     	; 0x370 <SPI_write>
     3a0:	8f ef       	ldi	r24, 0xFF	; 255
     3a2:	e6 cf       	rjmp	.-52     	; 0x370 <SPI_write>
     3a4:	08 95       	ret

000003a6 <read_spi_while_byte_is_not>:
     3a6:	8f 92       	push	r8
     3a8:	9f 92       	push	r9
     3aa:	af 92       	push	r10
     3ac:	bf 92       	push	r11
     3ae:	cf 92       	push	r12
     3b0:	df 92       	push	r13
     3b2:	ef 92       	push	r14
     3b4:	ff 92       	push	r15
     3b6:	cf 93       	push	r28
     3b8:	c8 2f       	mov	r28, r24
     3ba:	4a 01       	movw	r8, r20
     3bc:	5b 01       	movw	r10, r22
     3be:	c1 2c       	mov	r12, r1
     3c0:	d1 2c       	mov	r13, r1
     3c2:	76 01       	movw	r14, r12
     3c4:	18 c0       	rjmp	.+48     	; 0x3f6 <read_spi_while_byte_is_not+0x50>
     3c6:	8f ef       	ldi	r24, 0xFF	; 255
     3c8:	d3 df       	rcall	.-90     	; 0x370 <SPI_write>
     3ca:	8c 17       	cp	r24, r28
     3cc:	f1 f0       	breq	.+60     	; 0x40a <__LOCK_REGION_LENGTH__+0xa>
     3ce:	8f ef       	ldi	r24, 0xFF	; 255
     3d0:	c8 1a       	sub	r12, r24
     3d2:	d8 0a       	sbc	r13, r24
     3d4:	e8 0a       	sbc	r14, r24
     3d6:	f8 0a       	sbc	r15, r24
     3d8:	c7 01       	movw	r24, r14
     3da:	b6 01       	movw	r22, r12
     3dc:	28 ee       	ldi	r18, 0xE8	; 232
     3de:	33 e0       	ldi	r19, 0x03	; 3
     3e0:	40 e0       	ldi	r20, 0x00	; 0
     3e2:	50 e0       	ldi	r21, 0x00	; 0
     3e4:	0e 94 ad 30 	call	0x615a	; 0x615a <__udivmodsi4>
     3e8:	67 2b       	or	r22, r23
     3ea:	68 2b       	or	r22, r24
     3ec:	69 2b       	or	r22, r25
     3ee:	19 f4       	brne	.+6      	; 0x3f6 <read_spi_while_byte_is_not+0x50>
     3f0:	8c e9       	ldi	r24, 0x9C	; 156
     3f2:	91 e0       	ldi	r25, 0x01	; 1
     3f4:	2d df       	rcall	.-422    	; 0x250 <uart_putsnl>
     3f6:	c8 14       	cp	r12, r8
     3f8:	d9 04       	cpc	r13, r9
     3fa:	ea 04       	cpc	r14, r10
     3fc:	fb 04       	cpc	r15, r11
     3fe:	18 f3       	brcs	.-58     	; 0x3c6 <read_spi_while_byte_is_not+0x20>
     400:	85 eb       	ldi	r24, 0xB5	; 181
     402:	91 e0       	ldi	r25, 0x01	; 1
     404:	25 df       	rcall	.-438    	; 0x250 <uart_putsnl>
     406:	80 e0       	ldi	r24, 0x00	; 0
     408:	01 c0       	rjmp	.+2      	; 0x40c <__LOCK_REGION_LENGTH__+0xc>
     40a:	81 e0       	ldi	r24, 0x01	; 1
     40c:	cf 91       	pop	r28
     40e:	ff 90       	pop	r15
     410:	ef 90       	pop	r14
     412:	df 90       	pop	r13
     414:	cf 90       	pop	r12
     416:	bf 90       	pop	r11
     418:	af 90       	pop	r10
     41a:	9f 90       	pop	r9
     41c:	8f 90       	pop	r8
     41e:	08 95       	ret

00000420 <SD_read_sector>:

// TODO: This function will not exit gracefully if SD card does not do what it should
bool SD_read_sector(unsigned long sector, uint8_t* buffer)
{
     420:	8f 92       	push	r8
     422:	9f 92       	push	r9
     424:	af 92       	push	r10
     426:	bf 92       	push	r11
     428:	ef 92       	push	r14
     42a:	ff 92       	push	r15
     42c:	0f 93       	push	r16
     42e:	1f 93       	push	r17
     430:	cf 93       	push	r28
     432:	df 93       	push	r29
     434:	4b 01       	movw	r8, r22
     436:	5c 01       	movw	r10, r24
     438:	7a 01       	movw	r14, r20
    unsigned short i = 0;
    bool retf = false;

    CS_ENABLE();
     43a:	85 b1       	in	r24, 0x05	; 5
     43c:	8e 7f       	andi	r24, 0xFE	; 254
     43e:	85 b9       	out	0x05, r24	; 5
    wait_sd_some_cycl();
     440:	9d df       	rcall	.-198    	; 0x37c <wait_sd_some_cycl>

    SPI_write(CMD17);
     442:	81 e5       	ldi	r24, 0x51	; 81
     444:	95 df       	rcall	.-214    	; 0x370 <SPI_write>
    SPI_write(sector >> 15); // sector*512 >> 24
     446:	d5 01       	movw	r26, r10
     448:	c4 01       	movw	r24, r8
     44a:	07 2e       	mov	r0, r23
     44c:	7f e0       	ldi	r23, 0x0F	; 15
     44e:	b6 95       	lsr	r27
     450:	a7 95       	ror	r26
     452:	97 95       	ror	r25
     454:	87 95       	ror	r24
     456:	7a 95       	dec	r23
     458:	d1 f7       	brne	.-12     	; 0x44e <SD_read_sector+0x2e>
     45a:	70 2d       	mov	r23, r0
     45c:	89 df       	rcall	.-238    	; 0x370 <SPI_write>
    SPI_write(sector >> 7); // sector*512 >> 16
     45e:	d5 01       	movw	r26, r10
     460:	c4 01       	movw	r24, r8
     462:	68 94       	set
     464:	16 f8       	bld	r1, 6
     466:	b6 95       	lsr	r27
     468:	a7 95       	ror	r26
     46a:	97 95       	ror	r25
     46c:	87 95       	ror	r24
     46e:	16 94       	lsr	r1
     470:	d1 f7       	brne	.-12     	; 0x466 <SD_read_sector+0x46>
    SPI_write(sector << 1); // sector*512 >> 8
     472:	7e df       	rcall	.-260    	; 0x370 <SPI_write>
     474:	88 2d       	mov	r24, r8
    SPI_write(0);          // sector*512
     476:	88 0f       	add	r24, r24
     478:	7b df       	rcall	.-266    	; 0x370 <SPI_write>
     47a:	80 e0       	ldi	r24, 0x00	; 0
    SPI_write(0xFF);
     47c:	79 df       	rcall	.-270    	; 0x370 <SPI_write>
     47e:	8f ef       	ldi	r24, 0xFF	; 255

    // wait for 0
    if (read_spi_while_byte_is_not(0, RECOMMEND_WAIT_TIMEOUT_SPI))
     480:	77 df       	rcall	.-274    	; 0x370 <SPI_write>
     482:	40 ea       	ldi	r20, 0xA0	; 160
     484:	56 e8       	ldi	r21, 0x86	; 134
     486:	61 e0       	ldi	r22, 0x01	; 1
     488:	70 e0       	ldi	r23, 0x00	; 0
     48a:	80 e0       	ldi	r24, 0x00	; 0
     48c:	8c df       	rcall	.-232    	; 0x3a6 <read_spi_while_byte_is_not>
     48e:	88 23       	and	r24, r24
    {
        // wait for data Start Block token
        if (read_spi_while_byte_is_not(0xFE, RECOMMEND_WAIT_TIMEOUT_SPI))
     490:	f1 f0       	breq	.+60     	; 0x4ce <SD_read_sector+0xae>
     492:	40 ea       	ldi	r20, 0xA0	; 160
     494:	56 e8       	ldi	r21, 0x86	; 134
     496:	61 e0       	ldi	r22, 0x01	; 1
     498:	70 e0       	ldi	r23, 0x00	; 0
     49a:	8e ef       	ldi	r24, 0xFE	; 254
     49c:	84 df       	rcall	.-248    	; 0x3a6 <read_spi_while_byte_is_not>
     49e:	81 11       	cpse	r24, r1
     4a0:	0a c0       	rjmp	.+20     	; 0x4b6 <SD_read_sector+0x96>
        {
            for (i = 0; i < 512; i++)
            {
                buffer[i] = SPI_write(0xFF);
     4a2:	16 c0       	rjmp	.+44     	; 0x4d0 <SD_read_sector+0xb0>
     4a4:	87 01       	movw	r16, r14
     4a6:	0c 0f       	add	r16, r28
     4a8:	1d 1f       	adc	r17, r29
     4aa:	8f ef       	ldi	r24, 0xFF	; 255
     4ac:	61 df       	rcall	.-318    	; 0x370 <SPI_write>
     4ae:	f8 01       	movw	r30, r16
    if (read_spi_while_byte_is_not(0, RECOMMEND_WAIT_TIMEOUT_SPI))
    {
        // wait for data Start Block token
        if (read_spi_while_byte_is_not(0xFE, RECOMMEND_WAIT_TIMEOUT_SPI))
        {
            for (i = 0; i < 512; i++)
     4b0:	80 83       	st	Z, r24
     4b2:	21 96       	adiw	r28, 0x01	; 1
     4b4:	02 c0       	rjmp	.+4      	; 0x4ba <SD_read_sector+0x9a>
     4b6:	c0 e0       	ldi	r28, 0x00	; 0
     4b8:	d0 e0       	ldi	r29, 0x00	; 0
     4ba:	c1 15       	cp	r28, r1
     4bc:	f2 e0       	ldi	r31, 0x02	; 2
            {
                buffer[i] = SPI_write(0xFF);
            }
            // skip checksum
            SPI_write(0xFF);
     4be:	df 07       	cpc	r29, r31
     4c0:	88 f3       	brcs	.-30     	; 0x4a4 <SD_read_sector+0x84>
     4c2:	8f ef       	ldi	r24, 0xFF	; 255
            SPI_write(0xFF);
     4c4:	55 df       	rcall	.-342    	; 0x370 <SPI_write>
     4c6:	8f ef       	ldi	r24, 0xFF	; 255
     4c8:	53 df       	rcall	.-346    	; 0x370 <SPI_write>

            retf = true;
     4ca:	81 e0       	ldi	r24, 0x01	; 1
     4cc:	01 c0       	rjmp	.+2      	; 0x4d0 <SD_read_sector+0xb0>

// TODO: This function will not exit gracefully if SD card does not do what it should
bool SD_read_sector(unsigned long sector, uint8_t* buffer)
{
    unsigned short i = 0;
    bool retf = false;
     4ce:	80 e0       	ldi	r24, 0x00	; 0
            retf = true;
        }

    }

    CS_DISABLE();
     4d0:	95 b1       	in	r25, 0x05	; 5
     4d2:	91 60       	ori	r25, 0x01	; 1
     4d4:	95 b9       	out	0x05, r25	; 5

    return retf;
}
     4d6:	df 91       	pop	r29
     4d8:	cf 91       	pop	r28
     4da:	1f 91       	pop	r17
     4dc:	0f 91       	pop	r16
     4de:	ff 90       	pop	r15
     4e0:	ef 90       	pop	r14
     4e2:	bf 90       	pop	r11
     4e4:	af 90       	pop	r10
     4e6:	9f 90       	pop	r9
     4e8:	8f 90       	pop	r8
     4ea:	08 95       	ret

000004ec <CALLBACK_USB_GetDescriptor>:
 */
uint16_t CALLBACK_USB_GetDescriptor(const uint16_t wValue,
                                    const uint16_t wIndex,
                                    const void** const DescriptorAddress)
{
    const uint8_t  DescriptorType   = (wValue >> 8);
     4ec:	29 2f       	mov	r18, r25
     4ee:	33 27       	eor	r19, r19
    const uint8_t  DescriptorNumber = (wValue & 0xFF);

    const void* Address = NULL;
    uint16_t    Size    = NO_DESCRIPTOR;

    switch (DescriptorType)
     4f0:	23 30       	cpi	r18, 0x03	; 3
     4f2:	31 05       	cpc	r19, r1
     4f4:	c9 f0       	breq	.+50     	; 0x528 <CALLBACK_USB_GetDescriptor+0x3c>
     4f6:	40 f4       	brcc	.+16     	; 0x508 <CALLBACK_USB_GetDescriptor+0x1c>
     4f8:	21 30       	cpi	r18, 0x01	; 1
     4fa:	31 05       	cpc	r19, r1
     4fc:	09 f4       	brne	.+2      	; 0x500 <CALLBACK_USB_GetDescriptor+0x14>
     4fe:	47 c0       	rjmp	.+142    	; 0x58e <CALLBACK_USB_GetDescriptor+0xa2>
     500:	22 30       	cpi	r18, 0x02	; 2
     502:	31 05       	cpc	r19, r1
     504:	61 f0       	breq	.+24     	; 0x51e <CALLBACK_USB_GetDescriptor+0x32>
     506:	06 c0       	rjmp	.+12     	; 0x514 <CALLBACK_USB_GetDescriptor+0x28>
     508:	21 32       	cpi	r18, 0x21	; 33
     50a:	31 05       	cpc	r19, r1
     50c:	b1 f1       	breq	.+108    	; 0x57a <CALLBACK_USB_GetDescriptor+0x8e>
     50e:	22 32       	cpi	r18, 0x22	; 34
     510:	31 05       	cpc	r19, r1
     512:	c1 f1       	breq	.+112    	; 0x584 <CALLBACK_USB_GetDescriptor+0x98>
{
    const uint8_t  DescriptorType   = (wValue >> 8);
    const uint8_t  DescriptorNumber = (wValue & 0xFF);

    const void* Address = NULL;
    uint16_t    Size    = NO_DESCRIPTOR;
     514:	80 e0       	ldi	r24, 0x00	; 0
     516:	90 e0       	ldi	r25, 0x00	; 0
                                    const void** const DescriptorAddress)
{
    const uint8_t  DescriptorType   = (wValue >> 8);
    const uint8_t  DescriptorNumber = (wValue & 0xFF);

    const void* Address = NULL;
     518:	20 e0       	ldi	r18, 0x00	; 0
     51a:	30 e0       	ldi	r19, 0x00	; 0
     51c:	41 c0       	rjmp	.+130    	; 0x5a0 <CALLBACK_USB_GetDescriptor+0xb4>
            Address = &DeviceDescriptor;
            Size    = sizeof(USB_Descriptor_Device_t);
            break;
        case DTYPE_Configuration:
            Address = &ConfigurationDescriptor;
            Size    = sizeof(USB_Descriptor_Configuration_t);
     51e:	89 e3       	ldi	r24, 0x39	; 57
     520:	90 e0       	ldi	r25, 0x00	; 0
        case DTYPE_Device:
            Address = &DeviceDescriptor;
            Size    = sizeof(USB_Descriptor_Device_t);
            break;
        case DTYPE_Configuration:
            Address = &ConfigurationDescriptor;
     522:	2d ea       	ldi	r18, 0xAD	; 173
     524:	32 e0       	ldi	r19, 0x02	; 2
            Size    = sizeof(USB_Descriptor_Configuration_t);
            break;
     526:	3c c0       	rjmp	.+120    	; 0x5a0 <CALLBACK_USB_GetDescriptor+0xb4>
        case DTYPE_String:
            if (USB_ControlRequest.wLength == 0xFF)
     528:	20 91 7f 0c 	lds	r18, 0x0C7F	; 0x800c7f <USB_ControlRequest+0x6>
     52c:	30 91 80 0c 	lds	r19, 0x0C80	; 0x800c80 <USB_ControlRequest+0x7>
     530:	2f 3f       	cpi	r18, 0xFF	; 255
     532:	31 05       	cpc	r19, r1
     534:	39 f4       	brne	.+14     	; 0x544 <CALLBACK_USB_GetDescriptor+0x58>
            {
                guess_os.maybe_linux = 1;
     536:	20 91 0d 0a 	lds	r18, 0x0A0D	; 0x800a0d <guess_os>
                guess_os.maybe_win = 1;
                guess_os.not_mac =
     53a:	23 60       	ori	r18, 0x03	; 3
     53c:	20 62       	ori	r18, 0x20	; 32
     53e:	20 93 0d 0a 	sts	0x0A0D, r18	; 0x800a0d <guess_os>
     542:	05 c0       	rjmp	.+10     	; 0x54e <CALLBACK_USB_GetDescriptor+0x62>
                    1; // In testing, MacOS NEVER sets a descript request lenght of 255
            }
            else
            {
                guess_os.not_linux =
     544:	20 91 0d 0a 	lds	r18, 0x0A0D	; 0x800a0d <guess_os>
     548:	28 60       	ori	r18, 0x08	; 8
     54a:	20 93 0d 0a 	sts	0x0A0D, r18	; 0x800a0d <guess_os>
                    1; // In testing, Linux ALWAYS sets a descriptor request length of 255;
            }

            switch (DescriptorNumber)
     54e:	99 27       	eor	r25, r25
     550:	81 30       	cpi	r24, 0x01	; 1
     552:	91 05       	cpc	r25, r1
     554:	41 f0       	breq	.+16     	; 0x566 <CALLBACK_USB_GetDescriptor+0x7a>
     556:	00 f1       	brcs	.+64     	; 0x598 <CALLBACK_USB_GetDescriptor+0xac>
     558:	02 97       	sbiw	r24, 0x02	; 2
     55a:	51 f0       	breq	.+20     	; 0x570 <CALLBACK_USB_GetDescriptor+0x84>
{
    const uint8_t  DescriptorType   = (wValue >> 8);
    const uint8_t  DescriptorNumber = (wValue & 0xFF);

    const void* Address = NULL;
    uint16_t    Size    = NO_DESCRIPTOR;
     55c:	80 e0       	ldi	r24, 0x00	; 0
     55e:	90 e0       	ldi	r25, 0x00	; 0
                                    const void** const DescriptorAddress)
{
    const uint8_t  DescriptorType   = (wValue >> 8);
    const uint8_t  DescriptorNumber = (wValue & 0xFF);

    const void* Address = NULL;
     560:	20 e0       	ldi	r18, 0x00	; 0
     562:	30 e0       	ldi	r19, 0x00	; 0
     564:	1d c0       	rjmp	.+58     	; 0x5a0 <CALLBACK_USB_GetDescriptor+0xb4>
                    Address = &LanguageString;
                    Size    = LanguageString.Header.Size;
                    break;
                case STRING_ID_Manufacturer:
                    Address = &ManufacturerString;
                    Size    = ManufacturerString.Header.Size;
     566:	8a e0       	ldi	r24, 0x0A	; 10
     568:	90 e0       	ldi	r25, 0x00	; 0
                case STRING_ID_Language:
                    Address = &LanguageString;
                    Size    = LanguageString.Header.Size;
                    break;
                case STRING_ID_Manufacturer:
                    Address = &ManufacturerString;
     56a:	2d e9       	ldi	r18, 0x9D	; 157
     56c:	32 e0       	ldi	r19, 0x02	; 2
                    Size    = ManufacturerString.Header.Size;
                    break;
     56e:	18 c0       	rjmp	.+48     	; 0x5a0 <CALLBACK_USB_GetDescriptor+0xb4>
                case STRING_ID_Product:
                    Address = &ProductString;
                    Size    = ProductString.Header.Size;
     570:	8e e3       	ldi	r24, 0x3E	; 62
     572:	90 e0       	ldi	r25, 0x00	; 0
                case STRING_ID_Manufacturer:
                    Address = &ManufacturerString;
                    Size    = ManufacturerString.Header.Size;
                    break;
                case STRING_ID_Product:
                    Address = &ProductString;
     574:	2d e5       	ldi	r18, 0x5D	; 93
     576:	32 e0       	ldi	r19, 0x02	; 2
                    Size    = ProductString.Header.Size;
                    break;
     578:	13 c0       	rjmp	.+38     	; 0x5a0 <CALLBACK_USB_GetDescriptor+0xb4>
            }

            break;
        case HID_DTYPE_HID:
            Address = &ConfigurationDescriptor.HID_KeyboardHID;
            Size    = sizeof(USB_HID_Descriptor_HID_t);
     57a:	89 e0       	ldi	r24, 0x09	; 9
     57c:	90 e0       	ldi	r25, 0x00	; 0
                    break;
            }

            break;
        case HID_DTYPE_HID:
            Address = &ConfigurationDescriptor.HID_KeyboardHID;
     57e:	26 ed       	ldi	r18, 0xD6	; 214
     580:	32 e0       	ldi	r19, 0x02	; 2
            Size    = sizeof(USB_HID_Descriptor_HID_t);
            break;
     582:	0e c0       	rjmp	.+28     	; 0x5a0 <CALLBACK_USB_GetDescriptor+0xb4>
        case HID_DTYPE_Report:
            Address = &KeyboardReport;
            Size    = sizeof(KeyboardReport);
     584:	80 e4       	ldi	r24, 0x40	; 64
     586:	90 e0       	ldi	r25, 0x00	; 0
        case HID_DTYPE_HID:
            Address = &ConfigurationDescriptor.HID_KeyboardHID;
            Size    = sizeof(USB_HID_Descriptor_HID_t);
            break;
        case HID_DTYPE_Report:
            Address = &KeyboardReport;
     588:	28 ef       	ldi	r18, 0xF8	; 248
     58a:	32 e0       	ldi	r19, 0x02	; 2
            Size    = sizeof(KeyboardReport);
            break;
     58c:	09 c0       	rjmp	.+18     	; 0x5a0 <CALLBACK_USB_GetDescriptor+0xb4>

    switch (DescriptorType)
    {
        case DTYPE_Device:
            Address = &DeviceDescriptor;
            Size    = sizeof(USB_Descriptor_Device_t);
     58e:	82 e1       	ldi	r24, 0x12	; 18
     590:	90 e0       	ldi	r25, 0x00	; 0
    uint16_t    Size    = NO_DESCRIPTOR;

    switch (DescriptorType)
    {
        case DTYPE_Device:
            Address = &DeviceDescriptor;
     592:	26 ee       	ldi	r18, 0xE6	; 230
     594:	32 e0       	ldi	r19, 0x02	; 2
     596:	04 c0       	rjmp	.+8      	; 0x5a0 <CALLBACK_USB_GetDescriptor+0xb4>

            switch (DescriptorNumber)
            {
                case STRING_ID_Language:
                    Address = &LanguageString;
                    Size    = LanguageString.Header.Size;
     598:	84 e0       	ldi	r24, 0x04	; 4
     59a:	90 e0       	ldi	r25, 0x00	; 0
            }

            switch (DescriptorNumber)
            {
                case STRING_ID_Language:
                    Address = &LanguageString;
     59c:	29 ea       	ldi	r18, 0xA9	; 169
     59e:	32 e0       	ldi	r19, 0x02	; 2
            Address = &KeyboardReport;
            Size    = sizeof(KeyboardReport);
            break;
    }

    *DescriptorAddress = Address;
     5a0:	fa 01       	movw	r30, r20
     5a2:	31 83       	std	Z+1, r19	; 0x01
     5a4:	20 83       	st	Z, r18
    return Size;
}
     5a6:	08 95       	ret

000005a8 <guess_host_os>:



guess_os_t guess_host_os(void)
{
    if (guess_os.not_mac && guess_os.not_linux && guess_os.maybe_win)
     5a8:	80 91 0d 0a 	lds	r24, 0x0A0D	; 0x800a0d <guess_os>
     5ac:	98 2f       	mov	r25, r24
     5ae:	9a 72       	andi	r25, 0x2A	; 42
     5b0:	9a 32       	cpi	r25, 0x2A	; 42
     5b2:	41 f0       	breq	.+16     	; 0x5c4 <guess_host_os+0x1c>
    {
        return GO_WINDOWS;
    }
    else if (guess_os.maybe_linux && !guess_os.not_linux)
     5b4:	98 2f       	mov	r25, r24
     5b6:	99 70       	andi	r25, 0x09	; 9
     5b8:	91 30       	cpi	r25, 0x01	; 1
     5ba:	31 f0       	breq	.+12     	; 0x5c8 <guess_host_os+0x20>
    {
        return GO_LINUX;
    }
    else if (!guess_os.not_mac)
     5bc:	85 fd       	sbrc	r24, 5
     5be:	06 c0       	rjmp	.+12     	; 0x5cc <guess_host_os+0x24>
    {
        return GO_MAC;
     5c0:	82 e0       	ldi	r24, 0x02	; 2
     5c2:	08 95       	ret

guess_os_t guess_host_os(void)
{
    if (guess_os.not_mac && guess_os.not_linux && guess_os.maybe_win)
    {
        return GO_WINDOWS;
     5c4:	80 e0       	ldi	r24, 0x00	; 0
     5c6:	08 95       	ret
    }
    else if (guess_os.maybe_linux && !guess_os.not_linux)
    {
        return GO_LINUX;
     5c8:	81 e0       	ldi	r24, 0x01	; 1
     5ca:	08 95       	ret
    else if (!guess_os.not_mac)
    {
        return GO_MAC;
    }

    return GO_WINDOWS;
     5cc:	80 e0       	ldi	r24, 0x00	; 0
}
     5ce:	08 95       	ret

000005d0 <guess_host_os_string>:

const char* guess_host_os_string(void)
{
    switch (guess_host_os())
     5d0:	eb df       	rcall	.-42     	; 0x5a8 <guess_host_os>
     5d2:	81 30       	cpi	r24, 0x01	; 1
     5d4:	41 f0       	breq	.+16     	; 0x5e6 <guess_host_os_string+0x16>
     5d6:	82 30       	cpi	r24, 0x02	; 2
     5d8:	19 f0       	breq	.+6      	; 0x5e0 <guess_host_os_string+0x10>
    {
        case GO_WINDOWS:
            return "OS_WINDOWS";
     5da:	82 e4       	ldi	r24, 0x42	; 66
     5dc:	92 e0       	ldi	r25, 0x02	; 2
     5de:	08 95       	ret
        case GO_LINUX:
            return "OS_LINUX";
            break;

        case GO_MAC:
            return "OS_MAC";
     5e0:	86 e5       	ldi	r24, 0x56	; 86
     5e2:	92 e0       	ldi	r25, 0x02	; 2
     5e4:	08 95       	ret
        case GO_WINDOWS:
            return "OS_WINDOWS";
            break;

        case GO_LINUX:
            return "OS_LINUX";
     5e6:	8d e4       	ldi	r24, 0x4D	; 77
     5e8:	92 e0       	ldi	r25, 0x02	; 2

        default:
            return "OS_WINDOWS";
            break;
    }
}
     5ea:	08 95       	ret

000005ec <disk_status>:

DSTATUS disk_status (
	BYTE pdrv		/* Physical drive nmuber to identify the drive */
)
{
	switch (pdrv) {
     5ec:	81 11       	cpse	r24, r1
     5ee:	03 c0       	rjmp	.+6      	; 0x5f6 <disk_status+0xa>
	case DRV_CFC :
		return cf_disk_status();
#endif
#ifdef DRV_MMC
	case DRV_MMC :
		return mmc_disk_status();
     5f0:	0c 94 61 1c 	jmp	0x38c2	; 0x38c2 <mmc_disk_status>
     5f4:	08 95       	ret
#endif
	}
	return STA_NOINIT;
     5f6:	81 e0       	ldi	r24, 0x01	; 1
}
     5f8:	08 95       	ret

000005fa <disk_initialize>:

DSTATUS disk_initialize (
	BYTE pdrv				/* Physical drive nmuber to identify the drive */
)
{
	switch (pdrv) {
     5fa:	81 11       	cpse	r24, r1
     5fc:	03 c0       	rjmp	.+6      	; 0x604 <disk_initialize+0xa>
	case DRV_CFC :
		return cf_disk_initialize();
#endif
#ifdef DRV_MMC
	case DRV_MMC :
		return mmc_disk_initialize();
     5fe:	0c 94 98 1b 	jmp	0x3730	; 0x3730 <mmc_disk_initialize>
     602:	08 95       	ret
#endif
	}
	return STA_NOINIT;
     604:	81 e0       	ldi	r24, 0x01	; 1
}
     606:	08 95       	ret

00000608 <disk_read>:
	BYTE pdrv,		/* Physical drive nmuber to identify the drive */
	BYTE *buff,		/* Data buffer to store read data */
	LBA_t sector,	/* Sector address in LBA */
	UINT count		/* Number of sectors to read */
)
{
     608:	0f 93       	push	r16
     60a:	1f 93       	push	r17
     60c:	fb 01       	movw	r30, r22
	switch (pdrv) {
     60e:	81 11       	cpse	r24, r1
     610:	07 c0       	rjmp	.+14     	; 0x620 <disk_read+0x18>
     612:	ba 01       	movw	r22, r20
     614:	a9 01       	movw	r20, r18
     616:	cf 01       	movw	r24, r30
	case DRV_CFC :
		return cf_disk_read(buff, sector, count);
#endif
#ifdef DRV_MMC
	case DRV_MMC :
		return mmc_disk_read(buff, sector, count);
     618:	98 01       	movw	r18, r16
     61a:	0e 94 64 1c 	call	0x38c8	; 0x38c8 <mmc_disk_read>
     61e:	01 c0       	rjmp	.+2      	; 0x622 <disk_read+0x1a>
#endif
	}
	return RES_PARERR;
     620:	84 e0       	ldi	r24, 0x04	; 4
}
     622:	1f 91       	pop	r17
     624:	0f 91       	pop	r16
     626:	08 95       	ret

00000628 <disk_write>:
	BYTE pdrv,			/* Physical drive nmuber to identify the drive */
	const BYTE *buff,	/* Data to be written */
	LBA_t sector,		/* Sector address in LBA */
	UINT count			/* Number of sectors to write */
)
{
     628:	0f 93       	push	r16
     62a:	1f 93       	push	r17
     62c:	fb 01       	movw	r30, r22
	switch (pdrv) {
     62e:	81 11       	cpse	r24, r1
     630:	07 c0       	rjmp	.+14     	; 0x640 <disk_write+0x18>
     632:	ba 01       	movw	r22, r20
     634:	a9 01       	movw	r20, r18
     636:	cf 01       	movw	r24, r30
	case DRV_CFC :
		return cf_disk_write(buff, sector, count);
#endif
#ifdef DRV_MMC
	case DRV_MMC :
		return mmc_disk_write(buff, sector, count);
     638:	98 01       	movw	r18, r16
     63a:	0e 94 ae 1c 	call	0x395c	; 0x395c <mmc_disk_write>
     63e:	01 c0       	rjmp	.+2      	; 0x642 <disk_write+0x1a>
#endif
	}
	return RES_PARERR;
     640:	84 e0       	ldi	r24, 0x04	; 4
}
     642:	1f 91       	pop	r17
     644:	0f 91       	pop	r16
     646:	08 95       	ret

00000648 <disk_ioctl>:
	BYTE pdrv,		/* Physical drive nmuber (0..) */
	BYTE cmd,		/* Control code */
	void *buff		/* Buffer to send/receive control data */
)
{
	switch (pdrv) {
     648:	81 11       	cpse	r24, r1
     64a:	05 c0       	rjmp	.+10     	; 0x656 <disk_ioctl+0xe>
     64c:	86 2f       	mov	r24, r22
	case DRV_CFC :
		return cf_disk_ioctl(cmd, buff);
#endif
#ifdef DRV_MMC
	case DRV_MMC :
		return mmc_disk_ioctl(cmd, buff);
     64e:	ba 01       	movw	r22, r20
     650:	0c 94 16 1d 	jmp	0x3a2c	; 0x3a2c <mmc_disk_ioctl>
     654:	08 95       	ret
#endif
	}
	return RES_PARERR;
     656:	84 e0       	ldi	r24, 0x04	; 4
}
     658:	08 95       	ret

0000065a <disk_timerproc>:
{
#ifdef DRV_CFC
	cf_disk_timerproc();
#endif
#ifdef DRV_MMC
	mmc_disk_timerproc();
     65a:	0c 94 13 20 	jmp	0x4026	; 0x4026 <mmc_disk_timerproc>
     65e:	08 95       	ret

00000660 <ld_word>:
#endif
		if (res != FR_OK) ABORT(fs, res);
	}

	LEAVE_FF(fs, res);
}
     660:	fc 01       	movw	r30, r24
     662:	21 81       	ldd	r18, Z+1	; 0x01
     664:	30 e0       	ldi	r19, 0x00	; 0
     666:	32 2f       	mov	r19, r18
     668:	22 27       	eor	r18, r18
     66a:	80 81       	ld	r24, Z
     66c:	a9 01       	movw	r20, r18
     66e:	48 2b       	or	r20, r24
     670:	ca 01       	movw	r24, r20
     672:	08 95       	ret

00000674 <ld_dword>:
     674:	fc 01       	movw	r30, r24
     676:	63 81       	ldd	r22, Z+3	; 0x03
     678:	86 2f       	mov	r24, r22
     67a:	90 e0       	ldi	r25, 0x00	; 0
     67c:	a0 e0       	ldi	r26, 0x00	; 0
     67e:	b0 e0       	ldi	r27, 0x00	; 0
     680:	ba 2f       	mov	r27, r26
     682:	a9 2f       	mov	r26, r25
     684:	98 2f       	mov	r25, r24
     686:	88 27       	eor	r24, r24
     688:	22 81       	ldd	r18, Z+2	; 0x02
     68a:	82 2b       	or	r24, r18
     68c:	ba 2f       	mov	r27, r26
     68e:	a9 2f       	mov	r26, r25
     690:	98 2f       	mov	r25, r24
     692:	88 27       	eor	r24, r24
     694:	21 81       	ldd	r18, Z+1	; 0x01
     696:	82 2b       	or	r24, r18
     698:	ba 2f       	mov	r27, r26
     69a:	a9 2f       	mov	r26, r25
     69c:	98 2f       	mov	r25, r24
     69e:	88 27       	eor	r24, r24
     6a0:	20 81       	ld	r18, Z
     6a2:	bc 01       	movw	r22, r24
     6a4:	cd 01       	movw	r24, r26
     6a6:	62 2b       	or	r22, r18
     6a8:	08 95       	ret

000006aa <st_word>:
     6aa:	fc 01       	movw	r30, r24
     6ac:	60 83       	st	Z, r22
     6ae:	71 83       	std	Z+1, r23	; 0x01
     6b0:	08 95       	ret

000006b2 <st_dword>:
     6b2:	fc 01       	movw	r30, r24
     6b4:	40 83       	st	Z, r20
     6b6:	51 83       	std	Z+1, r21	; 0x01
     6b8:	62 83       	std	Z+2, r22	; 0x02
     6ba:	73 83       	std	Z+3, r23	; 0x03
     6bc:	08 95       	ret

000006be <dbc_1st>:
     6be:	81 38       	cpi	r24, 0x81	; 129
     6c0:	48 f0       	brcs	.+18     	; 0x6d4 <dbc_1st+0x16>
     6c2:	80 3a       	cpi	r24, 0xA0	; 160
     6c4:	50 f0       	brcs	.+20     	; 0x6da <dbc_1st+0x1c>
     6c6:	80 3e       	cpi	r24, 0xE0	; 224
     6c8:	58 f0       	brcs	.+22     	; 0x6e0 <dbc_1st+0x22>
     6ca:	8d 3f       	cpi	r24, 0xFD	; 253
     6cc:	60 f0       	brcs	.+24     	; 0x6e6 <dbc_1st+0x28>
     6ce:	80 e0       	ldi	r24, 0x00	; 0
     6d0:	90 e0       	ldi	r25, 0x00	; 0
     6d2:	08 95       	ret
     6d4:	80 e0       	ldi	r24, 0x00	; 0
     6d6:	90 e0       	ldi	r25, 0x00	; 0
     6d8:	08 95       	ret
     6da:	81 e0       	ldi	r24, 0x01	; 1
     6dc:	90 e0       	ldi	r25, 0x00	; 0
     6de:	08 95       	ret
     6e0:	80 e0       	ldi	r24, 0x00	; 0
     6e2:	90 e0       	ldi	r25, 0x00	; 0
     6e4:	08 95       	ret
     6e6:	81 e0       	ldi	r24, 0x01	; 1
     6e8:	90 e0       	ldi	r25, 0x00	; 0
     6ea:	08 95       	ret

000006ec <dbc_2nd>:
     6ec:	80 34       	cpi	r24, 0x40	; 64
     6ee:	58 f0       	brcs	.+22     	; 0x706 <dbc_2nd+0x1a>
     6f0:	8f 37       	cpi	r24, 0x7F	; 127
     6f2:	60 f0       	brcs	.+24     	; 0x70c <dbc_2nd+0x20>
     6f4:	80 38       	cpi	r24, 0x80	; 128
     6f6:	10 f0       	brcs	.+4      	; 0x6fc <dbc_2nd+0x10>
     6f8:	8d 3f       	cpi	r24, 0xFD	; 253
     6fa:	58 f0       	brcs	.+22     	; 0x712 <dbc_2nd+0x26>
     6fc:	88 23       	and	r24, r24
     6fe:	61 f0       	breq	.+24     	; 0x718 <dbc_2nd+0x2c>
     700:	80 e0       	ldi	r24, 0x00	; 0
     702:	90 e0       	ldi	r25, 0x00	; 0
     704:	08 95       	ret
     706:	80 e0       	ldi	r24, 0x00	; 0
     708:	90 e0       	ldi	r25, 0x00	; 0
     70a:	08 95       	ret
     70c:	81 e0       	ldi	r24, 0x01	; 1
     70e:	90 e0       	ldi	r25, 0x00	; 0
     710:	08 95       	ret
     712:	81 e0       	ldi	r24, 0x01	; 1
     714:	90 e0       	ldi	r25, 0x00	; 0
     716:	08 95       	ret
     718:	81 e0       	ldi	r24, 0x01	; 1
     71a:	90 e0       	ldi	r25, 0x00	; 0
     71c:	08 95       	ret

0000071e <clst2sect>:
     71e:	cf 92       	push	r12
     720:	df 92       	push	r13
     722:	ef 92       	push	r14
     724:	ff 92       	push	r15
     726:	fc 01       	movw	r30, r24
     728:	9a 01       	movw	r18, r20
     72a:	ab 01       	movw	r20, r22
     72c:	22 50       	subi	r18, 0x02	; 2
     72e:	31 09       	sbc	r19, r1
     730:	41 09       	sbc	r20, r1
     732:	51 09       	sbc	r21, r1
     734:	c7 88       	ldd	r12, Z+23	; 0x17
     736:	d0 8c       	ldd	r13, Z+24	; 0x18
     738:	e1 8c       	ldd	r14, Z+25	; 0x19
     73a:	f2 8c       	ldd	r15, Z+26	; 0x1a
     73c:	82 e0       	ldi	r24, 0x02	; 2
     73e:	c8 1a       	sub	r12, r24
     740:	d1 08       	sbc	r13, r1
     742:	e1 08       	sbc	r14, r1
     744:	f1 08       	sbc	r15, r1
     746:	2c 15       	cp	r18, r12
     748:	3d 05       	cpc	r19, r13
     74a:	4e 05       	cpc	r20, r14
     74c:	5f 05       	cpc	r21, r15
     74e:	68 f4       	brcc	.+26     	; 0x76a <clst2sect+0x4c>
     750:	c3 a4       	ldd	r12, Z+43	; 0x2b
     752:	d4 a4       	ldd	r13, Z+44	; 0x2c
     754:	e5 a4       	ldd	r14, Z+45	; 0x2d
     756:	f6 a4       	ldd	r15, Z+46	; 0x2e
     758:	a1 85       	ldd	r26, Z+9	; 0x09
     75a:	b2 85       	ldd	r27, Z+10	; 0x0a
     75c:	0e 94 de 30 	call	0x61bc	; 0x61bc <__muluhisi3>
     760:	6c 0d       	add	r22, r12
     762:	7d 1d       	adc	r23, r13
     764:	8e 1d       	adc	r24, r14
     766:	9f 1d       	adc	r25, r15
     768:	03 c0       	rjmp	.+6      	; 0x770 <clst2sect+0x52>
     76a:	60 e0       	ldi	r22, 0x00	; 0
     76c:	70 e0       	ldi	r23, 0x00	; 0
     76e:	cb 01       	movw	r24, r22
     770:	ff 90       	pop	r15
     772:	ef 90       	pop	r14
     774:	df 90       	pop	r13
     776:	cf 90       	pop	r12
     778:	08 95       	ret

0000077a <ld_clust>:
     77a:	cf 92       	push	r12
     77c:	df 92       	push	r13
     77e:	ef 92       	push	r14
     780:	ff 92       	push	r15
     782:	0f 93       	push	r16
     784:	1f 93       	push	r17
     786:	cf 93       	push	r28
     788:	df 93       	push	r29
     78a:	8c 01       	movw	r16, r24
     78c:	eb 01       	movw	r28, r22
     78e:	cb 01       	movw	r24, r22
     790:	4a 96       	adiw	r24, 0x1a	; 26
     792:	66 df       	rcall	.-308    	; 0x660 <ld_word>
     794:	6c 01       	movw	r12, r24
     796:	e1 2c       	mov	r14, r1
     798:	f1 2c       	mov	r15, r1
     79a:	f8 01       	movw	r30, r16
     79c:	80 81       	ld	r24, Z
     79e:	83 30       	cpi	r24, 0x03	; 3
     7a0:	61 f4       	brne	.+24     	; 0x7ba <ld_clust+0x40>
     7a2:	ce 01       	movw	r24, r28
     7a4:	44 96       	adiw	r24, 0x14	; 20
     7a6:	5c df       	rcall	.-328    	; 0x660 <ld_word>
     7a8:	a0 e0       	ldi	r26, 0x00	; 0
     7aa:	b0 e0       	ldi	r27, 0x00	; 0
     7ac:	dc 01       	movw	r26, r24
     7ae:	99 27       	eor	r25, r25
     7b0:	88 27       	eor	r24, r24
     7b2:	c8 2a       	or	r12, r24
     7b4:	d9 2a       	or	r13, r25
     7b6:	ea 2a       	or	r14, r26
     7b8:	fb 2a       	or	r15, r27
     7ba:	c7 01       	movw	r24, r14
     7bc:	b6 01       	movw	r22, r12
     7be:	df 91       	pop	r29
     7c0:	cf 91       	pop	r28
     7c2:	1f 91       	pop	r17
     7c4:	0f 91       	pop	r16
     7c6:	ff 90       	pop	r15
     7c8:	ef 90       	pop	r14
     7ca:	df 90       	pop	r13
     7cc:	cf 90       	pop	r12
     7ce:	08 95       	ret

000007d0 <st_clust>:
     7d0:	cf 92       	push	r12
     7d2:	df 92       	push	r13
     7d4:	ef 92       	push	r14
     7d6:	ff 92       	push	r15
     7d8:	0f 93       	push	r16
     7da:	1f 93       	push	r17
     7dc:	cf 93       	push	r28
     7de:	df 93       	push	r29
     7e0:	8c 01       	movw	r16, r24
     7e2:	eb 01       	movw	r28, r22
     7e4:	69 01       	movw	r12, r18
     7e6:	7a 01       	movw	r14, r20
     7e8:	b9 01       	movw	r22, r18
     7ea:	ce 01       	movw	r24, r28
     7ec:	4a 96       	adiw	r24, 0x1a	; 26
     7ee:	5d df       	rcall	.-326    	; 0x6aa <st_word>
     7f0:	f8 01       	movw	r30, r16
     7f2:	80 81       	ld	r24, Z
     7f4:	83 30       	cpi	r24, 0x03	; 3
     7f6:	31 f4       	brne	.+12     	; 0x804 <st_clust+0x34>
     7f8:	b7 01       	movw	r22, r14
     7fa:	88 27       	eor	r24, r24
     7fc:	99 27       	eor	r25, r25
     7fe:	ce 01       	movw	r24, r28
     800:	44 96       	adiw	r24, 0x14	; 20
     802:	53 df       	rcall	.-346    	; 0x6aa <st_word>
     804:	df 91       	pop	r29
     806:	cf 91       	pop	r28
     808:	1f 91       	pop	r17
     80a:	0f 91       	pop	r16
     80c:	ff 90       	pop	r15
     80e:	ef 90       	pop	r14
     810:	df 90       	pop	r13
     812:	cf 90       	pop	r12
     814:	08 95       	ret

00000816 <get_ldnumber>:
     816:	cf 93       	push	r28
     818:	df 93       	push	r29
     81a:	ec 01       	movw	r28, r24
     81c:	a8 81       	ld	r26, Y
     81e:	b9 81       	ldd	r27, Y+1	; 0x01
     820:	10 97       	sbiw	r26, 0x00	; 0
     822:	49 f1       	breq	.+82     	; 0x876 <get_ldnumber+0x60>
     824:	fd 01       	movw	r30, r26
     826:	9f 01       	movw	r18, r30
     828:	2f 5f       	subi	r18, 0xFF	; 255
     82a:	3f 4f       	sbci	r19, 0xFF	; 255
     82c:	90 81       	ld	r25, Z
     82e:	91 32       	cpi	r25, 0x21	; 33
     830:	18 f0       	brcs	.+6      	; 0x838 <get_ldnumber+0x22>
     832:	f9 01       	movw	r30, r18
     834:	9a 33       	cpi	r25, 0x3A	; 58
     836:	b9 f7       	brne	.-18     	; 0x826 <get_ldnumber+0x10>
     838:	9a 33       	cpi	r25, 0x3A	; 58
     83a:	c9 f4       	brne	.+50     	; 0x86e <get_ldnumber+0x58>
     83c:	4c 91       	ld	r20, X
     83e:	80 ed       	ldi	r24, 0xD0	; 208
     840:	84 0f       	add	r24, r20
     842:	8a 30       	cpi	r24, 0x0A	; 10
     844:	40 f4       	brcc	.+16     	; 0x856 <get_ldnumber+0x40>
     846:	12 96       	adiw	r26, 0x02	; 2
     848:	2a 17       	cp	r18, r26
     84a:	3b 07       	cpc	r19, r27
     84c:	39 f4       	brne	.+14     	; 0x85c <get_ldnumber+0x46>
     84e:	50 e0       	ldi	r21, 0x00	; 0
     850:	40 53       	subi	r20, 0x30	; 48
     852:	51 09       	sbc	r21, r1
     854:	05 c0       	rjmp	.+10     	; 0x860 <get_ldnumber+0x4a>
     856:	42 e0       	ldi	r20, 0x02	; 2
     858:	50 e0       	ldi	r21, 0x00	; 0
     85a:	02 c0       	rjmp	.+4      	; 0x860 <get_ldnumber+0x4a>
     85c:	42 e0       	ldi	r20, 0x02	; 2
     85e:	50 e0       	ldi	r21, 0x00	; 0
     860:	42 30       	cpi	r20, 0x02	; 2
     862:	51 05       	cpc	r21, r1
     864:	5c f4       	brge	.+22     	; 0x87c <get_ldnumber+0x66>
     866:	39 83       	std	Y+1, r19	; 0x01
     868:	28 83       	st	Y, r18
     86a:	ca 01       	movw	r24, r20
     86c:	09 c0       	rjmp	.+18     	; 0x880 <get_ldnumber+0x6a>
     86e:	80 91 dd 05 	lds	r24, 0x05DD	; 0x8005dd <CurrVol>
     872:	90 e0       	ldi	r25, 0x00	; 0
     874:	05 c0       	rjmp	.+10     	; 0x880 <get_ldnumber+0x6a>
     876:	8f ef       	ldi	r24, 0xFF	; 255
     878:	9f ef       	ldi	r25, 0xFF	; 255
     87a:	02 c0       	rjmp	.+4      	; 0x880 <get_ldnumber+0x6a>
     87c:	8f ef       	ldi	r24, 0xFF	; 255
     87e:	9f ef       	ldi	r25, 0xFF	; 255
     880:	df 91       	pop	r29
     882:	cf 91       	pop	r28
     884:	08 95       	ret

00000886 <validate>:
     886:	0f 93       	push	r16
     888:	1f 93       	push	r17
     88a:	cf 93       	push	r28
     88c:	df 93       	push	r29
     88e:	ec 01       	movw	r28, r24
     890:	8b 01       	movw	r16, r22
     892:	89 2b       	or	r24, r25
     894:	a1 f0       	breq	.+40     	; 0x8be <validate+0x38>
     896:	e8 81       	ld	r30, Y
     898:	f9 81       	ldd	r31, Y+1	; 0x01
     89a:	30 97       	sbiw	r30, 0x00	; 0
     89c:	91 f0       	breq	.+36     	; 0x8c2 <validate+0x3c>
     89e:	80 81       	ld	r24, Z
     8a0:	88 23       	and	r24, r24
     8a2:	89 f0       	breq	.+34     	; 0x8c6 <validate+0x40>
     8a4:	2a 81       	ldd	r18, Y+2	; 0x02
     8a6:	3b 81       	ldd	r19, Y+3	; 0x03
     8a8:	85 81       	ldd	r24, Z+5	; 0x05
     8aa:	96 81       	ldd	r25, Z+6	; 0x06
     8ac:	28 17       	cp	r18, r24
     8ae:	39 07       	cpc	r19, r25
     8b0:	61 f4       	brne	.+24     	; 0x8ca <validate+0x44>
     8b2:	81 81       	ldd	r24, Z+1	; 0x01
     8b4:	9b de       	rcall	.-714    	; 0x5ec <disk_status>
     8b6:	80 ff       	sbrs	r24, 0
     8b8:	0a c0       	rjmp	.+20     	; 0x8ce <validate+0x48>
     8ba:	89 e0       	ldi	r24, 0x09	; 9
     8bc:	09 c0       	rjmp	.+18     	; 0x8d0 <validate+0x4a>
     8be:	89 e0       	ldi	r24, 0x09	; 9
     8c0:	07 c0       	rjmp	.+14     	; 0x8d0 <validate+0x4a>
     8c2:	89 e0       	ldi	r24, 0x09	; 9
     8c4:	05 c0       	rjmp	.+10     	; 0x8d0 <validate+0x4a>
     8c6:	89 e0       	ldi	r24, 0x09	; 9
     8c8:	03 c0       	rjmp	.+6      	; 0x8d0 <validate+0x4a>
     8ca:	89 e0       	ldi	r24, 0x09	; 9
     8cc:	01 c0       	rjmp	.+2      	; 0x8d0 <validate+0x4a>
     8ce:	80 e0       	ldi	r24, 0x00	; 0
     8d0:	81 11       	cpse	r24, r1
     8d2:	03 c0       	rjmp	.+6      	; 0x8da <validate+0x54>
     8d4:	28 81       	ld	r18, Y
     8d6:	39 81       	ldd	r19, Y+1	; 0x01
     8d8:	02 c0       	rjmp	.+4      	; 0x8de <validate+0x58>
     8da:	20 e0       	ldi	r18, 0x00	; 0
     8dc:	30 e0       	ldi	r19, 0x00	; 0
     8de:	f8 01       	movw	r30, r16
     8e0:	31 83       	std	Z+1, r19	; 0x01
     8e2:	20 83       	st	Z, r18
     8e4:	df 91       	pop	r29
     8e6:	cf 91       	pop	r28
     8e8:	1f 91       	pop	r17
     8ea:	0f 91       	pop	r16
     8ec:	08 95       	ret

000008ee <sync_window>:
     8ee:	8f 92       	push	r8
     8f0:	9f 92       	push	r9
     8f2:	af 92       	push	r10
     8f4:	bf 92       	push	r11
     8f6:	ef 92       	push	r14
     8f8:	ff 92       	push	r15
     8fa:	0f 93       	push	r16
     8fc:	1f 93       	push	r17
     8fe:	cf 93       	push	r28
     900:	df 93       	push	r29
     902:	fc 01       	movw	r30, r24
     904:	23 81       	ldd	r18, Z+3	; 0x03
     906:	22 23       	and	r18, r18
     908:	c1 f1       	breq	.+112    	; 0x97a <sync_window+0x8c>
     90a:	ec 01       	movw	r28, r24
     90c:	7c 01       	movw	r14, r24
     90e:	f3 e3       	ldi	r31, 0x33	; 51
     910:	ef 0e       	add	r14, r31
     912:	f1 1c       	adc	r15, r1
     914:	2f a5       	ldd	r18, Y+47	; 0x2f
     916:	38 a9       	ldd	r19, Y+48	; 0x30
     918:	49 a9       	ldd	r20, Y+49	; 0x31
     91a:	5a a9       	ldd	r21, Y+50	; 0x32
     91c:	01 e0       	ldi	r16, 0x01	; 1
     91e:	10 e0       	ldi	r17, 0x00	; 0
     920:	b7 01       	movw	r22, r14
     922:	89 81       	ldd	r24, Y+1	; 0x01
     924:	81 de       	rcall	.-766    	; 0x628 <disk_write>
     926:	81 11       	cpse	r24, r1
     928:	2a c0       	rjmp	.+84     	; 0x97e <sync_window+0x90>
     92a:	1b 82       	std	Y+3, r1	; 0x03
     92c:	0f a5       	ldd	r16, Y+47	; 0x2f
     92e:	18 a9       	ldd	r17, Y+48	; 0x30
     930:	29 a9       	ldd	r18, Y+49	; 0x31
     932:	3a a9       	ldd	r19, Y+50	; 0x32
     934:	8b a1       	ldd	r24, Y+35	; 0x23
     936:	9c a1       	ldd	r25, Y+36	; 0x24
     938:	ad a1       	ldd	r26, Y+37	; 0x25
     93a:	be a1       	ldd	r27, Y+38	; 0x26
     93c:	48 01       	movw	r8, r16
     93e:	59 01       	movw	r10, r18
     940:	88 1a       	sub	r8, r24
     942:	99 0a       	sbc	r9, r25
     944:	aa 0a       	sbc	r10, r26
     946:	bb 0a       	sbc	r11, r27
     948:	8b 8d       	ldd	r24, Y+27	; 0x1b
     94a:	9c 8d       	ldd	r25, Y+28	; 0x1c
     94c:	ad 8d       	ldd	r26, Y+29	; 0x1d
     94e:	be 8d       	ldd	r27, Y+30	; 0x1e
     950:	88 16       	cp	r8, r24
     952:	99 06       	cpc	r9, r25
     954:	aa 06       	cpc	r10, r26
     956:	bb 06       	cpc	r11, r27
     958:	a0 f4       	brcc	.+40     	; 0x982 <sync_window+0x94>
     95a:	6a 81       	ldd	r22, Y+2	; 0x02
     95c:	62 30       	cpi	r22, 0x02	; 2
     95e:	99 f4       	brne	.+38     	; 0x986 <sync_window+0x98>
     960:	a9 01       	movw	r20, r18
     962:	98 01       	movw	r18, r16
     964:	28 0f       	add	r18, r24
     966:	39 1f       	adc	r19, r25
     968:	4a 1f       	adc	r20, r26
     96a:	5b 1f       	adc	r21, r27
     96c:	01 e0       	ldi	r16, 0x01	; 1
     96e:	10 e0       	ldi	r17, 0x00	; 0
     970:	b7 01       	movw	r22, r14
     972:	89 81       	ldd	r24, Y+1	; 0x01
     974:	59 de       	rcall	.-846    	; 0x628 <disk_write>
     976:	80 e0       	ldi	r24, 0x00	; 0
     978:	07 c0       	rjmp	.+14     	; 0x988 <sync_window+0x9a>
     97a:	80 e0       	ldi	r24, 0x00	; 0
     97c:	05 c0       	rjmp	.+10     	; 0x988 <sync_window+0x9a>
     97e:	81 e0       	ldi	r24, 0x01	; 1
     980:	03 c0       	rjmp	.+6      	; 0x988 <sync_window+0x9a>
     982:	80 e0       	ldi	r24, 0x00	; 0
     984:	01 c0       	rjmp	.+2      	; 0x988 <sync_window+0x9a>
     986:	80 e0       	ldi	r24, 0x00	; 0
     988:	df 91       	pop	r29
     98a:	cf 91       	pop	r28
     98c:	1f 91       	pop	r17
     98e:	0f 91       	pop	r16
     990:	ff 90       	pop	r15
     992:	ef 90       	pop	r14
     994:	bf 90       	pop	r11
     996:	af 90       	pop	r10
     998:	9f 90       	pop	r9
     99a:	8f 90       	pop	r8
     99c:	08 95       	ret

0000099e <move_window>:
     99e:	8f 92       	push	r8
     9a0:	9f 92       	push	r9
     9a2:	af 92       	push	r10
     9a4:	bf 92       	push	r11
     9a6:	ff 92       	push	r15
     9a8:	0f 93       	push	r16
     9aa:	1f 93       	push	r17
     9ac:	cf 93       	push	r28
     9ae:	df 93       	push	r29
     9b0:	ec 01       	movw	r28, r24
     9b2:	4a 01       	movw	r8, r20
     9b4:	5b 01       	movw	r10, r22
     9b6:	8f a5       	ldd	r24, Y+47	; 0x2f
     9b8:	98 a9       	ldd	r25, Y+48	; 0x30
     9ba:	a9 a9       	ldd	r26, Y+49	; 0x31
     9bc:	ba a9       	ldd	r27, Y+50	; 0x32
     9be:	84 17       	cp	r24, r20
     9c0:	95 07       	cpc	r25, r21
     9c2:	a6 07       	cpc	r26, r22
     9c4:	b7 07       	cpc	r27, r23
     9c6:	d9 f0       	breq	.+54     	; 0x9fe <move_window+0x60>
     9c8:	ce 01       	movw	r24, r28
     9ca:	91 df       	rcall	.-222    	; 0x8ee <sync_window>
     9cc:	f8 2e       	mov	r15, r24
     9ce:	81 11       	cpse	r24, r1
     9d0:	17 c0       	rjmp	.+46     	; 0xa00 <move_window+0x62>
     9d2:	01 e0       	ldi	r16, 0x01	; 1
     9d4:	10 e0       	ldi	r17, 0x00	; 0
     9d6:	a5 01       	movw	r20, r10
     9d8:	94 01       	movw	r18, r8
     9da:	be 01       	movw	r22, r28
     9dc:	6d 5c       	subi	r22, 0xCD	; 205
     9de:	7f 4f       	sbci	r23, 0xFF	; 255
     9e0:	89 81       	ldd	r24, Y+1	; 0x01
     9e2:	12 de       	rcall	.-988    	; 0x608 <disk_read>
     9e4:	88 23       	and	r24, r24
     9e6:	31 f0       	breq	.+12     	; 0x9f4 <move_window+0x56>
     9e8:	ff 24       	eor	r15, r15
     9ea:	f3 94       	inc	r15
     9ec:	88 24       	eor	r8, r8
     9ee:	8a 94       	dec	r8
     9f0:	98 2c       	mov	r9, r8
     9f2:	54 01       	movw	r10, r8
     9f4:	8f a6       	std	Y+47, r8	; 0x2f
     9f6:	98 aa       	std	Y+48, r9	; 0x30
     9f8:	a9 aa       	std	Y+49, r10	; 0x31
     9fa:	ba aa       	std	Y+50, r11	; 0x32
     9fc:	01 c0       	rjmp	.+2      	; 0xa00 <move_window+0x62>
     9fe:	f1 2c       	mov	r15, r1
     a00:	8f 2d       	mov	r24, r15
     a02:	df 91       	pop	r29
     a04:	cf 91       	pop	r28
     a06:	1f 91       	pop	r17
     a08:	0f 91       	pop	r16
     a0a:	ff 90       	pop	r15
     a0c:	bf 90       	pop	r11
     a0e:	af 90       	pop	r10
     a10:	9f 90       	pop	r9
     a12:	8f 90       	pop	r8
     a14:	08 95       	ret

00000a16 <check_fs>:
     a16:	ef 92       	push	r14
     a18:	ff 92       	push	r15
     a1a:	0f 93       	push	r16
     a1c:	1f 93       	push	r17
     a1e:	cf 93       	push	r28
     a20:	df 93       	push	r29
     a22:	ec 01       	movw	r28, r24
     a24:	1b 82       	std	Y+3, r1	; 0x03
     a26:	8f ef       	ldi	r24, 0xFF	; 255
     a28:	9f ef       	ldi	r25, 0xFF	; 255
     a2a:	dc 01       	movw	r26, r24
     a2c:	8f a7       	std	Y+47, r24	; 0x2f
     a2e:	98 ab       	std	Y+48, r25	; 0x30
     a30:	a9 ab       	std	Y+49, r26	; 0x31
     a32:	ba ab       	std	Y+50, r27	; 0x32
     a34:	ce 01       	movw	r24, r28
     a36:	b3 df       	rcall	.-154    	; 0x99e <move_window>
     a38:	81 11       	cpse	r24, r1
     a3a:	72 c0       	rjmp	.+228    	; 0xb20 <check_fs+0x10a>
     a3c:	ce 01       	movw	r24, r28
     a3e:	8f 5c       	subi	r24, 0xCF	; 207
     a40:	9d 4f       	sbci	r25, 0xFD	; 253
     a42:	0e de       	rcall	.-996    	; 0x660 <ld_word>
     a44:	7c 01       	movw	r14, r24
     a46:	8b a9       	ldd	r24, Y+51	; 0x33
     a48:	8b 3e       	cpi	r24, 0xEB	; 235
     a4a:	29 f0       	breq	.+10     	; 0xa56 <check_fs+0x40>
     a4c:	89 3e       	cpi	r24, 0xE9	; 233
     a4e:	19 f0       	breq	.+6      	; 0xa56 <check_fs+0x40>
     a50:	88 3e       	cpi	r24, 0xE8	; 232
     a52:	09 f0       	breq	.+2      	; 0xa56 <check_fs+0x40>
     a54:	5d c0       	rjmp	.+186    	; 0xb10 <check_fs+0xfa>
     a56:	25 e5       	ldi	r18, 0x55	; 85
     a58:	e2 16       	cp	r14, r18
     a5a:	2a ea       	ldi	r18, 0xAA	; 170
     a5c:	f2 06       	cpc	r15, r18
     a5e:	61 f4       	brne	.+24     	; 0xa78 <check_fs+0x62>
     a60:	48 e0       	ldi	r20, 0x08	; 8
     a62:	50 e0       	ldi	r21, 0x00	; 0
     a64:	6e e5       	ldi	r22, 0x5E	; 94
     a66:	73 e0       	ldi	r23, 0x03	; 3
     a68:	ce 01       	movw	r24, r28
     a6a:	8b 57       	subi	r24, 0x7B	; 123
     a6c:	9f 4f       	sbci	r25, 0xFF	; 255
     a6e:	0e 94 f0 30 	call	0x61e0	; 0x61e0 <memcmp>
     a72:	89 2b       	or	r24, r25
     a74:	09 f4       	brne	.+2      	; 0xa78 <check_fs+0x62>
     a76:	57 c0       	rjmp	.+174    	; 0xb26 <check_fs+0x110>
     a78:	ce 01       	movw	r24, r28
     a7a:	ce 96       	adiw	r24, 0x3e	; 62
     a7c:	f1 dd       	rcall	.-1054   	; 0x660 <ld_word>
     a7e:	fe 01       	movw	r30, r28
     a80:	e0 5c       	subi	r30, 0xC0	; 192
     a82:	ff 4f       	sbci	r31, 0xFF	; 255
     a84:	20 81       	ld	r18, Z
     a86:	8c 01       	movw	r16, r24
     a88:	01 50       	subi	r16, 0x01	; 1
     a8a:	11 09       	sbc	r17, r1
     a8c:	08 23       	and	r16, r24
     a8e:	19 23       	and	r17, r25
     a90:	01 15       	cp	r16, r1
     a92:	11 05       	cpc	r17, r1
     a94:	09 f0       	breq	.+2      	; 0xa98 <check_fs+0x82>
     a96:	3c c0       	rjmp	.+120    	; 0xb10 <check_fs+0xfa>
     a98:	81 15       	cp	r24, r1
     a9a:	32 e0       	ldi	r19, 0x02	; 2
     a9c:	93 07       	cpc	r25, r19
     a9e:	c0 f1       	brcs	.+112    	; 0xb10 <check_fs+0xfa>
     aa0:	81 30       	cpi	r24, 0x01	; 1
     aa2:	92 40       	sbci	r25, 0x02	; 2
     aa4:	a8 f5       	brcc	.+106    	; 0xb10 <check_fs+0xfa>
     aa6:	22 23       	and	r18, r18
     aa8:	99 f1       	breq	.+102    	; 0xb10 <check_fs+0xfa>
     aaa:	82 2f       	mov	r24, r18
     aac:	90 e0       	ldi	r25, 0x00	; 0
     aae:	9c 01       	movw	r18, r24
     ab0:	21 50       	subi	r18, 0x01	; 1
     ab2:	31 09       	sbc	r19, r1
     ab4:	82 23       	and	r24, r18
     ab6:	93 23       	and	r25, r19
     ab8:	89 2b       	or	r24, r25
     aba:	51 f5       	brne	.+84     	; 0xb10 <check_fs+0xfa>
     abc:	ce 01       	movw	r24, r28
     abe:	8f 5b       	subi	r24, 0xBF	; 191
     ac0:	9f 4f       	sbci	r25, 0xFF	; 255
     ac2:	ce dd       	rcall	.-1124   	; 0x660 <ld_word>
     ac4:	89 2b       	or	r24, r25
     ac6:	21 f1       	breq	.+72     	; 0xb10 <check_fs+0xfa>
     ac8:	fe 01       	movw	r30, r28
     aca:	ed 5b       	subi	r30, 0xBD	; 189
     acc:	ff 4f       	sbci	r31, 0xFF	; 255
     ace:	80 81       	ld	r24, Z
     ad0:	90 e0       	ldi	r25, 0x00	; 0
     ad2:	01 97       	sbiw	r24, 0x01	; 1
     ad4:	02 97       	sbiw	r24, 0x02	; 2
     ad6:	e0 f4       	brcc	.+56     	; 0xb10 <check_fs+0xfa>
     ad8:	ce 01       	movw	r24, r28
     ada:	8c 5b       	subi	r24, 0xBC	; 188
     adc:	9f 4f       	sbci	r25, 0xFF	; 255
     ade:	c0 dd       	rcall	.-1152   	; 0x660 <ld_word>
     ae0:	89 2b       	or	r24, r25
     ae2:	b1 f0       	breq	.+44     	; 0xb10 <check_fs+0xfa>
     ae4:	ce 01       	movw	r24, r28
     ae6:	8a 5b       	subi	r24, 0xBA	; 186
     ae8:	9f 4f       	sbci	r25, 0xFF	; 255
     aea:	ba dd       	rcall	.-1164   	; 0x660 <ld_word>
     aec:	80 38       	cpi	r24, 0x80	; 128
     aee:	91 05       	cpc	r25, r1
     af0:	48 f4       	brcc	.+18     	; 0xb04 <check_fs+0xee>
     af2:	ce 01       	movw	r24, r28
     af4:	8d 5a       	subi	r24, 0xAD	; 173
     af6:	9f 4f       	sbci	r25, 0xFF	; 255
     af8:	bd dd       	rcall	.-1158   	; 0x674 <ld_dword>
     afa:	61 15       	cp	r22, r1
     afc:	71 05       	cpc	r23, r1
     afe:	81 40       	sbci	r24, 0x01	; 1
     b00:	91 05       	cpc	r25, r1
     b02:	30 f0       	brcs	.+12     	; 0xb10 <check_fs+0xfa>
     b04:	ce 01       	movw	r24, r28
     b06:	87 5b       	subi	r24, 0xB7	; 183
     b08:	9f 4f       	sbci	r25, 0xFF	; 255
     b0a:	aa dd       	rcall	.-1196   	; 0x660 <ld_word>
     b0c:	89 2b       	or	r24, r25
     b0e:	81 f4       	brne	.+32     	; 0xb30 <check_fs+0x11a>
     b10:	35 e5       	ldi	r19, 0x55	; 85
     b12:	e3 16       	cp	r14, r19
     b14:	3a ea       	ldi	r19, 0xAA	; 170
     b16:	f3 06       	cpc	r15, r19
     b18:	49 f4       	brne	.+18     	; 0xb2c <check_fs+0x116>
     b1a:	02 e0       	ldi	r16, 0x02	; 2
     b1c:	10 e0       	ldi	r17, 0x00	; 0
     b1e:	08 c0       	rjmp	.+16     	; 0xb30 <check_fs+0x11a>
     b20:	04 e0       	ldi	r16, 0x04	; 4
     b22:	10 e0       	ldi	r17, 0x00	; 0
     b24:	05 c0       	rjmp	.+10     	; 0xb30 <check_fs+0x11a>
     b26:	00 e0       	ldi	r16, 0x00	; 0
     b28:	10 e0       	ldi	r17, 0x00	; 0
     b2a:	02 c0       	rjmp	.+4      	; 0xb30 <check_fs+0x11a>
     b2c:	03 e0       	ldi	r16, 0x03	; 3
     b2e:	10 e0       	ldi	r17, 0x00	; 0
     b30:	c8 01       	movw	r24, r16
     b32:	df 91       	pop	r29
     b34:	cf 91       	pop	r28
     b36:	1f 91       	pop	r17
     b38:	0f 91       	pop	r16
     b3a:	ff 90       	pop	r15
     b3c:	ef 90       	pop	r14
     b3e:	08 95       	ret

00000b40 <find_volume>:
     b40:	cf 92       	push	r12
     b42:	df 92       	push	r13
     b44:	ef 92       	push	r14
     b46:	ff 92       	push	r15
     b48:	0f 93       	push	r16
     b4a:	1f 93       	push	r17
     b4c:	cf 93       	push	r28
     b4e:	df 93       	push	r29
     b50:	cd b7       	in	r28, 0x3d	; 61
     b52:	de b7       	in	r29, 0x3e	; 62
     b54:	60 97       	sbiw	r28, 0x10	; 16
     b56:	0f b6       	in	r0, 0x3f	; 63
     b58:	f8 94       	cli
     b5a:	de bf       	out	0x3e, r29	; 62
     b5c:	0f be       	out	0x3f, r0	; 63
     b5e:	cd bf       	out	0x3d, r28	; 61
     b60:	6c 01       	movw	r12, r24
     b62:	7b 01       	movw	r14, r22
     b64:	40 e0       	ldi	r20, 0x00	; 0
     b66:	50 e0       	ldi	r21, 0x00	; 0
     b68:	ba 01       	movw	r22, r20
     b6a:	55 df       	rcall	.-342    	; 0xa16 <check_fs>
     b6c:	82 30       	cpi	r24, 0x02	; 2
     b6e:	91 05       	cpc	r25, r1
     b70:	51 f1       	breq	.+84     	; 0xbc6 <find_volume+0x86>
     b72:	08 f0       	brcs	.+2      	; 0xb76 <find_volume+0x36>
     b74:	5a c0       	rjmp	.+180    	; 0xc2a <find_volume+0xea>
     b76:	e1 14       	cp	r14, r1
     b78:	f1 04       	cpc	r15, r1
     b7a:	09 f4       	brne	.+2      	; 0xb7e <find_volume+0x3e>
     b7c:	56 c0       	rjmp	.+172    	; 0xc2a <find_volume+0xea>
     b7e:	00 e0       	ldi	r16, 0x00	; 0
     b80:	10 e0       	ldi	r17, 0x00	; 0
     b82:	23 c0       	rjmp	.+70     	; 0xbca <find_volume+0x8a>
     b84:	c8 01       	movw	r24, r16
     b86:	82 95       	swap	r24
     b88:	92 95       	swap	r25
     b8a:	90 7f       	andi	r25, 0xF0	; 240
     b8c:	98 27       	eor	r25, r24
     b8e:	80 7f       	andi	r24, 0xF0	; 240
     b90:	98 27       	eor	r25, r24
     b92:	8a 53       	subi	r24, 0x3A	; 58
     b94:	9e 4f       	sbci	r25, 0xFE	; 254
     b96:	96 01       	movw	r18, r12
     b98:	2d 5c       	subi	r18, 0xCD	; 205
     b9a:	3f 4f       	sbci	r19, 0xFF	; 255
     b9c:	82 0f       	add	r24, r18
     b9e:	93 1f       	adc	r25, r19
     ba0:	69 dd       	rcall	.-1326   	; 0x674 <ld_dword>
     ba2:	f8 01       	movw	r30, r16
     ba4:	ee 0f       	add	r30, r30
     ba6:	ff 1f       	adc	r31, r31
     ba8:	ee 0f       	add	r30, r30
     baa:	ff 1f       	adc	r31, r31
     bac:	21 e0       	ldi	r18, 0x01	; 1
     bae:	30 e0       	ldi	r19, 0x00	; 0
     bb0:	2c 0f       	add	r18, r28
     bb2:	3d 1f       	adc	r19, r29
     bb4:	e2 0f       	add	r30, r18
     bb6:	f3 1f       	adc	r31, r19
     bb8:	60 83       	st	Z, r22
     bba:	71 83       	std	Z+1, r23	; 0x01
     bbc:	82 83       	std	Z+2, r24	; 0x02
     bbe:	93 83       	std	Z+3, r25	; 0x03
     bc0:	0f 5f       	subi	r16, 0xFF	; 255
     bc2:	1f 4f       	sbci	r17, 0xFF	; 255
     bc4:	02 c0       	rjmp	.+4      	; 0xbca <find_volume+0x8a>
     bc6:	00 e0       	ldi	r16, 0x00	; 0
     bc8:	10 e0       	ldi	r17, 0x00	; 0
     bca:	04 30       	cpi	r16, 0x04	; 4
     bcc:	11 05       	cpc	r17, r1
     bce:	d0 f2       	brcs	.-76     	; 0xb84 <find_volume+0x44>
     bd0:	e1 14       	cp	r14, r1
     bd2:	f1 04       	cpc	r15, r1
     bd4:	21 f0       	breq	.+8      	; 0xbde <find_volume+0x9e>
     bd6:	87 01       	movw	r16, r14
     bd8:	01 50       	subi	r16, 0x01	; 1
     bda:	11 09       	sbc	r17, r1
     bdc:	02 c0       	rjmp	.+4      	; 0xbe2 <find_volume+0xa2>
     bde:	00 e0       	ldi	r16, 0x00	; 0
     be0:	10 e0       	ldi	r17, 0x00	; 0
     be2:	f8 01       	movw	r30, r16
     be4:	ee 0f       	add	r30, r30
     be6:	ff 1f       	adc	r31, r31
     be8:	ee 0f       	add	r30, r30
     bea:	ff 1f       	adc	r31, r31
     bec:	81 e0       	ldi	r24, 0x01	; 1
     bee:	90 e0       	ldi	r25, 0x00	; 0
     bf0:	8c 0f       	add	r24, r28
     bf2:	9d 1f       	adc	r25, r29
     bf4:	e8 0f       	add	r30, r24
     bf6:	f9 1f       	adc	r31, r25
     bf8:	40 81       	ld	r20, Z
     bfa:	51 81       	ldd	r21, Z+1	; 0x01
     bfc:	62 81       	ldd	r22, Z+2	; 0x02
     bfe:	73 81       	ldd	r23, Z+3	; 0x03
     c00:	41 15       	cp	r20, r1
     c02:	51 05       	cpc	r21, r1
     c04:	61 05       	cpc	r22, r1
     c06:	71 05       	cpc	r23, r1
     c08:	19 f0       	breq	.+6      	; 0xc10 <find_volume+0xd0>
     c0a:	c6 01       	movw	r24, r12
     c0c:	04 df       	rcall	.-504    	; 0xa16 <check_fs>
     c0e:	02 c0       	rjmp	.+4      	; 0xc14 <find_volume+0xd4>
     c10:	83 e0       	ldi	r24, 0x03	; 3
     c12:	90 e0       	ldi	r25, 0x00	; 0
     c14:	e1 14       	cp	r14, r1
     c16:	f1 04       	cpc	r15, r1
     c18:	41 f4       	brne	.+16     	; 0xc2a <find_volume+0xea>
     c1a:	82 30       	cpi	r24, 0x02	; 2
     c1c:	91 05       	cpc	r25, r1
     c1e:	28 f0       	brcs	.+10     	; 0xc2a <find_volume+0xea>
     c20:	0f 5f       	subi	r16, 0xFF	; 255
     c22:	1f 4f       	sbci	r17, 0xFF	; 255
     c24:	04 30       	cpi	r16, 0x04	; 4
     c26:	11 05       	cpc	r17, r1
     c28:	e0 f2       	brcs	.-72     	; 0xbe2 <find_volume+0xa2>
     c2a:	60 96       	adiw	r28, 0x10	; 16
     c2c:	0f b6       	in	r0, 0x3f	; 63
     c2e:	f8 94       	cli
     c30:	de bf       	out	0x3e, r29	; 62
     c32:	0f be       	out	0x3f, r0	; 63
     c34:	cd bf       	out	0x3d, r28	; 61
     c36:	df 91       	pop	r29
     c38:	cf 91       	pop	r28
     c3a:	1f 91       	pop	r17
     c3c:	0f 91       	pop	r16
     c3e:	ff 90       	pop	r15
     c40:	ef 90       	pop	r14
     c42:	df 90       	pop	r13
     c44:	cf 90       	pop	r12
     c46:	08 95       	ret

00000c48 <mount_volume>:
     c48:	2f 92       	push	r2
     c4a:	3f 92       	push	r3
     c4c:	4f 92       	push	r4
     c4e:	5f 92       	push	r5
     c50:	6f 92       	push	r6
     c52:	7f 92       	push	r7
     c54:	8f 92       	push	r8
     c56:	9f 92       	push	r9
     c58:	af 92       	push	r10
     c5a:	bf 92       	push	r11
     c5c:	cf 92       	push	r12
     c5e:	df 92       	push	r13
     c60:	ef 92       	push	r14
     c62:	ff 92       	push	r15
     c64:	0f 93       	push	r16
     c66:	1f 93       	push	r17
     c68:	cf 93       	push	r28
     c6a:	df 93       	push	r29
     c6c:	cd b7       	in	r28, 0x3d	; 61
     c6e:	de b7       	in	r29, 0x3e	; 62
     c70:	2e 97       	sbiw	r28, 0x0e	; 14
     c72:	0f b6       	in	r0, 0x3f	; 63
     c74:	f8 94       	cli
     c76:	de bf       	out	0x3e, r29	; 62
     c78:	0f be       	out	0x3f, r0	; 63
     c7a:	cd bf       	out	0x3d, r28	; 61
     c7c:	7b 01       	movw	r14, r22
     c7e:	d4 2e       	mov	r13, r20
     c80:	db 01       	movw	r26, r22
     c82:	1d 92       	st	X+, r1
     c84:	1c 92       	st	X, r1
     c86:	c7 dd       	rcall	.-1138   	; 0x816 <get_ldnumber>
     c88:	8c 01       	movw	r16, r24
     c8a:	99 23       	and	r25, r25
     c8c:	0c f4       	brge	.+2      	; 0xc90 <mount_volume+0x48>
     c8e:	17 c2       	rjmp	.+1070   	; 0x10be <mount_volume+0x476>
     c90:	fc 01       	movw	r30, r24
     c92:	ee 0f       	add	r30, r30
     c94:	ff 1f       	adc	r31, r31
     c96:	e0 52       	subi	r30, 0x20	; 32
     c98:	fa 4f       	sbci	r31, 0xFA	; 250
     c9a:	20 81       	ld	r18, Z
     c9c:	31 81       	ldd	r19, Z+1	; 0x01
     c9e:	3e 87       	std	Y+14, r19	; 0x0e
     ca0:	2d 87       	std	Y+13, r18	; 0x0d
     ca2:	21 15       	cp	r18, r1
     ca4:	31 05       	cpc	r19, r1
     ca6:	09 f4       	brne	.+2      	; 0xcaa <mount_volume+0x62>
     ca8:	0c c2       	rjmp	.+1048   	; 0x10c2 <mount_volume+0x47a>
     caa:	d7 01       	movw	r26, r14
     cac:	2d 93       	st	X+, r18
     cae:	3c 93       	st	X, r19
     cb0:	bd 2d       	mov	r27, r13
     cb2:	be 7f       	andi	r27, 0xFE	; 254
     cb4:	db 2e       	mov	r13, r27
     cb6:	f9 01       	movw	r30, r18
     cb8:	80 81       	ld	r24, Z
     cba:	88 23       	and	r24, r24
     cbc:	59 f0       	breq	.+22     	; 0xcd4 <mount_volume+0x8c>
     cbe:	81 81       	ldd	r24, Z+1	; 0x01
     cc0:	95 dc       	rcall	.-1750   	; 0x5ec <disk_status>
     cc2:	80 fd       	sbrc	r24, 0
     cc4:	07 c0       	rjmp	.+14     	; 0xcd4 <mount_volume+0x8c>
     cc6:	dd 20       	and	r13, r13
     cc8:	09 f4       	brne	.+2      	; 0xccc <mount_volume+0x84>
     cca:	fd c1       	rjmp	.+1018   	; 0x10c6 <mount_volume+0x47e>
     ccc:	82 fd       	sbrc	r24, 2
     cce:	fd c1       	rjmp	.+1018   	; 0x10ca <mount_volume+0x482>
     cd0:	80 e0       	ldi	r24, 0x00	; 0
     cd2:	1e c2       	rjmp	.+1084   	; 0x1110 <mount_volume+0x4c8>
     cd4:	ad 85       	ldd	r26, Y+13	; 0x0d
     cd6:	be 85       	ldd	r27, Y+14	; 0x0e
     cd8:	1c 92       	st	X, r1
     cda:	11 96       	adiw	r26, 0x01	; 1
     cdc:	0c 93       	st	X, r16
     cde:	80 2f       	mov	r24, r16
     ce0:	8c dc       	rcall	.-1768   	; 0x5fa <disk_initialize>
     ce2:	80 fd       	sbrc	r24, 0
     ce4:	f4 c1       	rjmp	.+1000   	; 0x10ce <mount_volume+0x486>
     ce6:	dd 20       	and	r13, r13
     ce8:	11 f0       	breq	.+4      	; 0xcee <mount_volume+0xa6>
     cea:	82 fd       	sbrc	r24, 2
     cec:	f2 c1       	rjmp	.+996    	; 0x10d2 <mount_volume+0x48a>
     cee:	60 e0       	ldi	r22, 0x00	; 0
     cf0:	70 e0       	ldi	r23, 0x00	; 0
     cf2:	8d 85       	ldd	r24, Y+13	; 0x0d
     cf4:	9e 85       	ldd	r25, Y+14	; 0x0e
     cf6:	24 df       	rcall	.-440    	; 0xb40 <find_volume>
     cf8:	84 30       	cpi	r24, 0x04	; 4
     cfa:	91 05       	cpc	r25, r1
     cfc:	09 f4       	brne	.+2      	; 0xd00 <mount_volume+0xb8>
     cfe:	eb c1       	rjmp	.+982    	; 0x10d6 <mount_volume+0x48e>
     d00:	02 97       	sbiw	r24, 0x02	; 2
     d02:	08 f0       	brcs	.+2      	; 0xd06 <mount_volume+0xbe>
     d04:	ea c1       	rjmp	.+980    	; 0x10da <mount_volume+0x492>
     d06:	ed 85       	ldd	r30, Y+13	; 0x0d
     d08:	fe 85       	ldd	r31, Y+14	; 0x0e
     d0a:	47 a4       	ldd	r4, Z+47	; 0x2f
     d0c:	50 a8       	ldd	r5, Z+48	; 0x30
     d0e:	61 a8       	ldd	r6, Z+49	; 0x31
     d10:	72 a8       	ldd	r7, Z+50	; 0x32
     d12:	cf 01       	movw	r24, r30
     d14:	ce 96       	adiw	r24, 0x3e	; 62
     d16:	a4 dc       	rcall	.-1720   	; 0x660 <ld_word>
     d18:	81 15       	cp	r24, r1
     d1a:	92 40       	sbci	r25, 0x02	; 2
     d1c:	09 f0       	breq	.+2      	; 0xd20 <mount_volume+0xd8>
     d1e:	df c1       	rjmp	.+958    	; 0x10de <mount_volume+0x496>
     d20:	8d 85       	ldd	r24, Y+13	; 0x0d
     d22:	9e 85       	ldd	r25, Y+14	; 0x0e
     d24:	87 5b       	subi	r24, 0xB7	; 183
     d26:	9f 4f       	sbci	r25, 0xFF	; 255
     d28:	9b dc       	rcall	.-1738   	; 0x660 <ld_word>
     d2a:	4c 01       	movw	r8, r24
     d2c:	a1 2c       	mov	r10, r1
     d2e:	b1 2c       	mov	r11, r1
     d30:	81 14       	cp	r8, r1
     d32:	91 04       	cpc	r9, r1
     d34:	a1 04       	cpc	r10, r1
     d36:	b1 04       	cpc	r11, r1
     d38:	39 f4       	brne	.+14     	; 0xd48 <mount_volume+0x100>
     d3a:	8d 85       	ldd	r24, Y+13	; 0x0d
     d3c:	9e 85       	ldd	r25, Y+14	; 0x0e
     d3e:	89 5a       	subi	r24, 0xA9	; 169
     d40:	9f 4f       	sbci	r25, 0xFF	; 255
     d42:	98 dc       	rcall	.-1744   	; 0x674 <ld_dword>
     d44:	4b 01       	movw	r8, r22
     d46:	5c 01       	movw	r10, r24
     d48:	ad 85       	ldd	r26, Y+13	; 0x0d
     d4a:	be 85       	ldd	r27, Y+14	; 0x0e
     d4c:	5b 96       	adiw	r26, 0x1b	; 27
     d4e:	8d 92       	st	X+, r8
     d50:	9d 92       	st	X+, r9
     d52:	ad 92       	st	X+, r10
     d54:	bc 92       	st	X, r11
     d56:	5e 97       	sbiw	r26, 0x1e	; 30
     d58:	fd 01       	movw	r30, r26
     d5a:	ed 5b       	subi	r30, 0xBD	; 189
     d5c:	ff 4f       	sbci	r31, 0xFF	; 255
     d5e:	a0 81       	ld	r26, Z
     d60:	ed 85       	ldd	r30, Y+13	; 0x0d
     d62:	fe 85       	ldd	r31, Y+14	; 0x0e
     d64:	a2 83       	std	Z+2, r26	; 0x02
     d66:	8f ef       	ldi	r24, 0xFF	; 255
     d68:	8a 0f       	add	r24, r26
     d6a:	82 30       	cpi	r24, 0x02	; 2
     d6c:	08 f0       	brcs	.+2      	; 0xd70 <mount_volume+0x128>
     d6e:	b9 c1       	rjmp	.+882    	; 0x10e2 <mount_volume+0x49a>
     d70:	b0 e0       	ldi	r27, 0x00	; 0
     d72:	a5 01       	movw	r20, r10
     d74:	94 01       	movw	r18, r8
     d76:	0e 94 de 30 	call	0x61bc	; 0x61bc <__muluhisi3>
     d7a:	6d 83       	std	Y+5, r22	; 0x05
     d7c:	7e 83       	std	Y+6, r23	; 0x06
     d7e:	8f 83       	std	Y+7, r24	; 0x07
     d80:	98 87       	std	Y+8, r25	; 0x08
     d82:	e0 5c       	subi	r30, 0xC0	; 192
     d84:	ff 4f       	sbci	r31, 0xFF	; 255
     d86:	00 81       	ld	r16, Z
     d88:	10 e0       	ldi	r17, 0x00	; 0
     d8a:	ad 85       	ldd	r26, Y+13	; 0x0d
     d8c:	be 85       	ldd	r27, Y+14	; 0x0e
     d8e:	1a 96       	adiw	r26, 0x0a	; 10
     d90:	1c 93       	st	X, r17
     d92:	0e 93       	st	-X, r16
     d94:	19 97       	sbiw	r26, 0x09	; 9
     d96:	01 15       	cp	r16, r1
     d98:	11 05       	cpc	r17, r1
     d9a:	09 f4       	brne	.+2      	; 0xd9e <mount_volume+0x156>
     d9c:	a4 c1       	rjmp	.+840    	; 0x10e6 <mount_volume+0x49e>
     d9e:	c8 01       	movw	r24, r16
     da0:	01 97       	sbiw	r24, 0x01	; 1
     da2:	80 23       	and	r24, r16
     da4:	91 23       	and	r25, r17
     da6:	89 2b       	or	r24, r25
     da8:	09 f0       	breq	.+2      	; 0xdac <mount_volume+0x164>
     daa:	9f c1       	rjmp	.+830    	; 0x10ea <mount_volume+0x4a2>
     dac:	cd 01       	movw	r24, r26
     dae:	8c 5b       	subi	r24, 0xBC	; 188
     db0:	9f 4f       	sbci	r25, 0xFF	; 255
     db2:	56 dc       	rcall	.-1876   	; 0x660 <ld_word>
     db4:	1c 01       	movw	r2, r24
     db6:	ed 85       	ldd	r30, Y+13	; 0x0d
     db8:	fe 85       	ldd	r31, Y+14	; 0x0e
     dba:	90 87       	std	Z+8, r25	; 0x08
     dbc:	87 83       	std	Z+7, r24	; 0x07
     dbe:	8f 70       	andi	r24, 0x0F	; 15
     dc0:	99 27       	eor	r25, r25
     dc2:	89 2b       	or	r24, r25
     dc4:	09 f0       	breq	.+2      	; 0xdc8 <mount_volume+0x180>
     dc6:	93 c1       	rjmp	.+806    	; 0x10ee <mount_volume+0x4a6>
     dc8:	cf 01       	movw	r24, r30
     dca:	8a 5b       	subi	r24, 0xBA	; 186
     dcc:	9f 4f       	sbci	r25, 0xFF	; 255
     dce:	48 dc       	rcall	.-1904   	; 0x660 <ld_word>
     dd0:	6c 01       	movw	r12, r24
     dd2:	e1 2c       	mov	r14, r1
     dd4:	f1 2c       	mov	r15, r1
     dd6:	c1 14       	cp	r12, r1
     dd8:	d1 04       	cpc	r13, r1
     dda:	e1 04       	cpc	r14, r1
     ddc:	f1 04       	cpc	r15, r1
     dde:	39 f4       	brne	.+14     	; 0xdee <mount_volume+0x1a6>
     de0:	8d 85       	ldd	r24, Y+13	; 0x0d
     de2:	9e 85       	ldd	r25, Y+14	; 0x0e
     de4:	8d 5a       	subi	r24, 0xAD	; 173
     de6:	9f 4f       	sbci	r25, 0xFF	; 255
     de8:	45 dc       	rcall	.-1910   	; 0x674 <ld_dword>
     dea:	6b 01       	movw	r12, r22
     dec:	7c 01       	movw	r14, r24
     dee:	8d 85       	ldd	r24, Y+13	; 0x0d
     df0:	9e 85       	ldd	r25, Y+14	; 0x0e
     df2:	8f 5b       	subi	r24, 0xBF	; 191
     df4:	9f 4f       	sbci	r25, 0xFF	; 255
     df6:	34 dc       	rcall	.-1944   	; 0x660 <ld_word>
     df8:	00 97       	sbiw	r24, 0x00	; 0
     dfa:	09 f4       	brne	.+2      	; 0xdfe <mount_volume+0x1b6>
     dfc:	7a c1       	rjmp	.+756    	; 0x10f2 <mount_volume+0x4aa>
     dfe:	9c 01       	movw	r18, r24
     e00:	40 e0       	ldi	r20, 0x00	; 0
     e02:	50 e0       	ldi	r21, 0x00	; 0
     e04:	29 87       	std	Y+9, r18	; 0x09
     e06:	3a 87       	std	Y+10, r19	; 0x0a
     e08:	4b 87       	std	Y+11, r20	; 0x0b
     e0a:	5c 87       	std	Y+12, r21	; 0x0c
     e0c:	8d 81       	ldd	r24, Y+5	; 0x05
     e0e:	9e 81       	ldd	r25, Y+6	; 0x06
     e10:	af 81       	ldd	r26, Y+7	; 0x07
     e12:	b8 85       	ldd	r27, Y+8	; 0x08
     e14:	82 0f       	add	r24, r18
     e16:	93 1f       	adc	r25, r19
     e18:	a4 1f       	adc	r26, r20
     e1a:	b5 1f       	adc	r27, r21
     e1c:	91 01       	movw	r18, r2
     e1e:	32 95       	swap	r19
     e20:	22 95       	swap	r18
     e22:	2f 70       	andi	r18, 0x0F	; 15
     e24:	23 27       	eor	r18, r19
     e26:	3f 70       	andi	r19, 0x0F	; 15
     e28:	23 27       	eor	r18, r19
     e2a:	ac 01       	movw	r20, r24
     e2c:	bd 01       	movw	r22, r26
     e2e:	42 0f       	add	r20, r18
     e30:	53 1f       	adc	r21, r19
     e32:	61 1d       	adc	r22, r1
     e34:	71 1d       	adc	r23, r1
     e36:	49 83       	std	Y+1, r20	; 0x01
     e38:	5a 83       	std	Y+2, r21	; 0x02
     e3a:	6b 83       	std	Y+3, r22	; 0x03
     e3c:	7c 83       	std	Y+4, r23	; 0x04
     e3e:	c4 16       	cp	r12, r20
     e40:	d5 06       	cpc	r13, r21
     e42:	e6 06       	cpc	r14, r22
     e44:	f7 06       	cpc	r15, r23
     e46:	08 f4       	brcc	.+2      	; 0xe4a <mount_volume+0x202>
     e48:	56 c1       	rjmp	.+684    	; 0x10f6 <mount_volume+0x4ae>
     e4a:	c7 01       	movw	r24, r14
     e4c:	b6 01       	movw	r22, r12
     e4e:	29 81       	ldd	r18, Y+1	; 0x01
     e50:	3a 81       	ldd	r19, Y+2	; 0x02
     e52:	4b 81       	ldd	r20, Y+3	; 0x03
     e54:	5c 81       	ldd	r21, Y+4	; 0x04
     e56:	62 1b       	sub	r22, r18
     e58:	73 0b       	sbc	r23, r19
     e5a:	84 0b       	sbc	r24, r20
     e5c:	95 0b       	sbc	r25, r21
     e5e:	98 01       	movw	r18, r16
     e60:	40 e0       	ldi	r20, 0x00	; 0
     e62:	50 e0       	ldi	r21, 0x00	; 0
     e64:	0e 94 ad 30 	call	0x615a	; 0x615a <__udivmodsi4>
     e68:	da 01       	movw	r26, r20
     e6a:	c9 01       	movw	r24, r18
     e6c:	21 15       	cp	r18, r1
     e6e:	31 05       	cpc	r19, r1
     e70:	41 05       	cpc	r20, r1
     e72:	51 05       	cpc	r21, r1
     e74:	09 f4       	brne	.+2      	; 0xe78 <mount_volume+0x230>
     e76:	41 c1       	rjmp	.+642    	; 0x10fa <mount_volume+0x4b2>
     e78:	26 3f       	cpi	r18, 0xF6	; 246
     e7a:	6f ef       	ldi	r22, 0xFF	; 255
     e7c:	36 07       	cpc	r19, r22
     e7e:	46 07       	cpc	r20, r22
     e80:	6f e0       	ldi	r22, 0x0F	; 15
     e82:	56 07       	cpc	r21, r22
     e84:	18 f0       	brcs	.+6      	; 0xe8c <mount_volume+0x244>
     e86:	00 e0       	ldi	r16, 0x00	; 0
     e88:	10 e0       	ldi	r17, 0x00	; 0
     e8a:	02 c0       	rjmp	.+4      	; 0xe90 <mount_volume+0x248>
     e8c:	03 e0       	ldi	r16, 0x03	; 3
     e8e:	10 e0       	ldi	r17, 0x00	; 0
     e90:	86 3f       	cpi	r24, 0xF6	; 246
     e92:	7f ef       	ldi	r23, 0xFF	; 255
     e94:	97 07       	cpc	r25, r23
     e96:	a1 05       	cpc	r26, r1
     e98:	b1 05       	cpc	r27, r1
     e9a:	10 f4       	brcc	.+4      	; 0xea0 <mount_volume+0x258>
     e9c:	02 e0       	ldi	r16, 0x02	; 2
     e9e:	10 e0       	ldi	r17, 0x00	; 0
     ea0:	86 3f       	cpi	r24, 0xF6	; 246
     ea2:	9f 40       	sbci	r25, 0x0F	; 15
     ea4:	a1 05       	cpc	r26, r1
     ea6:	b1 05       	cpc	r27, r1
     ea8:	10 f4       	brcc	.+4      	; 0xeae <mount_volume+0x266>
     eaa:	01 e0       	ldi	r16, 0x01	; 1
     eac:	10 e0       	ldi	r17, 0x00	; 0
     eae:	01 15       	cp	r16, r1
     eb0:	11 05       	cpc	r17, r1
     eb2:	09 f4       	brne	.+2      	; 0xeb6 <mount_volume+0x26e>
     eb4:	24 c1       	rjmp	.+584    	; 0x10fe <mount_volume+0x4b6>
     eb6:	69 01       	movw	r12, r18
     eb8:	7a 01       	movw	r14, r20
     eba:	f2 e0       	ldi	r31, 0x02	; 2
     ebc:	cf 0e       	add	r12, r31
     ebe:	d1 1c       	adc	r13, r1
     ec0:	e1 1c       	adc	r14, r1
     ec2:	f1 1c       	adc	r15, r1
     ec4:	ad 85       	ldd	r26, Y+13	; 0x0d
     ec6:	be 85       	ldd	r27, Y+14	; 0x0e
     ec8:	57 96       	adiw	r26, 0x17	; 23
     eca:	cd 92       	st	X+, r12
     ecc:	dd 92       	st	X+, r13
     ece:	ed 92       	st	X+, r14
     ed0:	fc 92       	st	X, r15
     ed2:	5a 97       	sbiw	r26, 0x1a	; 26
     ed4:	fd 01       	movw	r30, r26
     ed6:	47 8e       	std	Z+31, r4	; 0x1f
     ed8:	50 a2       	std	Z+32, r5	; 0x20
     eda:	61 a2       	std	Z+33, r6	; 0x21
     edc:	72 a2       	std	Z+34, r7	; 0x22
     ede:	89 85       	ldd	r24, Y+9	; 0x09
     ee0:	9a 85       	ldd	r25, Y+10	; 0x0a
     ee2:	ab 85       	ldd	r26, Y+11	; 0x0b
     ee4:	bc 85       	ldd	r27, Y+12	; 0x0c
     ee6:	84 0d       	add	r24, r4
     ee8:	95 1d       	adc	r25, r5
     eea:	a6 1d       	adc	r26, r6
     eec:	b7 1d       	adc	r27, r7
     eee:	83 a3       	std	Z+35, r24	; 0x23
     ef0:	94 a3       	std	Z+36, r25	; 0x24
     ef2:	a5 a3       	std	Z+37, r26	; 0x25
     ef4:	b6 a3       	std	Z+38, r27	; 0x26
     ef6:	49 81       	ldd	r20, Y+1	; 0x01
     ef8:	5a 81       	ldd	r21, Y+2	; 0x02
     efa:	6b 81       	ldd	r22, Y+3	; 0x03
     efc:	7c 81       	ldd	r23, Y+4	; 0x04
     efe:	44 0d       	add	r20, r4
     f00:	55 1d       	adc	r21, r5
     f02:	66 1d       	adc	r22, r6
     f04:	77 1d       	adc	r23, r7
     f06:	43 a7       	std	Z+43, r20	; 0x2b
     f08:	54 a7       	std	Z+44, r21	; 0x2c
     f0a:	65 a7       	std	Z+45, r22	; 0x2d
     f0c:	76 a7       	std	Z+46, r23	; 0x2e
     f0e:	03 30       	cpi	r16, 0x03	; 3
     f10:	11 05       	cpc	r17, r1
     f12:	01 f5       	brne	.+64     	; 0xf54 <mount_volume+0x30c>
     f14:	cf 01       	movw	r24, r30
     f16:	83 5a       	subi	r24, 0xA3	; 163
     f18:	9f 4f       	sbci	r25, 0xFF	; 255
     f1a:	a2 db       	rcall	.-2236   	; 0x660 <ld_word>
     f1c:	89 2b       	or	r24, r25
     f1e:	09 f0       	breq	.+2      	; 0xf22 <mount_volume+0x2da>
     f20:	f0 c0       	rjmp	.+480    	; 0x1102 <mount_volume+0x4ba>
     f22:	23 28       	or	r2, r3
     f24:	09 f0       	breq	.+2      	; 0xf28 <mount_volume+0x2e0>
     f26:	ef c0       	rjmp	.+478    	; 0x1106 <mount_volume+0x4be>
     f28:	8d 85       	ldd	r24, Y+13	; 0x0d
     f2a:	9e 85       	ldd	r25, Y+14	; 0x0e
     f2c:	81 5a       	subi	r24, 0xA1	; 161
     f2e:	9f 4f       	sbci	r25, 0xFF	; 255
     f30:	a1 db       	rcall	.-2238   	; 0x674 <ld_dword>
     f32:	ad 85       	ldd	r26, Y+13	; 0x0d
     f34:	be 85       	ldd	r27, Y+14	; 0x0e
     f36:	97 96       	adiw	r26, 0x27	; 39
     f38:	6d 93       	st	X+, r22
     f3a:	7d 93       	st	X+, r23
     f3c:	8d 93       	st	X+, r24
     f3e:	9c 93       	st	X, r25
     f40:	9a 97       	sbiw	r26, 0x2a	; 42
     f42:	cc 0c       	add	r12, r12
     f44:	dd 1c       	adc	r13, r13
     f46:	ee 1c       	adc	r14, r14
     f48:	ff 1c       	adc	r15, r15
     f4a:	cc 0c       	add	r12, r12
     f4c:	dd 1c       	adc	r13, r13
     f4e:	ee 1c       	adc	r14, r14
     f50:	ff 1c       	adc	r15, r15
     f52:	2e c0       	rjmp	.+92     	; 0xfb0 <mount_volume+0x368>
     f54:	23 28       	or	r2, r3
     f56:	09 f4       	brne	.+2      	; 0xf5a <mount_volume+0x312>
     f58:	d8 c0       	rjmp	.+432    	; 0x110a <mount_volume+0x4c2>
     f5a:	2d 81       	ldd	r18, Y+5	; 0x05
     f5c:	3e 81       	ldd	r19, Y+6	; 0x06
     f5e:	4f 81       	ldd	r20, Y+7	; 0x07
     f60:	58 85       	ldd	r21, Y+8	; 0x08
     f62:	82 0f       	add	r24, r18
     f64:	93 1f       	adc	r25, r19
     f66:	a4 1f       	adc	r26, r20
     f68:	b5 1f       	adc	r27, r21
     f6a:	ed 85       	ldd	r30, Y+13	; 0x0d
     f6c:	fe 85       	ldd	r31, Y+14	; 0x0e
     f6e:	87 a3       	std	Z+39, r24	; 0x27
     f70:	90 a7       	std	Z+40, r25	; 0x28
     f72:	a1 a7       	std	Z+41, r26	; 0x29
     f74:	b2 a7       	std	Z+42, r27	; 0x2a
     f76:	02 30       	cpi	r16, 0x02	; 2
     f78:	11 05       	cpc	r17, r1
     f7a:	29 f4       	brne	.+10     	; 0xf86 <mount_volume+0x33e>
     f7c:	cc 0c       	add	r12, r12
     f7e:	dd 1c       	adc	r13, r13
     f80:	ee 1c       	adc	r14, r14
     f82:	ff 1c       	adc	r15, r15
     f84:	15 c0       	rjmp	.+42     	; 0xfb0 <mount_volume+0x368>
     f86:	a3 e0       	ldi	r26, 0x03	; 3
     f88:	b0 e0       	ldi	r27, 0x00	; 0
     f8a:	a7 01       	movw	r20, r14
     f8c:	96 01       	movw	r18, r12
     f8e:	0e 94 de 30 	call	0x61bc	; 0x61bc <__muluhisi3>
     f92:	dc 01       	movw	r26, r24
     f94:	cb 01       	movw	r24, r22
     f96:	b6 95       	lsr	r27
     f98:	a7 95       	ror	r26
     f9a:	97 95       	ror	r25
     f9c:	87 95       	ror	r24
     f9e:	f1 e0       	ldi	r31, 0x01	; 1
     fa0:	cf 22       	and	r12, r31
     fa2:	dd 24       	eor	r13, r13
     fa4:	ee 24       	eor	r14, r14
     fa6:	ff 24       	eor	r15, r15
     fa8:	c8 0e       	add	r12, r24
     faa:	d9 1e       	adc	r13, r25
     fac:	ea 1e       	adc	r14, r26
     fae:	fb 1e       	adc	r15, r27
     fb0:	2f ef       	ldi	r18, 0xFF	; 255
     fb2:	c2 0e       	add	r12, r18
     fb4:	21 e0       	ldi	r18, 0x01	; 1
     fb6:	d2 1e       	adc	r13, r18
     fb8:	e1 1c       	adc	r14, r1
     fba:	f1 1c       	adc	r15, r1
     fbc:	0b 2e       	mov	r0, r27
     fbe:	b9 e0       	ldi	r27, 0x09	; 9
     fc0:	f6 94       	lsr	r15
     fc2:	e7 94       	ror	r14
     fc4:	d7 94       	ror	r13
     fc6:	c7 94       	ror	r12
     fc8:	ba 95       	dec	r27
     fca:	d1 f7       	brne	.-12     	; 0xfc0 <mount_volume+0x378>
     fcc:	b0 2d       	mov	r27, r0
     fce:	8c 14       	cp	r8, r12
     fd0:	9d 04       	cpc	r9, r13
     fd2:	ae 04       	cpc	r10, r14
     fd4:	bf 04       	cpc	r11, r15
     fd6:	08 f4       	brcc	.+2      	; 0xfda <mount_volume+0x392>
     fd8:	9a c0       	rjmp	.+308    	; 0x110e <mount_volume+0x4c6>
     fda:	8f ef       	ldi	r24, 0xFF	; 255
     fdc:	9f ef       	ldi	r25, 0xFF	; 255
     fde:	dc 01       	movw	r26, r24
     fe0:	ed 85       	ldd	r30, Y+13	; 0x0d
     fe2:	fe 85       	ldd	r31, Y+14	; 0x0e
     fe4:	87 87       	std	Z+15, r24	; 0x0f
     fe6:	90 8b       	std	Z+16, r25	; 0x10
     fe8:	a1 8b       	std	Z+17, r26	; 0x11
     fea:	b2 8b       	std	Z+18, r27	; 0x12
     fec:	83 87       	std	Z+11, r24	; 0x0b
     fee:	94 87       	std	Z+12, r25	; 0x0c
     ff0:	a5 87       	std	Z+13, r26	; 0x0d
     ff2:	b6 87       	std	Z+14, r27	; 0x0e
     ff4:	80 e8       	ldi	r24, 0x80	; 128
     ff6:	84 83       	std	Z+4, r24	; 0x04
     ff8:	03 30       	cpi	r16, 0x03	; 3
     ffa:	11 05       	cpc	r17, r1
     ffc:	09 f0       	breq	.+2      	; 0x1000 <mount_volume+0x3b8>
     ffe:	48 c0       	rjmp	.+144    	; 0x1090 <mount_volume+0x448>
    1000:	cf 01       	movw	r24, r30
    1002:	8d 59       	subi	r24, 0x9D	; 157
    1004:	9f 4f       	sbci	r25, 0xFF	; 255
    1006:	2c db       	rcall	.-2472   	; 0x660 <ld_word>
    1008:	01 97       	sbiw	r24, 0x01	; 1
    100a:	09 f0       	breq	.+2      	; 0x100e <mount_volume+0x3c6>
    100c:	41 c0       	rjmp	.+130    	; 0x1090 <mount_volume+0x448>
    100e:	b3 01       	movw	r22, r6
    1010:	a2 01       	movw	r20, r4
    1012:	4f 5f       	subi	r20, 0xFF	; 255
    1014:	5f 4f       	sbci	r21, 0xFF	; 255
    1016:	6f 4f       	sbci	r22, 0xFF	; 255
    1018:	7f 4f       	sbci	r23, 0xFF	; 255
    101a:	8d 85       	ldd	r24, Y+13	; 0x0d
    101c:	9e 85       	ldd	r25, Y+14	; 0x0e
    101e:	bf dc       	rcall	.-1666   	; 0x99e <move_window>
    1020:	81 11       	cpse	r24, r1
    1022:	36 c0       	rjmp	.+108    	; 0x1090 <mount_volume+0x448>
    1024:	ad 85       	ldd	r26, Y+13	; 0x0d
    1026:	be 85       	ldd	r27, Y+14	; 0x0e
    1028:	14 96       	adiw	r26, 0x04	; 4
    102a:	1c 92       	st	X, r1
    102c:	14 97       	sbiw	r26, 0x04	; 4
    102e:	cd 01       	movw	r24, r26
    1030:	8f 5c       	subi	r24, 0xCF	; 207
    1032:	9d 4f       	sbci	r25, 0xFD	; 253
    1034:	15 db       	rcall	.-2518   	; 0x660 <ld_word>
    1036:	85 35       	cpi	r24, 0x55	; 85
    1038:	9a 4a       	sbci	r25, 0xAA	; 170
    103a:	51 f5       	brne	.+84     	; 0x1090 <mount_volume+0x448>
    103c:	8d 85       	ldd	r24, Y+13	; 0x0d
    103e:	9e 85       	ldd	r25, Y+14	; 0x0e
    1040:	c3 96       	adiw	r24, 0x33	; 51
    1042:	18 db       	rcall	.-2512   	; 0x674 <ld_dword>
    1044:	62 35       	cpi	r22, 0x52	; 82
    1046:	72 45       	sbci	r23, 0x52	; 82
    1048:	81 46       	sbci	r24, 0x61	; 97
    104a:	91 44       	sbci	r25, 0x41	; 65
    104c:	09 f5       	brne	.+66     	; 0x1090 <mount_volume+0x448>
    104e:	8d 85       	ldd	r24, Y+13	; 0x0d
    1050:	9e 85       	ldd	r25, Y+14	; 0x0e
    1052:	89 5e       	subi	r24, 0xE9	; 233
    1054:	9d 4f       	sbci	r25, 0xFD	; 253
    1056:	0e db       	rcall	.-2532   	; 0x674 <ld_dword>
    1058:	62 37       	cpi	r22, 0x72	; 114
    105a:	72 47       	sbci	r23, 0x72	; 114
    105c:	81 44       	sbci	r24, 0x41	; 65
    105e:	91 46       	sbci	r25, 0x61	; 97
    1060:	b9 f4       	brne	.+46     	; 0x1090 <mount_volume+0x448>
    1062:	8d 85       	ldd	r24, Y+13	; 0x0d
    1064:	9e 85       	ldd	r25, Y+14	; 0x0e
    1066:	85 5e       	subi	r24, 0xE5	; 229
    1068:	9d 4f       	sbci	r25, 0xFD	; 253
    106a:	04 db       	rcall	.-2552   	; 0x674 <ld_dword>
    106c:	ad 85       	ldd	r26, Y+13	; 0x0d
    106e:	be 85       	ldd	r27, Y+14	; 0x0e
    1070:	1f 96       	adiw	r26, 0x0f	; 15
    1072:	6d 93       	st	X+, r22
    1074:	7d 93       	st	X+, r23
    1076:	8d 93       	st	X+, r24
    1078:	9c 93       	st	X, r25
    107a:	52 97       	sbiw	r26, 0x12	; 18
    107c:	cd 01       	movw	r24, r26
    107e:	81 5e       	subi	r24, 0xE1	; 225
    1080:	9d 4f       	sbci	r25, 0xFD	; 253
    1082:	f8 da       	rcall	.-2576   	; 0x674 <ld_dword>
    1084:	ed 85       	ldd	r30, Y+13	; 0x0d
    1086:	fe 85       	ldd	r31, Y+14	; 0x0e
    1088:	63 87       	std	Z+11, r22	; 0x0b
    108a:	74 87       	std	Z+12, r23	; 0x0c
    108c:	85 87       	std	Z+13, r24	; 0x0d
    108e:	96 87       	std	Z+14, r25	; 0x0e
    1090:	ad 85       	ldd	r26, Y+13	; 0x0d
    1092:	be 85       	ldd	r27, Y+14	; 0x0e
    1094:	0c 93       	st	X, r16
    1096:	80 91 de 05 	lds	r24, 0x05DE	; 0x8005de <Fsid>
    109a:	90 91 df 05 	lds	r25, 0x05DF	; 0x8005df <Fsid+0x1>
    109e:	01 96       	adiw	r24, 0x01	; 1
    10a0:	90 93 df 05 	sts	0x05DF, r25	; 0x8005df <Fsid+0x1>
    10a4:	80 93 de 05 	sts	0x05DE, r24	; 0x8005de <Fsid>
    10a8:	16 96       	adiw	r26, 0x06	; 6
    10aa:	9c 93       	st	X, r25
    10ac:	8e 93       	st	-X, r24
    10ae:	15 97       	sbiw	r26, 0x05	; 5
    10b0:	fd 01       	movw	r30, r26
    10b2:	13 8a       	std	Z+19, r1	; 0x13
    10b4:	14 8a       	std	Z+20, r1	; 0x14
    10b6:	15 8a       	std	Z+21, r1	; 0x15
    10b8:	16 8a       	std	Z+22, r1	; 0x16
    10ba:	80 e0       	ldi	r24, 0x00	; 0
    10bc:	29 c0       	rjmp	.+82     	; 0x1110 <mount_volume+0x4c8>
    10be:	8b e0       	ldi	r24, 0x0B	; 11
    10c0:	27 c0       	rjmp	.+78     	; 0x1110 <mount_volume+0x4c8>
    10c2:	8c e0       	ldi	r24, 0x0C	; 12
    10c4:	25 c0       	rjmp	.+74     	; 0x1110 <mount_volume+0x4c8>
    10c6:	80 e0       	ldi	r24, 0x00	; 0
    10c8:	23 c0       	rjmp	.+70     	; 0x1110 <mount_volume+0x4c8>
    10ca:	8a e0       	ldi	r24, 0x0A	; 10
    10cc:	21 c0       	rjmp	.+66     	; 0x1110 <mount_volume+0x4c8>
    10ce:	83 e0       	ldi	r24, 0x03	; 3
    10d0:	1f c0       	rjmp	.+62     	; 0x1110 <mount_volume+0x4c8>
    10d2:	8a e0       	ldi	r24, 0x0A	; 10
    10d4:	1d c0       	rjmp	.+58     	; 0x1110 <mount_volume+0x4c8>
    10d6:	81 e0       	ldi	r24, 0x01	; 1
    10d8:	1b c0       	rjmp	.+54     	; 0x1110 <mount_volume+0x4c8>
    10da:	8d e0       	ldi	r24, 0x0D	; 13
    10dc:	19 c0       	rjmp	.+50     	; 0x1110 <mount_volume+0x4c8>
    10de:	8d e0       	ldi	r24, 0x0D	; 13
    10e0:	17 c0       	rjmp	.+46     	; 0x1110 <mount_volume+0x4c8>
    10e2:	8d e0       	ldi	r24, 0x0D	; 13
    10e4:	15 c0       	rjmp	.+42     	; 0x1110 <mount_volume+0x4c8>
    10e6:	8d e0       	ldi	r24, 0x0D	; 13
    10e8:	13 c0       	rjmp	.+38     	; 0x1110 <mount_volume+0x4c8>
    10ea:	8d e0       	ldi	r24, 0x0D	; 13
    10ec:	11 c0       	rjmp	.+34     	; 0x1110 <mount_volume+0x4c8>
    10ee:	8d e0       	ldi	r24, 0x0D	; 13
    10f0:	0f c0       	rjmp	.+30     	; 0x1110 <mount_volume+0x4c8>
    10f2:	8d e0       	ldi	r24, 0x0D	; 13
    10f4:	0d c0       	rjmp	.+26     	; 0x1110 <mount_volume+0x4c8>
    10f6:	8d e0       	ldi	r24, 0x0D	; 13
    10f8:	0b c0       	rjmp	.+22     	; 0x1110 <mount_volume+0x4c8>
    10fa:	8d e0       	ldi	r24, 0x0D	; 13
    10fc:	09 c0       	rjmp	.+18     	; 0x1110 <mount_volume+0x4c8>
    10fe:	8d e0       	ldi	r24, 0x0D	; 13
    1100:	07 c0       	rjmp	.+14     	; 0x1110 <mount_volume+0x4c8>
    1102:	8d e0       	ldi	r24, 0x0D	; 13
    1104:	05 c0       	rjmp	.+10     	; 0x1110 <mount_volume+0x4c8>
    1106:	8d e0       	ldi	r24, 0x0D	; 13
    1108:	03 c0       	rjmp	.+6      	; 0x1110 <mount_volume+0x4c8>
    110a:	8d e0       	ldi	r24, 0x0D	; 13
    110c:	01 c0       	rjmp	.+2      	; 0x1110 <mount_volume+0x4c8>
    110e:	8d e0       	ldi	r24, 0x0D	; 13
    1110:	2e 96       	adiw	r28, 0x0e	; 14
    1112:	0f b6       	in	r0, 0x3f	; 63
    1114:	f8 94       	cli
    1116:	de bf       	out	0x3e, r29	; 62
    1118:	0f be       	out	0x3f, r0	; 63
    111a:	cd bf       	out	0x3d, r28	; 61
    111c:	df 91       	pop	r29
    111e:	cf 91       	pop	r28
    1120:	1f 91       	pop	r17
    1122:	0f 91       	pop	r16
    1124:	ff 90       	pop	r15
    1126:	ef 90       	pop	r14
    1128:	df 90       	pop	r13
    112a:	cf 90       	pop	r12
    112c:	bf 90       	pop	r11
    112e:	af 90       	pop	r10
    1130:	9f 90       	pop	r9
    1132:	8f 90       	pop	r8
    1134:	7f 90       	pop	r7
    1136:	6f 90       	pop	r6
    1138:	5f 90       	pop	r5
    113a:	4f 90       	pop	r4
    113c:	3f 90       	pop	r3
    113e:	2f 90       	pop	r2
    1140:	08 95       	ret

00001142 <put_fat>:
    1142:	2f 92       	push	r2
    1144:	3f 92       	push	r3
    1146:	4f 92       	push	r4
    1148:	5f 92       	push	r5
    114a:	6f 92       	push	r6
    114c:	7f 92       	push	r7
    114e:	8f 92       	push	r8
    1150:	9f 92       	push	r9
    1152:	af 92       	push	r10
    1154:	bf 92       	push	r11
    1156:	cf 92       	push	r12
    1158:	df 92       	push	r13
    115a:	ef 92       	push	r14
    115c:	ff 92       	push	r15
    115e:	0f 93       	push	r16
    1160:	1f 93       	push	r17
    1162:	cf 93       	push	r28
    1164:	df 93       	push	r29
    1166:	00 d0       	rcall	.+0      	; 0x1168 <put_fat+0x26>
    1168:	00 d0       	rcall	.+0      	; 0x116a <put_fat+0x28>
    116a:	cd b7       	in	r28, 0x3d	; 61
    116c:	de b7       	in	r29, 0x3e	; 62
    116e:	42 30       	cpi	r20, 0x02	; 2
    1170:	51 05       	cpc	r21, r1
    1172:	61 05       	cpc	r22, r1
    1174:	71 05       	cpc	r23, r1
    1176:	08 f4       	brcc	.+2      	; 0x117a <put_fat+0x38>
    1178:	ea c0       	rjmp	.+468    	; 0x134e <put_fat+0x20c>
    117a:	fc 01       	movw	r30, r24
    117c:	c7 88       	ldd	r12, Z+23	; 0x17
    117e:	d0 8c       	ldd	r13, Z+24	; 0x18
    1180:	e1 8c       	ldd	r14, Z+25	; 0x19
    1182:	f2 8c       	ldd	r15, Z+26	; 0x1a
    1184:	4c 15       	cp	r20, r12
    1186:	5d 05       	cpc	r21, r13
    1188:	6e 05       	cpc	r22, r14
    118a:	7f 05       	cpc	r23, r15
    118c:	08 f0       	brcs	.+2      	; 0x1190 <put_fat+0x4e>
    118e:	e1 c0       	rjmp	.+450    	; 0x1352 <put_fat+0x210>
    1190:	28 01       	movw	r4, r16
    1192:	39 01       	movw	r6, r18
    1194:	6a 01       	movw	r12, r20
    1196:	7b 01       	movw	r14, r22
    1198:	9c 83       	std	Y+4, r25	; 0x04
    119a:	8b 83       	std	Y+3, r24	; 0x03
    119c:	80 81       	ld	r24, Z
    119e:	82 30       	cpi	r24, 0x02	; 2
    11a0:	09 f4       	brne	.+2      	; 0x11a4 <put_fat+0x62>
    11a2:	73 c0       	rjmp	.+230    	; 0x128a <put_fat+0x148>
    11a4:	83 30       	cpi	r24, 0x03	; 3
    11a6:	09 f4       	brne	.+2      	; 0x11aa <put_fat+0x68>
    11a8:	95 c0       	rjmp	.+298    	; 0x12d4 <put_fat+0x192>
    11aa:	81 30       	cpi	r24, 0x01	; 1
    11ac:	09 f0       	breq	.+2      	; 0x11b0 <put_fat+0x6e>
    11ae:	d3 c0       	rjmp	.+422    	; 0x1356 <put_fat+0x214>
    11b0:	5a 01       	movw	r10, r20
    11b2:	b6 94       	lsr	r11
    11b4:	a7 94       	ror	r10
    11b6:	a4 0e       	add	r10, r20
    11b8:	b5 1e       	adc	r11, r21
    11ba:	43 a1       	ldd	r20, Z+35	; 0x23
    11bc:	54 a1       	ldd	r21, Z+36	; 0x24
    11be:	65 a1       	ldd	r22, Z+37	; 0x25
    11c0:	76 a1       	ldd	r23, Z+38	; 0x26
    11c2:	c5 01       	movw	r24, r10
    11c4:	89 2f       	mov	r24, r25
    11c6:	99 27       	eor	r25, r25
    11c8:	86 95       	lsr	r24
    11ca:	48 0f       	add	r20, r24
    11cc:	59 1f       	adc	r21, r25
    11ce:	61 1d       	adc	r22, r1
    11d0:	71 1d       	adc	r23, r1
    11d2:	cf 01       	movw	r24, r30
    11d4:	e4 db       	rcall	.-2104   	; 0x99e <move_window>
    11d6:	18 2f       	mov	r17, r24
    11d8:	81 11       	cpse	r24, r1
    11da:	be c0       	rjmp	.+380    	; 0x1358 <put_fat+0x216>
    11dc:	2b 81       	ldd	r18, Y+3	; 0x03
    11de:	3c 81       	ldd	r19, Y+4	; 0x04
    11e0:	2d 5c       	subi	r18, 0xCD	; 205
    11e2:	3f 4f       	sbci	r19, 0xFF	; 255
    11e4:	3a 83       	std	Y+2, r19	; 0x02
    11e6:	29 83       	std	Y+1, r18	; 0x01
    11e8:	15 01       	movw	r2, r10
    11ea:	3f ef       	ldi	r19, 0xFF	; 255
    11ec:	23 1a       	sub	r2, r19
    11ee:	33 0a       	sbc	r3, r19
    11f0:	81 e0       	ldi	r24, 0x01	; 1
    11f2:	b8 22       	and	r11, r24
    11f4:	e9 81       	ldd	r30, Y+1	; 0x01
    11f6:	fa 81       	ldd	r31, Y+2	; 0x02
    11f8:	ea 0d       	add	r30, r10
    11fa:	fb 1d       	adc	r31, r11
    11fc:	46 01       	movw	r8, r12
    11fe:	57 01       	movw	r10, r14
    1200:	91 e0       	ldi	r25, 0x01	; 1
    1202:	89 22       	and	r8, r25
    1204:	99 24       	eor	r9, r9
    1206:	aa 24       	eor	r10, r10
    1208:	bb 24       	eor	r11, r11
    120a:	c0 fe       	sbrs	r12, 0
    120c:	08 c0       	rjmp	.+16     	; 0x121e <put_fat+0xdc>
    120e:	20 81       	ld	r18, Z
    1210:	30 e1       	ldi	r19, 0x10	; 16
    1212:	43 9e       	mul	r4, r19
    1214:	c0 01       	movw	r24, r0
    1216:	11 24       	eor	r1, r1
    1218:	2f 70       	andi	r18, 0x0F	; 15
    121a:	82 2b       	or	r24, r18
    121c:	01 c0       	rjmp	.+2      	; 0x1220 <put_fat+0xde>
    121e:	84 2d       	mov	r24, r4
    1220:	80 83       	st	Z, r24
    1222:	81 e0       	ldi	r24, 0x01	; 1
    1224:	eb 81       	ldd	r30, Y+3	; 0x03
    1226:	fc 81       	ldd	r31, Y+4	; 0x04
    1228:	83 83       	std	Z+3, r24	; 0x03
    122a:	43 a1       	ldd	r20, Z+35	; 0x23
    122c:	54 a1       	ldd	r21, Z+36	; 0x24
    122e:	65 a1       	ldd	r22, Z+37	; 0x25
    1230:	76 a1       	ldd	r23, Z+38	; 0x26
    1232:	c1 01       	movw	r24, r2
    1234:	89 2f       	mov	r24, r25
    1236:	99 27       	eor	r25, r25
    1238:	86 95       	lsr	r24
    123a:	48 0f       	add	r20, r24
    123c:	59 1f       	adc	r21, r25
    123e:	61 1d       	adc	r22, r1
    1240:	71 1d       	adc	r23, r1
    1242:	cf 01       	movw	r24, r30
    1244:	ac db       	rcall	.-2216   	; 0x99e <move_window>
    1246:	18 2f       	mov	r17, r24
    1248:	81 11       	cpse	r24, r1
    124a:	86 c0       	rjmp	.+268    	; 0x1358 <put_fat+0x216>
    124c:	f1 e0       	ldi	r31, 0x01	; 1
    124e:	3f 22       	and	r3, r31
    1250:	e9 81       	ldd	r30, Y+1	; 0x01
    1252:	fa 81       	ldd	r31, Y+2	; 0x02
    1254:	e2 0d       	add	r30, r2
    1256:	f3 1d       	adc	r31, r3
    1258:	89 28       	or	r8, r9
    125a:	8a 28       	or	r8, r10
    125c:	8b 28       	or	r8, r11
    125e:	49 f0       	breq	.+18     	; 0x1272 <put_fat+0x130>
    1260:	68 94       	set
    1262:	13 f8       	bld	r1, 3
    1264:	76 94       	lsr	r7
    1266:	67 94       	ror	r6
    1268:	57 94       	ror	r5
    126a:	47 94       	ror	r4
    126c:	16 94       	lsr	r1
    126e:	d1 f7       	brne	.-12     	; 0x1264 <put_fat+0x122>
    1270:	06 c0       	rjmp	.+12     	; 0x127e <put_fat+0x13c>
    1272:	90 81       	ld	r25, Z
    1274:	90 7f       	andi	r25, 0xF0	; 240
    1276:	85 2d       	mov	r24, r5
    1278:	8f 70       	andi	r24, 0x0F	; 15
    127a:	49 2e       	mov	r4, r25
    127c:	48 2a       	or	r4, r24
    127e:	40 82       	st	Z, r4
    1280:	81 e0       	ldi	r24, 0x01	; 1
    1282:	eb 81       	ldd	r30, Y+3	; 0x03
    1284:	fc 81       	ldd	r31, Y+4	; 0x04
    1286:	83 83       	std	Z+3, r24	; 0x03
    1288:	67 c0       	rjmp	.+206    	; 0x1358 <put_fat+0x216>
    128a:	eb 81       	ldd	r30, Y+3	; 0x03
    128c:	fc 81       	ldd	r31, Y+4	; 0x04
    128e:	43 a1       	ldd	r20, Z+35	; 0x23
    1290:	54 a1       	ldd	r21, Z+36	; 0x24
    1292:	65 a1       	ldd	r22, Z+37	; 0x25
    1294:	76 a1       	ldd	r23, Z+38	; 0x26
    1296:	bb 27       	eor	r27, r27
    1298:	af 2d       	mov	r26, r15
    129a:	9e 2d       	mov	r25, r14
    129c:	8d 2d       	mov	r24, r13
    129e:	48 0f       	add	r20, r24
    12a0:	59 1f       	adc	r21, r25
    12a2:	6a 1f       	adc	r22, r26
    12a4:	7b 1f       	adc	r23, r27
    12a6:	cf 01       	movw	r24, r30
    12a8:	7a db       	rcall	.-2316   	; 0x99e <move_window>
    12aa:	18 2f       	mov	r17, r24
    12ac:	81 11       	cpse	r24, r1
    12ae:	54 c0       	rjmp	.+168    	; 0x1358 <put_fat+0x216>
    12b0:	2b 81       	ldd	r18, Y+3	; 0x03
    12b2:	3c 81       	ldd	r19, Y+4	; 0x04
    12b4:	2d 5c       	subi	r18, 0xCD	; 205
    12b6:	3f 4f       	sbci	r19, 0xFF	; 255
    12b8:	cc 0c       	add	r12, r12
    12ba:	dd 1c       	adc	r13, r13
    12bc:	c6 01       	movw	r24, r12
    12be:	8e 7f       	andi	r24, 0xFE	; 254
    12c0:	91 70       	andi	r25, 0x01	; 1
    12c2:	b2 01       	movw	r22, r4
    12c4:	82 0f       	add	r24, r18
    12c6:	93 1f       	adc	r25, r19
    12c8:	f0 d9       	rcall	.-3104   	; 0x6aa <st_word>
    12ca:	81 e0       	ldi	r24, 0x01	; 1
    12cc:	eb 81       	ldd	r30, Y+3	; 0x03
    12ce:	fc 81       	ldd	r31, Y+4	; 0x04
    12d0:	83 83       	std	Z+3, r24	; 0x03
    12d2:	42 c0       	rjmp	.+132    	; 0x1358 <put_fat+0x216>
    12d4:	eb 81       	ldd	r30, Y+3	; 0x03
    12d6:	fc 81       	ldd	r31, Y+4	; 0x04
    12d8:	43 a1       	ldd	r20, Z+35	; 0x23
    12da:	54 a1       	ldd	r21, Z+36	; 0x24
    12dc:	65 a1       	ldd	r22, Z+37	; 0x25
    12de:	76 a1       	ldd	r23, Z+38	; 0x26
    12e0:	d7 01       	movw	r26, r14
    12e2:	c6 01       	movw	r24, r12
    12e4:	68 94       	set
    12e6:	16 f8       	bld	r1, 6
    12e8:	b6 95       	lsr	r27
    12ea:	a7 95       	ror	r26
    12ec:	97 95       	ror	r25
    12ee:	87 95       	ror	r24
    12f0:	16 94       	lsr	r1
    12f2:	d1 f7       	brne	.-12     	; 0x12e8 <put_fat+0x1a6>
    12f4:	48 0f       	add	r20, r24
    12f6:	59 1f       	adc	r21, r25
    12f8:	6a 1f       	adc	r22, r26
    12fa:	7b 1f       	adc	r23, r27
    12fc:	cf 01       	movw	r24, r30
    12fe:	4f db       	rcall	.-2402   	; 0x99e <move_window>
    1300:	18 2f       	mov	r17, r24
    1302:	81 11       	cpse	r24, r1
    1304:	29 c0       	rjmp	.+82     	; 0x1358 <put_fat+0x216>
    1306:	ff e0       	ldi	r31, 0x0F	; 15
    1308:	7f 22       	and	r7, r31
    130a:	8b 81       	ldd	r24, Y+3	; 0x03
    130c:	9c 81       	ldd	r25, Y+4	; 0x04
    130e:	c3 96       	adiw	r24, 0x33	; 51
    1310:	cc 0c       	add	r12, r12
    1312:	dd 1c       	adc	r13, r13
    1314:	cc 0c       	add	r12, r12
    1316:	dd 1c       	adc	r13, r13
    1318:	2c ef       	ldi	r18, 0xFC	; 252
    131a:	c2 22       	and	r12, r18
    131c:	21 e0       	ldi	r18, 0x01	; 1
    131e:	d2 22       	and	r13, r18
    1320:	c8 0e       	add	r12, r24
    1322:	d9 1e       	adc	r13, r25
    1324:	c6 01       	movw	r24, r12
    1326:	a6 d9       	rcall	.-3252   	; 0x674 <ld_dword>
    1328:	dc 01       	movw	r26, r24
    132a:	cb 01       	movw	r24, r22
    132c:	88 27       	eor	r24, r24
    132e:	99 27       	eor	r25, r25
    1330:	aa 27       	eor	r26, r26
    1332:	b0 7f       	andi	r27, 0xF0	; 240
    1334:	b3 01       	movw	r22, r6
    1336:	a2 01       	movw	r20, r4
    1338:	48 2b       	or	r20, r24
    133a:	59 2b       	or	r21, r25
    133c:	6a 2b       	or	r22, r26
    133e:	7b 2b       	or	r23, r27
    1340:	c6 01       	movw	r24, r12
    1342:	b7 d9       	rcall	.-3218   	; 0x6b2 <st_dword>
    1344:	81 e0       	ldi	r24, 0x01	; 1
    1346:	eb 81       	ldd	r30, Y+3	; 0x03
    1348:	fc 81       	ldd	r31, Y+4	; 0x04
    134a:	83 83       	std	Z+3, r24	; 0x03
    134c:	05 c0       	rjmp	.+10     	; 0x1358 <put_fat+0x216>
    134e:	12 e0       	ldi	r17, 0x02	; 2
    1350:	03 c0       	rjmp	.+6      	; 0x1358 <put_fat+0x216>
    1352:	12 e0       	ldi	r17, 0x02	; 2
    1354:	01 c0       	rjmp	.+2      	; 0x1358 <put_fat+0x216>
    1356:	12 e0       	ldi	r17, 0x02	; 2
    1358:	81 2f       	mov	r24, r17
    135a:	0f 90       	pop	r0
    135c:	0f 90       	pop	r0
    135e:	0f 90       	pop	r0
    1360:	0f 90       	pop	r0
    1362:	df 91       	pop	r29
    1364:	cf 91       	pop	r28
    1366:	1f 91       	pop	r17
    1368:	0f 91       	pop	r16
    136a:	ff 90       	pop	r15
    136c:	ef 90       	pop	r14
    136e:	df 90       	pop	r13
    1370:	cf 90       	pop	r12
    1372:	bf 90       	pop	r11
    1374:	af 90       	pop	r10
    1376:	9f 90       	pop	r9
    1378:	8f 90       	pop	r8
    137a:	7f 90       	pop	r7
    137c:	6f 90       	pop	r6
    137e:	5f 90       	pop	r5
    1380:	4f 90       	pop	r4
    1382:	3f 90       	pop	r3
    1384:	2f 90       	pop	r2
    1386:	08 95       	ret

00001388 <get_fat>:
    1388:	af 92       	push	r10
    138a:	bf 92       	push	r11
    138c:	cf 92       	push	r12
    138e:	df 92       	push	r13
    1390:	ef 92       	push	r14
    1392:	ff 92       	push	r15
    1394:	0f 93       	push	r16
    1396:	1f 93       	push	r17
    1398:	cf 93       	push	r28
    139a:	df 93       	push	r29
    139c:	fc 01       	movw	r30, r24
    139e:	c0 81       	ld	r28, Z
    13a0:	d1 81       	ldd	r29, Z+1	; 0x01
    13a2:	42 30       	cpi	r20, 0x02	; 2
    13a4:	51 05       	cpc	r21, r1
    13a6:	61 05       	cpc	r22, r1
    13a8:	71 05       	cpc	r23, r1
    13aa:	08 f4       	brcc	.+2      	; 0x13ae <get_fat+0x26>
    13ac:	a0 c0       	rjmp	.+320    	; 0x14ee <get_fat+0x166>
    13ae:	8f 89       	ldd	r24, Y+23	; 0x17
    13b0:	98 8d       	ldd	r25, Y+24	; 0x18
    13b2:	a9 8d       	ldd	r26, Y+25	; 0x19
    13b4:	ba 8d       	ldd	r27, Y+26	; 0x1a
    13b6:	48 17       	cp	r20, r24
    13b8:	59 07       	cpc	r21, r25
    13ba:	6a 07       	cpc	r22, r26
    13bc:	7b 07       	cpc	r23, r27
    13be:	08 f0       	brcs	.+2      	; 0x13c2 <get_fat+0x3a>
    13c0:	9b c0       	rjmp	.+310    	; 0x14f8 <get_fat+0x170>
    13c2:	6a 01       	movw	r12, r20
    13c4:	7b 01       	movw	r14, r22
    13c6:	88 81       	ld	r24, Y
    13c8:	82 30       	cpi	r24, 0x02	; 2
    13ca:	09 f4       	brne	.+2      	; 0x13ce <get_fat+0x46>
    13cc:	4e c0       	rjmp	.+156    	; 0x146a <get_fat+0xe2>
    13ce:	83 30       	cpi	r24, 0x03	; 3
    13d0:	09 f4       	brne	.+2      	; 0x13d4 <get_fat+0x4c>
    13d2:	69 c0       	rjmp	.+210    	; 0x14a6 <get_fat+0x11e>
    13d4:	81 30       	cpi	r24, 0x01	; 1
    13d6:	09 f0       	breq	.+2      	; 0x13da <get_fat+0x52>
    13d8:	94 c0       	rjmp	.+296    	; 0x1502 <get_fat+0x17a>
    13da:	8a 01       	movw	r16, r20
    13dc:	16 95       	lsr	r17
    13de:	07 95       	ror	r16
    13e0:	04 0f       	add	r16, r20
    13e2:	15 1f       	adc	r17, r21
    13e4:	4b a1       	ldd	r20, Y+35	; 0x23
    13e6:	5c a1       	ldd	r21, Y+36	; 0x24
    13e8:	6d a1       	ldd	r22, Y+37	; 0x25
    13ea:	7e a1       	ldd	r23, Y+38	; 0x26
    13ec:	c8 01       	movw	r24, r16
    13ee:	89 2f       	mov	r24, r25
    13f0:	99 27       	eor	r25, r25
    13f2:	86 95       	lsr	r24
    13f4:	48 0f       	add	r20, r24
    13f6:	59 1f       	adc	r21, r25
    13f8:	61 1d       	adc	r22, r1
    13fa:	71 1d       	adc	r23, r1
    13fc:	ce 01       	movw	r24, r28
    13fe:	cf da       	rcall	.-2658   	; 0x99e <move_window>
    1400:	81 11       	cpse	r24, r1
    1402:	84 c0       	rjmp	.+264    	; 0x150c <get_fat+0x184>
    1404:	58 01       	movw	r10, r16
    1406:	ff ef       	ldi	r31, 0xFF	; 255
    1408:	af 1a       	sub	r10, r31
    140a:	bf 0a       	sbc	r11, r31
    140c:	11 70       	andi	r17, 0x01	; 1
    140e:	fe 01       	movw	r30, r28
    1410:	e0 0f       	add	r30, r16
    1412:	f1 1f       	adc	r31, r17
    1414:	03 a9       	ldd	r16, Z+51	; 0x33
    1416:	10 e0       	ldi	r17, 0x00	; 0
    1418:	4b a1       	ldd	r20, Y+35	; 0x23
    141a:	5c a1       	ldd	r21, Y+36	; 0x24
    141c:	6d a1       	ldd	r22, Y+37	; 0x25
    141e:	7e a1       	ldd	r23, Y+38	; 0x26
    1420:	c5 01       	movw	r24, r10
    1422:	89 2f       	mov	r24, r25
    1424:	99 27       	eor	r25, r25
    1426:	86 95       	lsr	r24
    1428:	48 0f       	add	r20, r24
    142a:	59 1f       	adc	r21, r25
    142c:	61 1d       	adc	r22, r1
    142e:	71 1d       	adc	r23, r1
    1430:	ce 01       	movw	r24, r28
    1432:	b5 da       	rcall	.-2710   	; 0x99e <move_window>
    1434:	81 11       	cpse	r24, r1
    1436:	6e c0       	rjmp	.+220    	; 0x1514 <get_fat+0x18c>
    1438:	81 e0       	ldi	r24, 0x01	; 1
    143a:	b8 22       	and	r11, r24
    143c:	ca 0d       	add	r28, r10
    143e:	db 1d       	adc	r29, r11
    1440:	6b a9       	ldd	r22, Y+51	; 0x33
    1442:	70 e0       	ldi	r23, 0x00	; 0
    1444:	76 2f       	mov	r23, r22
    1446:	66 27       	eor	r22, r22
    1448:	60 2b       	or	r22, r16
    144a:	71 2b       	or	r23, r17
    144c:	c0 fe       	sbrs	r12, 0
    144e:	09 c0       	rjmp	.+18     	; 0x1462 <get_fat+0xda>
    1450:	72 95       	swap	r23
    1452:	62 95       	swap	r22
    1454:	6f 70       	andi	r22, 0x0F	; 15
    1456:	67 27       	eor	r22, r23
    1458:	7f 70       	andi	r23, 0x0F	; 15
    145a:	67 27       	eor	r22, r23
    145c:	80 e0       	ldi	r24, 0x00	; 0
    145e:	90 e0       	ldi	r25, 0x00	; 0
    1460:	64 c0       	rjmp	.+200    	; 0x152a <get_fat+0x1a2>
    1462:	7f 70       	andi	r23, 0x0F	; 15
    1464:	80 e0       	ldi	r24, 0x00	; 0
    1466:	90 e0       	ldi	r25, 0x00	; 0
    1468:	60 c0       	rjmp	.+192    	; 0x152a <get_fat+0x1a2>
    146a:	4b a1       	ldd	r20, Y+35	; 0x23
    146c:	5c a1       	ldd	r21, Y+36	; 0x24
    146e:	6d a1       	ldd	r22, Y+37	; 0x25
    1470:	7e a1       	ldd	r23, Y+38	; 0x26
    1472:	bb 27       	eor	r27, r27
    1474:	af 2d       	mov	r26, r15
    1476:	9e 2d       	mov	r25, r14
    1478:	8d 2d       	mov	r24, r13
    147a:	48 0f       	add	r20, r24
    147c:	59 1f       	adc	r21, r25
    147e:	6a 1f       	adc	r22, r26
    1480:	7b 1f       	adc	r23, r27
    1482:	ce 01       	movw	r24, r28
    1484:	8c da       	rcall	.-2792   	; 0x99e <move_window>
    1486:	81 11       	cpse	r24, r1
    1488:	49 c0       	rjmp	.+146    	; 0x151c <get_fat+0x194>
    148a:	ce 01       	movw	r24, r28
    148c:	c3 96       	adiw	r24, 0x33	; 51
    148e:	a6 01       	movw	r20, r12
    1490:	44 0f       	add	r20, r20
    1492:	55 1f       	adc	r21, r21
    1494:	4e 7f       	andi	r20, 0xFE	; 254
    1496:	51 70       	andi	r21, 0x01	; 1
    1498:	84 0f       	add	r24, r20
    149a:	95 1f       	adc	r25, r21
    149c:	e1 d8       	rcall	.-3646   	; 0x660 <ld_word>
    149e:	bc 01       	movw	r22, r24
    14a0:	80 e0       	ldi	r24, 0x00	; 0
    14a2:	90 e0       	ldi	r25, 0x00	; 0
    14a4:	42 c0       	rjmp	.+132    	; 0x152a <get_fat+0x1a2>
    14a6:	4b a1       	ldd	r20, Y+35	; 0x23
    14a8:	5c a1       	ldd	r21, Y+36	; 0x24
    14aa:	6d a1       	ldd	r22, Y+37	; 0x25
    14ac:	7e a1       	ldd	r23, Y+38	; 0x26
    14ae:	d7 01       	movw	r26, r14
    14b0:	c6 01       	movw	r24, r12
    14b2:	68 94       	set
    14b4:	16 f8       	bld	r1, 6
    14b6:	b6 95       	lsr	r27
    14b8:	a7 95       	ror	r26
    14ba:	97 95       	ror	r25
    14bc:	87 95       	ror	r24
    14be:	16 94       	lsr	r1
    14c0:	d1 f7       	brne	.-12     	; 0x14b6 <get_fat+0x12e>
    14c2:	48 0f       	add	r20, r24
    14c4:	59 1f       	adc	r21, r25
    14c6:	6a 1f       	adc	r22, r26
    14c8:	7b 1f       	adc	r23, r27
    14ca:	ce 01       	movw	r24, r28
    14cc:	68 da       	rcall	.-2864   	; 0x99e <move_window>
    14ce:	81 11       	cpse	r24, r1
    14d0:	29 c0       	rjmp	.+82     	; 0x1524 <get_fat+0x19c>
    14d2:	e3 96       	adiw	r28, 0x33	; 51
    14d4:	a6 01       	movw	r20, r12
    14d6:	44 0f       	add	r20, r20
    14d8:	55 1f       	adc	r21, r21
    14da:	44 0f       	add	r20, r20
    14dc:	55 1f       	adc	r21, r21
    14de:	ca 01       	movw	r24, r20
    14e0:	8c 7f       	andi	r24, 0xFC	; 252
    14e2:	91 70       	andi	r25, 0x01	; 1
    14e4:	8c 0f       	add	r24, r28
    14e6:	9d 1f       	adc	r25, r29
    14e8:	c5 d8       	rcall	.-3702   	; 0x674 <ld_dword>
    14ea:	9f 70       	andi	r25, 0x0F	; 15
    14ec:	1e c0       	rjmp	.+60     	; 0x152a <get_fat+0x1a2>
    14ee:	61 e0       	ldi	r22, 0x01	; 1
    14f0:	70 e0       	ldi	r23, 0x00	; 0
    14f2:	80 e0       	ldi	r24, 0x00	; 0
    14f4:	90 e0       	ldi	r25, 0x00	; 0
    14f6:	19 c0       	rjmp	.+50     	; 0x152a <get_fat+0x1a2>
    14f8:	61 e0       	ldi	r22, 0x01	; 1
    14fa:	70 e0       	ldi	r23, 0x00	; 0
    14fc:	80 e0       	ldi	r24, 0x00	; 0
    14fe:	90 e0       	ldi	r25, 0x00	; 0
    1500:	14 c0       	rjmp	.+40     	; 0x152a <get_fat+0x1a2>
    1502:	61 e0       	ldi	r22, 0x01	; 1
    1504:	70 e0       	ldi	r23, 0x00	; 0
    1506:	80 e0       	ldi	r24, 0x00	; 0
    1508:	90 e0       	ldi	r25, 0x00	; 0
    150a:	0f c0       	rjmp	.+30     	; 0x152a <get_fat+0x1a2>
    150c:	6f ef       	ldi	r22, 0xFF	; 255
    150e:	7f ef       	ldi	r23, 0xFF	; 255
    1510:	cb 01       	movw	r24, r22
    1512:	0b c0       	rjmp	.+22     	; 0x152a <get_fat+0x1a2>
    1514:	6f ef       	ldi	r22, 0xFF	; 255
    1516:	7f ef       	ldi	r23, 0xFF	; 255
    1518:	cb 01       	movw	r24, r22
    151a:	07 c0       	rjmp	.+14     	; 0x152a <get_fat+0x1a2>
    151c:	6f ef       	ldi	r22, 0xFF	; 255
    151e:	7f ef       	ldi	r23, 0xFF	; 255
    1520:	cb 01       	movw	r24, r22
    1522:	03 c0       	rjmp	.+6      	; 0x152a <get_fat+0x1a2>
    1524:	6f ef       	ldi	r22, 0xFF	; 255
    1526:	7f ef       	ldi	r23, 0xFF	; 255
    1528:	cb 01       	movw	r24, r22
    152a:	df 91       	pop	r29
    152c:	cf 91       	pop	r28
    152e:	1f 91       	pop	r17
    1530:	0f 91       	pop	r16
    1532:	ff 90       	pop	r15
    1534:	ef 90       	pop	r14
    1536:	df 90       	pop	r13
    1538:	cf 90       	pop	r12
    153a:	bf 90       	pop	r11
    153c:	af 90       	pop	r10
    153e:	08 95       	ret

00001540 <dir_sdi>:
    1540:	4f 92       	push	r4
    1542:	5f 92       	push	r5
    1544:	6f 92       	push	r6
    1546:	7f 92       	push	r7
    1548:	8f 92       	push	r8
    154a:	9f 92       	push	r9
    154c:	af 92       	push	r10
    154e:	bf 92       	push	r11
    1550:	cf 92       	push	r12
    1552:	df 92       	push	r13
    1554:	ef 92       	push	r14
    1556:	ff 92       	push	r15
    1558:	0f 93       	push	r16
    155a:	1f 93       	push	r17
    155c:	cf 93       	push	r28
    155e:	df 93       	push	r29
    1560:	ec 01       	movw	r28, r24
    1562:	6a 01       	movw	r12, r20
    1564:	7b 01       	movw	r14, r22
    1566:	08 81       	ld	r16, Y
    1568:	19 81       	ldd	r17, Y+1	; 0x01
    156a:	41 15       	cp	r20, r1
    156c:	51 05       	cpc	r21, r1
    156e:	80 e2       	ldi	r24, 0x20	; 32
    1570:	68 07       	cpc	r22, r24
    1572:	71 05       	cpc	r23, r1
    1574:	08 f0       	brcs	.+2      	; 0x1578 <dir_sdi+0x38>
    1576:	aa c0       	rjmp	.+340    	; 0x16cc <dir_sdi+0x18c>
    1578:	db 01       	movw	r26, r22
    157a:	ca 01       	movw	r24, r20
    157c:	8f 71       	andi	r24, 0x1F	; 31
    157e:	99 27       	eor	r25, r25
    1580:	aa 27       	eor	r26, r26
    1582:	bb 27       	eor	r27, r27
    1584:	89 2b       	or	r24, r25
    1586:	8a 2b       	or	r24, r26
    1588:	8b 2b       	or	r24, r27
    158a:	09 f0       	breq	.+2      	; 0x158e <dir_sdi+0x4e>
    158c:	a1 c0       	rjmp	.+322    	; 0x16d0 <dir_sdi+0x190>
    158e:	4e 87       	std	Y+14, r20	; 0x0e
    1590:	5f 87       	std	Y+15, r21	; 0x0f
    1592:	68 8b       	std	Y+16, r22	; 0x10
    1594:	79 8b       	std	Y+17, r23	; 0x11
    1596:	8e 80       	ldd	r8, Y+6	; 0x06
    1598:	9f 80       	ldd	r9, Y+7	; 0x07
    159a:	a8 84       	ldd	r10, Y+8	; 0x08
    159c:	b9 84       	ldd	r11, Y+9	; 0x09
    159e:	81 14       	cp	r8, r1
    15a0:	91 04       	cpc	r9, r1
    15a2:	a1 04       	cpc	r10, r1
    15a4:	b1 04       	cpc	r11, r1
    15a6:	41 f4       	brne	.+16     	; 0x15b8 <dir_sdi+0x78>
    15a8:	f8 01       	movw	r30, r16
    15aa:	80 81       	ld	r24, Z
    15ac:	83 30       	cpi	r24, 0x03	; 3
    15ae:	20 f0       	brcs	.+8      	; 0x15b8 <dir_sdi+0x78>
    15b0:	87 a0       	ldd	r8, Z+39	; 0x27
    15b2:	90 a4       	ldd	r9, Z+40	; 0x28
    15b4:	a1 a4       	ldd	r10, Z+41	; 0x29
    15b6:	b2 a4       	ldd	r11, Z+42	; 0x2a
    15b8:	81 14       	cp	r8, r1
    15ba:	91 04       	cpc	r9, r1
    15bc:	a1 04       	cpc	r10, r1
    15be:	b1 04       	cpc	r11, r1
    15c0:	f1 f4       	brne	.+60     	; 0x15fe <dir_sdi+0xbe>
    15c2:	f8 01       	movw	r30, r16
    15c4:	87 81       	ldd	r24, Z+7	; 0x07
    15c6:	90 85       	ldd	r25, Z+8	; 0x08
    15c8:	a0 e0       	ldi	r26, 0x00	; 0
    15ca:	b0 e0       	ldi	r27, 0x00	; 0
    15cc:	b7 01       	movw	r22, r14
    15ce:	a6 01       	movw	r20, r12
    15d0:	68 94       	set
    15d2:	14 f8       	bld	r1, 4
    15d4:	76 95       	lsr	r23
    15d6:	67 95       	ror	r22
    15d8:	57 95       	ror	r21
    15da:	47 95       	ror	r20
    15dc:	16 94       	lsr	r1
    15de:	d1 f7       	brne	.-12     	; 0x15d4 <dir_sdi+0x94>
    15e0:	48 17       	cp	r20, r24
    15e2:	59 07       	cpc	r21, r25
    15e4:	6a 07       	cpc	r22, r26
    15e6:	7b 07       	cpc	r23, r27
    15e8:	08 f0       	brcs	.+2      	; 0x15ec <dir_sdi+0xac>
    15ea:	74 c0       	rjmp	.+232    	; 0x16d4 <dir_sdi+0x194>
    15ec:	87 a1       	ldd	r24, Z+39	; 0x27
    15ee:	90 a5       	ldd	r25, Z+40	; 0x28
    15f0:	a1 a5       	ldd	r26, Z+41	; 0x29
    15f2:	b2 a5       	ldd	r27, Z+42	; 0x2a
    15f4:	8e 8b       	std	Y+22, r24	; 0x16
    15f6:	9f 8b       	std	Y+23, r25	; 0x17
    15f8:	a8 8f       	std	Y+24, r26	; 0x18
    15fa:	b9 8f       	std	Y+25, r27	; 0x19
    15fc:	3e c0       	rjmp	.+124    	; 0x167a <dir_sdi+0x13a>
    15fe:	f8 01       	movw	r30, r16
    1600:	41 84       	ldd	r4, Z+9	; 0x09
    1602:	52 84       	ldd	r5, Z+10	; 0x0a
    1604:	61 2c       	mov	r6, r1
    1606:	71 2c       	mov	r7, r1
    1608:	03 2e       	mov	r0, r19
    160a:	39 e0       	ldi	r19, 0x09	; 9
    160c:	44 0c       	add	r4, r4
    160e:	55 1c       	adc	r5, r5
    1610:	66 1c       	adc	r6, r6
    1612:	77 1c       	adc	r7, r7
    1614:	3a 95       	dec	r19
    1616:	d1 f7       	brne	.-12     	; 0x160c <dir_sdi+0xcc>
    1618:	30 2d       	mov	r19, r0
    161a:	22 c0       	rjmp	.+68     	; 0x1660 <dir_sdi+0x120>
    161c:	b5 01       	movw	r22, r10
    161e:	a4 01       	movw	r20, r8
    1620:	ce 01       	movw	r24, r28
    1622:	b2 de       	rcall	.-668    	; 0x1388 <get_fat>
    1624:	4b 01       	movw	r8, r22
    1626:	5c 01       	movw	r10, r24
    1628:	6f 3f       	cpi	r22, 0xFF	; 255
    162a:	7f 4f       	sbci	r23, 0xFF	; 255
    162c:	8f 4f       	sbci	r24, 0xFF	; 255
    162e:	9f 4f       	sbci	r25, 0xFF	; 255
    1630:	09 f4       	brne	.+2      	; 0x1634 <dir_sdi+0xf4>
    1632:	52 c0       	rjmp	.+164    	; 0x16d8 <dir_sdi+0x198>
    1634:	82 e0       	ldi	r24, 0x02	; 2
    1636:	88 16       	cp	r8, r24
    1638:	91 04       	cpc	r9, r1
    163a:	a1 04       	cpc	r10, r1
    163c:	b1 04       	cpc	r11, r1
    163e:	08 f4       	brcc	.+2      	; 0x1642 <dir_sdi+0x102>
    1640:	4d c0       	rjmp	.+154    	; 0x16dc <dir_sdi+0x19c>
    1642:	f8 01       	movw	r30, r16
    1644:	87 89       	ldd	r24, Z+23	; 0x17
    1646:	90 8d       	ldd	r25, Z+24	; 0x18
    1648:	a1 8d       	ldd	r26, Z+25	; 0x19
    164a:	b2 8d       	ldd	r27, Z+26	; 0x1a
    164c:	88 16       	cp	r8, r24
    164e:	99 06       	cpc	r9, r25
    1650:	aa 06       	cpc	r10, r26
    1652:	bb 06       	cpc	r11, r27
    1654:	08 f0       	brcs	.+2      	; 0x1658 <dir_sdi+0x118>
    1656:	44 c0       	rjmp	.+136    	; 0x16e0 <dir_sdi+0x1a0>
    1658:	c4 18       	sub	r12, r4
    165a:	d5 08       	sbc	r13, r5
    165c:	e6 08       	sbc	r14, r6
    165e:	f7 08       	sbc	r15, r7
    1660:	c4 14       	cp	r12, r4
    1662:	d5 04       	cpc	r13, r5
    1664:	e6 04       	cpc	r14, r6
    1666:	f7 04       	cpc	r15, r7
    1668:	c8 f6       	brcc	.-78     	; 0x161c <dir_sdi+0xdc>
    166a:	b5 01       	movw	r22, r10
    166c:	a4 01       	movw	r20, r8
    166e:	c8 01       	movw	r24, r16
    1670:	56 d8       	rcall	.-3924   	; 0x71e <clst2sect>
    1672:	6e 8b       	std	Y+22, r22	; 0x16
    1674:	7f 8b       	std	Y+23, r23	; 0x17
    1676:	88 8f       	std	Y+24, r24	; 0x18
    1678:	99 8f       	std	Y+25, r25	; 0x19
    167a:	8a 8a       	std	Y+18, r8	; 0x12
    167c:	9b 8a       	std	Y+19, r9	; 0x13
    167e:	ac 8a       	std	Y+20, r10	; 0x14
    1680:	bd 8a       	std	Y+21, r11	; 0x15
    1682:	8e 89       	ldd	r24, Y+22	; 0x16
    1684:	9f 89       	ldd	r25, Y+23	; 0x17
    1686:	a8 8d       	ldd	r26, Y+24	; 0x18
    1688:	b9 8d       	ldd	r27, Y+25	; 0x19
    168a:	00 97       	sbiw	r24, 0x00	; 0
    168c:	a1 05       	cpc	r26, r1
    168e:	b1 05       	cpc	r27, r1
    1690:	49 f1       	breq	.+82     	; 0x16e4 <dir_sdi+0x1a4>
    1692:	b7 01       	movw	r22, r14
    1694:	a6 01       	movw	r20, r12
    1696:	03 2e       	mov	r0, r19
    1698:	39 e0       	ldi	r19, 0x09	; 9
    169a:	76 95       	lsr	r23
    169c:	67 95       	ror	r22
    169e:	57 95       	ror	r21
    16a0:	47 95       	ror	r20
    16a2:	3a 95       	dec	r19
    16a4:	d1 f7       	brne	.-12     	; 0x169a <dir_sdi+0x15a>
    16a6:	30 2d       	mov	r19, r0
    16a8:	84 0f       	add	r24, r20
    16aa:	95 1f       	adc	r25, r21
    16ac:	a6 1f       	adc	r26, r22
    16ae:	b7 1f       	adc	r27, r23
    16b0:	8e 8b       	std	Y+22, r24	; 0x16
    16b2:	9f 8b       	std	Y+23, r25	; 0x17
    16b4:	a8 8f       	std	Y+24, r26	; 0x18
    16b6:	b9 8f       	std	Y+25, r27	; 0x19
    16b8:	0d 5c       	subi	r16, 0xCD	; 205
    16ba:	1f 4f       	sbci	r17, 0xFF	; 255
    16bc:	f1 e0       	ldi	r31, 0x01	; 1
    16be:	df 22       	and	r13, r31
    16c0:	c0 0e       	add	r12, r16
    16c2:	d1 1e       	adc	r13, r17
    16c4:	db 8e       	std	Y+27, r13	; 0x1b
    16c6:	ca 8e       	std	Y+26, r12	; 0x1a
    16c8:	80 e0       	ldi	r24, 0x00	; 0
    16ca:	0d c0       	rjmp	.+26     	; 0x16e6 <dir_sdi+0x1a6>
    16cc:	82 e0       	ldi	r24, 0x02	; 2
    16ce:	0b c0       	rjmp	.+22     	; 0x16e6 <dir_sdi+0x1a6>
    16d0:	82 e0       	ldi	r24, 0x02	; 2
    16d2:	09 c0       	rjmp	.+18     	; 0x16e6 <dir_sdi+0x1a6>
    16d4:	82 e0       	ldi	r24, 0x02	; 2
    16d6:	07 c0       	rjmp	.+14     	; 0x16e6 <dir_sdi+0x1a6>
    16d8:	81 e0       	ldi	r24, 0x01	; 1
    16da:	05 c0       	rjmp	.+10     	; 0x16e6 <dir_sdi+0x1a6>
    16dc:	82 e0       	ldi	r24, 0x02	; 2
    16de:	03 c0       	rjmp	.+6      	; 0x16e6 <dir_sdi+0x1a6>
    16e0:	82 e0       	ldi	r24, 0x02	; 2
    16e2:	01 c0       	rjmp	.+2      	; 0x16e6 <dir_sdi+0x1a6>
    16e4:	82 e0       	ldi	r24, 0x02	; 2
    16e6:	df 91       	pop	r29
    16e8:	cf 91       	pop	r28
    16ea:	1f 91       	pop	r17
    16ec:	0f 91       	pop	r16
    16ee:	ff 90       	pop	r15
    16f0:	ef 90       	pop	r14
    16f2:	df 90       	pop	r13
    16f4:	cf 90       	pop	r12
    16f6:	bf 90       	pop	r11
    16f8:	af 90       	pop	r10
    16fa:	9f 90       	pop	r9
    16fc:	8f 90       	pop	r8
    16fe:	7f 90       	pop	r7
    1700:	6f 90       	pop	r6
    1702:	5f 90       	pop	r5
    1704:	4f 90       	pop	r4
    1706:	08 95       	ret

00001708 <create_chain>:
    1708:	4f 92       	push	r4
    170a:	5f 92       	push	r5
    170c:	6f 92       	push	r6
    170e:	7f 92       	push	r7
    1710:	8f 92       	push	r8
    1712:	9f 92       	push	r9
    1714:	af 92       	push	r10
    1716:	bf 92       	push	r11
    1718:	cf 92       	push	r12
    171a:	df 92       	push	r13
    171c:	ef 92       	push	r14
    171e:	ff 92       	push	r15
    1720:	0f 93       	push	r16
    1722:	1f 93       	push	r17
    1724:	cf 93       	push	r28
    1726:	df 93       	push	r29
    1728:	8c 01       	movw	r16, r24
    172a:	2a 01       	movw	r4, r20
    172c:	3b 01       	movw	r6, r22
    172e:	fc 01       	movw	r30, r24
    1730:	c0 81       	ld	r28, Z
    1732:	d1 81       	ldd	r29, Z+1	; 0x01
    1734:	41 15       	cp	r20, r1
    1736:	51 05       	cpc	r21, r1
    1738:	61 05       	cpc	r22, r1
    173a:	71 05       	cpc	r23, r1
    173c:	99 f4       	brne	.+38     	; 0x1764 <create_chain+0x5c>
    173e:	8b 84       	ldd	r8, Y+11	; 0x0b
    1740:	9c 84       	ldd	r9, Y+12	; 0x0c
    1742:	ad 84       	ldd	r10, Y+13	; 0x0d
    1744:	be 84       	ldd	r11, Y+14	; 0x0e
    1746:	81 14       	cp	r8, r1
    1748:	91 04       	cpc	r9, r1
    174a:	a1 04       	cpc	r10, r1
    174c:	b1 04       	cpc	r11, r1
    174e:	29 f1       	breq	.+74     	; 0x179a <create_chain+0x92>
    1750:	8f 89       	ldd	r24, Y+23	; 0x17
    1752:	98 8d       	ldd	r25, Y+24	; 0x18
    1754:	a9 8d       	ldd	r26, Y+25	; 0x19
    1756:	ba 8d       	ldd	r27, Y+26	; 0x1a
    1758:	88 16       	cp	r8, r24
    175a:	99 06       	cpc	r9, r25
    175c:	aa 06       	cpc	r10, r26
    175e:	bb 06       	cpc	r11, r27
    1760:	08 f5       	brcc	.+66     	; 0x17a4 <create_chain+0x9c>
    1762:	24 c0       	rjmp	.+72     	; 0x17ac <create_chain+0xa4>
    1764:	11 de       	rcall	.-990    	; 0x1388 <get_fat>
    1766:	62 30       	cpi	r22, 0x02	; 2
    1768:	71 05       	cpc	r23, r1
    176a:	81 05       	cpc	r24, r1
    176c:	91 05       	cpc	r25, r1
    176e:	08 f4       	brcc	.+2      	; 0x1772 <create_chain+0x6a>
    1770:	f5 c0       	rjmp	.+490    	; 0x195c <create_chain+0x254>
    1772:	6f 3f       	cpi	r22, 0xFF	; 255
    1774:	ff ef       	ldi	r31, 0xFF	; 255
    1776:	7f 07       	cpc	r23, r31
    1778:	8f 07       	cpc	r24, r31
    177a:	9f 07       	cpc	r25, r31
    177c:	09 f4       	brne	.+2      	; 0x1780 <create_chain+0x78>
    177e:	ff c0       	rjmp	.+510    	; 0x197e <create_chain+0x276>
    1780:	cf 88       	ldd	r12, Y+23	; 0x17
    1782:	d8 8c       	ldd	r13, Y+24	; 0x18
    1784:	e9 8c       	ldd	r14, Y+25	; 0x19
    1786:	fa 8c       	ldd	r15, Y+26	; 0x1a
    1788:	6c 15       	cp	r22, r12
    178a:	7d 05       	cpc	r23, r13
    178c:	8e 05       	cpc	r24, r14
    178e:	9f 05       	cpc	r25, r15
    1790:	08 f4       	brcc	.+2      	; 0x1794 <create_chain+0x8c>
    1792:	f5 c0       	rjmp	.+490    	; 0x197e <create_chain+0x276>
    1794:	53 01       	movw	r10, r6
    1796:	42 01       	movw	r8, r4
    1798:	09 c0       	rjmp	.+18     	; 0x17ac <create_chain+0xa4>
    179a:	81 2c       	mov	r8, r1
    179c:	91 2c       	mov	r9, r1
    179e:	54 01       	movw	r10, r8
    17a0:	83 94       	inc	r8
    17a2:	04 c0       	rjmp	.+8      	; 0x17ac <create_chain+0xa4>
    17a4:	81 2c       	mov	r8, r1
    17a6:	91 2c       	mov	r9, r1
    17a8:	54 01       	movw	r10, r8
    17aa:	83 94       	inc	r8
    17ac:	6f 85       	ldd	r22, Y+15	; 0x0f
    17ae:	78 89       	ldd	r23, Y+16	; 0x10
    17b0:	89 89       	ldd	r24, Y+17	; 0x11
    17b2:	9a 89       	ldd	r25, Y+18	; 0x12
    17b4:	61 15       	cp	r22, r1
    17b6:	71 05       	cpc	r23, r1
    17b8:	81 05       	cpc	r24, r1
    17ba:	91 05       	cpc	r25, r1
    17bc:	09 f4       	brne	.+2      	; 0x17c0 <create_chain+0xb8>
    17be:	df c0       	rjmp	.+446    	; 0x197e <create_chain+0x276>
    17c0:	84 14       	cp	r8, r4
    17c2:	95 04       	cpc	r9, r5
    17c4:	a6 04       	cpc	r10, r6
    17c6:	b7 04       	cpc	r11, r7
    17c8:	09 f0       	breq	.+2      	; 0x17cc <create_chain+0xc4>
    17ca:	40 c0       	rjmp	.+128    	; 0x184c <create_chain+0x144>
    17cc:	75 01       	movw	r14, r10
    17ce:	64 01       	movw	r12, r8
    17d0:	2f ef       	ldi	r18, 0xFF	; 255
    17d2:	c2 1a       	sub	r12, r18
    17d4:	d2 0a       	sbc	r13, r18
    17d6:	e2 0a       	sbc	r14, r18
    17d8:	f2 0a       	sbc	r15, r18
    17da:	8f 89       	ldd	r24, Y+23	; 0x17
    17dc:	98 8d       	ldd	r25, Y+24	; 0x18
    17de:	a9 8d       	ldd	r26, Y+25	; 0x19
    17e0:	ba 8d       	ldd	r27, Y+26	; 0x1a
    17e2:	c8 16       	cp	r12, r24
    17e4:	d9 06       	cpc	r13, r25
    17e6:	ea 06       	cpc	r14, r26
    17e8:	fb 06       	cpc	r15, r27
    17ea:	28 f0       	brcs	.+10     	; 0x17f6 <create_chain+0xee>
    17ec:	c1 2c       	mov	r12, r1
    17ee:	d1 2c       	mov	r13, r1
    17f0:	76 01       	movw	r14, r12
    17f2:	68 94       	set
    17f4:	c1 f8       	bld	r12, 1
    17f6:	b7 01       	movw	r22, r14
    17f8:	a6 01       	movw	r20, r12
    17fa:	c8 01       	movw	r24, r16
    17fc:	c5 dd       	rcall	.-1142   	; 0x1388 <get_fat>
    17fe:	61 30       	cpi	r22, 0x01	; 1
    1800:	71 05       	cpc	r23, r1
    1802:	81 05       	cpc	r24, r1
    1804:	91 05       	cpc	r25, r1
    1806:	09 f4       	brne	.+2      	; 0x180a <create_chain+0x102>
    1808:	ba c0       	rjmp	.+372    	; 0x197e <create_chain+0x276>
    180a:	6f 3f       	cpi	r22, 0xFF	; 255
    180c:	ef ef       	ldi	r30, 0xFF	; 255
    180e:	7e 07       	cpc	r23, r30
    1810:	8e 07       	cpc	r24, r30
    1812:	9e 07       	cpc	r25, r30
    1814:	09 f4       	brne	.+2      	; 0x1818 <create_chain+0x110>
    1816:	b3 c0       	rjmp	.+358    	; 0x197e <create_chain+0x276>
    1818:	67 2b       	or	r22, r23
    181a:	68 2b       	or	r22, r24
    181c:	69 2b       	or	r22, r25
    181e:	19 f1       	breq	.+70     	; 0x1866 <create_chain+0x15e>
    1820:	8b 85       	ldd	r24, Y+11	; 0x0b
    1822:	9c 85       	ldd	r25, Y+12	; 0x0c
    1824:	ad 85       	ldd	r26, Y+13	; 0x0d
    1826:	be 85       	ldd	r27, Y+14	; 0x0e
    1828:	82 30       	cpi	r24, 0x02	; 2
    182a:	91 05       	cpc	r25, r1
    182c:	a1 05       	cpc	r26, r1
    182e:	b1 05       	cpc	r27, r1
    1830:	88 f0       	brcs	.+34     	; 0x1854 <create_chain+0x14c>
    1832:	4f 89       	ldd	r20, Y+23	; 0x17
    1834:	58 8d       	ldd	r21, Y+24	; 0x18
    1836:	69 8d       	ldd	r22, Y+25	; 0x19
    1838:	7a 8d       	ldd	r23, Y+26	; 0x1a
    183a:	84 17       	cp	r24, r20
    183c:	95 07       	cpc	r25, r21
    183e:	a6 07       	cpc	r26, r22
    1840:	b7 07       	cpc	r27, r23
    1842:	60 f0       	brcs	.+24     	; 0x185c <create_chain+0x154>
    1844:	c1 2c       	mov	r12, r1
    1846:	d1 2c       	mov	r13, r1
    1848:	76 01       	movw	r14, r12
    184a:	0d c0       	rjmp	.+26     	; 0x1866 <create_chain+0x15e>
    184c:	c1 2c       	mov	r12, r1
    184e:	d1 2c       	mov	r13, r1
    1850:	76 01       	movw	r14, r12
    1852:	09 c0       	rjmp	.+18     	; 0x1866 <create_chain+0x15e>
    1854:	c1 2c       	mov	r12, r1
    1856:	d1 2c       	mov	r13, r1
    1858:	76 01       	movw	r14, r12
    185a:	05 c0       	rjmp	.+10     	; 0x1866 <create_chain+0x15e>
    185c:	4c 01       	movw	r8, r24
    185e:	5d 01       	movw	r10, r26
    1860:	c1 2c       	mov	r12, r1
    1862:	d1 2c       	mov	r13, r1
    1864:	76 01       	movw	r14, r12
    1866:	c1 14       	cp	r12, r1
    1868:	d1 04       	cpc	r13, r1
    186a:	e1 04       	cpc	r14, r1
    186c:	f1 04       	cpc	r15, r1
    186e:	c1 f5       	brne	.+112    	; 0x18e0 <create_chain+0x1d8>
    1870:	75 01       	movw	r14, r10
    1872:	64 01       	movw	r12, r8
    1874:	ff ef       	ldi	r31, 0xFF	; 255
    1876:	cf 1a       	sub	r12, r31
    1878:	df 0a       	sbc	r13, r31
    187a:	ef 0a       	sbc	r14, r31
    187c:	ff 0a       	sbc	r15, r31
    187e:	8f 89       	ldd	r24, Y+23	; 0x17
    1880:	98 8d       	ldd	r25, Y+24	; 0x18
    1882:	a9 8d       	ldd	r26, Y+25	; 0x19
    1884:	ba 8d       	ldd	r27, Y+26	; 0x1a
    1886:	c8 16       	cp	r12, r24
    1888:	d9 06       	cpc	r13, r25
    188a:	ea 06       	cpc	r14, r26
    188c:	fb 06       	cpc	r15, r27
    188e:	60 f0       	brcs	.+24     	; 0x18a8 <create_chain+0x1a0>
    1890:	22 e0       	ldi	r18, 0x02	; 2
    1892:	82 16       	cp	r8, r18
    1894:	91 04       	cpc	r9, r1
    1896:	a1 04       	cpc	r10, r1
    1898:	b1 04       	cpc	r11, r1
    189a:	08 f4       	brcc	.+2      	; 0x189e <create_chain+0x196>
    189c:	64 c0       	rjmp	.+200    	; 0x1966 <create_chain+0x25e>
    189e:	c1 2c       	mov	r12, r1
    18a0:	d1 2c       	mov	r13, r1
    18a2:	76 01       	movw	r14, r12
    18a4:	68 94       	set
    18a6:	c1 f8       	bld	r12, 1
    18a8:	b7 01       	movw	r22, r14
    18aa:	a6 01       	movw	r20, r12
    18ac:	c8 01       	movw	r24, r16
    18ae:	6c dd       	rcall	.-1320   	; 0x1388 <get_fat>
    18b0:	61 15       	cp	r22, r1
    18b2:	71 05       	cpc	r23, r1
    18b4:	81 05       	cpc	r24, r1
    18b6:	91 05       	cpc	r25, r1
    18b8:	99 f0       	breq	.+38     	; 0x18e0 <create_chain+0x1d8>
    18ba:	61 30       	cpi	r22, 0x01	; 1
    18bc:	71 05       	cpc	r23, r1
    18be:	81 05       	cpc	r24, r1
    18c0:	91 05       	cpc	r25, r1
    18c2:	09 f4       	brne	.+2      	; 0x18c6 <create_chain+0x1be>
    18c4:	5c c0       	rjmp	.+184    	; 0x197e <create_chain+0x276>
    18c6:	6f 3f       	cpi	r22, 0xFF	; 255
    18c8:	ef ef       	ldi	r30, 0xFF	; 255
    18ca:	7e 07       	cpc	r23, r30
    18cc:	8e 07       	cpc	r24, r30
    18ce:	9e 07       	cpc	r25, r30
    18d0:	09 f4       	brne	.+2      	; 0x18d4 <create_chain+0x1cc>
    18d2:	55 c0       	rjmp	.+170    	; 0x197e <create_chain+0x276>
    18d4:	c8 14       	cp	r12, r8
    18d6:	d9 04       	cpc	r13, r9
    18d8:	ea 04       	cpc	r14, r10
    18da:	fb 04       	cpc	r15, r11
    18dc:	59 f6       	brne	.-106    	; 0x1874 <create_chain+0x16c>
    18de:	47 c0       	rjmp	.+142    	; 0x196e <create_chain+0x266>
    18e0:	0f ef       	ldi	r16, 0xFF	; 255
    18e2:	1f ef       	ldi	r17, 0xFF	; 255
    18e4:	98 01       	movw	r18, r16
    18e6:	b7 01       	movw	r22, r14
    18e8:	a6 01       	movw	r20, r12
    18ea:	ce 01       	movw	r24, r28
    18ec:	2a dc       	rcall	.-1964   	; 0x1142 <put_fat>
    18ee:	81 11       	cpse	r24, r1
    18f0:	0b c0       	rjmp	.+22     	; 0x1908 <create_chain+0x200>
    18f2:	41 14       	cp	r4, r1
    18f4:	51 04       	cpc	r5, r1
    18f6:	61 04       	cpc	r6, r1
    18f8:	71 04       	cpc	r7, r1
    18fa:	31 f0       	breq	.+12     	; 0x1908 <create_chain+0x200>
    18fc:	97 01       	movw	r18, r14
    18fe:	86 01       	movw	r16, r12
    1900:	b3 01       	movw	r22, r6
    1902:	a2 01       	movw	r20, r4
    1904:	ce 01       	movw	r24, r28
    1906:	1d dc       	rcall	.-1990   	; 0x1142 <put_fat>
    1908:	81 11       	cpse	r24, r1
    190a:	22 c0       	rjmp	.+68     	; 0x1950 <create_chain+0x248>
    190c:	cb 86       	std	Y+11, r12	; 0x0b
    190e:	dc 86       	std	Y+12, r13	; 0x0c
    1910:	ed 86       	std	Y+13, r14	; 0x0d
    1912:	fe 86       	std	Y+14, r15	; 0x0e
    1914:	4f 85       	ldd	r20, Y+15	; 0x0f
    1916:	58 89       	ldd	r21, Y+16	; 0x10
    1918:	69 89       	ldd	r22, Y+17	; 0x11
    191a:	7a 89       	ldd	r23, Y+18	; 0x12
    191c:	8f 89       	ldd	r24, Y+23	; 0x17
    191e:	98 8d       	ldd	r25, Y+24	; 0x18
    1920:	a9 8d       	ldd	r26, Y+25	; 0x19
    1922:	ba 8d       	ldd	r27, Y+26	; 0x1a
    1924:	02 97       	sbiw	r24, 0x02	; 2
    1926:	a1 09       	sbc	r26, r1
    1928:	b1 09       	sbc	r27, r1
    192a:	84 17       	cp	r24, r20
    192c:	95 07       	cpc	r25, r21
    192e:	a6 07       	cpc	r26, r22
    1930:	b7 07       	cpc	r27, r23
    1932:	40 f0       	brcs	.+16     	; 0x1944 <create_chain+0x23c>
    1934:	41 50       	subi	r20, 0x01	; 1
    1936:	51 09       	sbc	r21, r1
    1938:	61 09       	sbc	r22, r1
    193a:	71 09       	sbc	r23, r1
    193c:	4f 87       	std	Y+15, r20	; 0x0f
    193e:	58 8b       	std	Y+16, r21	; 0x10
    1940:	69 8b       	std	Y+17, r22	; 0x11
    1942:	7a 8b       	std	Y+18, r23	; 0x12
    1944:	8c 81       	ldd	r24, Y+4	; 0x04
    1946:	81 60       	ori	r24, 0x01	; 1
    1948:	8c 83       	std	Y+4, r24	; 0x04
    194a:	c7 01       	movw	r24, r14
    194c:	b6 01       	movw	r22, r12
    194e:	17 c0       	rjmp	.+46     	; 0x197e <create_chain+0x276>
    1950:	81 30       	cpi	r24, 0x01	; 1
    1952:	89 f4       	brne	.+34     	; 0x1976 <create_chain+0x26e>
    1954:	6f ef       	ldi	r22, 0xFF	; 255
    1956:	7f ef       	ldi	r23, 0xFF	; 255
    1958:	cb 01       	movw	r24, r22
    195a:	11 c0       	rjmp	.+34     	; 0x197e <create_chain+0x276>
    195c:	61 e0       	ldi	r22, 0x01	; 1
    195e:	70 e0       	ldi	r23, 0x00	; 0
    1960:	80 e0       	ldi	r24, 0x00	; 0
    1962:	90 e0       	ldi	r25, 0x00	; 0
    1964:	0c c0       	rjmp	.+24     	; 0x197e <create_chain+0x276>
    1966:	60 e0       	ldi	r22, 0x00	; 0
    1968:	70 e0       	ldi	r23, 0x00	; 0
    196a:	cb 01       	movw	r24, r22
    196c:	08 c0       	rjmp	.+16     	; 0x197e <create_chain+0x276>
    196e:	60 e0       	ldi	r22, 0x00	; 0
    1970:	70 e0       	ldi	r23, 0x00	; 0
    1972:	cb 01       	movw	r24, r22
    1974:	04 c0       	rjmp	.+8      	; 0x197e <create_chain+0x276>
    1976:	61 e0       	ldi	r22, 0x01	; 1
    1978:	70 e0       	ldi	r23, 0x00	; 0
    197a:	80 e0       	ldi	r24, 0x00	; 0
    197c:	90 e0       	ldi	r25, 0x00	; 0
    197e:	df 91       	pop	r29
    1980:	cf 91       	pop	r28
    1982:	1f 91       	pop	r17
    1984:	0f 91       	pop	r16
    1986:	ff 90       	pop	r15
    1988:	ef 90       	pop	r14
    198a:	df 90       	pop	r13
    198c:	cf 90       	pop	r12
    198e:	bf 90       	pop	r11
    1990:	af 90       	pop	r10
    1992:	9f 90       	pop	r9
    1994:	8f 90       	pop	r8
    1996:	7f 90       	pop	r7
    1998:	6f 90       	pop	r6
    199a:	5f 90       	pop	r5
    199c:	4f 90       	pop	r4
    199e:	08 95       	ret

000019a0 <remove_chain>:
    19a0:	4f 92       	push	r4
    19a2:	5f 92       	push	r5
    19a4:	6f 92       	push	r6
    19a6:	7f 92       	push	r7
    19a8:	af 92       	push	r10
    19aa:	bf 92       	push	r11
    19ac:	cf 92       	push	r12
    19ae:	df 92       	push	r13
    19b0:	ef 92       	push	r14
    19b2:	ff 92       	push	r15
    19b4:	0f 93       	push	r16
    19b6:	1f 93       	push	r17
    19b8:	cf 93       	push	r28
    19ba:	df 93       	push	r29
    19bc:	5c 01       	movw	r10, r24
    19be:	6a 01       	movw	r12, r20
    19c0:	7b 01       	movw	r14, r22
    19c2:	b9 01       	movw	r22, r18
    19c4:	a8 01       	movw	r20, r16
    19c6:	fc 01       	movw	r30, r24
    19c8:	c0 81       	ld	r28, Z
    19ca:	d1 81       	ldd	r29, Z+1	; 0x01
    19cc:	f2 e0       	ldi	r31, 0x02	; 2
    19ce:	cf 16       	cp	r12, r31
    19d0:	d1 04       	cpc	r13, r1
    19d2:	e1 04       	cpc	r14, r1
    19d4:	f1 04       	cpc	r15, r1
    19d6:	08 f4       	brcc	.+2      	; 0x19da <remove_chain+0x3a>
    19d8:	5d c0       	rjmp	.+186    	; 0x1a94 <remove_chain+0xf4>
    19da:	8f 89       	ldd	r24, Y+23	; 0x17
    19dc:	98 8d       	ldd	r25, Y+24	; 0x18
    19de:	a9 8d       	ldd	r26, Y+25	; 0x19
    19e0:	ba 8d       	ldd	r27, Y+26	; 0x1a
    19e2:	c8 16       	cp	r12, r24
    19e4:	d9 06       	cpc	r13, r25
    19e6:	ea 06       	cpc	r14, r26
    19e8:	fb 06       	cpc	r15, r27
    19ea:	08 f0       	brcs	.+2      	; 0x19ee <remove_chain+0x4e>
    19ec:	55 c0       	rjmp	.+170    	; 0x1a98 <remove_chain+0xf8>
    19ee:	01 2b       	or	r16, r17
    19f0:	02 2b       	or	r16, r18
    19f2:	03 2b       	or	r16, r19
    19f4:	39 f0       	breq	.+14     	; 0x1a04 <remove_chain+0x64>
    19f6:	0f ef       	ldi	r16, 0xFF	; 255
    19f8:	1f ef       	ldi	r17, 0xFF	; 255
    19fa:	98 01       	movw	r18, r16
    19fc:	ce 01       	movw	r24, r28
    19fe:	a1 db       	rcall	.-2238   	; 0x1142 <put_fat>
    1a00:	81 11       	cpse	r24, r1
    1a02:	51 c0       	rjmp	.+162    	; 0x1aa6 <remove_chain+0x106>
    1a04:	b7 01       	movw	r22, r14
    1a06:	a6 01       	movw	r20, r12
    1a08:	c5 01       	movw	r24, r10
    1a0a:	be dc       	rcall	.-1668   	; 0x1388 <get_fat>
    1a0c:	2b 01       	movw	r4, r22
    1a0e:	3c 01       	movw	r6, r24
    1a10:	61 15       	cp	r22, r1
    1a12:	71 05       	cpc	r23, r1
    1a14:	81 05       	cpc	r24, r1
    1a16:	91 05       	cpc	r25, r1
    1a18:	09 f4       	brne	.+2      	; 0x1a1c <remove_chain+0x7c>
    1a1a:	40 c0       	rjmp	.+128    	; 0x1a9c <remove_chain+0xfc>
    1a1c:	61 30       	cpi	r22, 0x01	; 1
    1a1e:	71 05       	cpc	r23, r1
    1a20:	81 05       	cpc	r24, r1
    1a22:	91 05       	cpc	r25, r1
    1a24:	e9 f1       	breq	.+122    	; 0x1aa0 <remove_chain+0x100>
    1a26:	8f ef       	ldi	r24, 0xFF	; 255
    1a28:	48 16       	cp	r4, r24
    1a2a:	58 06       	cpc	r5, r24
    1a2c:	68 06       	cpc	r6, r24
    1a2e:	78 06       	cpc	r7, r24
    1a30:	c9 f1       	breq	.+114    	; 0x1aa4 <remove_chain+0x104>
    1a32:	00 e0       	ldi	r16, 0x00	; 0
    1a34:	10 e0       	ldi	r17, 0x00	; 0
    1a36:	98 01       	movw	r18, r16
    1a38:	b7 01       	movw	r22, r14
    1a3a:	a6 01       	movw	r20, r12
    1a3c:	ce 01       	movw	r24, r28
    1a3e:	81 db       	rcall	.-2302   	; 0x1142 <put_fat>
    1a40:	81 11       	cpse	r24, r1
    1a42:	31 c0       	rjmp	.+98     	; 0x1aa6 <remove_chain+0x106>
    1a44:	8f 85       	ldd	r24, Y+15	; 0x0f
    1a46:	98 89       	ldd	r25, Y+16	; 0x10
    1a48:	a9 89       	ldd	r26, Y+17	; 0x11
    1a4a:	ba 89       	ldd	r27, Y+18	; 0x12
    1a4c:	4f 89       	ldd	r20, Y+23	; 0x17
    1a4e:	58 8d       	ldd	r21, Y+24	; 0x18
    1a50:	69 8d       	ldd	r22, Y+25	; 0x19
    1a52:	7a 8d       	ldd	r23, Y+26	; 0x1a
    1a54:	6a 01       	movw	r12, r20
    1a56:	7b 01       	movw	r14, r22
    1a58:	e2 e0       	ldi	r30, 0x02	; 2
    1a5a:	ce 1a       	sub	r12, r30
    1a5c:	d1 08       	sbc	r13, r1
    1a5e:	e1 08       	sbc	r14, r1
    1a60:	f1 08       	sbc	r15, r1
    1a62:	8c 15       	cp	r24, r12
    1a64:	9d 05       	cpc	r25, r13
    1a66:	ae 05       	cpc	r26, r14
    1a68:	bf 05       	cpc	r27, r15
    1a6a:	50 f4       	brcc	.+20     	; 0x1a80 <remove_chain+0xe0>
    1a6c:	01 96       	adiw	r24, 0x01	; 1
    1a6e:	a1 1d       	adc	r26, r1
    1a70:	b1 1d       	adc	r27, r1
    1a72:	8f 87       	std	Y+15, r24	; 0x0f
    1a74:	98 8b       	std	Y+16, r25	; 0x10
    1a76:	a9 8b       	std	Y+17, r26	; 0x11
    1a78:	ba 8b       	std	Y+18, r27	; 0x12
    1a7a:	8c 81       	ldd	r24, Y+4	; 0x04
    1a7c:	81 60       	ori	r24, 0x01	; 1
    1a7e:	8c 83       	std	Y+4, r24	; 0x04
    1a80:	73 01       	movw	r14, r6
    1a82:	62 01       	movw	r12, r4
    1a84:	44 16       	cp	r4, r20
    1a86:	55 06       	cpc	r5, r21
    1a88:	66 06       	cpc	r6, r22
    1a8a:	77 06       	cpc	r7, r23
    1a8c:	08 f4       	brcc	.+2      	; 0x1a90 <remove_chain+0xf0>
    1a8e:	ba cf       	rjmp	.-140    	; 0x1a04 <remove_chain+0x64>
    1a90:	80 e0       	ldi	r24, 0x00	; 0
    1a92:	09 c0       	rjmp	.+18     	; 0x1aa6 <remove_chain+0x106>
    1a94:	82 e0       	ldi	r24, 0x02	; 2
    1a96:	07 c0       	rjmp	.+14     	; 0x1aa6 <remove_chain+0x106>
    1a98:	82 e0       	ldi	r24, 0x02	; 2
    1a9a:	05 c0       	rjmp	.+10     	; 0x1aa6 <remove_chain+0x106>
    1a9c:	80 e0       	ldi	r24, 0x00	; 0
    1a9e:	03 c0       	rjmp	.+6      	; 0x1aa6 <remove_chain+0x106>
    1aa0:	82 e0       	ldi	r24, 0x02	; 2
    1aa2:	01 c0       	rjmp	.+2      	; 0x1aa6 <remove_chain+0x106>
    1aa4:	81 e0       	ldi	r24, 0x01	; 1
    1aa6:	df 91       	pop	r29
    1aa8:	cf 91       	pop	r28
    1aaa:	1f 91       	pop	r17
    1aac:	0f 91       	pop	r16
    1aae:	ff 90       	pop	r15
    1ab0:	ef 90       	pop	r14
    1ab2:	df 90       	pop	r13
    1ab4:	cf 90       	pop	r12
    1ab6:	bf 90       	pop	r11
    1ab8:	af 90       	pop	r10
    1aba:	7f 90       	pop	r7
    1abc:	6f 90       	pop	r6
    1abe:	5f 90       	pop	r5
    1ac0:	4f 90       	pop	r4
    1ac2:	08 95       	ret

00001ac4 <dir_remove>:
    1ac4:	0f 93       	push	r16
    1ac6:	1f 93       	push	r17
    1ac8:	cf 93       	push	r28
    1aca:	df 93       	push	r29
    1acc:	ec 01       	movw	r28, r24
    1ace:	08 81       	ld	r16, Y
    1ad0:	19 81       	ldd	r17, Y+1	; 0x01
    1ad2:	4e 89       	ldd	r20, Y+22	; 0x16
    1ad4:	5f 89       	ldd	r21, Y+23	; 0x17
    1ad6:	68 8d       	ldd	r22, Y+24	; 0x18
    1ad8:	79 8d       	ldd	r23, Y+25	; 0x19
    1ada:	c8 01       	movw	r24, r16
    1adc:	0e 94 cf 04 	call	0x99e	; 0x99e <move_window>
    1ae0:	81 11       	cpse	r24, r1
    1ae2:	07 c0       	rjmp	.+14     	; 0x1af2 <dir_remove+0x2e>
    1ae4:	ea 8d       	ldd	r30, Y+26	; 0x1a
    1ae6:	fb 8d       	ldd	r31, Y+27	; 0x1b
    1ae8:	95 ee       	ldi	r25, 0xE5	; 229
    1aea:	90 83       	st	Z, r25
    1aec:	91 e0       	ldi	r25, 0x01	; 1
    1aee:	f8 01       	movw	r30, r16
    1af0:	93 83       	std	Z+3, r25	; 0x03
    1af2:	df 91       	pop	r29
    1af4:	cf 91       	pop	r28
    1af6:	1f 91       	pop	r17
    1af8:	0f 91       	pop	r16
    1afa:	08 95       	ret

00001afc <dir_clear>:
    1afc:	8f 92       	push	r8
    1afe:	9f 92       	push	r9
    1b00:	af 92       	push	r10
    1b02:	bf 92       	push	r11
    1b04:	cf 92       	push	r12
    1b06:	df 92       	push	r13
    1b08:	ef 92       	push	r14
    1b0a:	ff 92       	push	r15
    1b0c:	0f 93       	push	r16
    1b0e:	1f 93       	push	r17
    1b10:	cf 93       	push	r28
    1b12:	df 93       	push	r29
    1b14:	7c 01       	movw	r14, r24
    1b16:	4a 01       	movw	r8, r20
    1b18:	5b 01       	movw	r10, r22
    1b1a:	0e 94 77 04 	call	0x8ee	; 0x8ee <sync_window>
    1b1e:	81 11       	cpse	r24, r1
    1b20:	39 c0       	rjmp	.+114    	; 0x1b94 <dir_clear+0x98>
    1b22:	b5 01       	movw	r22, r10
    1b24:	a4 01       	movw	r20, r8
    1b26:	c7 01       	movw	r24, r14
    1b28:	0e 94 8f 03 	call	0x71e	; 0x71e <clst2sect>
    1b2c:	4b 01       	movw	r8, r22
    1b2e:	5c 01       	movw	r10, r24
    1b30:	f7 01       	movw	r30, r14
    1b32:	67 a7       	std	Z+47, r22	; 0x2f
    1b34:	70 ab       	std	Z+48, r23	; 0x30
    1b36:	81 ab       	std	Z+49, r24	; 0x31
    1b38:	92 ab       	std	Z+50, r25	; 0x32
    1b3a:	67 01       	movw	r12, r14
    1b3c:	f3 e3       	ldi	r31, 0x33	; 51
    1b3e:	cf 0e       	add	r12, r31
    1b40:	d1 1c       	adc	r13, r1
    1b42:	80 e0       	ldi	r24, 0x00	; 0
    1b44:	92 e0       	ldi	r25, 0x02	; 2
    1b46:	f6 01       	movw	r30, r12
    1b48:	9c 01       	movw	r18, r24
    1b4a:	11 92       	st	Z+, r1
    1b4c:	21 50       	subi	r18, 0x01	; 1
    1b4e:	30 40       	sbci	r19, 0x00	; 0
    1b50:	e1 f7       	brne	.-8      	; 0x1b4a <dir_clear+0x4e>
    1b52:	c0 e0       	ldi	r28, 0x00	; 0
    1b54:	d0 e0       	ldi	r29, 0x00	; 0
    1b56:	01 c0       	rjmp	.+2      	; 0x1b5a <dir_clear+0x5e>
    1b58:	21 96       	adiw	r28, 0x01	; 1
    1b5a:	f7 01       	movw	r30, r14
    1b5c:	81 85       	ldd	r24, Z+9	; 0x09
    1b5e:	92 85       	ldd	r25, Z+10	; 0x0a
    1b60:	c8 17       	cp	r28, r24
    1b62:	d9 07       	cpc	r29, r25
    1b64:	70 f4       	brcc	.+28     	; 0x1b82 <dir_clear+0x86>
    1b66:	01 e0       	ldi	r16, 0x01	; 1
    1b68:	10 e0       	ldi	r17, 0x00	; 0
    1b6a:	a5 01       	movw	r20, r10
    1b6c:	94 01       	movw	r18, r8
    1b6e:	2c 0f       	add	r18, r28
    1b70:	3d 1f       	adc	r19, r29
    1b72:	41 1d       	adc	r20, r1
    1b74:	51 1d       	adc	r21, r1
    1b76:	b6 01       	movw	r22, r12
    1b78:	81 81       	ldd	r24, Z+1	; 0x01
    1b7a:	0e 94 14 03 	call	0x628	; 0x628 <disk_write>
    1b7e:	88 23       	and	r24, r24
    1b80:	59 f3       	breq	.-42     	; 0x1b58 <dir_clear+0x5c>
    1b82:	f7 01       	movw	r30, r14
    1b84:	21 85       	ldd	r18, Z+9	; 0x09
    1b86:	32 85       	ldd	r19, Z+10	; 0x0a
    1b88:	81 e0       	ldi	r24, 0x01	; 1
    1b8a:	c2 17       	cp	r28, r18
    1b8c:	d3 07       	cpc	r29, r19
    1b8e:	19 f4       	brne	.+6      	; 0x1b96 <dir_clear+0x9a>
    1b90:	80 e0       	ldi	r24, 0x00	; 0
    1b92:	01 c0       	rjmp	.+2      	; 0x1b96 <dir_clear+0x9a>
    1b94:	81 e0       	ldi	r24, 0x01	; 1
    1b96:	df 91       	pop	r29
    1b98:	cf 91       	pop	r28
    1b9a:	1f 91       	pop	r17
    1b9c:	0f 91       	pop	r16
    1b9e:	ff 90       	pop	r15
    1ba0:	ef 90       	pop	r14
    1ba2:	df 90       	pop	r13
    1ba4:	cf 90       	pop	r12
    1ba6:	bf 90       	pop	r11
    1ba8:	af 90       	pop	r10
    1baa:	9f 90       	pop	r9
    1bac:	8f 90       	pop	r8
    1bae:	08 95       	ret

00001bb0 <dir_next>:
    1bb0:	4f 92       	push	r4
    1bb2:	5f 92       	push	r5
    1bb4:	6f 92       	push	r6
    1bb6:	7f 92       	push	r7
    1bb8:	af 92       	push	r10
    1bba:	bf 92       	push	r11
    1bbc:	cf 92       	push	r12
    1bbe:	df 92       	push	r13
    1bc0:	ef 92       	push	r14
    1bc2:	ff 92       	push	r15
    1bc4:	0f 93       	push	r16
    1bc6:	1f 93       	push	r17
    1bc8:	cf 93       	push	r28
    1bca:	df 93       	push	r29
    1bcc:	fc 01       	movw	r30, r24
    1bce:	c0 81       	ld	r28, Z
    1bd0:	d1 81       	ldd	r29, Z+1	; 0x01
    1bd2:	c6 84       	ldd	r12, Z+14	; 0x0e
    1bd4:	d7 84       	ldd	r13, Z+15	; 0x0f
    1bd6:	e0 88       	ldd	r14, Z+16	; 0x10
    1bd8:	f1 88       	ldd	r15, Z+17	; 0x11
    1bda:	80 e2       	ldi	r24, 0x20	; 32
    1bdc:	c8 0e       	add	r12, r24
    1bde:	d1 1c       	adc	r13, r1
    1be0:	e1 1c       	adc	r14, r1
    1be2:	f1 1c       	adc	r15, r1
    1be4:	c1 14       	cp	r12, r1
    1be6:	d1 04       	cpc	r13, r1
    1be8:	80 e2       	ldi	r24, 0x20	; 32
    1bea:	e8 06       	cpc	r14, r24
    1bec:	f1 04       	cpc	r15, r1
    1bee:	20 f0       	brcs	.+8      	; 0x1bf8 <dir_next+0x48>
    1bf0:	16 8a       	std	Z+22, r1	; 0x16
    1bf2:	17 8a       	std	Z+23, r1	; 0x17
    1bf4:	10 8e       	std	Z+24, r1	; 0x18
    1bf6:	11 8e       	std	Z+25, r1	; 0x19
    1bf8:	86 89       	ldd	r24, Z+22	; 0x16
    1bfa:	97 89       	ldd	r25, Z+23	; 0x17
    1bfc:	a0 8d       	ldd	r26, Z+24	; 0x18
    1bfe:	b1 8d       	ldd	r27, Z+25	; 0x19
    1c00:	00 97       	sbiw	r24, 0x00	; 0
    1c02:	a1 05       	cpc	r26, r1
    1c04:	b1 05       	cpc	r27, r1
    1c06:	09 f4       	brne	.+2      	; 0x1c0a <dir_next+0x5a>
    1c08:	b0 c0       	rjmp	.+352    	; 0x1d6a <dir_next+0x1ba>
    1c0a:	8b 01       	movw	r16, r22
    1c0c:	5f 01       	movw	r10, r30
    1c0e:	b7 01       	movw	r22, r14
    1c10:	a6 01       	movw	r20, r12
    1c12:	51 70       	andi	r21, 0x01	; 1
    1c14:	66 27       	eor	r22, r22
    1c16:	77 27       	eor	r23, r23
    1c18:	45 2b       	or	r20, r21
    1c1a:	46 2b       	or	r20, r22
    1c1c:	47 2b       	or	r20, r23
    1c1e:	09 f0       	breq	.+2      	; 0x1c22 <dir_next+0x72>
    1c20:	95 c0       	rjmp	.+298    	; 0x1d4c <dir_next+0x19c>
    1c22:	01 96       	adiw	r24, 0x01	; 1
    1c24:	a1 1d       	adc	r26, r1
    1c26:	b1 1d       	adc	r27, r1
    1c28:	86 8b       	std	Z+22, r24	; 0x16
    1c2a:	97 8b       	std	Z+23, r25	; 0x17
    1c2c:	a0 8f       	std	Z+24, r26	; 0x18
    1c2e:	b1 8f       	std	Z+25, r27	; 0x19
    1c30:	42 89       	ldd	r20, Z+18	; 0x12
    1c32:	53 89       	ldd	r21, Z+19	; 0x13
    1c34:	64 89       	ldd	r22, Z+20	; 0x14
    1c36:	75 89       	ldd	r23, Z+21	; 0x15
    1c38:	41 15       	cp	r20, r1
    1c3a:	51 05       	cpc	r21, r1
    1c3c:	61 05       	cpc	r22, r1
    1c3e:	71 05       	cpc	r23, r1
    1c40:	d1 f4       	brne	.+52     	; 0x1c76 <dir_next+0xc6>
    1c42:	8f 81       	ldd	r24, Y+7	; 0x07
    1c44:	98 85       	ldd	r25, Y+8	; 0x08
    1c46:	a0 e0       	ldi	r26, 0x00	; 0
    1c48:	b0 e0       	ldi	r27, 0x00	; 0
    1c4a:	b7 01       	movw	r22, r14
    1c4c:	a6 01       	movw	r20, r12
    1c4e:	68 94       	set
    1c50:	14 f8       	bld	r1, 4
    1c52:	76 95       	lsr	r23
    1c54:	67 95       	ror	r22
    1c56:	57 95       	ror	r21
    1c58:	47 95       	ror	r20
    1c5a:	16 94       	lsr	r1
    1c5c:	d1 f7       	brne	.-12     	; 0x1c52 <dir_next+0xa2>
    1c5e:	48 17       	cp	r20, r24
    1c60:	59 07       	cpc	r21, r25
    1c62:	6a 07       	cpc	r22, r26
    1c64:	7b 07       	cpc	r23, r27
    1c66:	08 f4       	brcc	.+2      	; 0x1c6a <dir_next+0xba>
    1c68:	71 c0       	rjmp	.+226    	; 0x1d4c <dir_next+0x19c>
    1c6a:	16 8a       	std	Z+22, r1	; 0x16
    1c6c:	17 8a       	std	Z+23, r1	; 0x17
    1c6e:	10 8e       	std	Z+24, r1	; 0x18
    1c70:	11 8e       	std	Z+25, r1	; 0x19
    1c72:	84 e0       	ldi	r24, 0x04	; 4
    1c74:	87 c0       	rjmp	.+270    	; 0x1d84 <dir_next+0x1d4>
    1c76:	89 85       	ldd	r24, Y+9	; 0x09
    1c78:	9a 85       	ldd	r25, Y+10	; 0x0a
    1c7a:	01 97       	sbiw	r24, 0x01	; 1
    1c7c:	2c 01       	movw	r4, r24
    1c7e:	61 2c       	mov	r6, r1
    1c80:	71 2c       	mov	r7, r1
    1c82:	d7 01       	movw	r26, r14
    1c84:	c6 01       	movw	r24, r12
    1c86:	07 2e       	mov	r0, r23
    1c88:	79 e0       	ldi	r23, 0x09	; 9
    1c8a:	b6 95       	lsr	r27
    1c8c:	a7 95       	ror	r26
    1c8e:	97 95       	ror	r25
    1c90:	87 95       	ror	r24
    1c92:	7a 95       	dec	r23
    1c94:	d1 f7       	brne	.-12     	; 0x1c8a <dir_next+0xda>
    1c96:	70 2d       	mov	r23, r0
    1c98:	84 21       	and	r24, r4
    1c9a:	95 21       	and	r25, r5
    1c9c:	a6 21       	and	r26, r6
    1c9e:	b7 21       	and	r27, r7
    1ca0:	89 2b       	or	r24, r25
    1ca2:	8a 2b       	or	r24, r26
    1ca4:	8b 2b       	or	r24, r27
    1ca6:	09 f0       	breq	.+2      	; 0x1caa <dir_next+0xfa>
    1ca8:	51 c0       	rjmp	.+162    	; 0x1d4c <dir_next+0x19c>
    1caa:	cf 01       	movw	r24, r30
    1cac:	6d db       	rcall	.-2342   	; 0x1388 <get_fat>
    1cae:	2b 01       	movw	r4, r22
    1cb0:	3c 01       	movw	r6, r24
    1cb2:	62 30       	cpi	r22, 0x02	; 2
    1cb4:	71 05       	cpc	r23, r1
    1cb6:	81 05       	cpc	r24, r1
    1cb8:	91 05       	cpc	r25, r1
    1cba:	08 f4       	brcc	.+2      	; 0x1cbe <dir_next+0x10e>
    1cbc:	58 c0       	rjmp	.+176    	; 0x1d6e <dir_next+0x1be>
    1cbe:	8f ef       	ldi	r24, 0xFF	; 255
    1cc0:	48 16       	cp	r4, r24
    1cc2:	58 06       	cpc	r5, r24
    1cc4:	68 06       	cpc	r6, r24
    1cc6:	78 06       	cpc	r7, r24
    1cc8:	09 f4       	brne	.+2      	; 0x1ccc <dir_next+0x11c>
    1cca:	53 c0       	rjmp	.+166    	; 0x1d72 <dir_next+0x1c2>
    1ccc:	8f 89       	ldd	r24, Y+23	; 0x17
    1cce:	98 8d       	ldd	r25, Y+24	; 0x18
    1cd0:	a9 8d       	ldd	r26, Y+25	; 0x19
    1cd2:	ba 8d       	ldd	r27, Y+26	; 0x1a
    1cd4:	48 16       	cp	r4, r24
    1cd6:	59 06       	cpc	r5, r25
    1cd8:	6a 06       	cpc	r6, r26
    1cda:	7b 06       	cpc	r7, r27
    1cdc:	40 f1       	brcs	.+80     	; 0x1d2e <dir_next+0x17e>
    1cde:	01 2b       	or	r16, r17
    1ce0:	39 f4       	brne	.+14     	; 0x1cf0 <dir_next+0x140>
    1ce2:	f5 01       	movw	r30, r10
    1ce4:	16 8a       	std	Z+22, r1	; 0x16
    1ce6:	17 8a       	std	Z+23, r1	; 0x17
    1ce8:	10 8e       	std	Z+24, r1	; 0x18
    1cea:	11 8e       	std	Z+25, r1	; 0x19
    1cec:	84 e0       	ldi	r24, 0x04	; 4
    1cee:	4a c0       	rjmp	.+148    	; 0x1d84 <dir_next+0x1d4>
    1cf0:	f5 01       	movw	r30, r10
    1cf2:	42 89       	ldd	r20, Z+18	; 0x12
    1cf4:	53 89       	ldd	r21, Z+19	; 0x13
    1cf6:	64 89       	ldd	r22, Z+20	; 0x14
    1cf8:	75 89       	ldd	r23, Z+21	; 0x15
    1cfa:	c5 01       	movw	r24, r10
    1cfc:	05 dd       	rcall	.-1526   	; 0x1708 <create_chain>
    1cfe:	2b 01       	movw	r4, r22
    1d00:	3c 01       	movw	r6, r24
    1d02:	61 15       	cp	r22, r1
    1d04:	71 05       	cpc	r23, r1
    1d06:	81 05       	cpc	r24, r1
    1d08:	91 05       	cpc	r25, r1
    1d0a:	a9 f1       	breq	.+106    	; 0x1d76 <dir_next+0x1c6>
    1d0c:	61 30       	cpi	r22, 0x01	; 1
    1d0e:	71 05       	cpc	r23, r1
    1d10:	81 05       	cpc	r24, r1
    1d12:	91 05       	cpc	r25, r1
    1d14:	91 f1       	breq	.+100    	; 0x1d7a <dir_next+0x1ca>
    1d16:	8f ef       	ldi	r24, 0xFF	; 255
    1d18:	48 16       	cp	r4, r24
    1d1a:	58 06       	cpc	r5, r24
    1d1c:	68 06       	cpc	r6, r24
    1d1e:	78 06       	cpc	r7, r24
    1d20:	71 f1       	breq	.+92     	; 0x1d7e <dir_next+0x1ce>
    1d22:	b3 01       	movw	r22, r6
    1d24:	a2 01       	movw	r20, r4
    1d26:	ce 01       	movw	r24, r28
    1d28:	e9 de       	rcall	.-558    	; 0x1afc <dir_clear>
    1d2a:	81 11       	cpse	r24, r1
    1d2c:	2a c0       	rjmp	.+84     	; 0x1d82 <dir_next+0x1d2>
    1d2e:	f5 01       	movw	r30, r10
    1d30:	42 8a       	std	Z+18, r4	; 0x12
    1d32:	53 8a       	std	Z+19, r5	; 0x13
    1d34:	64 8a       	std	Z+20, r6	; 0x14
    1d36:	75 8a       	std	Z+21, r7	; 0x15
    1d38:	b3 01       	movw	r22, r6
    1d3a:	a2 01       	movw	r20, r4
    1d3c:	ce 01       	movw	r24, r28
    1d3e:	0e 94 8f 03 	call	0x71e	; 0x71e <clst2sect>
    1d42:	f5 01       	movw	r30, r10
    1d44:	66 8b       	std	Z+22, r22	; 0x16
    1d46:	77 8b       	std	Z+23, r23	; 0x17
    1d48:	80 8f       	std	Z+24, r24	; 0x18
    1d4a:	91 8f       	std	Z+25, r25	; 0x19
    1d4c:	f5 01       	movw	r30, r10
    1d4e:	c6 86       	std	Z+14, r12	; 0x0e
    1d50:	d7 86       	std	Z+15, r13	; 0x0f
    1d52:	e0 8a       	std	Z+16, r14	; 0x10
    1d54:	f1 8a       	std	Z+17, r15	; 0x11
    1d56:	e3 96       	adiw	r28, 0x33	; 51
    1d58:	f1 e0       	ldi	r31, 0x01	; 1
    1d5a:	df 22       	and	r13, r31
    1d5c:	cc 0e       	add	r12, r28
    1d5e:	dd 1e       	adc	r13, r29
    1d60:	f5 01       	movw	r30, r10
    1d62:	d3 8e       	std	Z+27, r13	; 0x1b
    1d64:	c2 8e       	std	Z+26, r12	; 0x1a
    1d66:	80 e0       	ldi	r24, 0x00	; 0
    1d68:	0d c0       	rjmp	.+26     	; 0x1d84 <dir_next+0x1d4>
    1d6a:	84 e0       	ldi	r24, 0x04	; 4
    1d6c:	0b c0       	rjmp	.+22     	; 0x1d84 <dir_next+0x1d4>
    1d6e:	82 e0       	ldi	r24, 0x02	; 2
    1d70:	09 c0       	rjmp	.+18     	; 0x1d84 <dir_next+0x1d4>
    1d72:	81 e0       	ldi	r24, 0x01	; 1
    1d74:	07 c0       	rjmp	.+14     	; 0x1d84 <dir_next+0x1d4>
    1d76:	87 e0       	ldi	r24, 0x07	; 7
    1d78:	05 c0       	rjmp	.+10     	; 0x1d84 <dir_next+0x1d4>
    1d7a:	82 e0       	ldi	r24, 0x02	; 2
    1d7c:	03 c0       	rjmp	.+6      	; 0x1d84 <dir_next+0x1d4>
    1d7e:	81 e0       	ldi	r24, 0x01	; 1
    1d80:	01 c0       	rjmp	.+2      	; 0x1d84 <dir_next+0x1d4>
    1d82:	81 e0       	ldi	r24, 0x01	; 1
    1d84:	df 91       	pop	r29
    1d86:	cf 91       	pop	r28
    1d88:	1f 91       	pop	r17
    1d8a:	0f 91       	pop	r16
    1d8c:	ff 90       	pop	r15
    1d8e:	ef 90       	pop	r14
    1d90:	df 90       	pop	r13
    1d92:	cf 90       	pop	r12
    1d94:	bf 90       	pop	r11
    1d96:	af 90       	pop	r10
    1d98:	7f 90       	pop	r7
    1d9a:	6f 90       	pop	r6
    1d9c:	5f 90       	pop	r5
    1d9e:	4f 90       	pop	r4
    1da0:	08 95       	ret

00001da2 <dir_find>:
    1da2:	ef 92       	push	r14
    1da4:	ff 92       	push	r15
    1da6:	1f 93       	push	r17
    1da8:	cf 93       	push	r28
    1daa:	df 93       	push	r29
    1dac:	ec 01       	movw	r28, r24
    1dae:	e8 80       	ld	r14, Y
    1db0:	f9 80       	ldd	r15, Y+1	; 0x01
    1db2:	40 e0       	ldi	r20, 0x00	; 0
    1db4:	50 e0       	ldi	r21, 0x00	; 0
    1db6:	ba 01       	movw	r22, r20
    1db8:	c3 db       	rcall	.-2170   	; 0x1540 <dir_sdi>
    1dba:	81 11       	cpse	r24, r1
    1dbc:	2a c0       	rjmp	.+84     	; 0x1e12 <dir_find+0x70>
    1dbe:	4e 89       	ldd	r20, Y+22	; 0x16
    1dc0:	5f 89       	ldd	r21, Y+23	; 0x17
    1dc2:	68 8d       	ldd	r22, Y+24	; 0x18
    1dc4:	79 8d       	ldd	r23, Y+25	; 0x19
    1dc6:	c7 01       	movw	r24, r14
    1dc8:	0e 94 cf 04 	call	0x99e	; 0x99e <move_window>
    1dcc:	18 2f       	mov	r17, r24
    1dce:	81 11       	cpse	r24, r1
    1dd0:	1c c0       	rjmp	.+56     	; 0x1e0a <dir_find+0x68>
    1dd2:	ea 8d       	ldd	r30, Y+26	; 0x1a
    1dd4:	fb 8d       	ldd	r31, Y+27	; 0x1b
    1dd6:	80 81       	ld	r24, Z
    1dd8:	88 23       	and	r24, r24
    1dda:	c1 f0       	breq	.+48     	; 0x1e0c <dir_find+0x6a>
    1ddc:	83 85       	ldd	r24, Z+11	; 0x0b
    1dde:	8f 73       	andi	r24, 0x3F	; 63
    1de0:	8c 83       	std	Y+4, r24	; 0x04
    1de2:	83 85       	ldd	r24, Z+11	; 0x0b
    1de4:	83 fd       	sbrc	r24, 3
    1de6:	0a c0       	rjmp	.+20     	; 0x1dfc <dir_find+0x5a>
    1de8:	4b e0       	ldi	r20, 0x0B	; 11
    1dea:	50 e0       	ldi	r21, 0x00	; 0
    1dec:	be 01       	movw	r22, r28
    1dee:	64 5e       	subi	r22, 0xE4	; 228
    1df0:	7f 4f       	sbci	r23, 0xFF	; 255
    1df2:	cf 01       	movw	r24, r30
    1df4:	0e 94 f0 30 	call	0x61e0	; 0x61e0 <memcmp>
    1df8:	89 2b       	or	r24, r25
    1dfa:	51 f0       	breq	.+20     	; 0x1e10 <dir_find+0x6e>
    1dfc:	60 e0       	ldi	r22, 0x00	; 0
    1dfe:	70 e0       	ldi	r23, 0x00	; 0
    1e00:	ce 01       	movw	r24, r28
    1e02:	d6 de       	rcall	.-596    	; 0x1bb0 <dir_next>
    1e04:	88 23       	and	r24, r24
    1e06:	d9 f2       	breq	.-74     	; 0x1dbe <dir_find+0x1c>
    1e08:	04 c0       	rjmp	.+8      	; 0x1e12 <dir_find+0x70>
    1e0a:	03 c0       	rjmp	.+6      	; 0x1e12 <dir_find+0x70>
    1e0c:	84 e0       	ldi	r24, 0x04	; 4
    1e0e:	01 c0       	rjmp	.+2      	; 0x1e12 <dir_find+0x70>
    1e10:	81 2f       	mov	r24, r17
    1e12:	df 91       	pop	r29
    1e14:	cf 91       	pop	r28
    1e16:	1f 91       	pop	r17
    1e18:	ff 90       	pop	r15
    1e1a:	ef 90       	pop	r14
    1e1c:	08 95       	ret

00001e1e <dir_alloc>:
    1e1e:	cf 92       	push	r12
    1e20:	df 92       	push	r13
    1e22:	ef 92       	push	r14
    1e24:	ff 92       	push	r15
    1e26:	0f 93       	push	r16
    1e28:	1f 93       	push	r17
    1e2a:	cf 93       	push	r28
    1e2c:	df 93       	push	r29
    1e2e:	ec 01       	movw	r28, r24
    1e30:	6b 01       	movw	r12, r22
    1e32:	e8 80       	ld	r14, Y
    1e34:	f9 80       	ldd	r15, Y+1	; 0x01
    1e36:	40 e0       	ldi	r20, 0x00	; 0
    1e38:	50 e0       	ldi	r21, 0x00	; 0
    1e3a:	ba 01       	movw	r22, r20
    1e3c:	81 db       	rcall	.-2302   	; 0x1540 <dir_sdi>
    1e3e:	81 11       	cpse	r24, r1
    1e40:	20 c0       	rjmp	.+64     	; 0x1e82 <dir_alloc+0x64>
    1e42:	00 e0       	ldi	r16, 0x00	; 0
    1e44:	10 e0       	ldi	r17, 0x00	; 0
    1e46:	4e 89       	ldd	r20, Y+22	; 0x16
    1e48:	5f 89       	ldd	r21, Y+23	; 0x17
    1e4a:	68 8d       	ldd	r22, Y+24	; 0x18
    1e4c:	79 8d       	ldd	r23, Y+25	; 0x19
    1e4e:	c7 01       	movw	r24, r14
    1e50:	0e 94 cf 04 	call	0x99e	; 0x99e <move_window>
    1e54:	81 11       	cpse	r24, r1
    1e56:	15 c0       	rjmp	.+42     	; 0x1e82 <dir_alloc+0x64>
    1e58:	ea 8d       	ldd	r30, Y+26	; 0x1a
    1e5a:	fb 8d       	ldd	r31, Y+27	; 0x1b
    1e5c:	90 81       	ld	r25, Z
    1e5e:	95 3e       	cpi	r25, 0xE5	; 229
    1e60:	11 f0       	breq	.+4      	; 0x1e66 <dir_alloc+0x48>
    1e62:	91 11       	cpse	r25, r1
    1e64:	06 c0       	rjmp	.+12     	; 0x1e72 <dir_alloc+0x54>
    1e66:	0f 5f       	subi	r16, 0xFF	; 255
    1e68:	1f 4f       	sbci	r17, 0xFF	; 255
    1e6a:	0c 15       	cp	r16, r12
    1e6c:	1d 05       	cpc	r17, r13
    1e6e:	19 f4       	brne	.+6      	; 0x1e76 <dir_alloc+0x58>
    1e70:	08 c0       	rjmp	.+16     	; 0x1e82 <dir_alloc+0x64>
    1e72:	00 e0       	ldi	r16, 0x00	; 0
    1e74:	10 e0       	ldi	r17, 0x00	; 0
    1e76:	61 e0       	ldi	r22, 0x01	; 1
    1e78:	70 e0       	ldi	r23, 0x00	; 0
    1e7a:	ce 01       	movw	r24, r28
    1e7c:	99 de       	rcall	.-718    	; 0x1bb0 <dir_next>
    1e7e:	88 23       	and	r24, r24
    1e80:	11 f3       	breq	.-60     	; 0x1e46 <dir_alloc+0x28>
    1e82:	84 30       	cpi	r24, 0x04	; 4
    1e84:	09 f4       	brne	.+2      	; 0x1e88 <dir_alloc+0x6a>
    1e86:	87 e0       	ldi	r24, 0x07	; 7
    1e88:	df 91       	pop	r29
    1e8a:	cf 91       	pop	r28
    1e8c:	1f 91       	pop	r17
    1e8e:	0f 91       	pop	r16
    1e90:	ff 90       	pop	r15
    1e92:	ef 90       	pop	r14
    1e94:	df 90       	pop	r13
    1e96:	cf 90       	pop	r12
    1e98:	08 95       	ret

00001e9a <dir_read>:
    1e9a:	ef 92       	push	r14
    1e9c:	ff 92       	push	r15
    1e9e:	0f 93       	push	r16
    1ea0:	1f 93       	push	r17
    1ea2:	cf 93       	push	r28
    1ea4:	df 93       	push	r29
    1ea6:	ec 01       	movw	r28, r24
    1ea8:	7b 01       	movw	r14, r22
    1eaa:	08 81       	ld	r16, Y
    1eac:	19 81       	ldd	r17, Y+1	; 0x01
    1eae:	84 e0       	ldi	r24, 0x04	; 4
    1eb0:	25 c0       	rjmp	.+74     	; 0x1efc <dir_read+0x62>
    1eb2:	c8 01       	movw	r24, r16
    1eb4:	0e 94 cf 04 	call	0x99e	; 0x99e <move_window>
    1eb8:	81 11       	cpse	r24, r1
    1eba:	2b c0       	rjmp	.+86     	; 0x1f12 <dir_read+0x78>
    1ebc:	ea 8d       	ldd	r30, Y+26	; 0x1a
    1ebe:	fb 8d       	ldd	r31, Y+27	; 0x1b
    1ec0:	90 81       	ld	r25, Z
    1ec2:	99 23       	and	r25, r25
    1ec4:	29 f1       	breq	.+74     	; 0x1f10 <dir_read+0x76>
    1ec6:	23 85       	ldd	r18, Z+11	; 0x0b
    1ec8:	2f 73       	andi	r18, 0x3F	; 63
    1eca:	2c 83       	std	Y+4, r18	; 0x04
    1ecc:	95 3e       	cpi	r25, 0xE5	; 229
    1ece:	81 f0       	breq	.+32     	; 0x1ef0 <dir_read+0x56>
    1ed0:	9e 32       	cpi	r25, 0x2E	; 46
    1ed2:	71 f0       	breq	.+28     	; 0x1ef0 <dir_read+0x56>
    1ed4:	2f 30       	cpi	r18, 0x0F	; 15
    1ed6:	61 f0       	breq	.+24     	; 0x1ef0 <dir_read+0x56>
    1ed8:	30 e0       	ldi	r19, 0x00	; 0
    1eda:	2f 7d       	andi	r18, 0xDF	; 223
    1edc:	41 e0       	ldi	r20, 0x01	; 1
    1ede:	50 e0       	ldi	r21, 0x00	; 0
    1ee0:	28 30       	cpi	r18, 0x08	; 8
    1ee2:	31 05       	cpc	r19, r1
    1ee4:	11 f0       	breq	.+4      	; 0x1eea <dir_read+0x50>
    1ee6:	40 e0       	ldi	r20, 0x00	; 0
    1ee8:	50 e0       	ldi	r21, 0x00	; 0
    1eea:	4e 15       	cp	r20, r14
    1eec:	5f 05       	cpc	r21, r15
    1eee:	89 f0       	breq	.+34     	; 0x1f12 <dir_read+0x78>
    1ef0:	60 e0       	ldi	r22, 0x00	; 0
    1ef2:	70 e0       	ldi	r23, 0x00	; 0
    1ef4:	ce 01       	movw	r24, r28
    1ef6:	5c de       	rcall	.-840    	; 0x1bb0 <dir_next>
    1ef8:	81 11       	cpse	r24, r1
    1efa:	0b c0       	rjmp	.+22     	; 0x1f12 <dir_read+0x78>
    1efc:	4e 89       	ldd	r20, Y+22	; 0x16
    1efe:	5f 89       	ldd	r21, Y+23	; 0x17
    1f00:	68 8d       	ldd	r22, Y+24	; 0x18
    1f02:	79 8d       	ldd	r23, Y+25	; 0x19
    1f04:	41 15       	cp	r20, r1
    1f06:	51 05       	cpc	r21, r1
    1f08:	61 05       	cpc	r22, r1
    1f0a:	71 05       	cpc	r23, r1
    1f0c:	91 f6       	brne	.-92     	; 0x1eb2 <dir_read+0x18>
    1f0e:	01 c0       	rjmp	.+2      	; 0x1f12 <dir_read+0x78>
    1f10:	84 e0       	ldi	r24, 0x04	; 4
    1f12:	88 23       	and	r24, r24
    1f14:	21 f0       	breq	.+8      	; 0x1f1e <dir_read+0x84>
    1f16:	1e 8a       	std	Y+22, r1	; 0x16
    1f18:	1f 8a       	std	Y+23, r1	; 0x17
    1f1a:	18 8e       	std	Y+24, r1	; 0x18
    1f1c:	19 8e       	std	Y+25, r1	; 0x19
    1f1e:	df 91       	pop	r29
    1f20:	cf 91       	pop	r28
    1f22:	1f 91       	pop	r17
    1f24:	0f 91       	pop	r16
    1f26:	ff 90       	pop	r15
    1f28:	ef 90       	pop	r14
    1f2a:	08 95       	ret

00001f2c <create_name>:
    1f2c:	3f 92       	push	r3
    1f2e:	4f 92       	push	r4
    1f30:	5f 92       	push	r5
    1f32:	6f 92       	push	r6
    1f34:	7f 92       	push	r7
    1f36:	8f 92       	push	r8
    1f38:	9f 92       	push	r9
    1f3a:	af 92       	push	r10
    1f3c:	bf 92       	push	r11
    1f3e:	cf 92       	push	r12
    1f40:	df 92       	push	r13
    1f42:	ef 92       	push	r14
    1f44:	ff 92       	push	r15
    1f46:	0f 93       	push	r16
    1f48:	1f 93       	push	r17
    1f4a:	cf 93       	push	r28
    1f4c:	df 93       	push	r29
    1f4e:	3c 01       	movw	r6, r24
    1f50:	2b 01       	movw	r4, r22
    1f52:	fb 01       	movw	r30, r22
    1f54:	c0 81       	ld	r28, Z
    1f56:	d1 81       	ldd	r29, Z+1	; 0x01
    1f58:	5c 01       	movw	r10, r24
    1f5a:	fc e1       	ldi	r31, 0x1C	; 28
    1f5c:	af 0e       	add	r10, r31
    1f5e:	b1 1c       	adc	r11, r1
    1f60:	4b e0       	ldi	r20, 0x0B	; 11
    1f62:	50 e0       	ldi	r21, 0x00	; 0
    1f64:	60 e2       	ldi	r22, 0x20	; 32
    1f66:	70 e0       	ldi	r23, 0x00	; 0
    1f68:	c5 01       	movw	r24, r10
    1f6a:	0e 94 06 31 	call	0x620c	; 0x620c <memset>
    1f6e:	88 81       	ld	r24, Y
    1f70:	8e 32       	cpi	r24, 0x2E	; 46
    1f72:	69 f5       	brne	.+90     	; 0x1fce <create_name+0xa2>
    1f74:	40 e0       	ldi	r20, 0x00	; 0
    1f76:	50 e0       	ldi	r21, 0x00	; 0
    1f78:	80 e0       	ldi	r24, 0x00	; 0
    1f7a:	90 e0       	ldi	r25, 0x00	; 0
    1f7c:	9c 01       	movw	r18, r24
    1f7e:	2f 5f       	subi	r18, 0xFF	; 255
    1f80:	3f 4f       	sbci	r19, 0xFF	; 255
    1f82:	fe 01       	movw	r30, r28
    1f84:	e8 0f       	add	r30, r24
    1f86:	f9 1f       	adc	r31, r25
    1f88:	80 81       	ld	r24, Z
    1f8a:	8e 32       	cpi	r24, 0x2E	; 46
    1f8c:	59 f4       	brne	.+22     	; 0x1fa4 <create_name+0x78>
    1f8e:	23 30       	cpi	r18, 0x03	; 3
    1f90:	31 05       	cpc	r19, r1
    1f92:	40 f4       	brcc	.+16     	; 0x1fa4 <create_name+0x78>
    1f94:	f5 01       	movw	r30, r10
    1f96:	e4 0f       	add	r30, r20
    1f98:	f5 1f       	adc	r31, r21
    1f9a:	80 83       	st	Z, r24
    1f9c:	c9 01       	movw	r24, r18
    1f9e:	4f 5f       	subi	r20, 0xFF	; 255
    1fa0:	5f 4f       	sbci	r21, 0xFF	; 255
    1fa2:	ec cf       	rjmp	.-40     	; 0x1f7c <create_name+0x50>
    1fa4:	8f 32       	cpi	r24, 0x2F	; 47
    1fa6:	29 f0       	breq	.+10     	; 0x1fb2 <create_name+0x86>
    1fa8:	8c 35       	cpi	r24, 0x5C	; 92
    1faa:	19 f0       	breq	.+6      	; 0x1fb2 <create_name+0x86>
    1fac:	81 32       	cpi	r24, 0x21	; 33
    1fae:	08 f0       	brcs	.+2      	; 0x1fb2 <create_name+0x86>
    1fb0:	a4 c0       	rjmp	.+328    	; 0x20fa <create_name+0x1ce>
    1fb2:	c2 0f       	add	r28, r18
    1fb4:	d3 1f       	adc	r29, r19
    1fb6:	f2 01       	movw	r30, r4
    1fb8:	d1 83       	std	Z+1, r29	; 0x01
    1fba:	c0 83       	st	Z, r28
    1fbc:	81 32       	cpi	r24, 0x21	; 33
    1fbe:	10 f4       	brcc	.+4      	; 0x1fc4 <create_name+0x98>
    1fc0:	84 e2       	ldi	r24, 0x24	; 36
    1fc2:	01 c0       	rjmp	.+2      	; 0x1fc6 <create_name+0x9a>
    1fc4:	80 e2       	ldi	r24, 0x20	; 32
    1fc6:	f3 01       	movw	r30, r6
    1fc8:	87 a3       	std	Z+39, r24	; 0x27
    1fca:	80 e0       	ldi	r24, 0x00	; 0
    1fcc:	a3 c0       	rjmp	.+326    	; 0x2114 <__stack+0x15>
    1fce:	c1 2c       	mov	r12, r1
    1fd0:	d1 2c       	mov	r13, r1
    1fd2:	e1 2c       	mov	r14, r1
    1fd4:	f1 2c       	mov	r15, r1
    1fd6:	68 94       	set
    1fd8:	88 24       	eor	r8, r8
    1fda:	83 f8       	bld	r8, 3
    1fdc:	91 2c       	mov	r9, r1
    1fde:	87 01       	movw	r16, r14
    1fe0:	0f 5f       	subi	r16, 0xFF	; 255
    1fe2:	1f 4f       	sbci	r17, 0xFF	; 255
    1fe4:	fe 01       	movw	r30, r28
    1fe6:	ee 0d       	add	r30, r14
    1fe8:	ff 1d       	adc	r31, r15
    1fea:	30 80       	ld	r3, Z
    1fec:	f0 e2       	ldi	r31, 0x20	; 32
    1fee:	f3 15       	cp	r31, r3
    1ff0:	08 f0       	brcs	.+2      	; 0x1ff4 <create_name+0xc8>
    1ff2:	67 c0       	rjmp	.+206    	; 0x20c2 <create_name+0x196>
    1ff4:	8f e2       	ldi	r24, 0x2F	; 47
    1ff6:	38 16       	cp	r3, r24
    1ff8:	31 f0       	breq	.+12     	; 0x2006 <create_name+0xda>
    1ffa:	9c e5       	ldi	r25, 0x5C	; 92
    1ffc:	39 12       	cpse	r3, r25
    1ffe:	0c c0       	rjmp	.+24     	; 0x2018 <create_name+0xec>
    2000:	02 c0       	rjmp	.+4      	; 0x2006 <create_name+0xda>
    2002:	0f 5f       	subi	r16, 0xFF	; 255
    2004:	1f 4f       	sbci	r17, 0xFF	; 255
    2006:	fe 01       	movw	r30, r28
    2008:	e0 0f       	add	r30, r16
    200a:	f1 1f       	adc	r31, r17
    200c:	80 81       	ld	r24, Z
    200e:	8f 32       	cpi	r24, 0x2F	; 47
    2010:	c1 f3       	breq	.-16     	; 0x2002 <create_name+0xd6>
    2012:	8c 35       	cpi	r24, 0x5C	; 92
    2014:	b1 f3       	breq	.-20     	; 0x2002 <create_name+0xd6>
    2016:	55 c0       	rjmp	.+170    	; 0x20c2 <create_name+0x196>
    2018:	ee e2       	ldi	r30, 0x2E	; 46
    201a:	3e 16       	cp	r3, r30
    201c:	19 f0       	breq	.+6      	; 0x2024 <create_name+0xf8>
    201e:	c8 14       	cp	r12, r8
    2020:	d9 04       	cpc	r13, r9
    2022:	98 f0       	brcs	.+38     	; 0x204a <create_name+0x11e>
    2024:	fb e0       	ldi	r31, 0x0B	; 11
    2026:	8f 16       	cp	r8, r31
    2028:	91 04       	cpc	r9, r1
    202a:	09 f4       	brne	.+2      	; 0x202e <create_name+0x102>
    202c:	68 c0       	rjmp	.+208    	; 0x20fe <create_name+0x1d2>
    202e:	8e e2       	ldi	r24, 0x2E	; 46
    2030:	38 12       	cpse	r3, r24
    2032:	67 c0       	rjmp	.+206    	; 0x2102 <__stack+0x3>
    2034:	78 01       	movw	r14, r16
    2036:	68 94       	set
    2038:	cc 24       	eor	r12, r12
    203a:	c3 f8       	bld	r12, 3
    203c:	d1 2c       	mov	r13, r1
    203e:	0f 2e       	mov	r0, r31
    2040:	fb e0       	ldi	r31, 0x0B	; 11
    2042:	8f 2e       	mov	r8, r31
    2044:	91 2c       	mov	r9, r1
    2046:	f0 2d       	mov	r31, r0
    2048:	ca cf       	rjmp	.-108    	; 0x1fde <create_name+0xb2>
    204a:	83 2d       	mov	r24, r3
    204c:	0e 94 5f 03 	call	0x6be	; 0x6be <dbc_1st>
    2050:	89 2b       	or	r24, r25
    2052:	01 f1       	breq	.+64     	; 0x2094 <create_name+0x168>
    2054:	92 e0       	ldi	r25, 0x02	; 2
    2056:	e9 0e       	add	r14, r25
    2058:	f1 1c       	adc	r15, r1
    205a:	fe 01       	movw	r30, r28
    205c:	e0 0f       	add	r30, r16
    205e:	f1 1f       	adc	r31, r17
    2060:	10 81       	ld	r17, Z
    2062:	81 2f       	mov	r24, r17
    2064:	0e 94 76 03 	call	0x6ec	; 0x6ec <dbc_2nd>
    2068:	89 2b       	or	r24, r25
    206a:	09 f4       	brne	.+2      	; 0x206e <create_name+0x142>
    206c:	4c c0       	rjmp	.+152    	; 0x2106 <__stack+0x7>
    206e:	c4 01       	movw	r24, r8
    2070:	01 97       	sbiw	r24, 0x01	; 1
    2072:	c8 16       	cp	r12, r24
    2074:	d9 06       	cpc	r13, r25
    2076:	08 f0       	brcs	.+2      	; 0x207a <create_name+0x14e>
    2078:	48 c0       	rjmp	.+144    	; 0x210a <__stack+0xb>
    207a:	f5 01       	movw	r30, r10
    207c:	ec 0d       	add	r30, r12
    207e:	fd 1d       	adc	r31, r13
    2080:	30 82       	st	Z, r3
    2082:	f6 01       	movw	r30, r12
    2084:	31 96       	adiw	r30, 0x01	; 1
    2086:	ea 0d       	add	r30, r10
    2088:	fb 1d       	adc	r31, r11
    208a:	82 e0       	ldi	r24, 0x02	; 2
    208c:	c8 0e       	add	r12, r24
    208e:	d1 1c       	adc	r13, r1
    2090:	10 83       	st	Z, r17
    2092:	a5 cf       	rjmp	.-182    	; 0x1fde <create_name+0xb2>
    2094:	63 2d       	mov	r22, r3
    2096:	70 e0       	ldi	r23, 0x00	; 0
    2098:	88 e3       	ldi	r24, 0x38	; 56
    209a:	93 e0       	ldi	r25, 0x03	; 3
    209c:	0e 94 0d 31 	call	0x621a	; 0x621a <strchr>
    20a0:	89 2b       	or	r24, r25
    20a2:	a9 f5       	brne	.+106    	; 0x210e <__stack+0xf>
    20a4:	8f e9       	ldi	r24, 0x9F	; 159
    20a6:	83 0d       	add	r24, r3
    20a8:	8a 31       	cpi	r24, 0x1A	; 26
    20aa:	10 f4       	brcc	.+4      	; 0x20b0 <create_name+0x184>
    20ac:	90 ee       	ldi	r25, 0xE0	; 224
    20ae:	39 0e       	add	r3, r25
    20b0:	f5 01       	movw	r30, r10
    20b2:	ec 0d       	add	r30, r12
    20b4:	fd 1d       	adc	r31, r13
    20b6:	30 82       	st	Z, r3
    20b8:	f6 01       	movw	r30, r12
    20ba:	31 96       	adiw	r30, 0x01	; 1
    20bc:	6f 01       	movw	r12, r30
    20be:	78 01       	movw	r14, r16
    20c0:	8e cf       	rjmp	.-228    	; 0x1fde <create_name+0xb2>
    20c2:	c0 0f       	add	r28, r16
    20c4:	d1 1f       	adc	r29, r17
    20c6:	f2 01       	movw	r30, r4
    20c8:	d1 83       	std	Z+1, r29	; 0x01
    20ca:	c0 83       	st	Z, r28
    20cc:	cd 28       	or	r12, r13
    20ce:	09 f1       	breq	.+66     	; 0x2112 <__stack+0x13>
    20d0:	f3 01       	movw	r30, r6
    20d2:	84 8d       	ldd	r24, Z+28	; 0x1c
    20d4:	85 3e       	cpi	r24, 0xE5	; 229
    20d6:	11 f4       	brne	.+4      	; 0x20dc <create_name+0x1b0>
    20d8:	85 e0       	ldi	r24, 0x05	; 5
    20da:	84 8f       	std	Z+28, r24	; 0x1c
    20dc:	f0 e2       	ldi	r31, 0x20	; 32
    20de:	f3 15       	cp	r31, r3
    20e0:	28 f4       	brcc	.+10     	; 0x20ec <create_name+0x1c0>
    20e2:	88 81       	ld	r24, Y
    20e4:	81 32       	cpi	r24, 0x21	; 33
    20e6:	20 f4       	brcc	.+8      	; 0x20f0 <create_name+0x1c4>
    20e8:	84 e0       	ldi	r24, 0x04	; 4
    20ea:	03 c0       	rjmp	.+6      	; 0x20f2 <create_name+0x1c6>
    20ec:	84 e0       	ldi	r24, 0x04	; 4
    20ee:	01 c0       	rjmp	.+2      	; 0x20f2 <create_name+0x1c6>
    20f0:	80 e0       	ldi	r24, 0x00	; 0
    20f2:	f3 01       	movw	r30, r6
    20f4:	87 a3       	std	Z+39, r24	; 0x27
    20f6:	80 e0       	ldi	r24, 0x00	; 0
    20f8:	0d c0       	rjmp	.+26     	; 0x2114 <__stack+0x15>
    20fa:	86 e0       	ldi	r24, 0x06	; 6
    20fc:	0b c0       	rjmp	.+22     	; 0x2114 <__stack+0x15>
    20fe:	86 e0       	ldi	r24, 0x06	; 6
    2100:	09 c0       	rjmp	.+18     	; 0x2114 <__stack+0x15>
    2102:	86 e0       	ldi	r24, 0x06	; 6
    2104:	07 c0       	rjmp	.+14     	; 0x2114 <__stack+0x15>
    2106:	86 e0       	ldi	r24, 0x06	; 6
    2108:	05 c0       	rjmp	.+10     	; 0x2114 <__stack+0x15>
    210a:	86 e0       	ldi	r24, 0x06	; 6
    210c:	03 c0       	rjmp	.+6      	; 0x2114 <__stack+0x15>
    210e:	86 e0       	ldi	r24, 0x06	; 6
    2110:	01 c0       	rjmp	.+2      	; 0x2114 <__stack+0x15>
    2112:	86 e0       	ldi	r24, 0x06	; 6
    2114:	df 91       	pop	r29
    2116:	cf 91       	pop	r28
    2118:	1f 91       	pop	r17
    211a:	0f 91       	pop	r16
    211c:	ff 90       	pop	r15
    211e:	ef 90       	pop	r14
    2120:	df 90       	pop	r13
    2122:	cf 90       	pop	r12
    2124:	bf 90       	pop	r11
    2126:	af 90       	pop	r10
    2128:	9f 90       	pop	r9
    212a:	8f 90       	pop	r8
    212c:	7f 90       	pop	r7
    212e:	6f 90       	pop	r6
    2130:	5f 90       	pop	r5
    2132:	4f 90       	pop	r4
    2134:	3f 90       	pop	r3
    2136:	08 95       	ret

00002138 <follow_path>:
    2138:	df 92       	push	r13
    213a:	ef 92       	push	r14
    213c:	ff 92       	push	r15
    213e:	0f 93       	push	r16
    2140:	1f 93       	push	r17
    2142:	cf 93       	push	r28
    2144:	df 93       	push	r29
    2146:	00 d0       	rcall	.+0      	; 0x2148 <follow_path+0x10>
    2148:	cd b7       	in	r28, 0x3d	; 61
    214a:	de b7       	in	r29, 0x3e	; 62
    214c:	8c 01       	movw	r16, r24
    214e:	fb 01       	movw	r30, r22
    2150:	7a 83       	std	Y+2, r23	; 0x02
    2152:	69 83       	std	Y+1, r22	; 0x01
    2154:	dc 01       	movw	r26, r24
    2156:	ed 90       	ld	r14, X+
    2158:	fc 90       	ld	r15, X
    215a:	80 81       	ld	r24, Z
    215c:	8f 32       	cpi	r24, 0x2F	; 47
    215e:	81 f0       	breq	.+32     	; 0x2180 <follow_path+0x48>
    2160:	8c 35       	cpi	r24, 0x5C	; 92
    2162:	71 f0       	breq	.+28     	; 0x2180 <follow_path+0x48>
    2164:	f7 01       	movw	r30, r14
    2166:	83 89       	ldd	r24, Z+19	; 0x13
    2168:	94 89       	ldd	r25, Z+20	; 0x14
    216a:	a5 89       	ldd	r26, Z+21	; 0x15
    216c:	b6 89       	ldd	r27, Z+22	; 0x16
    216e:	f8 01       	movw	r30, r16
    2170:	86 83       	std	Z+6, r24	; 0x06
    2172:	97 83       	std	Z+7, r25	; 0x07
    2174:	a0 87       	std	Z+8, r26	; 0x08
    2176:	b1 87       	std	Z+9, r27	; 0x09
    2178:	11 c0       	rjmp	.+34     	; 0x219c <follow_path+0x64>
    217a:	31 96       	adiw	r30, 0x01	; 1
    217c:	fa 83       	std	Y+2, r31	; 0x02
    217e:	e9 83       	std	Y+1, r30	; 0x01
    2180:	e9 81       	ldd	r30, Y+1	; 0x01
    2182:	fa 81       	ldd	r31, Y+2	; 0x02
    2184:	80 81       	ld	r24, Z
    2186:	8f 32       	cpi	r24, 0x2F	; 47
    2188:	c1 f3       	breq	.-16     	; 0x217a <follow_path+0x42>
    218a:	8c 35       	cpi	r24, 0x5C	; 92
    218c:	b1 f3       	breq	.-20     	; 0x217a <follow_path+0x42>
    218e:	d8 01       	movw	r26, r16
    2190:	16 96       	adiw	r26, 0x06	; 6
    2192:	1d 92       	st	X+, r1
    2194:	1d 92       	st	X+, r1
    2196:	1d 92       	st	X+, r1
    2198:	1c 92       	st	X, r1
    219a:	19 97       	sbiw	r26, 0x09	; 9
    219c:	e9 81       	ldd	r30, Y+1	; 0x01
    219e:	fa 81       	ldd	r31, Y+2	; 0x02
    21a0:	80 81       	ld	r24, Z
    21a2:	80 32       	cpi	r24, 0x20	; 32
    21a4:	50 f4       	brcc	.+20     	; 0x21ba <follow_path+0x82>
    21a6:	80 e8       	ldi	r24, 0x80	; 128
    21a8:	f8 01       	movw	r30, r16
    21aa:	87 a3       	std	Z+39, r24	; 0x27
    21ac:	40 e0       	ldi	r20, 0x00	; 0
    21ae:	50 e0       	ldi	r21, 0x00	; 0
    21b0:	ba 01       	movw	r22, r20
    21b2:	c8 01       	movw	r24, r16
    21b4:	c5 d9       	rcall	.-3190   	; 0x1540 <dir_sdi>
    21b6:	d8 2e       	mov	r13, r24
    21b8:	46 c0       	rjmp	.+140    	; 0x2246 <follow_path+0x10e>
    21ba:	be 01       	movw	r22, r28
    21bc:	6f 5f       	subi	r22, 0xFF	; 255
    21be:	7f 4f       	sbci	r23, 0xFF	; 255
    21c0:	c8 01       	movw	r24, r16
    21c2:	b4 de       	rcall	.-664    	; 0x1f2c <create_name>
    21c4:	d8 2e       	mov	r13, r24
    21c6:	81 11       	cpse	r24, r1
    21c8:	3e c0       	rjmp	.+124    	; 0x2246 <follow_path+0x10e>
    21ca:	c8 01       	movw	r24, r16
    21cc:	ea dd       	rcall	.-1068   	; 0x1da2 <dir_find>
    21ce:	d8 01       	movw	r26, r16
    21d0:	97 96       	adiw	r26, 0x27	; 39
    21d2:	9c 91       	ld	r25, X
    21d4:	97 97       	sbiw	r26, 0x27	; 39
    21d6:	88 23       	and	r24, r24
    21d8:	71 f0       	breq	.+28     	; 0x21f6 <follow_path+0xbe>
    21da:	84 30       	cpi	r24, 0x04	; 4
    21dc:	39 f5       	brne	.+78     	; 0x222c <follow_path+0xf4>
    21de:	95 ff       	sbrs	r25, 5
    21e0:	06 c0       	rjmp	.+12     	; 0x21ee <follow_path+0xb6>
    21e2:	92 ff       	sbrs	r25, 2
    21e4:	ea cf       	rjmp	.-44     	; 0x21ba <follow_path+0x82>
    21e6:	80 e8       	ldi	r24, 0x80	; 128
    21e8:	97 96       	adiw	r26, 0x27	; 39
    21ea:	8c 93       	st	X, r24
    21ec:	2c c0       	rjmp	.+88     	; 0x2246 <follow_path+0x10e>
    21ee:	92 ff       	sbrs	r25, 2
    21f0:	1f c0       	rjmp	.+62     	; 0x2230 <follow_path+0xf8>
    21f2:	d8 2e       	mov	r13, r24
    21f4:	28 c0       	rjmp	.+80     	; 0x2246 <follow_path+0x10e>
    21f6:	92 fd       	sbrc	r25, 2
    21f8:	20 c0       	rjmp	.+64     	; 0x223a <follow_path+0x102>
    21fa:	f8 01       	movw	r30, r16
    21fc:	84 81       	ldd	r24, Z+4	; 0x04
    21fe:	84 ff       	sbrs	r24, 4
    2200:	1e c0       	rjmp	.+60     	; 0x223e <follow_path+0x106>
    2202:	86 85       	ldd	r24, Z+14	; 0x0e
    2204:	97 85       	ldd	r25, Z+15	; 0x0f
    2206:	a0 89       	ldd	r26, Z+16	; 0x10
    2208:	b1 89       	ldd	r27, Z+17	; 0x11
    220a:	91 70       	andi	r25, 0x01	; 1
    220c:	b7 01       	movw	r22, r14
    220e:	6d 5c       	subi	r22, 0xCD	; 205
    2210:	7f 4f       	sbci	r23, 0xFF	; 255
    2212:	68 0f       	add	r22, r24
    2214:	79 1f       	adc	r23, r25
    2216:	c7 01       	movw	r24, r14
    2218:	0e 94 bd 03 	call	0x77a	; 0x77a <ld_clust>
    221c:	d8 01       	movw	r26, r16
    221e:	16 96       	adiw	r26, 0x06	; 6
    2220:	6d 93       	st	X+, r22
    2222:	7d 93       	st	X+, r23
    2224:	8d 93       	st	X+, r24
    2226:	9c 93       	st	X, r25
    2228:	19 97       	sbiw	r26, 0x09	; 9
    222a:	c7 cf       	rjmp	.-114    	; 0x21ba <follow_path+0x82>
    222c:	d8 2e       	mov	r13, r24
    222e:	0b c0       	rjmp	.+22     	; 0x2246 <follow_path+0x10e>
    2230:	0f 2e       	mov	r0, r31
    2232:	f5 e0       	ldi	r31, 0x05	; 5
    2234:	df 2e       	mov	r13, r31
    2236:	f0 2d       	mov	r31, r0
    2238:	06 c0       	rjmp	.+12     	; 0x2246 <follow_path+0x10e>
    223a:	d8 2e       	mov	r13, r24
    223c:	04 c0       	rjmp	.+8      	; 0x2246 <follow_path+0x10e>
    223e:	0f 2e       	mov	r0, r31
    2240:	f5 e0       	ldi	r31, 0x05	; 5
    2242:	df 2e       	mov	r13, r31
    2244:	f0 2d       	mov	r31, r0
    2246:	8d 2d       	mov	r24, r13
    2248:	0f 90       	pop	r0
    224a:	0f 90       	pop	r0
    224c:	df 91       	pop	r29
    224e:	cf 91       	pop	r28
    2250:	1f 91       	pop	r17
    2252:	0f 91       	pop	r16
    2254:	ff 90       	pop	r15
    2256:	ef 90       	pop	r14
    2258:	df 90       	pop	r13
    225a:	08 95       	ret

0000225c <dir_register>:
    225c:	0f 93       	push	r16
    225e:	1f 93       	push	r17
    2260:	cf 93       	push	r28
    2262:	df 93       	push	r29
    2264:	ec 01       	movw	r28, r24
    2266:	08 81       	ld	r16, Y
    2268:	19 81       	ldd	r17, Y+1	; 0x01
    226a:	61 e0       	ldi	r22, 0x01	; 1
    226c:	70 e0       	ldi	r23, 0x00	; 0
    226e:	d7 dd       	rcall	.-1106   	; 0x1e1e <dir_alloc>
    2270:	81 11       	cpse	r24, r1
    2272:	1c c0       	rjmp	.+56     	; 0x22ac <dir_register+0x50>
    2274:	4e 89       	ldd	r20, Y+22	; 0x16
    2276:	5f 89       	ldd	r21, Y+23	; 0x17
    2278:	68 8d       	ldd	r22, Y+24	; 0x18
    227a:	79 8d       	ldd	r23, Y+25	; 0x19
    227c:	c8 01       	movw	r24, r16
    227e:	0e 94 cf 04 	call	0x99e	; 0x99e <move_window>
    2282:	81 11       	cpse	r24, r1
    2284:	13 c0       	rjmp	.+38     	; 0x22ac <dir_register+0x50>
    2286:	ea 8d       	ldd	r30, Y+26	; 0x1a
    2288:	fb 8d       	ldd	r31, Y+27	; 0x1b
    228a:	90 e2       	ldi	r25, 0x20	; 32
    228c:	df 01       	movw	r26, r30
    228e:	1d 92       	st	X+, r1
    2290:	9a 95       	dec	r25
    2292:	e9 f7       	brne	.-6      	; 0x228e <dir_register+0x32>
    2294:	fe 01       	movw	r30, r28
    2296:	7c 96       	adiw	r30, 0x1c	; 28
    2298:	aa 8d       	ldd	r26, Y+26	; 0x1a
    229a:	bb 8d       	ldd	r27, Y+27	; 0x1b
    229c:	9b e0       	ldi	r25, 0x0B	; 11
    229e:	01 90       	ld	r0, Z+
    22a0:	0d 92       	st	X+, r0
    22a2:	9a 95       	dec	r25
    22a4:	e1 f7       	brne	.-8      	; 0x229e <dir_register+0x42>
    22a6:	91 e0       	ldi	r25, 0x01	; 1
    22a8:	f8 01       	movw	r30, r16
    22aa:	93 83       	std	Z+3, r25	; 0x03
    22ac:	df 91       	pop	r29
    22ae:	cf 91       	pop	r28
    22b0:	1f 91       	pop	r17
    22b2:	0f 91       	pop	r16
    22b4:	08 95       	ret

000022b6 <sync_fs>:
    22b6:	cf 92       	push	r12
    22b8:	df 92       	push	r13
    22ba:	ff 92       	push	r15
    22bc:	0f 93       	push	r16
    22be:	1f 93       	push	r17
    22c0:	cf 93       	push	r28
    22c2:	df 93       	push	r29
    22c4:	ec 01       	movw	r28, r24
    22c6:	0e 94 77 04 	call	0x8ee	; 0x8ee <sync_window>
    22ca:	f8 2e       	mov	r15, r24
    22cc:	81 11       	cpse	r24, r1
    22ce:	5c c0       	rjmp	.+184    	; 0x2388 <sync_fs+0xd2>
    22d0:	88 81       	ld	r24, Y
    22d2:	83 30       	cpi	r24, 0x03	; 3
    22d4:	09 f0       	breq	.+2      	; 0x22d8 <sync_fs+0x22>
    22d6:	4e c0       	rjmp	.+156    	; 0x2374 <sync_fs+0xbe>
    22d8:	8c 81       	ldd	r24, Y+4	; 0x04
    22da:	81 30       	cpi	r24, 0x01	; 1
    22dc:	09 f0       	breq	.+2      	; 0x22e0 <sync_fs+0x2a>
    22de:	4a c0       	rjmp	.+148    	; 0x2374 <sync_fs+0xbe>
    22e0:	80 e0       	ldi	r24, 0x00	; 0
    22e2:	92 e0       	ldi	r25, 0x02	; 2
    22e4:	6e 01       	movw	r12, r28
    22e6:	23 e3       	ldi	r18, 0x33	; 51
    22e8:	c2 0e       	add	r12, r18
    22ea:	d1 1c       	adc	r13, r1
    22ec:	f6 01       	movw	r30, r12
    22ee:	9c 01       	movw	r18, r24
    22f0:	11 92       	st	Z+, r1
    22f2:	21 50       	subi	r18, 0x01	; 1
    22f4:	30 40       	sbci	r19, 0x00	; 0
    22f6:	e1 f7       	brne	.-8      	; 0x22f0 <sync_fs+0x3a>
    22f8:	65 e5       	ldi	r22, 0x55	; 85
    22fa:	7a ea       	ldi	r23, 0xAA	; 170
    22fc:	ce 01       	movw	r24, r28
    22fe:	8f 5c       	subi	r24, 0xCF	; 207
    2300:	9d 4f       	sbci	r25, 0xFD	; 253
    2302:	0e 94 55 03 	call	0x6aa	; 0x6aa <st_word>
    2306:	42 e5       	ldi	r20, 0x52	; 82
    2308:	52 e5       	ldi	r21, 0x52	; 82
    230a:	61 e6       	ldi	r22, 0x61	; 97
    230c:	71 e4       	ldi	r23, 0x41	; 65
    230e:	c6 01       	movw	r24, r12
    2310:	0e 94 59 03 	call	0x6b2	; 0x6b2 <st_dword>
    2314:	42 e7       	ldi	r20, 0x72	; 114
    2316:	52 e7       	ldi	r21, 0x72	; 114
    2318:	61 e4       	ldi	r22, 0x41	; 65
    231a:	71 e6       	ldi	r23, 0x61	; 97
    231c:	ce 01       	movw	r24, r28
    231e:	89 5e       	subi	r24, 0xE9	; 233
    2320:	9d 4f       	sbci	r25, 0xFD	; 253
    2322:	0e 94 59 03 	call	0x6b2	; 0x6b2 <st_dword>
    2326:	4f 85       	ldd	r20, Y+15	; 0x0f
    2328:	58 89       	ldd	r21, Y+16	; 0x10
    232a:	69 89       	ldd	r22, Y+17	; 0x11
    232c:	7a 89       	ldd	r23, Y+18	; 0x12
    232e:	ce 01       	movw	r24, r28
    2330:	85 5e       	subi	r24, 0xE5	; 229
    2332:	9d 4f       	sbci	r25, 0xFD	; 253
    2334:	0e 94 59 03 	call	0x6b2	; 0x6b2 <st_dword>
    2338:	4b 85       	ldd	r20, Y+11	; 0x0b
    233a:	5c 85       	ldd	r21, Y+12	; 0x0c
    233c:	6d 85       	ldd	r22, Y+13	; 0x0d
    233e:	7e 85       	ldd	r23, Y+14	; 0x0e
    2340:	ce 01       	movw	r24, r28
    2342:	81 5e       	subi	r24, 0xE1	; 225
    2344:	9d 4f       	sbci	r25, 0xFD	; 253
    2346:	0e 94 59 03 	call	0x6b2	; 0x6b2 <st_dword>
    234a:	8f 8d       	ldd	r24, Y+31	; 0x1f
    234c:	98 a1       	ldd	r25, Y+32	; 0x20
    234e:	a9 a1       	ldd	r26, Y+33	; 0x21
    2350:	ba a1       	ldd	r27, Y+34	; 0x22
    2352:	9c 01       	movw	r18, r24
    2354:	ad 01       	movw	r20, r26
    2356:	2f 5f       	subi	r18, 0xFF	; 255
    2358:	3f 4f       	sbci	r19, 0xFF	; 255
    235a:	4f 4f       	sbci	r20, 0xFF	; 255
    235c:	5f 4f       	sbci	r21, 0xFF	; 255
    235e:	2f a7       	std	Y+47, r18	; 0x2f
    2360:	38 ab       	std	Y+48, r19	; 0x30
    2362:	49 ab       	std	Y+49, r20	; 0x31
    2364:	5a ab       	std	Y+50, r21	; 0x32
    2366:	01 e0       	ldi	r16, 0x01	; 1
    2368:	10 e0       	ldi	r17, 0x00	; 0
    236a:	b6 01       	movw	r22, r12
    236c:	89 81       	ldd	r24, Y+1	; 0x01
    236e:	0e 94 14 03 	call	0x628	; 0x628 <disk_write>
    2372:	1c 82       	std	Y+4, r1	; 0x04
    2374:	40 e0       	ldi	r20, 0x00	; 0
    2376:	50 e0       	ldi	r21, 0x00	; 0
    2378:	60 e0       	ldi	r22, 0x00	; 0
    237a:	89 81       	ldd	r24, Y+1	; 0x01
    237c:	0e 94 24 03 	call	0x648	; 0x648 <disk_ioctl>
    2380:	88 23       	and	r24, r24
    2382:	11 f0       	breq	.+4      	; 0x2388 <sync_fs+0xd2>
    2384:	ff 24       	eor	r15, r15
    2386:	f3 94       	inc	r15
    2388:	8f 2d       	mov	r24, r15
    238a:	df 91       	pop	r29
    238c:	cf 91       	pop	r28
    238e:	1f 91       	pop	r17
    2390:	0f 91       	pop	r16
    2392:	ff 90       	pop	r15
    2394:	df 90       	pop	r13
    2396:	cf 90       	pop	r12
    2398:	08 95       	ret

0000239a <f_mount>:
    239a:	1f 93       	push	r17
    239c:	cf 93       	push	r28
    239e:	df 93       	push	r29
    23a0:	00 d0       	rcall	.+0      	; 0x23a2 <f_mount+0x8>
    23a2:	00 d0       	rcall	.+0      	; 0x23a4 <f_mount+0xa>
    23a4:	00 d0       	rcall	.+0      	; 0x23a6 <f_mount+0xc>
    23a6:	cd b7       	in	r28, 0x3d	; 61
    23a8:	de b7       	in	r29, 0x3e	; 62
    23aa:	9c 83       	std	Y+4, r25	; 0x04
    23ac:	8b 83       	std	Y+3, r24	; 0x03
    23ae:	7e 83       	std	Y+6, r23	; 0x06
    23b0:	6d 83       	std	Y+5, r22	; 0x05
    23b2:	14 2f       	mov	r17, r20
    23b4:	7a 83       	std	Y+2, r23	; 0x02
    23b6:	69 83       	std	Y+1, r22	; 0x01
    23b8:	ce 01       	movw	r24, r28
    23ba:	01 96       	adiw	r24, 0x01	; 1
    23bc:	0e 94 0b 04 	call	0x816	; 0x816 <get_ldnumber>
    23c0:	99 23       	and	r25, r25
    23c2:	24 f1       	brlt	.+72     	; 0x240c <f_mount+0x72>
    23c4:	fc 01       	movw	r30, r24
    23c6:	ee 0f       	add	r30, r30
    23c8:	ff 1f       	adc	r31, r31
    23ca:	e0 52       	subi	r30, 0x20	; 32
    23cc:	fa 4f       	sbci	r31, 0xFA	; 250
    23ce:	01 90       	ld	r0, Z+
    23d0:	f0 81       	ld	r31, Z
    23d2:	e0 2d       	mov	r30, r0
    23d4:	30 97       	sbiw	r30, 0x00	; 0
    23d6:	09 f0       	breq	.+2      	; 0x23da <f_mount+0x40>
    23d8:	10 82       	st	Z, r1
    23da:	eb 81       	ldd	r30, Y+3	; 0x03
    23dc:	fc 81       	ldd	r31, Y+4	; 0x04
    23de:	30 97       	sbiw	r30, 0x00	; 0
    23e0:	09 f0       	breq	.+2      	; 0x23e4 <f_mount+0x4a>
    23e2:	10 82       	st	Z, r1
    23e4:	88 0f       	add	r24, r24
    23e6:	99 1f       	adc	r25, r25
    23e8:	fc 01       	movw	r30, r24
    23ea:	e0 52       	subi	r30, 0x20	; 32
    23ec:	fa 4f       	sbci	r31, 0xFA	; 250
    23ee:	8b 81       	ldd	r24, Y+3	; 0x03
    23f0:	9c 81       	ldd	r25, Y+4	; 0x04
    23f2:	91 83       	std	Z+1, r25	; 0x01
    23f4:	80 83       	st	Z, r24
    23f6:	11 23       	and	r17, r17
    23f8:	59 f0       	breq	.+22     	; 0x2410 <f_mount+0x76>
    23fa:	40 e0       	ldi	r20, 0x00	; 0
    23fc:	be 01       	movw	r22, r28
    23fe:	6d 5f       	subi	r22, 0xFD	; 253
    2400:	7f 4f       	sbci	r23, 0xFF	; 255
    2402:	ce 01       	movw	r24, r28
    2404:	05 96       	adiw	r24, 0x05	; 5
    2406:	0e 94 24 06 	call	0xc48	; 0xc48 <mount_volume>
    240a:	03 c0       	rjmp	.+6      	; 0x2412 <f_mount+0x78>
    240c:	8b e0       	ldi	r24, 0x0B	; 11
    240e:	01 c0       	rjmp	.+2      	; 0x2412 <f_mount+0x78>
    2410:	80 e0       	ldi	r24, 0x00	; 0
    2412:	26 96       	adiw	r28, 0x06	; 6
    2414:	0f b6       	in	r0, 0x3f	; 63
    2416:	f8 94       	cli
    2418:	de bf       	out	0x3e, r29	; 62
    241a:	0f be       	out	0x3f, r0	; 63
    241c:	cd bf       	out	0x3d, r28	; 61
    241e:	df 91       	pop	r29
    2420:	cf 91       	pop	r28
    2422:	1f 91       	pop	r17
    2424:	08 95       	ret

00002426 <f_open>:
    2426:	2f 92       	push	r2
    2428:	3f 92       	push	r3
    242a:	4f 92       	push	r4
    242c:	5f 92       	push	r5
    242e:	6f 92       	push	r6
    2430:	7f 92       	push	r7
    2432:	8f 92       	push	r8
    2434:	9f 92       	push	r9
    2436:	af 92       	push	r10
    2438:	bf 92       	push	r11
    243a:	cf 92       	push	r12
    243c:	df 92       	push	r13
    243e:	ef 92       	push	r14
    2440:	ff 92       	push	r15
    2442:	0f 93       	push	r16
    2444:	1f 93       	push	r17
    2446:	cf 93       	push	r28
    2448:	df 93       	push	r29
    244a:	cd b7       	in	r28, 0x3d	; 61
    244c:	de b7       	in	r29, 0x3e	; 62
    244e:	ae 97       	sbiw	r28, 0x2e	; 46
    2450:	0f b6       	in	r0, 0x3f	; 63
    2452:	f8 94       	cli
    2454:	de bf       	out	0x3e, r29	; 62
    2456:	0f be       	out	0x3f, r0	; 63
    2458:	cd bf       	out	0x3d, r28	; 61
    245a:	7c a7       	std	Y+44, r23	; 0x2c
    245c:	6b a7       	std	Y+43, r22	; 0x2b
    245e:	00 97       	sbiw	r24, 0x00	; 0
    2460:	09 f4       	brne	.+2      	; 0x2464 <f_open+0x3e>
    2462:	63 c1       	rjmp	.+710    	; 0x272a <f_open+0x304>
    2464:	04 2f       	mov	r16, r20
    2466:	9e a7       	std	Y+46, r25	; 0x2e
    2468:	8d a7       	std	Y+45, r24	; 0x2d
    246a:	84 2f       	mov	r24, r20
    246c:	8f 73       	andi	r24, 0x3F	; 63
    246e:	58 2e       	mov	r5, r24
    2470:	48 2f       	mov	r20, r24
    2472:	be 01       	movw	r22, r28
    2474:	67 5d       	subi	r22, 0xD7	; 215
    2476:	7f 4f       	sbci	r23, 0xFF	; 255
    2478:	ce 01       	movw	r24, r28
    247a:	8b 96       	adiw	r24, 0x2b	; 43
    247c:	0e 94 24 06 	call	0xc48	; 0xc48 <mount_volume>
    2480:	18 2f       	mov	r17, r24
    2482:	81 11       	cpse	r24, r1
    2484:	4a c1       	rjmp	.+660    	; 0x271a <f_open+0x2f4>
    2486:	89 a5       	ldd	r24, Y+41	; 0x29
    2488:	9a a5       	ldd	r25, Y+42	; 0x2a
    248a:	9a 83       	std	Y+2, r25	; 0x02
    248c:	89 83       	std	Y+1, r24	; 0x01
    248e:	6b a5       	ldd	r22, Y+43	; 0x2b
    2490:	7c a5       	ldd	r23, Y+44	; 0x2c
    2492:	ce 01       	movw	r24, r28
    2494:	01 96       	adiw	r24, 0x01	; 1
    2496:	50 de       	rcall	.-864    	; 0x2138 <follow_path>
    2498:	18 2f       	mov	r17, r24
    249a:	81 11       	cpse	r24, r1
    249c:	04 c0       	rjmp	.+8      	; 0x24a6 <f_open+0x80>
    249e:	88 a5       	ldd	r24, Y+40	; 0x28
    24a0:	88 23       	and	r24, r24
    24a2:	0c f4       	brge	.+2      	; 0x24a6 <f_open+0x80>
    24a4:	16 e0       	ldi	r17, 0x06	; 6
    24a6:	80 2f       	mov	r24, r16
    24a8:	8c 71       	andi	r24, 0x1C	; 28
    24aa:	09 f4       	brne	.+2      	; 0x24ae <f_open+0x88>
    24ac:	73 c0       	rjmp	.+230    	; 0x2594 <f_open+0x16e>
    24ae:	11 23       	and	r17, r17
    24b0:	51 f0       	breq	.+20     	; 0x24c6 <f_open+0xa0>
    24b2:	14 30       	cpi	r17, 0x04	; 4
    24b4:	21 f4       	brne	.+8      	; 0x24be <f_open+0x98>
    24b6:	ce 01       	movw	r24, r28
    24b8:	01 96       	adiw	r24, 0x01	; 1
    24ba:	d0 de       	rcall	.-608    	; 0x225c <dir_register>
    24bc:	18 2f       	mov	r17, r24
    24be:	e5 2d       	mov	r30, r5
    24c0:	e8 60       	ori	r30, 0x08	; 8
    24c2:	5e 2e       	mov	r5, r30
    24c4:	09 c0       	rjmp	.+18     	; 0x24d8 <f_open+0xb2>
    24c6:	8d 81       	ldd	r24, Y+5	; 0x05
    24c8:	81 71       	andi	r24, 0x11	; 17
    24ca:	19 f4       	brne	.+6      	; 0x24d2 <f_open+0xac>
    24cc:	02 fd       	sbrc	r16, 2
    24ce:	03 c0       	rjmp	.+6      	; 0x24d6 <f_open+0xb0>
    24d0:	03 c0       	rjmp	.+6      	; 0x24d8 <f_open+0xb2>
    24d2:	17 e0       	ldi	r17, 0x07	; 7
    24d4:	01 c0       	rjmp	.+2      	; 0x24d8 <f_open+0xb2>
    24d6:	18 e0       	ldi	r17, 0x08	; 8
    24d8:	11 11       	cpse	r17, r1
    24da:	69 c0       	rjmp	.+210    	; 0x25ae <f_open+0x188>
    24dc:	53 fe       	sbrs	r5, 3
    24de:	67 c0       	rjmp	.+206    	; 0x25ae <f_open+0x188>
    24e0:	0e 94 46 23 	call	0x468c	; 0x468c <get_fattime>
    24e4:	4b 01       	movw	r8, r22
    24e6:	5c 01       	movw	r10, r24
    24e8:	8b 8d       	ldd	r24, Y+27	; 0x1b
    24ea:	9c 8d       	ldd	r25, Y+28	; 0x1c
    24ec:	b5 01       	movw	r22, r10
    24ee:	a4 01       	movw	r20, r8
    24f0:	0e 96       	adiw	r24, 0x0e	; 14
    24f2:	0e 94 59 03 	call	0x6b2	; 0x6b2 <st_dword>
    24f6:	8b 8d       	ldd	r24, Y+27	; 0x1b
    24f8:	9c 8d       	ldd	r25, Y+28	; 0x1c
    24fa:	b5 01       	movw	r22, r10
    24fc:	a4 01       	movw	r20, r8
    24fe:	46 96       	adiw	r24, 0x16	; 22
    2500:	0e 94 59 03 	call	0x6b2	; 0x6b2 <st_dword>
    2504:	ab 8c       	ldd	r10, Y+27	; 0x1b
    2506:	bc 8c       	ldd	r11, Y+28	; 0x1c
    2508:	c9 a4       	ldd	r12, Y+41	; 0x29
    250a:	da a4       	ldd	r13, Y+42	; 0x2a
    250c:	b5 01       	movw	r22, r10
    250e:	c6 01       	movw	r24, r12
    2510:	0e 94 bd 03 	call	0x77a	; 0x77a <ld_clust>
    2514:	3b 01       	movw	r6, r22
    2516:	4c 01       	movw	r8, r24
    2518:	80 e2       	ldi	r24, 0x20	; 32
    251a:	f5 01       	movw	r30, r10
    251c:	83 87       	std	Z+11, r24	; 0x0b
    251e:	6b 8d       	ldd	r22, Y+27	; 0x1b
    2520:	7c 8d       	ldd	r23, Y+28	; 0x1c
    2522:	20 e0       	ldi	r18, 0x00	; 0
    2524:	30 e0       	ldi	r19, 0x00	; 0
    2526:	a9 01       	movw	r20, r18
    2528:	c6 01       	movw	r24, r12
    252a:	0e 94 e8 03 	call	0x7d0	; 0x7d0 <st_clust>
    252e:	8b 8d       	ldd	r24, Y+27	; 0x1b
    2530:	9c 8d       	ldd	r25, Y+28	; 0x1c
    2532:	40 e0       	ldi	r20, 0x00	; 0
    2534:	50 e0       	ldi	r21, 0x00	; 0
    2536:	ba 01       	movw	r22, r20
    2538:	4c 96       	adiw	r24, 0x1c	; 28
    253a:	0e 94 59 03 	call	0x6b2	; 0x6b2 <st_dword>
    253e:	e9 a5       	ldd	r30, Y+41	; 0x29
    2540:	fa a5       	ldd	r31, Y+42	; 0x2a
    2542:	81 e0       	ldi	r24, 0x01	; 1
    2544:	83 83       	std	Z+3, r24	; 0x03
    2546:	61 14       	cp	r6, r1
    2548:	71 04       	cpc	r7, r1
    254a:	81 04       	cpc	r8, r1
    254c:	91 04       	cpc	r9, r1
    254e:	79 f1       	breq	.+94     	; 0x25ae <f_open+0x188>
    2550:	c7 a4       	ldd	r12, Z+47	; 0x2f
    2552:	d0 a8       	ldd	r13, Z+48	; 0x30
    2554:	e1 a8       	ldd	r14, Z+49	; 0x31
    2556:	f2 a8       	ldd	r15, Z+50	; 0x32
    2558:	00 e0       	ldi	r16, 0x00	; 0
    255a:	10 e0       	ldi	r17, 0x00	; 0
    255c:	98 01       	movw	r18, r16
    255e:	b4 01       	movw	r22, r8
    2560:	a3 01       	movw	r20, r6
    2562:	ce 01       	movw	r24, r28
    2564:	01 96       	adiw	r24, 0x01	; 1
    2566:	1c da       	rcall	.-3016   	; 0x19a0 <remove_chain>
    2568:	18 2f       	mov	r17, r24
    256a:	81 11       	cpse	r24, r1
    256c:	20 c0       	rjmp	.+64     	; 0x25ae <f_open+0x188>
    256e:	b7 01       	movw	r22, r14
    2570:	a6 01       	movw	r20, r12
    2572:	89 a5       	ldd	r24, Y+41	; 0x29
    2574:	9a a5       	ldd	r25, Y+42	; 0x2a
    2576:	0e 94 cf 04 	call	0x99e	; 0x99e <move_window>
    257a:	18 2f       	mov	r17, r24
    257c:	e9 a5       	ldd	r30, Y+41	; 0x29
    257e:	fa a5       	ldd	r31, Y+42	; 0x2a
    2580:	d4 01       	movw	r26, r8
    2582:	c3 01       	movw	r24, r6
    2584:	01 97       	sbiw	r24, 0x01	; 1
    2586:	a1 09       	sbc	r26, r1
    2588:	b1 09       	sbc	r27, r1
    258a:	83 87       	std	Z+11, r24	; 0x0b
    258c:	94 87       	std	Z+12, r25	; 0x0c
    258e:	a5 87       	std	Z+13, r26	; 0x0d
    2590:	b6 87       	std	Z+14, r27	; 0x0e
    2592:	0d c0       	rjmp	.+26     	; 0x25ae <f_open+0x188>
    2594:	11 11       	cpse	r17, r1
    2596:	0b c0       	rjmp	.+22     	; 0x25ae <f_open+0x188>
    2598:	8d 81       	ldd	r24, Y+5	; 0x05
    259a:	84 fd       	sbrc	r24, 4
    259c:	05 c0       	rjmp	.+10     	; 0x25a8 <f_open+0x182>
    259e:	01 ff       	sbrs	r16, 1
    25a0:	06 c0       	rjmp	.+12     	; 0x25ae <f_open+0x188>
    25a2:	80 fd       	sbrc	r24, 0
    25a4:	03 c0       	rjmp	.+6      	; 0x25ac <f_open+0x186>
    25a6:	03 c0       	rjmp	.+6      	; 0x25ae <f_open+0x188>
    25a8:	14 e0       	ldi	r17, 0x04	; 4
    25aa:	01 c0       	rjmp	.+2      	; 0x25ae <f_open+0x188>
    25ac:	17 e0       	ldi	r17, 0x07	; 7
    25ae:	11 11       	cpse	r17, r1
    25b0:	15 c0       	rjmp	.+42     	; 0x25dc <f_open+0x1b6>
    25b2:	53 fe       	sbrs	r5, 3
    25b4:	03 c0       	rjmp	.+6      	; 0x25bc <f_open+0x196>
    25b6:	f5 2d       	mov	r31, r5
    25b8:	f0 64       	ori	r31, 0x40	; 64
    25ba:	5f 2e       	mov	r5, r31
    25bc:	e9 a5       	ldd	r30, Y+41	; 0x29
    25be:	fa a5       	ldd	r31, Y+42	; 0x2a
    25c0:	87 a5       	ldd	r24, Z+47	; 0x2f
    25c2:	90 a9       	ldd	r25, Z+48	; 0x30
    25c4:	a1 a9       	ldd	r26, Z+49	; 0x31
    25c6:	b2 a9       	ldd	r27, Z+50	; 0x32
    25c8:	ed a5       	ldd	r30, Y+45	; 0x2d
    25ca:	fe a5       	ldd	r31, Y+46	; 0x2e
    25cc:	84 8f       	std	Z+28, r24	; 0x1c
    25ce:	95 8f       	std	Z+29, r25	; 0x1d
    25d0:	a6 8f       	std	Z+30, r26	; 0x1e
    25d2:	b7 8f       	std	Z+31, r27	; 0x1f
    25d4:	8b 8d       	ldd	r24, Y+27	; 0x1b
    25d6:	9c 8d       	ldd	r25, Y+28	; 0x1c
    25d8:	91 a3       	std	Z+33, r25	; 0x21
    25da:	80 a3       	std	Z+32, r24	; 0x20
    25dc:	11 11       	cpse	r17, r1
    25de:	9d c0       	rjmp	.+314    	; 0x271a <f_open+0x2f4>
    25e0:	6b 8c       	ldd	r6, Y+27	; 0x1b
    25e2:	7c 8c       	ldd	r7, Y+28	; 0x1c
    25e4:	29 a4       	ldd	r2, Y+41	; 0x29
    25e6:	3a a4       	ldd	r3, Y+42	; 0x2a
    25e8:	b3 01       	movw	r22, r6
    25ea:	c1 01       	movw	r24, r2
    25ec:	0e 94 bd 03 	call	0x77a	; 0x77a <ld_clust>
    25f0:	4b 01       	movw	r8, r22
    25f2:	5c 01       	movw	r10, r24
    25f4:	ed a5       	ldd	r30, Y+45	; 0x2d
    25f6:	fe a5       	ldd	r31, Y+46	; 0x2e
    25f8:	66 83       	std	Z+6, r22	; 0x06
    25fa:	77 83       	std	Z+7, r23	; 0x07
    25fc:	80 87       	std	Z+8, r24	; 0x08
    25fe:	91 87       	std	Z+9, r25	; 0x09
    2600:	c3 01       	movw	r24, r6
    2602:	4c 96       	adiw	r24, 0x1c	; 28
    2604:	0e 94 3a 03 	call	0x674	; 0x674 <ld_dword>
    2608:	6b 01       	movw	r12, r22
    260a:	7c 01       	movw	r14, r24
    260c:	ed a5       	ldd	r30, Y+45	; 0x2d
    260e:	fe a5       	ldd	r31, Y+46	; 0x2e
    2610:	62 87       	std	Z+10, r22	; 0x0a
    2612:	73 87       	std	Z+11, r23	; 0x0b
    2614:	84 87       	std	Z+12, r24	; 0x0c
    2616:	95 87       	std	Z+13, r25	; 0x0d
    2618:	31 82       	std	Z+1, r3	; 0x01
    261a:	20 82       	st	Z, r2
    261c:	f1 01       	movw	r30, r2
    261e:	85 81       	ldd	r24, Z+5	; 0x05
    2620:	96 81       	ldd	r25, Z+6	; 0x06
    2622:	ed a5       	ldd	r30, Y+45	; 0x2d
    2624:	fe a5       	ldd	r31, Y+46	; 0x2e
    2626:	93 83       	std	Z+3, r25	; 0x03
    2628:	82 83       	std	Z+2, r24	; 0x02
    262a:	56 86       	std	Z+14, r5	; 0x0e
    262c:	17 86       	std	Z+15, r1	; 0x0f
    262e:	10 8e       	std	Z+24, r1	; 0x18
    2630:	11 8e       	std	Z+25, r1	; 0x19
    2632:	12 8e       	std	Z+26, r1	; 0x1a
    2634:	13 8e       	std	Z+27, r1	; 0x1b
    2636:	10 8a       	std	Z+16, r1	; 0x10
    2638:	11 8a       	std	Z+17, r1	; 0x11
    263a:	12 8a       	std	Z+18, r1	; 0x12
    263c:	13 8a       	std	Z+19, r1	; 0x13
    263e:	55 fe       	sbrs	r5, 5
    2640:	6c c0       	rjmp	.+216    	; 0x271a <f_open+0x2f4>
    2642:	c1 14       	cp	r12, r1
    2644:	d1 04       	cpc	r13, r1
    2646:	e1 04       	cpc	r14, r1
    2648:	f1 04       	cpc	r15, r1
    264a:	09 f4       	brne	.+2      	; 0x264e <f_open+0x228>
    264c:	66 c0       	rjmp	.+204    	; 0x271a <f_open+0x2f4>
    264e:	c0 8a       	std	Z+16, r12	; 0x10
    2650:	d1 8a       	std	Z+17, r13	; 0x11
    2652:	e2 8a       	std	Z+18, r14	; 0x12
    2654:	f3 8a       	std	Z+19, r15	; 0x13
    2656:	f1 01       	movw	r30, r2
    2658:	41 84       	ldd	r4, Z+9	; 0x09
    265a:	52 84       	ldd	r5, Z+10	; 0x0a
    265c:	61 2c       	mov	r6, r1
    265e:	71 2c       	mov	r7, r1
    2660:	03 2e       	mov	r0, r19
    2662:	39 e0       	ldi	r19, 0x09	; 9
    2664:	44 0c       	add	r4, r4
    2666:	55 1c       	adc	r5, r5
    2668:	66 1c       	adc	r6, r6
    266a:	77 1c       	adc	r7, r7
    266c:	3a 95       	dec	r19
    266e:	d1 f7       	brne	.-12     	; 0x2664 <f_open+0x23e>
    2670:	30 2d       	mov	r19, r0
    2672:	19 c0       	rjmp	.+50     	; 0x26a6 <f_open+0x280>
    2674:	b5 01       	movw	r22, r10
    2676:	a4 01       	movw	r20, r8
    2678:	8d a5       	ldd	r24, Y+45	; 0x2d
    267a:	9e a5       	ldd	r25, Y+46	; 0x2e
    267c:	0e 94 c4 09 	call	0x1388	; 0x1388 <get_fat>
    2680:	4b 01       	movw	r8, r22
    2682:	5c 01       	movw	r10, r24
    2684:	62 30       	cpi	r22, 0x02	; 2
    2686:	71 05       	cpc	r23, r1
    2688:	81 05       	cpc	r24, r1
    268a:	91 05       	cpc	r25, r1
    268c:	08 f4       	brcc	.+2      	; 0x2690 <f_open+0x26a>
    268e:	12 e0       	ldi	r17, 0x02	; 2
    2690:	8f ef       	ldi	r24, 0xFF	; 255
    2692:	88 16       	cp	r8, r24
    2694:	98 06       	cpc	r9, r24
    2696:	a8 06       	cpc	r10, r24
    2698:	b8 06       	cpc	r11, r24
    269a:	09 f4       	brne	.+2      	; 0x269e <f_open+0x278>
    269c:	11 e0       	ldi	r17, 0x01	; 1
    269e:	c4 18       	sub	r12, r4
    26a0:	d5 08       	sbc	r13, r5
    26a2:	e6 08       	sbc	r14, r6
    26a4:	f7 08       	sbc	r15, r7
    26a6:	11 11       	cpse	r17, r1
    26a8:	05 c0       	rjmp	.+10     	; 0x26b4 <f_open+0x28e>
    26aa:	4c 14       	cp	r4, r12
    26ac:	5d 04       	cpc	r5, r13
    26ae:	6e 04       	cpc	r6, r14
    26b0:	7f 04       	cpc	r7, r15
    26b2:	00 f3       	brcs	.-64     	; 0x2674 <f_open+0x24e>
    26b4:	ed a5       	ldd	r30, Y+45	; 0x2d
    26b6:	fe a5       	ldd	r31, Y+46	; 0x2e
    26b8:	84 8a       	std	Z+20, r8	; 0x14
    26ba:	95 8a       	std	Z+21, r9	; 0x15
    26bc:	a6 8a       	std	Z+22, r10	; 0x16
    26be:	b7 8a       	std	Z+23, r11	; 0x17
    26c0:	11 11       	cpse	r17, r1
    26c2:	2b c0       	rjmp	.+86     	; 0x271a <f_open+0x2f4>
    26c4:	d7 01       	movw	r26, r14
    26c6:	c6 01       	movw	r24, r12
    26c8:	91 70       	andi	r25, 0x01	; 1
    26ca:	aa 27       	eor	r26, r26
    26cc:	bb 27       	eor	r27, r27
    26ce:	89 2b       	or	r24, r25
    26d0:	8a 2b       	or	r24, r26
    26d2:	8b 2b       	or	r24, r27
    26d4:	11 f1       	breq	.+68     	; 0x271a <f_open+0x2f4>
    26d6:	b5 01       	movw	r22, r10
    26d8:	a4 01       	movw	r20, r8
    26da:	89 a5       	ldd	r24, Y+41	; 0x29
    26dc:	9a a5       	ldd	r25, Y+42	; 0x2a
    26de:	0e 94 8f 03 	call	0x71e	; 0x71e <clst2sect>
    26e2:	61 15       	cp	r22, r1
    26e4:	71 05       	cpc	r23, r1
    26e6:	81 05       	cpc	r24, r1
    26e8:	91 05       	cpc	r25, r1
    26ea:	b1 f0       	breq	.+44     	; 0x2718 <f_open+0x2f2>
    26ec:	0b 2e       	mov	r0, r27
    26ee:	b9 e0       	ldi	r27, 0x09	; 9
    26f0:	f6 94       	lsr	r15
    26f2:	e7 94       	ror	r14
    26f4:	d7 94       	ror	r13
    26f6:	c7 94       	ror	r12
    26f8:	ba 95       	dec	r27
    26fa:	d1 f7       	brne	.-12     	; 0x26f0 <f_open+0x2ca>
    26fc:	b0 2d       	mov	r27, r0
    26fe:	dc 01       	movw	r26, r24
    2700:	cb 01       	movw	r24, r22
    2702:	8c 0d       	add	r24, r12
    2704:	9d 1d       	adc	r25, r13
    2706:	ae 1d       	adc	r26, r14
    2708:	bf 1d       	adc	r27, r15
    270a:	ed a5       	ldd	r30, Y+45	; 0x2d
    270c:	fe a5       	ldd	r31, Y+46	; 0x2e
    270e:	80 8f       	std	Z+24, r24	; 0x18
    2710:	91 8f       	std	Z+25, r25	; 0x19
    2712:	a2 8f       	std	Z+26, r26	; 0x1a
    2714:	b3 8f       	std	Z+27, r27	; 0x1b
    2716:	01 c0       	rjmp	.+2      	; 0x271a <f_open+0x2f4>
    2718:	12 e0       	ldi	r17, 0x02	; 2
    271a:	11 23       	and	r17, r17
    271c:	41 f0       	breq	.+16     	; 0x272e <f_open+0x308>
    271e:	ed a5       	ldd	r30, Y+45	; 0x2d
    2720:	fe a5       	ldd	r31, Y+46	; 0x2e
    2722:	11 82       	std	Z+1, r1	; 0x01
    2724:	10 82       	st	Z, r1
    2726:	81 2f       	mov	r24, r17
    2728:	03 c0       	rjmp	.+6      	; 0x2730 <f_open+0x30a>
    272a:	89 e0       	ldi	r24, 0x09	; 9
    272c:	01 c0       	rjmp	.+2      	; 0x2730 <f_open+0x30a>
    272e:	81 2f       	mov	r24, r17
    2730:	ae 96       	adiw	r28, 0x2e	; 46
    2732:	0f b6       	in	r0, 0x3f	; 63
    2734:	f8 94       	cli
    2736:	de bf       	out	0x3e, r29	; 62
    2738:	0f be       	out	0x3f, r0	; 63
    273a:	cd bf       	out	0x3d, r28	; 61
    273c:	df 91       	pop	r29
    273e:	cf 91       	pop	r28
    2740:	1f 91       	pop	r17
    2742:	0f 91       	pop	r16
    2744:	ff 90       	pop	r15
    2746:	ef 90       	pop	r14
    2748:	df 90       	pop	r13
    274a:	cf 90       	pop	r12
    274c:	bf 90       	pop	r11
    274e:	af 90       	pop	r10
    2750:	9f 90       	pop	r9
    2752:	8f 90       	pop	r8
    2754:	7f 90       	pop	r7
    2756:	6f 90       	pop	r6
    2758:	5f 90       	pop	r5
    275a:	4f 90       	pop	r4
    275c:	3f 90       	pop	r3
    275e:	2f 90       	pop	r2
    2760:	08 95       	ret

00002762 <f_read>:
    2762:	2f 92       	push	r2
    2764:	3f 92       	push	r3
    2766:	4f 92       	push	r4
    2768:	5f 92       	push	r5
    276a:	6f 92       	push	r6
    276c:	7f 92       	push	r7
    276e:	8f 92       	push	r8
    2770:	9f 92       	push	r9
    2772:	af 92       	push	r10
    2774:	bf 92       	push	r11
    2776:	cf 92       	push	r12
    2778:	df 92       	push	r13
    277a:	ef 92       	push	r14
    277c:	ff 92       	push	r15
    277e:	0f 93       	push	r16
    2780:	1f 93       	push	r17
    2782:	cf 93       	push	r28
    2784:	df 93       	push	r29
    2786:	cd b7       	in	r28, 0x3d	; 61
    2788:	de b7       	in	r29, 0x3e	; 62
    278a:	28 97       	sbiw	r28, 0x08	; 8
    278c:	0f b6       	in	r0, 0x3f	; 63
    278e:	f8 94       	cli
    2790:	de bf       	out	0x3e, r29	; 62
    2792:	0f be       	out	0x3f, r0	; 63
    2794:	cd bf       	out	0x3d, r28	; 61
    2796:	7c 01       	movw	r14, r24
    2798:	3b 01       	movw	r6, r22
    279a:	5a 01       	movw	r10, r20
    279c:	49 01       	movw	r8, r18
    279e:	f9 01       	movw	r30, r18
    27a0:	11 82       	std	Z+1, r1	; 0x01
    27a2:	10 82       	st	Z, r1
    27a4:	8d 83       	std	Y+5, r24	; 0x05
    27a6:	fe 82       	std	Y+6, r15	; 0x06
    27a8:	be 01       	movw	r22, r28
    27aa:	6f 5f       	subi	r22, 0xFF	; 255
    27ac:	7f 4f       	sbci	r23, 0xFF	; 255
    27ae:	0e 94 43 04 	call	0x886	; 0x886 <validate>
    27b2:	81 11       	cpse	r24, r1
    27b4:	28 c1       	rjmp	.+592    	; 0x2a06 <f_read+0x2a4>
    27b6:	f7 01       	movw	r30, r14
    27b8:	87 85       	ldd	r24, Z+15	; 0x0f
    27ba:	81 11       	cpse	r24, r1
    27bc:	24 c1       	rjmp	.+584    	; 0x2a06 <f_read+0x2a4>
    27be:	86 85       	ldd	r24, Z+14	; 0x0e
    27c0:	80 ff       	sbrs	r24, 0
    27c2:	20 c1       	rjmp	.+576    	; 0x2a04 <f_read+0x2a2>
    27c4:	82 85       	ldd	r24, Z+10	; 0x0a
    27c6:	93 85       	ldd	r25, Z+11	; 0x0b
    27c8:	a4 85       	ldd	r26, Z+12	; 0x0c
    27ca:	b5 85       	ldd	r27, Z+13	; 0x0d
    27cc:	40 89       	ldd	r20, Z+16	; 0x10
    27ce:	51 89       	ldd	r21, Z+17	; 0x11
    27d0:	62 89       	ldd	r22, Z+18	; 0x12
    27d2:	73 89       	ldd	r23, Z+19	; 0x13
    27d4:	84 1b       	sub	r24, r20
    27d6:	95 0b       	sbc	r25, r21
    27d8:	a6 0b       	sbc	r26, r22
    27da:	b7 0b       	sbc	r27, r23
    27dc:	a5 01       	movw	r20, r10
    27de:	60 e0       	ldi	r22, 0x00	; 0
    27e0:	70 e0       	ldi	r23, 0x00	; 0
    27e2:	84 17       	cp	r24, r20
    27e4:	95 07       	cpc	r25, r21
    27e6:	a6 07       	cpc	r26, r22
    27e8:	b7 07       	cpc	r27, r23
    27ea:	08 f0       	brcs	.+2      	; 0x27ee <f_read+0x8c>
    27ec:	05 c1       	rjmp	.+522    	; 0x29f8 <f_read+0x296>
    27ee:	5c 01       	movw	r10, r24
    27f0:	03 c1       	rjmp	.+518    	; 0x29f8 <f_read+0x296>
    27f2:	f7 01       	movw	r30, r14
    27f4:	80 89       	ldd	r24, Z+16	; 0x10
    27f6:	91 89       	ldd	r25, Z+17	; 0x11
    27f8:	a2 89       	ldd	r26, Z+18	; 0x12
    27fa:	b3 89       	ldd	r27, Z+19	; 0x13
    27fc:	ac 01       	movw	r20, r24
    27fe:	bd 01       	movw	r22, r26
    2800:	51 70       	andi	r21, 0x01	; 1
    2802:	66 27       	eor	r22, r22
    2804:	77 27       	eor	r23, r23
    2806:	45 2b       	or	r20, r21
    2808:	46 2b       	or	r20, r22
    280a:	47 2b       	or	r20, r23
    280c:	09 f0       	breq	.+2      	; 0x2810 <f_read+0xae>
    280e:	ac c0       	rjmp	.+344    	; 0x2968 <f_read+0x206>
    2810:	e9 81       	ldd	r30, Y+1	; 0x01
    2812:	fa 81       	ldd	r31, Y+2	; 0x02
    2814:	01 85       	ldd	r16, Z+9	; 0x09
    2816:	12 85       	ldd	r17, Z+10	; 0x0a
    2818:	01 50       	subi	r16, 0x01	; 1
    281a:	11 09       	sbc	r17, r1
    281c:	ac 01       	movw	r20, r24
    281e:	bd 01       	movw	r22, r26
    2820:	03 2e       	mov	r0, r19
    2822:	39 e0       	ldi	r19, 0x09	; 9
    2824:	76 95       	lsr	r23
    2826:	67 95       	ror	r22
    2828:	57 95       	ror	r21
    282a:	47 95       	ror	r20
    282c:	3a 95       	dec	r19
    282e:	d1 f7       	brne	.-12     	; 0x2824 <f_read+0xc2>
    2830:	30 2d       	mov	r19, r0
    2832:	04 23       	and	r16, r20
    2834:	15 23       	and	r17, r21
    2836:	01 15       	cp	r16, r1
    2838:	11 05       	cpc	r17, r1
    283a:	59 f5       	brne	.+86     	; 0x2892 <f_read+0x130>
    283c:	89 2b       	or	r24, r25
    283e:	8a 2b       	or	r24, r26
    2840:	8b 2b       	or	r24, r27
    2842:	31 f4       	brne	.+12     	; 0x2850 <f_read+0xee>
    2844:	f7 01       	movw	r30, r14
    2846:	66 81       	ldd	r22, Z+6	; 0x06
    2848:	77 81       	ldd	r23, Z+7	; 0x07
    284a:	80 85       	ldd	r24, Z+8	; 0x08
    284c:	91 85       	ldd	r25, Z+9	; 0x09
    284e:	09 c0       	rjmp	.+18     	; 0x2862 <f_read+0x100>
    2850:	f7 01       	movw	r30, r14
    2852:	44 89       	ldd	r20, Z+20	; 0x14
    2854:	55 89       	ldd	r21, Z+21	; 0x15
    2856:	66 89       	ldd	r22, Z+22	; 0x16
    2858:	77 89       	ldd	r23, Z+23	; 0x17
    285a:	8d 81       	ldd	r24, Y+5	; 0x05
    285c:	9e 81       	ldd	r25, Y+6	; 0x06
    285e:	0e 94 c4 09 	call	0x1388	; 0x1388 <get_fat>
    2862:	62 30       	cpi	r22, 0x02	; 2
    2864:	71 05       	cpc	r23, r1
    2866:	81 05       	cpc	r24, r1
    2868:	91 05       	cpc	r25, r1
    286a:	20 f4       	brcc	.+8      	; 0x2874 <f_read+0x112>
    286c:	82 e0       	ldi	r24, 0x02	; 2
    286e:	f7 01       	movw	r30, r14
    2870:	87 87       	std	Z+15, r24	; 0x0f
    2872:	c9 c0       	rjmp	.+402    	; 0x2a06 <f_read+0x2a4>
    2874:	6f 3f       	cpi	r22, 0xFF	; 255
    2876:	ff ef       	ldi	r31, 0xFF	; 255
    2878:	7f 07       	cpc	r23, r31
    287a:	8f 07       	cpc	r24, r31
    287c:	9f 07       	cpc	r25, r31
    287e:	21 f4       	brne	.+8      	; 0x2888 <f_read+0x126>
    2880:	81 e0       	ldi	r24, 0x01	; 1
    2882:	f7 01       	movw	r30, r14
    2884:	87 87       	std	Z+15, r24	; 0x0f
    2886:	bf c0       	rjmp	.+382    	; 0x2a06 <f_read+0x2a4>
    2888:	f7 01       	movw	r30, r14
    288a:	64 8b       	std	Z+20, r22	; 0x14
    288c:	75 8b       	std	Z+21, r23	; 0x15
    288e:	86 8b       	std	Z+22, r24	; 0x16
    2890:	97 8b       	std	Z+23, r25	; 0x17
    2892:	f7 01       	movw	r30, r14
    2894:	44 89       	ldd	r20, Z+20	; 0x14
    2896:	55 89       	ldd	r21, Z+21	; 0x15
    2898:	66 89       	ldd	r22, Z+22	; 0x16
    289a:	77 89       	ldd	r23, Z+23	; 0x17
    289c:	89 81       	ldd	r24, Y+1	; 0x01
    289e:	9a 81       	ldd	r25, Y+2	; 0x02
    28a0:	9c 83       	std	Y+4, r25	; 0x04
    28a2:	8b 83       	std	Y+3, r24	; 0x03
    28a4:	0e 94 8f 03 	call	0x71e	; 0x71e <clst2sect>
    28a8:	61 15       	cp	r22, r1
    28aa:	71 05       	cpc	r23, r1
    28ac:	81 05       	cpc	r24, r1
    28ae:	91 05       	cpc	r25, r1
    28b0:	21 f4       	brne	.+8      	; 0x28ba <f_read+0x158>
    28b2:	82 e0       	ldi	r24, 0x02	; 2
    28b4:	f7 01       	movw	r30, r14
    28b6:	87 87       	std	Z+15, r24	; 0x0f
    28b8:	a6 c0       	rjmp	.+332    	; 0x2a06 <f_read+0x2a4>
    28ba:	1b 01       	movw	r2, r22
    28bc:	2c 01       	movw	r4, r24
    28be:	20 0e       	add	r2, r16
    28c0:	31 1e       	adc	r3, r17
    28c2:	41 1c       	adc	r4, r1
    28c4:	51 1c       	adc	r5, r1
    28c6:	65 01       	movw	r12, r10
    28c8:	cd 2c       	mov	r12, r13
    28ca:	dd 24       	eor	r13, r13
    28cc:	c6 94       	lsr	r12
    28ce:	c1 14       	cp	r12, r1
    28d0:	d1 04       	cpc	r13, r1
    28d2:	09 f4       	brne	.+2      	; 0x28d6 <f_read+0x174>
    28d4:	44 c0       	rjmp	.+136    	; 0x295e <f_read+0x1fc>
    28d6:	eb 81       	ldd	r30, Y+3	; 0x03
    28d8:	fc 81       	ldd	r31, Y+4	; 0x04
    28da:	21 85       	ldd	r18, Z+9	; 0x09
    28dc:	32 85       	ldd	r19, Z+10	; 0x0a
    28de:	c8 01       	movw	r24, r16
    28e0:	8c 0d       	add	r24, r12
    28e2:	9d 1d       	adc	r25, r13
    28e4:	28 17       	cp	r18, r24
    28e6:	39 07       	cpc	r19, r25
    28e8:	18 f4       	brcc	.+6      	; 0x28f0 <f_read+0x18e>
    28ea:	69 01       	movw	r12, r18
    28ec:	c0 1a       	sub	r12, r16
    28ee:	d1 0a       	sbc	r13, r17
    28f0:	86 01       	movw	r16, r12
    28f2:	a2 01       	movw	r20, r4
    28f4:	91 01       	movw	r18, r2
    28f6:	b3 01       	movw	r22, r6
    28f8:	eb 81       	ldd	r30, Y+3	; 0x03
    28fa:	fc 81       	ldd	r31, Y+4	; 0x04
    28fc:	81 81       	ldd	r24, Z+1	; 0x01
    28fe:	0e 94 04 03 	call	0x608	; 0x608 <disk_read>
    2902:	88 23       	and	r24, r24
    2904:	21 f0       	breq	.+8      	; 0x290e <f_read+0x1ac>
    2906:	81 e0       	ldi	r24, 0x01	; 1
    2908:	f7 01       	movw	r30, r14
    290a:	87 87       	std	Z+15, r24	; 0x0f
    290c:	7c c0       	rjmp	.+248    	; 0x2a06 <f_read+0x2a4>
    290e:	e9 81       	ldd	r30, Y+1	; 0x01
    2910:	fa 81       	ldd	r31, Y+2	; 0x02
    2912:	83 81       	ldd	r24, Z+3	; 0x03
    2914:	88 23       	and	r24, r24
    2916:	f9 f0       	breq	.+62     	; 0x2956 <f_read+0x1f4>
    2918:	87 a5       	ldd	r24, Z+47	; 0x2f
    291a:	90 a9       	ldd	r25, Z+48	; 0x30
    291c:	a1 a9       	ldd	r26, Z+49	; 0x31
    291e:	b2 a9       	ldd	r27, Z+50	; 0x32
    2920:	82 19       	sub	r24, r2
    2922:	93 09       	sbc	r25, r3
    2924:	a4 09       	sbc	r26, r4
    2926:	b5 09       	sbc	r27, r5
    2928:	a6 01       	movw	r20, r12
    292a:	60 e0       	ldi	r22, 0x00	; 0
    292c:	70 e0       	ldi	r23, 0x00	; 0
    292e:	84 17       	cp	r24, r20
    2930:	95 07       	cpc	r25, r21
    2932:	a6 07       	cpc	r26, r22
    2934:	b7 07       	cpc	r27, r23
    2936:	78 f4       	brcc	.+30     	; 0x2956 <f_read+0x1f4>
    2938:	f3 96       	adiw	r30, 0x33	; 51
    293a:	28 2f       	mov	r18, r24
    293c:	22 0f       	add	r18, r18
    293e:	28 87       	std	Y+8, r18	; 0x08
    2940:	1f 82       	std	Y+7, r1	; 0x07
    2942:	af 81       	ldd	r26, Y+7	; 0x07
    2944:	b8 85       	ldd	r27, Y+8	; 0x08
    2946:	a6 0d       	add	r26, r6
    2948:	b7 1d       	adc	r27, r7
    294a:	80 e0       	ldi	r24, 0x00	; 0
    294c:	92 e0       	ldi	r25, 0x02	; 2
    294e:	01 90       	ld	r0, Z+
    2950:	0d 92       	st	X+, r0
    2952:	01 97       	sbiw	r24, 0x01	; 1
    2954:	e1 f7       	brne	.-8      	; 0x294e <f_read+0x1ec>
    2956:	dc 2c       	mov	r13, r12
    2958:	cc 24       	eor	r12, r12
    295a:	dd 0c       	add	r13, r13
    295c:	35 c0       	rjmp	.+106    	; 0x29c8 <f_read+0x266>
    295e:	f7 01       	movw	r30, r14
    2960:	20 8e       	std	Z+24, r2	; 0x18
    2962:	31 8e       	std	Z+25, r3	; 0x19
    2964:	42 8e       	std	Z+26, r4	; 0x1a
    2966:	53 8e       	std	Z+27, r5	; 0x1b
    2968:	f7 01       	movw	r30, r14
    296a:	80 89       	ldd	r24, Z+16	; 0x10
    296c:	91 89       	ldd	r25, Z+17	; 0x11
    296e:	a2 89       	ldd	r26, Z+18	; 0x12
    2970:	b3 89       	ldd	r27, Z+19	; 0x13
    2972:	91 70       	andi	r25, 0x01	; 1
    2974:	20 e0       	ldi	r18, 0x00	; 0
    2976:	32 e0       	ldi	r19, 0x02	; 2
    2978:	69 01       	movw	r12, r18
    297a:	c8 1a       	sub	r12, r24
    297c:	d9 0a       	sbc	r13, r25
    297e:	ac 14       	cp	r10, r12
    2980:	bd 04       	cpc	r11, r13
    2982:	08 f4       	brcc	.+2      	; 0x2986 <f_read+0x224>
    2984:	65 01       	movw	r12, r10
    2986:	f7 01       	movw	r30, r14
    2988:	40 8d       	ldd	r20, Z+24	; 0x18
    298a:	51 8d       	ldd	r21, Z+25	; 0x19
    298c:	62 8d       	ldd	r22, Z+26	; 0x1a
    298e:	73 8d       	ldd	r23, Z+27	; 0x1b
    2990:	89 81       	ldd	r24, Y+1	; 0x01
    2992:	9a 81       	ldd	r25, Y+2	; 0x02
    2994:	0e 94 cf 04 	call	0x99e	; 0x99e <move_window>
    2998:	88 23       	and	r24, r24
    299a:	21 f0       	breq	.+8      	; 0x29a4 <f_read+0x242>
    299c:	81 e0       	ldi	r24, 0x01	; 1
    299e:	f7 01       	movw	r30, r14
    29a0:	87 87       	std	Z+15, r24	; 0x0f
    29a2:	31 c0       	rjmp	.+98     	; 0x2a06 <f_read+0x2a4>
    29a4:	89 81       	ldd	r24, Y+1	; 0x01
    29a6:	9a 81       	ldd	r25, Y+2	; 0x02
    29a8:	9c 01       	movw	r18, r24
    29aa:	2d 5c       	subi	r18, 0xCD	; 205
    29ac:	3f 4f       	sbci	r19, 0xFF	; 255
    29ae:	f7 01       	movw	r30, r14
    29b0:	80 89       	ldd	r24, Z+16	; 0x10
    29b2:	91 89       	ldd	r25, Z+17	; 0x11
    29b4:	a2 89       	ldd	r26, Z+18	; 0x12
    29b6:	b3 89       	ldd	r27, Z+19	; 0x13
    29b8:	91 70       	andi	r25, 0x01	; 1
    29ba:	b9 01       	movw	r22, r18
    29bc:	68 0f       	add	r22, r24
    29be:	79 1f       	adc	r23, r25
    29c0:	a6 01       	movw	r20, r12
    29c2:	c3 01       	movw	r24, r6
    29c4:	0e 94 fd 30 	call	0x61fa	; 0x61fa <memcpy>
    29c8:	ac 18       	sub	r10, r12
    29ca:	bd 08       	sbc	r11, r13
    29cc:	f4 01       	movw	r30, r8
    29ce:	80 81       	ld	r24, Z
    29d0:	91 81       	ldd	r25, Z+1	; 0x01
    29d2:	8c 0d       	add	r24, r12
    29d4:	9d 1d       	adc	r25, r13
    29d6:	91 83       	std	Z+1, r25	; 0x01
    29d8:	80 83       	st	Z, r24
    29da:	6c 0c       	add	r6, r12
    29dc:	7d 1c       	adc	r7, r13
    29de:	f7 01       	movw	r30, r14
    29e0:	80 89       	ldd	r24, Z+16	; 0x10
    29e2:	91 89       	ldd	r25, Z+17	; 0x11
    29e4:	a2 89       	ldd	r26, Z+18	; 0x12
    29e6:	b3 89       	ldd	r27, Z+19	; 0x13
    29e8:	8c 0d       	add	r24, r12
    29ea:	9d 1d       	adc	r25, r13
    29ec:	a1 1d       	adc	r26, r1
    29ee:	b1 1d       	adc	r27, r1
    29f0:	80 8b       	std	Z+16, r24	; 0x10
    29f2:	91 8b       	std	Z+17, r25	; 0x11
    29f4:	a2 8b       	std	Z+18, r26	; 0x12
    29f6:	b3 8b       	std	Z+19, r27	; 0x13
    29f8:	a1 14       	cp	r10, r1
    29fa:	b1 04       	cpc	r11, r1
    29fc:	09 f0       	breq	.+2      	; 0x2a00 <f_read+0x29e>
    29fe:	f9 ce       	rjmp	.-526    	; 0x27f2 <f_read+0x90>
    2a00:	80 e0       	ldi	r24, 0x00	; 0
    2a02:	01 c0       	rjmp	.+2      	; 0x2a06 <f_read+0x2a4>
    2a04:	87 e0       	ldi	r24, 0x07	; 7
    2a06:	28 96       	adiw	r28, 0x08	; 8
    2a08:	0f b6       	in	r0, 0x3f	; 63
    2a0a:	f8 94       	cli
    2a0c:	de bf       	out	0x3e, r29	; 62
    2a0e:	0f be       	out	0x3f, r0	; 63
    2a10:	cd bf       	out	0x3d, r28	; 61
    2a12:	df 91       	pop	r29
    2a14:	cf 91       	pop	r28
    2a16:	1f 91       	pop	r17
    2a18:	0f 91       	pop	r16
    2a1a:	ff 90       	pop	r15
    2a1c:	ef 90       	pop	r14
    2a1e:	df 90       	pop	r13
    2a20:	cf 90       	pop	r12
    2a22:	bf 90       	pop	r11
    2a24:	af 90       	pop	r10
    2a26:	9f 90       	pop	r9
    2a28:	8f 90       	pop	r8
    2a2a:	7f 90       	pop	r7
    2a2c:	6f 90       	pop	r6
    2a2e:	5f 90       	pop	r5
    2a30:	4f 90       	pop	r4
    2a32:	3f 90       	pop	r3
    2a34:	2f 90       	pop	r2
    2a36:	08 95       	ret

00002a38 <f_write>:
    2a38:	2f 92       	push	r2
    2a3a:	3f 92       	push	r3
    2a3c:	4f 92       	push	r4
    2a3e:	5f 92       	push	r5
    2a40:	6f 92       	push	r6
    2a42:	7f 92       	push	r7
    2a44:	8f 92       	push	r8
    2a46:	9f 92       	push	r9
    2a48:	af 92       	push	r10
    2a4a:	bf 92       	push	r11
    2a4c:	cf 92       	push	r12
    2a4e:	df 92       	push	r13
    2a50:	ef 92       	push	r14
    2a52:	ff 92       	push	r15
    2a54:	0f 93       	push	r16
    2a56:	1f 93       	push	r17
    2a58:	cf 93       	push	r28
    2a5a:	df 93       	push	r29
    2a5c:	cd b7       	in	r28, 0x3d	; 61
    2a5e:	de b7       	in	r29, 0x3e	; 62
    2a60:	28 97       	sbiw	r28, 0x08	; 8
    2a62:	0f b6       	in	r0, 0x3f	; 63
    2a64:	f8 94       	cli
    2a66:	de bf       	out	0x3e, r29	; 62
    2a68:	0f be       	out	0x3f, r0	; 63
    2a6a:	cd bf       	out	0x3d, r28	; 61
    2a6c:	7c 01       	movw	r14, r24
    2a6e:	3b 01       	movw	r6, r22
    2a70:	5a 01       	movw	r10, r20
    2a72:	49 01       	movw	r8, r18
    2a74:	f9 01       	movw	r30, r18
    2a76:	11 82       	std	Z+1, r1	; 0x01
    2a78:	10 82       	st	Z, r1
    2a7a:	8d 83       	std	Y+5, r24	; 0x05
    2a7c:	fe 82       	std	Y+6, r15	; 0x06
    2a7e:	be 01       	movw	r22, r28
    2a80:	6f 5f       	subi	r22, 0xFF	; 255
    2a82:	7f 4f       	sbci	r23, 0xFF	; 255
    2a84:	0e 94 43 04 	call	0x886	; 0x886 <validate>
    2a88:	81 11       	cpse	r24, r1
    2a8a:	94 c1       	rjmp	.+808    	; 0x2db4 <f_write+0x37c>
    2a8c:	f7 01       	movw	r30, r14
    2a8e:	87 85       	ldd	r24, Z+15	; 0x0f
    2a90:	81 11       	cpse	r24, r1
    2a92:	90 c1       	rjmp	.+800    	; 0x2db4 <f_write+0x37c>
    2a94:	86 85       	ldd	r24, Z+14	; 0x0e
    2a96:	81 ff       	sbrs	r24, 1
    2a98:	8c c1       	rjmp	.+792    	; 0x2db2 <f_write+0x37a>
    2a9a:	80 89       	ldd	r24, Z+16	; 0x10
    2a9c:	91 89       	ldd	r25, Z+17	; 0x11
    2a9e:	a2 89       	ldd	r26, Z+18	; 0x12
    2aa0:	b3 89       	ldd	r27, Z+19	; 0x13
    2aa2:	ac 01       	movw	r20, r24
    2aa4:	bd 01       	movw	r22, r26
    2aa6:	4a 0d       	add	r20, r10
    2aa8:	5b 1d       	adc	r21, r11
    2aaa:	61 1d       	adc	r22, r1
    2aac:	71 1d       	adc	r23, r1
    2aae:	48 17       	cp	r20, r24
    2ab0:	59 07       	cpc	r21, r25
    2ab2:	6a 07       	cpc	r22, r26
    2ab4:	7b 07       	cpc	r23, r27
    2ab6:	08 f0       	brcs	.+2      	; 0x2aba <f_write+0x82>
    2ab8:	72 c1       	rjmp	.+740    	; 0x2d9e <f_write+0x366>
    2aba:	5c 01       	movw	r10, r24
    2abc:	a0 94       	com	r10
    2abe:	b0 94       	com	r11
    2ac0:	6e c1       	rjmp	.+732    	; 0x2d9e <f_write+0x366>
    2ac2:	f7 01       	movw	r30, r14
    2ac4:	80 89       	ldd	r24, Z+16	; 0x10
    2ac6:	91 89       	ldd	r25, Z+17	; 0x11
    2ac8:	a2 89       	ldd	r26, Z+18	; 0x12
    2aca:	b3 89       	ldd	r27, Z+19	; 0x13
    2acc:	ac 01       	movw	r20, r24
    2ace:	bd 01       	movw	r22, r26
    2ad0:	51 70       	andi	r21, 0x01	; 1
    2ad2:	66 27       	eor	r22, r22
    2ad4:	77 27       	eor	r23, r23
    2ad6:	45 2b       	or	r20, r21
    2ad8:	46 2b       	or	r20, r22
    2ada:	47 2b       	or	r20, r23
    2adc:	09 f0       	breq	.+2      	; 0x2ae0 <f_write+0xa8>
    2ade:	04 c1       	rjmp	.+520    	; 0x2ce8 <f_write+0x2b0>
    2ae0:	e9 81       	ldd	r30, Y+1	; 0x01
    2ae2:	fa 81       	ldd	r31, Y+2	; 0x02
    2ae4:	01 85       	ldd	r16, Z+9	; 0x09
    2ae6:	12 85       	ldd	r17, Z+10	; 0x0a
    2ae8:	01 50       	subi	r16, 0x01	; 1
    2aea:	11 09       	sbc	r17, r1
    2aec:	ac 01       	movw	r20, r24
    2aee:	bd 01       	movw	r22, r26
    2af0:	03 2e       	mov	r0, r19
    2af2:	39 e0       	ldi	r19, 0x09	; 9
    2af4:	76 95       	lsr	r23
    2af6:	67 95       	ror	r22
    2af8:	57 95       	ror	r21
    2afa:	47 95       	ror	r20
    2afc:	3a 95       	dec	r19
    2afe:	d1 f7       	brne	.-12     	; 0x2af4 <f_write+0xbc>
    2b00:	30 2d       	mov	r19, r0
    2b02:	04 23       	and	r16, r20
    2b04:	15 23       	and	r17, r21
    2b06:	01 15       	cp	r16, r1
    2b08:	11 05       	cpc	r17, r1
    2b0a:	09 f0       	breq	.+2      	; 0x2b0e <f_write+0xd6>
    2b0c:	49 c0       	rjmp	.+146    	; 0x2ba0 <f_write+0x168>
    2b0e:	89 2b       	or	r24, r25
    2b10:	8a 2b       	or	r24, r26
    2b12:	8b 2b       	or	r24, r27
    2b14:	91 f4       	brne	.+36     	; 0x2b3a <f_write+0x102>
    2b16:	f7 01       	movw	r30, r14
    2b18:	66 81       	ldd	r22, Z+6	; 0x06
    2b1a:	77 81       	ldd	r23, Z+7	; 0x07
    2b1c:	80 85       	ldd	r24, Z+8	; 0x08
    2b1e:	91 85       	ldd	r25, Z+9	; 0x09
    2b20:	61 15       	cp	r22, r1
    2b22:	71 05       	cpc	r23, r1
    2b24:	81 05       	cpc	r24, r1
    2b26:	91 05       	cpc	r25, r1
    2b28:	89 f4       	brne	.+34     	; 0x2b4c <f_write+0x114>
    2b2a:	40 e0       	ldi	r20, 0x00	; 0
    2b2c:	50 e0       	ldi	r21, 0x00	; 0
    2b2e:	ba 01       	movw	r22, r20
    2b30:	8d 81       	ldd	r24, Y+5	; 0x05
    2b32:	9e 81       	ldd	r25, Y+6	; 0x06
    2b34:	0e 94 84 0b 	call	0x1708	; 0x1708 <create_chain>
    2b38:	09 c0       	rjmp	.+18     	; 0x2b4c <f_write+0x114>
    2b3a:	f7 01       	movw	r30, r14
    2b3c:	44 89       	ldd	r20, Z+20	; 0x14
    2b3e:	55 89       	ldd	r21, Z+21	; 0x15
    2b40:	66 89       	ldd	r22, Z+22	; 0x16
    2b42:	77 89       	ldd	r23, Z+23	; 0x17
    2b44:	8d 81       	ldd	r24, Y+5	; 0x05
    2b46:	9e 81       	ldd	r25, Y+6	; 0x06
    2b48:	0e 94 84 0b 	call	0x1708	; 0x1708 <create_chain>
    2b4c:	61 15       	cp	r22, r1
    2b4e:	71 05       	cpc	r23, r1
    2b50:	81 05       	cpc	r24, r1
    2b52:	91 05       	cpc	r25, r1
    2b54:	09 f4       	brne	.+2      	; 0x2b58 <f_write+0x120>
    2b56:	27 c1       	rjmp	.+590    	; 0x2da6 <f_write+0x36e>
    2b58:	61 30       	cpi	r22, 0x01	; 1
    2b5a:	71 05       	cpc	r23, r1
    2b5c:	81 05       	cpc	r24, r1
    2b5e:	91 05       	cpc	r25, r1
    2b60:	21 f4       	brne	.+8      	; 0x2b6a <f_write+0x132>
    2b62:	82 e0       	ldi	r24, 0x02	; 2
    2b64:	f7 01       	movw	r30, r14
    2b66:	87 87       	std	Z+15, r24	; 0x0f
    2b68:	25 c1       	rjmp	.+586    	; 0x2db4 <f_write+0x37c>
    2b6a:	6f 3f       	cpi	r22, 0xFF	; 255
    2b6c:	ff ef       	ldi	r31, 0xFF	; 255
    2b6e:	7f 07       	cpc	r23, r31
    2b70:	8f 07       	cpc	r24, r31
    2b72:	9f 07       	cpc	r25, r31
    2b74:	21 f4       	brne	.+8      	; 0x2b7e <f_write+0x146>
    2b76:	81 e0       	ldi	r24, 0x01	; 1
    2b78:	f7 01       	movw	r30, r14
    2b7a:	87 87       	std	Z+15, r24	; 0x0f
    2b7c:	1b c1       	rjmp	.+566    	; 0x2db4 <f_write+0x37c>
    2b7e:	f7 01       	movw	r30, r14
    2b80:	64 8b       	std	Z+20, r22	; 0x14
    2b82:	75 8b       	std	Z+21, r23	; 0x15
    2b84:	86 8b       	std	Z+22, r24	; 0x16
    2b86:	97 8b       	std	Z+23, r25	; 0x17
    2b88:	26 81       	ldd	r18, Z+6	; 0x06
    2b8a:	37 81       	ldd	r19, Z+7	; 0x07
    2b8c:	40 85       	ldd	r20, Z+8	; 0x08
    2b8e:	51 85       	ldd	r21, Z+9	; 0x09
    2b90:	23 2b       	or	r18, r19
    2b92:	24 2b       	or	r18, r20
    2b94:	25 2b       	or	r18, r21
    2b96:	21 f4       	brne	.+8      	; 0x2ba0 <f_write+0x168>
    2b98:	66 83       	std	Z+6, r22	; 0x06
    2b9a:	77 83       	std	Z+7, r23	; 0x07
    2b9c:	80 87       	std	Z+8, r24	; 0x08
    2b9e:	91 87       	std	Z+9, r25	; 0x09
    2ba0:	29 81       	ldd	r18, Y+1	; 0x01
    2ba2:	3a 81       	ldd	r19, Y+2	; 0x02
    2ba4:	f9 01       	movw	r30, r18
    2ba6:	47 a5       	ldd	r20, Z+47	; 0x2f
    2ba8:	50 a9       	ldd	r21, Z+48	; 0x30
    2baa:	61 a9       	ldd	r22, Z+49	; 0x31
    2bac:	72 a9       	ldd	r23, Z+50	; 0x32
    2bae:	f7 01       	movw	r30, r14
    2bb0:	80 8d       	ldd	r24, Z+24	; 0x18
    2bb2:	91 8d       	ldd	r25, Z+25	; 0x19
    2bb4:	a2 8d       	ldd	r26, Z+26	; 0x1a
    2bb6:	b3 8d       	ldd	r27, Z+27	; 0x1b
    2bb8:	48 17       	cp	r20, r24
    2bba:	59 07       	cpc	r21, r25
    2bbc:	6a 07       	cpc	r22, r26
    2bbe:	7b 07       	cpc	r23, r27
    2bc0:	49 f4       	brne	.+18     	; 0x2bd4 <f_write+0x19c>
    2bc2:	c9 01       	movw	r24, r18
    2bc4:	0e 94 77 04 	call	0x8ee	; 0x8ee <sync_window>
    2bc8:	88 23       	and	r24, r24
    2bca:	21 f0       	breq	.+8      	; 0x2bd4 <f_write+0x19c>
    2bcc:	81 e0       	ldi	r24, 0x01	; 1
    2bce:	f7 01       	movw	r30, r14
    2bd0:	87 87       	std	Z+15, r24	; 0x0f
    2bd2:	f0 c0       	rjmp	.+480    	; 0x2db4 <f_write+0x37c>
    2bd4:	f7 01       	movw	r30, r14
    2bd6:	44 89       	ldd	r20, Z+20	; 0x14
    2bd8:	55 89       	ldd	r21, Z+21	; 0x15
    2bda:	66 89       	ldd	r22, Z+22	; 0x16
    2bdc:	77 89       	ldd	r23, Z+23	; 0x17
    2bde:	89 81       	ldd	r24, Y+1	; 0x01
    2be0:	9a 81       	ldd	r25, Y+2	; 0x02
    2be2:	9c 83       	std	Y+4, r25	; 0x04
    2be4:	8b 83       	std	Y+3, r24	; 0x03
    2be6:	0e 94 8f 03 	call	0x71e	; 0x71e <clst2sect>
    2bea:	61 15       	cp	r22, r1
    2bec:	71 05       	cpc	r23, r1
    2bee:	81 05       	cpc	r24, r1
    2bf0:	91 05       	cpc	r25, r1
    2bf2:	21 f4       	brne	.+8      	; 0x2bfc <f_write+0x1c4>
    2bf4:	82 e0       	ldi	r24, 0x02	; 2
    2bf6:	f7 01       	movw	r30, r14
    2bf8:	87 87       	std	Z+15, r24	; 0x0f
    2bfa:	dc c0       	rjmp	.+440    	; 0x2db4 <f_write+0x37c>
    2bfc:	1b 01       	movw	r2, r22
    2bfe:	2c 01       	movw	r4, r24
    2c00:	20 0e       	add	r2, r16
    2c02:	31 1e       	adc	r3, r17
    2c04:	41 1c       	adc	r4, r1
    2c06:	51 1c       	adc	r5, r1
    2c08:	65 01       	movw	r12, r10
    2c0a:	cd 2c       	mov	r12, r13
    2c0c:	dd 24       	eor	r13, r13
    2c0e:	c6 94       	lsr	r12
    2c10:	c1 14       	cp	r12, r1
    2c12:	d1 04       	cpc	r13, r1
    2c14:	09 f4       	brne	.+2      	; 0x2c18 <f_write+0x1e0>
    2c16:	45 c0       	rjmp	.+138    	; 0x2ca2 <f_write+0x26a>
    2c18:	eb 81       	ldd	r30, Y+3	; 0x03
    2c1a:	fc 81       	ldd	r31, Y+4	; 0x04
    2c1c:	21 85       	ldd	r18, Z+9	; 0x09
    2c1e:	32 85       	ldd	r19, Z+10	; 0x0a
    2c20:	c8 01       	movw	r24, r16
    2c22:	8c 0d       	add	r24, r12
    2c24:	9d 1d       	adc	r25, r13
    2c26:	28 17       	cp	r18, r24
    2c28:	39 07       	cpc	r19, r25
    2c2a:	18 f4       	brcc	.+6      	; 0x2c32 <f_write+0x1fa>
    2c2c:	69 01       	movw	r12, r18
    2c2e:	c0 1a       	sub	r12, r16
    2c30:	d1 0a       	sbc	r13, r17
    2c32:	86 01       	movw	r16, r12
    2c34:	a2 01       	movw	r20, r4
    2c36:	91 01       	movw	r18, r2
    2c38:	b3 01       	movw	r22, r6
    2c3a:	eb 81       	ldd	r30, Y+3	; 0x03
    2c3c:	fc 81       	ldd	r31, Y+4	; 0x04
    2c3e:	81 81       	ldd	r24, Z+1	; 0x01
    2c40:	0e 94 14 03 	call	0x628	; 0x628 <disk_write>
    2c44:	88 23       	and	r24, r24
    2c46:	21 f0       	breq	.+8      	; 0x2c50 <f_write+0x218>
    2c48:	81 e0       	ldi	r24, 0x01	; 1
    2c4a:	f7 01       	movw	r30, r14
    2c4c:	87 87       	std	Z+15, r24	; 0x0f
    2c4e:	b2 c0       	rjmp	.+356    	; 0x2db4 <f_write+0x37c>
    2c50:	29 81       	ldd	r18, Y+1	; 0x01
    2c52:	3a 81       	ldd	r19, Y+2	; 0x02
    2c54:	f9 01       	movw	r30, r18
    2c56:	87 a5       	ldd	r24, Z+47	; 0x2f
    2c58:	90 a9       	ldd	r25, Z+48	; 0x30
    2c5a:	a1 a9       	ldd	r26, Z+49	; 0x31
    2c5c:	b2 a9       	ldd	r27, Z+50	; 0x32
    2c5e:	82 19       	sub	r24, r2
    2c60:	93 09       	sbc	r25, r3
    2c62:	a4 09       	sbc	r26, r4
    2c64:	b5 09       	sbc	r27, r5
    2c66:	a6 01       	movw	r20, r12
    2c68:	60 e0       	ldi	r22, 0x00	; 0
    2c6a:	70 e0       	ldi	r23, 0x00	; 0
    2c6c:	84 17       	cp	r24, r20
    2c6e:	95 07       	cpc	r25, r21
    2c70:	a6 07       	cpc	r26, r22
    2c72:	b7 07       	cpc	r27, r23
    2c74:	90 f4       	brcc	.+36     	; 0x2c9a <f_write+0x262>
    2c76:	f8 2f       	mov	r31, r24
    2c78:	ff 0f       	add	r31, r31
    2c7a:	f8 87       	std	Y+8, r31	; 0x08
    2c7c:	1f 82       	std	Y+7, r1	; 0x07
    2c7e:	d9 01       	movw	r26, r18
    2c80:	d3 96       	adiw	r26, 0x33	; 51
    2c82:	ef 81       	ldd	r30, Y+7	; 0x07
    2c84:	f8 85       	ldd	r31, Y+8	; 0x08
    2c86:	e6 0d       	add	r30, r6
    2c88:	f7 1d       	adc	r31, r7
    2c8a:	80 e0       	ldi	r24, 0x00	; 0
    2c8c:	92 e0       	ldi	r25, 0x02	; 2
    2c8e:	01 90       	ld	r0, Z+
    2c90:	0d 92       	st	X+, r0
    2c92:	01 97       	sbiw	r24, 0x01	; 1
    2c94:	e1 f7       	brne	.-8      	; 0x2c8e <f_write+0x256>
    2c96:	f9 01       	movw	r30, r18
    2c98:	13 82       	std	Z+3, r1	; 0x03
    2c9a:	dc 2c       	mov	r13, r12
    2c9c:	cc 24       	eor	r12, r12
    2c9e:	dd 0c       	add	r13, r13
    2ca0:	56 c0       	rjmp	.+172    	; 0x2d4e <f_write+0x316>
    2ca2:	f7 01       	movw	r30, r14
    2ca4:	40 89       	ldd	r20, Z+16	; 0x10
    2ca6:	51 89       	ldd	r21, Z+17	; 0x11
    2ca8:	62 89       	ldd	r22, Z+18	; 0x12
    2caa:	73 89       	ldd	r23, Z+19	; 0x13
    2cac:	82 85       	ldd	r24, Z+10	; 0x0a
    2cae:	93 85       	ldd	r25, Z+11	; 0x0b
    2cb0:	a4 85       	ldd	r26, Z+12	; 0x0c
    2cb2:	b5 85       	ldd	r27, Z+13	; 0x0d
    2cb4:	48 17       	cp	r20, r24
    2cb6:	59 07       	cpc	r21, r25
    2cb8:	6a 07       	cpc	r22, r26
    2cba:	7b 07       	cpc	r23, r27
    2cbc:	80 f0       	brcs	.+32     	; 0x2cde <f_write+0x2a6>
    2cbe:	8b 81       	ldd	r24, Y+3	; 0x03
    2cc0:	9c 81       	ldd	r25, Y+4	; 0x04
    2cc2:	0e 94 77 04 	call	0x8ee	; 0x8ee <sync_window>
    2cc6:	88 23       	and	r24, r24
    2cc8:	21 f0       	breq	.+8      	; 0x2cd2 <f_write+0x29a>
    2cca:	81 e0       	ldi	r24, 0x01	; 1
    2ccc:	f7 01       	movw	r30, r14
    2cce:	87 87       	std	Z+15, r24	; 0x0f
    2cd0:	71 c0       	rjmp	.+226    	; 0x2db4 <f_write+0x37c>
    2cd2:	e9 81       	ldd	r30, Y+1	; 0x01
    2cd4:	fa 81       	ldd	r31, Y+2	; 0x02
    2cd6:	27 a6       	std	Z+47, r2	; 0x2f
    2cd8:	30 aa       	std	Z+48, r3	; 0x30
    2cda:	41 aa       	std	Z+49, r4	; 0x31
    2cdc:	52 aa       	std	Z+50, r5	; 0x32
    2cde:	f7 01       	movw	r30, r14
    2ce0:	20 8e       	std	Z+24, r2	; 0x18
    2ce2:	31 8e       	std	Z+25, r3	; 0x19
    2ce4:	42 8e       	std	Z+26, r4	; 0x1a
    2ce6:	53 8e       	std	Z+27, r5	; 0x1b
    2ce8:	f7 01       	movw	r30, r14
    2cea:	80 89       	ldd	r24, Z+16	; 0x10
    2cec:	91 89       	ldd	r25, Z+17	; 0x11
    2cee:	a2 89       	ldd	r26, Z+18	; 0x12
    2cf0:	b3 89       	ldd	r27, Z+19	; 0x13
    2cf2:	91 70       	andi	r25, 0x01	; 1
    2cf4:	20 e0       	ldi	r18, 0x00	; 0
    2cf6:	32 e0       	ldi	r19, 0x02	; 2
    2cf8:	69 01       	movw	r12, r18
    2cfa:	c8 1a       	sub	r12, r24
    2cfc:	d9 0a       	sbc	r13, r25
    2cfe:	ac 14       	cp	r10, r12
    2d00:	bd 04       	cpc	r11, r13
    2d02:	08 f4       	brcc	.+2      	; 0x2d06 <f_write+0x2ce>
    2d04:	65 01       	movw	r12, r10
    2d06:	f7 01       	movw	r30, r14
    2d08:	40 8d       	ldd	r20, Z+24	; 0x18
    2d0a:	51 8d       	ldd	r21, Z+25	; 0x19
    2d0c:	62 8d       	ldd	r22, Z+26	; 0x1a
    2d0e:	73 8d       	ldd	r23, Z+27	; 0x1b
    2d10:	89 81       	ldd	r24, Y+1	; 0x01
    2d12:	9a 81       	ldd	r25, Y+2	; 0x02
    2d14:	0e 94 cf 04 	call	0x99e	; 0x99e <move_window>
    2d18:	88 23       	and	r24, r24
    2d1a:	21 f0       	breq	.+8      	; 0x2d24 <f_write+0x2ec>
    2d1c:	81 e0       	ldi	r24, 0x01	; 1
    2d1e:	f7 01       	movw	r30, r14
    2d20:	87 87       	std	Z+15, r24	; 0x0f
    2d22:	48 c0       	rjmp	.+144    	; 0x2db4 <f_write+0x37c>
    2d24:	29 81       	ldd	r18, Y+1	; 0x01
    2d26:	3a 81       	ldd	r19, Y+2	; 0x02
    2d28:	2d 5c       	subi	r18, 0xCD	; 205
    2d2a:	3f 4f       	sbci	r19, 0xFF	; 255
    2d2c:	f7 01       	movw	r30, r14
    2d2e:	40 89       	ldd	r20, Z+16	; 0x10
    2d30:	51 89       	ldd	r21, Z+17	; 0x11
    2d32:	62 89       	ldd	r22, Z+18	; 0x12
    2d34:	73 89       	ldd	r23, Z+19	; 0x13
    2d36:	ca 01       	movw	r24, r20
    2d38:	91 70       	andi	r25, 0x01	; 1
    2d3a:	a6 01       	movw	r20, r12
    2d3c:	b3 01       	movw	r22, r6
    2d3e:	82 0f       	add	r24, r18
    2d40:	93 1f       	adc	r25, r19
    2d42:	0e 94 fd 30 	call	0x61fa	; 0x61fa <memcpy>
    2d46:	e9 81       	ldd	r30, Y+1	; 0x01
    2d48:	fa 81       	ldd	r31, Y+2	; 0x02
    2d4a:	81 e0       	ldi	r24, 0x01	; 1
    2d4c:	83 83       	std	Z+3, r24	; 0x03
    2d4e:	ac 18       	sub	r10, r12
    2d50:	bd 08       	sbc	r11, r13
    2d52:	f4 01       	movw	r30, r8
    2d54:	80 81       	ld	r24, Z
    2d56:	91 81       	ldd	r25, Z+1	; 0x01
    2d58:	8c 0d       	add	r24, r12
    2d5a:	9d 1d       	adc	r25, r13
    2d5c:	91 83       	std	Z+1, r25	; 0x01
    2d5e:	80 83       	st	Z, r24
    2d60:	6c 0c       	add	r6, r12
    2d62:	7d 1c       	adc	r7, r13
    2d64:	f7 01       	movw	r30, r14
    2d66:	80 89       	ldd	r24, Z+16	; 0x10
    2d68:	91 89       	ldd	r25, Z+17	; 0x11
    2d6a:	a2 89       	ldd	r26, Z+18	; 0x12
    2d6c:	b3 89       	ldd	r27, Z+19	; 0x13
    2d6e:	8c 0d       	add	r24, r12
    2d70:	9d 1d       	adc	r25, r13
    2d72:	a1 1d       	adc	r26, r1
    2d74:	b1 1d       	adc	r27, r1
    2d76:	80 8b       	std	Z+16, r24	; 0x10
    2d78:	91 8b       	std	Z+17, r25	; 0x11
    2d7a:	a2 8b       	std	Z+18, r26	; 0x12
    2d7c:	b3 8b       	std	Z+19, r27	; 0x13
    2d7e:	42 85       	ldd	r20, Z+10	; 0x0a
    2d80:	53 85       	ldd	r21, Z+11	; 0x0b
    2d82:	64 85       	ldd	r22, Z+12	; 0x0c
    2d84:	75 85       	ldd	r23, Z+13	; 0x0d
    2d86:	84 17       	cp	r24, r20
    2d88:	95 07       	cpc	r25, r21
    2d8a:	a6 07       	cpc	r26, r22
    2d8c:	b7 07       	cpc	r27, r23
    2d8e:	10 f4       	brcc	.+4      	; 0x2d94 <f_write+0x35c>
    2d90:	db 01       	movw	r26, r22
    2d92:	ca 01       	movw	r24, r20
    2d94:	f7 01       	movw	r30, r14
    2d96:	82 87       	std	Z+10, r24	; 0x0a
    2d98:	93 87       	std	Z+11, r25	; 0x0b
    2d9a:	a4 87       	std	Z+12, r26	; 0x0c
    2d9c:	b5 87       	std	Z+13, r27	; 0x0d
    2d9e:	a1 14       	cp	r10, r1
    2da0:	b1 04       	cpc	r11, r1
    2da2:	09 f0       	breq	.+2      	; 0x2da6 <f_write+0x36e>
    2da4:	8e ce       	rjmp	.-740    	; 0x2ac2 <f_write+0x8a>
    2da6:	f7 01       	movw	r30, r14
    2da8:	86 85       	ldd	r24, Z+14	; 0x0e
    2daa:	80 64       	ori	r24, 0x40	; 64
    2dac:	86 87       	std	Z+14, r24	; 0x0e
    2dae:	80 e0       	ldi	r24, 0x00	; 0
    2db0:	01 c0       	rjmp	.+2      	; 0x2db4 <f_write+0x37c>
    2db2:	87 e0       	ldi	r24, 0x07	; 7
    2db4:	28 96       	adiw	r28, 0x08	; 8
    2db6:	0f b6       	in	r0, 0x3f	; 63
    2db8:	f8 94       	cli
    2dba:	de bf       	out	0x3e, r29	; 62
    2dbc:	0f be       	out	0x3f, r0	; 63
    2dbe:	cd bf       	out	0x3d, r28	; 61
    2dc0:	df 91       	pop	r29
    2dc2:	cf 91       	pop	r28
    2dc4:	1f 91       	pop	r17
    2dc6:	0f 91       	pop	r16
    2dc8:	ff 90       	pop	r15
    2dca:	ef 90       	pop	r14
    2dcc:	df 90       	pop	r13
    2dce:	cf 90       	pop	r12
    2dd0:	bf 90       	pop	r11
    2dd2:	af 90       	pop	r10
    2dd4:	9f 90       	pop	r9
    2dd6:	8f 90       	pop	r8
    2dd8:	7f 90       	pop	r7
    2dda:	6f 90       	pop	r6
    2ddc:	5f 90       	pop	r5
    2dde:	4f 90       	pop	r4
    2de0:	3f 90       	pop	r3
    2de2:	2f 90       	pop	r2
    2de4:	08 95       	ret

00002de6 <f_sync>:
    2de6:	8f 92       	push	r8
    2de8:	9f 92       	push	r9
    2dea:	af 92       	push	r10
    2dec:	bf 92       	push	r11
    2dee:	ef 92       	push	r14
    2df0:	ff 92       	push	r15
    2df2:	0f 93       	push	r16
    2df4:	1f 93       	push	r17
    2df6:	cf 93       	push	r28
    2df8:	df 93       	push	r29
    2dfa:	00 d0       	rcall	.+0      	; 0x2dfc <f_sync+0x16>
    2dfc:	cd b7       	in	r28, 0x3d	; 61
    2dfe:	de b7       	in	r29, 0x3e	; 62
    2e00:	8c 01       	movw	r16, r24
    2e02:	be 01       	movw	r22, r28
    2e04:	6f 5f       	subi	r22, 0xFF	; 255
    2e06:	7f 4f       	sbci	r23, 0xFF	; 255
    2e08:	0e 94 43 04 	call	0x886	; 0x886 <validate>
    2e0c:	81 11       	cpse	r24, r1
    2e0e:	43 c0       	rjmp	.+134    	; 0x2e96 <f_sync+0xb0>
    2e10:	f8 01       	movw	r30, r16
    2e12:	96 85       	ldd	r25, Z+14	; 0x0e
    2e14:	96 ff       	sbrs	r25, 6
    2e16:	3f c0       	rjmp	.+126    	; 0x2e96 <f_sync+0xb0>
    2e18:	0e 94 46 23 	call	0x468c	; 0x468c <get_fattime>
    2e1c:	4b 01       	movw	r8, r22
    2e1e:	5c 01       	movw	r10, r24
    2e20:	f8 01       	movw	r30, r16
    2e22:	44 8d       	ldd	r20, Z+28	; 0x1c
    2e24:	55 8d       	ldd	r21, Z+29	; 0x1d
    2e26:	66 8d       	ldd	r22, Z+30	; 0x1e
    2e28:	77 8d       	ldd	r23, Z+31	; 0x1f
    2e2a:	89 81       	ldd	r24, Y+1	; 0x01
    2e2c:	9a 81       	ldd	r25, Y+2	; 0x02
    2e2e:	0e 94 cf 04 	call	0x99e	; 0x99e <move_window>
    2e32:	81 11       	cpse	r24, r1
    2e34:	30 c0       	rjmp	.+96     	; 0x2e96 <f_sync+0xb0>
    2e36:	f8 01       	movw	r30, r16
    2e38:	e0 a0       	ldd	r14, Z+32	; 0x20
    2e3a:	f1 a0       	ldd	r15, Z+33	; 0x21
    2e3c:	f7 01       	movw	r30, r14
    2e3e:	83 85       	ldd	r24, Z+11	; 0x0b
    2e40:	80 62       	ori	r24, 0x20	; 32
    2e42:	83 87       	std	Z+11, r24	; 0x0b
    2e44:	f8 01       	movw	r30, r16
    2e46:	26 81       	ldd	r18, Z+6	; 0x06
    2e48:	37 81       	ldd	r19, Z+7	; 0x07
    2e4a:	40 85       	ldd	r20, Z+8	; 0x08
    2e4c:	51 85       	ldd	r21, Z+9	; 0x09
    2e4e:	b7 01       	movw	r22, r14
    2e50:	80 81       	ld	r24, Z
    2e52:	91 81       	ldd	r25, Z+1	; 0x01
    2e54:	0e 94 e8 03 	call	0x7d0	; 0x7d0 <st_clust>
    2e58:	f8 01       	movw	r30, r16
    2e5a:	42 85       	ldd	r20, Z+10	; 0x0a
    2e5c:	53 85       	ldd	r21, Z+11	; 0x0b
    2e5e:	64 85       	ldd	r22, Z+12	; 0x0c
    2e60:	75 85       	ldd	r23, Z+13	; 0x0d
    2e62:	c7 01       	movw	r24, r14
    2e64:	4c 96       	adiw	r24, 0x1c	; 28
    2e66:	0e 94 59 03 	call	0x6b2	; 0x6b2 <st_dword>
    2e6a:	b5 01       	movw	r22, r10
    2e6c:	a4 01       	movw	r20, r8
    2e6e:	c7 01       	movw	r24, r14
    2e70:	46 96       	adiw	r24, 0x16	; 22
    2e72:	0e 94 59 03 	call	0x6b2	; 0x6b2 <st_dword>
    2e76:	60 e0       	ldi	r22, 0x00	; 0
    2e78:	70 e0       	ldi	r23, 0x00	; 0
    2e7a:	c7 01       	movw	r24, r14
    2e7c:	42 96       	adiw	r24, 0x12	; 18
    2e7e:	0e 94 55 03 	call	0x6aa	; 0x6aa <st_word>
    2e82:	89 81       	ldd	r24, Y+1	; 0x01
    2e84:	9a 81       	ldd	r25, Y+2	; 0x02
    2e86:	21 e0       	ldi	r18, 0x01	; 1
    2e88:	fc 01       	movw	r30, r24
    2e8a:	23 83       	std	Z+3, r18	; 0x03
    2e8c:	14 da       	rcall	.-3032   	; 0x22b6 <sync_fs>
    2e8e:	f8 01       	movw	r30, r16
    2e90:	96 85       	ldd	r25, Z+14	; 0x0e
    2e92:	9f 7b       	andi	r25, 0xBF	; 191
    2e94:	96 87       	std	Z+14, r25	; 0x0e
    2e96:	0f 90       	pop	r0
    2e98:	0f 90       	pop	r0
    2e9a:	df 91       	pop	r29
    2e9c:	cf 91       	pop	r28
    2e9e:	1f 91       	pop	r17
    2ea0:	0f 91       	pop	r16
    2ea2:	ff 90       	pop	r15
    2ea4:	ef 90       	pop	r14
    2ea6:	bf 90       	pop	r11
    2ea8:	af 90       	pop	r10
    2eaa:	9f 90       	pop	r9
    2eac:	8f 90       	pop	r8
    2eae:	08 95       	ret

00002eb0 <f_close>:
    2eb0:	0f 93       	push	r16
    2eb2:	1f 93       	push	r17
    2eb4:	cf 93       	push	r28
    2eb6:	df 93       	push	r29
    2eb8:	00 d0       	rcall	.+0      	; 0x2eba <f_close+0xa>
    2eba:	cd b7       	in	r28, 0x3d	; 61
    2ebc:	de b7       	in	r29, 0x3e	; 62
    2ebe:	8c 01       	movw	r16, r24
    2ec0:	92 df       	rcall	.-220    	; 0x2de6 <f_sync>
    2ec2:	81 11       	cpse	r24, r1
    2ec4:	0b c0       	rjmp	.+22     	; 0x2edc <f_close+0x2c>
    2ec6:	be 01       	movw	r22, r28
    2ec8:	6f 5f       	subi	r22, 0xFF	; 255
    2eca:	7f 4f       	sbci	r23, 0xFF	; 255
    2ecc:	c8 01       	movw	r24, r16
    2ece:	0e 94 43 04 	call	0x886	; 0x886 <validate>
    2ed2:	81 11       	cpse	r24, r1
    2ed4:	03 c0       	rjmp	.+6      	; 0x2edc <f_close+0x2c>
    2ed6:	f8 01       	movw	r30, r16
    2ed8:	11 82       	std	Z+1, r1	; 0x01
    2eda:	10 82       	st	Z, r1
    2edc:	0f 90       	pop	r0
    2ede:	0f 90       	pop	r0
    2ee0:	df 91       	pop	r29
    2ee2:	cf 91       	pop	r28
    2ee4:	1f 91       	pop	r17
    2ee6:	0f 91       	pop	r16
    2ee8:	08 95       	ret

00002eea <f_unlink>:
/*-----------------------------------------------------------------------*/

FRESULT f_unlink (
	const TCHAR* path		/* Pointer to the file or directory path */
)
{
    2eea:	af 92       	push	r10
    2eec:	bf 92       	push	r11
    2eee:	cf 92       	push	r12
    2ef0:	df 92       	push	r13
    2ef2:	ef 92       	push	r14
    2ef4:	ff 92       	push	r15
    2ef6:	0f 93       	push	r16
    2ef8:	1f 93       	push	r17
    2efa:	cf 93       	push	r28
    2efc:	df 93       	push	r29
    2efe:	cd b7       	in	r28, 0x3d	; 61
    2f00:	de b7       	in	r29, 0x3e	; 62
    2f02:	c4 55       	subi	r28, 0x54	; 84
    2f04:	d1 09       	sbc	r29, r1
    2f06:	0f b6       	in	r0, 0x3f	; 63
    2f08:	f8 94       	cli
    2f0a:	de bf       	out	0x3e, r29	; 62
    2f0c:	0f be       	out	0x3f, r0	; 63
    2f0e:	cd bf       	out	0x3d, r28	; 61
    2f10:	65 96       	adiw	r28, 0x15	; 21
    2f12:	9f af       	std	Y+63, r25	; 0x3f
    2f14:	8e af       	std	Y+62, r24	; 0x3e
    2f16:	65 97       	sbiw	r28, 0x15	; 21
#endif
	DEF_NAMBUF


	/* Get logical drive */
	res = mount_volume(&path, &fs, FA_WRITE);
    2f18:	42 e0       	ldi	r20, 0x02	; 2
    2f1a:	be 01       	movw	r22, r28
    2f1c:	6f 5a       	subi	r22, 0xAF	; 175
    2f1e:	7f 4f       	sbci	r23, 0xFF	; 255
    2f20:	ce 01       	movw	r24, r28
    2f22:	8d 5a       	subi	r24, 0xAD	; 173
    2f24:	9f 4f       	sbci	r25, 0xFF	; 255
    2f26:	0e 94 24 06 	call	0xc48	; 0xc48 <mount_volume>
    2f2a:	18 2f       	mov	r17, r24
	if (res == FR_OK) {
    2f2c:	81 11       	cpse	r24, r1
    2f2e:	7b c0       	rjmp	.+246    	; 0x3026 <f_unlink+0x13c>
		dj.obj.fs = fs;
    2f30:	63 96       	adiw	r28, 0x13	; 19
    2f32:	8e ad       	ldd	r24, Y+62	; 0x3e
    2f34:	9f ad       	ldd	r25, Y+63	; 0x3f
    2f36:	63 97       	sbiw	r28, 0x13	; 19
    2f38:	9a 83       	std	Y+2, r25	; 0x02
    2f3a:	89 83       	std	Y+1, r24	; 0x01
		INIT_NAMBUF(fs);
		res = follow_path(&dj, path);		/* Follow the file path */
    2f3c:	65 96       	adiw	r28, 0x15	; 21
    2f3e:	6e ad       	ldd	r22, Y+62	; 0x3e
    2f40:	7f ad       	ldd	r23, Y+63	; 0x3f
    2f42:	65 97       	sbiw	r28, 0x15	; 21
    2f44:	ce 01       	movw	r24, r28
    2f46:	01 96       	adiw	r24, 0x01	; 1
    2f48:	f7 d8       	rcall	.-3602   	; 0x2138 <follow_path>
    2f4a:	18 2f       	mov	r17, r24
		if (FF_FS_RPATH && res == FR_OK && (dj.fn[NSFLAG] & NS_DOT)) {
    2f4c:	81 11       	cpse	r24, r1
    2f4e:	03 c0       	rjmp	.+6      	; 0x2f56 <f_unlink+0x6c>
    2f50:	88 a5       	ldd	r24, Y+40	; 0x28
    2f52:	85 fd       	sbrc	r24, 5
			res = FR_INVALID_NAME;			/* Cannot remove dot entry */
    2f54:	16 e0       	ldi	r17, 0x06	; 6
		}
#if FF_FS_LOCK != 0
		if (res == FR_OK) res = chk_lock(&dj, 2);	/* Check if it is an open object */
#endif
		if (res == FR_OK) {					/* The object is accessible */
    2f56:	11 11       	cpse	r17, r1
    2f58:	66 c0       	rjmp	.+204    	; 0x3026 <f_unlink+0x13c>
			if (dj.fn[NSFLAG] & NS_NONAME) {
    2f5a:	88 a5       	ldd	r24, Y+40	; 0x28
    2f5c:	88 23       	and	r24, r24
    2f5e:	24 f0       	brlt	.+8      	; 0x2f68 <f_unlink+0x7e>
				res = FR_INVALID_NAME;		/* Cannot remove the origin directory */
			} else {
				if (dj.obj.attr & AM_RDO) {
    2f60:	8d 81       	ldd	r24, Y+5	; 0x05
    2f62:	80 fd       	sbrc	r24, 0
    2f64:	03 c0       	rjmp	.+6      	; 0x2f6c <f_unlink+0x82>
    2f66:	03 c0       	rjmp	.+6      	; 0x2f6e <f_unlink+0x84>
#if FF_FS_LOCK != 0
		if (res == FR_OK) res = chk_lock(&dj, 2);	/* Check if it is an open object */
#endif
		if (res == FR_OK) {					/* The object is accessible */
			if (dj.fn[NSFLAG] & NS_NONAME) {
				res = FR_INVALID_NAME;		/* Cannot remove the origin directory */
    2f68:	16 e0       	ldi	r17, 0x06	; 6
    2f6a:	01 c0       	rjmp	.+2      	; 0x2f6e <f_unlink+0x84>
			} else {
				if (dj.obj.attr & AM_RDO) {
					res = FR_DENIED;		/* Cannot remove R/O object */
    2f6c:	17 e0       	ldi	r17, 0x07	; 7
				}
			}
			if (res == FR_OK) {
    2f6e:	11 11       	cpse	r17, r1
    2f70:	35 c0       	rjmp	.+106    	; 0x2fdc <f_unlink+0xf2>
					init_alloc_info(fs, &obj);
					dclst = obj.sclust;
				} else
#endif
				{
					dclst = ld_clust(fs, dj.dir);
    2f72:	6b 8d       	ldd	r22, Y+27	; 0x1b
    2f74:	7c 8d       	ldd	r23, Y+28	; 0x1c
    2f76:	63 96       	adiw	r28, 0x13	; 19
    2f78:	ae ac       	ldd	r10, Y+62	; 0x3e
    2f7a:	bf ac       	ldd	r11, Y+63	; 0x3f
    2f7c:	63 97       	sbiw	r28, 0x13	; 19
    2f7e:	c5 01       	movw	r24, r10
    2f80:	0e 94 bd 03 	call	0x77a	; 0x77a <ld_clust>
    2f84:	6b 01       	movw	r12, r22
    2f86:	7c 01       	movw	r14, r24
				}
				if (dj.obj.attr & AM_DIR) {			/* Is it a sub-directory? */
    2f88:	8d 81       	ldd	r24, Y+5	; 0x05
    2f8a:	84 ff       	sbrs	r24, 4
    2f8c:	2c c0       	rjmp	.+88     	; 0x2fe6 <f_unlink+0xfc>
#if FF_FS_RPATH != 0
					if (dclst == fs->cdir) {	 	/* Is it the current directory? */
    2f8e:	f5 01       	movw	r30, r10
    2f90:	83 89       	ldd	r24, Z+19	; 0x13
    2f92:	94 89       	ldd	r25, Z+20	; 0x14
    2f94:	a5 89       	ldd	r26, Z+21	; 0x15
    2f96:	b6 89       	ldd	r27, Z+22	; 0x16
    2f98:	c8 16       	cp	r12, r24
    2f9a:	d9 06       	cpc	r13, r25
    2f9c:	ea 06       	cpc	r14, r26
    2f9e:	fb 06       	cpc	r15, r27
    2fa0:	09 f1       	breq	.+66     	; 0x2fe4 <f_unlink+0xfa>
						res = FR_DENIED;
					} else
#endif
					{
						sdj.obj.fs = fs;			/* Open the sub-directory */
    2fa2:	ba a6       	std	Y+42, r11	; 0x2a
    2fa4:	a9 a6       	std	Y+41, r10	; 0x29
						sdj.obj.sclust = dclst;
    2fa6:	cf a6       	std	Y+47, r12	; 0x2f
    2fa8:	d8 aa       	std	Y+48, r13	; 0x30
    2faa:	e9 aa       	std	Y+49, r14	; 0x31
    2fac:	fa aa       	std	Y+50, r15	; 0x32
						if (fs->fs_type == FS_EXFAT) {
							sdj.obj.objsize = obj.objsize;
							sdj.obj.stat = obj.stat;
						}
#endif
						res = dir_sdi(&sdj, 0);
    2fae:	40 e0       	ldi	r20, 0x00	; 0
    2fb0:	50 e0       	ldi	r21, 0x00	; 0
    2fb2:	ba 01       	movw	r22, r20
    2fb4:	ce 01       	movw	r24, r28
    2fb6:	89 96       	adiw	r24, 0x29	; 41
    2fb8:	0e 94 a0 0a 	call	0x1540	; 0x1540 <dir_sdi>
    2fbc:	18 2f       	mov	r17, r24
						if (res == FR_OK) {
    2fbe:	81 11       	cpse	r24, r1
    2fc0:	12 c0       	rjmp	.+36     	; 0x2fe6 <f_unlink+0xfc>
							res = DIR_READ_FILE(&sdj);			/* Test if the directory is empty */
    2fc2:	60 e0       	ldi	r22, 0x00	; 0
    2fc4:	70 e0       	ldi	r23, 0x00	; 0
    2fc6:	ce 01       	movw	r24, r28
    2fc8:	89 96       	adiw	r24, 0x29	; 41
    2fca:	0e 94 4d 0f 	call	0x1e9a	; 0x1e9a <dir_read>
							if (res == FR_OK) res = FR_DENIED;	/* Not empty? */
    2fce:	81 11       	cpse	r24, r1
    2fd0:	01 c0       	rjmp	.+2      	; 0x2fd4 <f_unlink+0xea>
    2fd2:	87 e0       	ldi	r24, 0x07	; 7
							if (res == FR_NO_FILE) res = FR_OK;	/* Empty? */
    2fd4:	84 30       	cpi	r24, 0x04	; 4
    2fd6:	39 f0       	breq	.+14     	; 0x2fe6 <f_unlink+0xfc>
    2fd8:	18 2f       	mov	r17, r24
    2fda:	05 c0       	rjmp	.+10     	; 0x2fe6 <f_unlink+0xfc>
	const TCHAR* path		/* Pointer to the file or directory path */
)
{
	FRESULT res;
	DIR dj, sdj;
	DWORD dclst = 0;
    2fdc:	c1 2c       	mov	r12, r1
    2fde:	d1 2c       	mov	r13, r1
    2fe0:	76 01       	movw	r14, r12
    2fe2:	01 c0       	rjmp	.+2      	; 0x2fe6 <f_unlink+0xfc>
					dclst = ld_clust(fs, dj.dir);
				}
				if (dj.obj.attr & AM_DIR) {			/* Is it a sub-directory? */
#if FF_FS_RPATH != 0
					if (dclst == fs->cdir) {	 	/* Is it the current directory? */
						res = FR_DENIED;
    2fe4:	17 e0       	ldi	r17, 0x07	; 7
							if (res == FR_NO_FILE) res = FR_OK;	/* Empty? */
						}
					}
				}
			}
			if (res == FR_OK) {
    2fe6:	11 11       	cpse	r17, r1
    2fe8:	1e c0       	rjmp	.+60     	; 0x3026 <f_unlink+0x13c>
				res = dir_remove(&dj);			/* Remove the directory entry */
    2fea:	ce 01       	movw	r24, r28
    2fec:	01 96       	adiw	r24, 0x01	; 1
    2fee:	0e 94 62 0d 	call	0x1ac4	; 0x1ac4 <dir_remove>
    2ff2:	18 2f       	mov	r17, r24
				if (res == FR_OK && dclst != 0) {	/* Remove the cluster chain if exist */
    2ff4:	81 11       	cpse	r24, r1
    2ff6:	0f c0       	rjmp	.+30     	; 0x3016 <f_unlink+0x12c>
    2ff8:	c1 14       	cp	r12, r1
    2ffa:	d1 04       	cpc	r13, r1
    2ffc:	e1 04       	cpc	r14, r1
    2ffe:	f1 04       	cpc	r15, r1
    3000:	51 f0       	breq	.+20     	; 0x3016 <f_unlink+0x12c>
#if FF_FS_EXFAT
					res = remove_chain(&obj, dclst, 0);
#else
					res = remove_chain(&dj.obj, dclst, 0);
    3002:	00 e0       	ldi	r16, 0x00	; 0
    3004:	10 e0       	ldi	r17, 0x00	; 0
    3006:	98 01       	movw	r18, r16
    3008:	b7 01       	movw	r22, r14
    300a:	a6 01       	movw	r20, r12
    300c:	ce 01       	movw	r24, r28
    300e:	01 96       	adiw	r24, 0x01	; 1
    3010:	0e 94 d0 0c 	call	0x19a0	; 0x19a0 <remove_chain>
    3014:	18 2f       	mov	r17, r24
#endif
				}
				if (res == FR_OK) res = sync_fs(fs);
    3016:	11 11       	cpse	r17, r1
    3018:	06 c0       	rjmp	.+12     	; 0x3026 <f_unlink+0x13c>
    301a:	63 96       	adiw	r28, 0x13	; 19
    301c:	8e ad       	ldd	r24, Y+62	; 0x3e
    301e:	9f ad       	ldd	r25, Y+63	; 0x3f
    3020:	63 97       	sbiw	r28, 0x13	; 19
    3022:	49 d9       	rcall	.-3438   	; 0x22b6 <sync_fs>
    3024:	18 2f       	mov	r17, r24
		}
		FREE_NAMBUF();
	}

	LEAVE_FF(fs, res);
}
    3026:	81 2f       	mov	r24, r17
    3028:	cc 5a       	subi	r28, 0xAC	; 172
    302a:	df 4f       	sbci	r29, 0xFF	; 255
    302c:	0f b6       	in	r0, 0x3f	; 63
    302e:	f8 94       	cli
    3030:	de bf       	out	0x3e, r29	; 62
    3032:	0f be       	out	0x3f, r0	; 63
    3034:	cd bf       	out	0x3d, r28	; 61
    3036:	df 91       	pop	r29
    3038:	cf 91       	pop	r28
    303a:	1f 91       	pop	r17
    303c:	0f 91       	pop	r16
    303e:	ff 90       	pop	r15
    3040:	ef 90       	pop	r14
    3042:	df 90       	pop	r13
    3044:	cf 90       	pop	r12
    3046:	bf 90       	pop	r11
    3048:	af 90       	pop	r10
    304a:	08 95       	ret

0000304c <ioinit>:
{
    //MCUCR = _BV(JTD); MCUCR = _BV(JTD);   /* Disable JTAG */

    //pull up

    PORTA = 0b11111111;
    304c:	8f ef       	ldi	r24, 0xFF	; 255
    304e:	82 b9       	out	0x02, r24	; 2
    PORTB = 0b11111111;
    3050:	85 b9       	out	0x05, r24	; 5
    PORTC = 0b11111111;
    3052:	88 b9       	out	0x08, r24	; 8
    PORTD = 0b11111111;
    3054:	8b b9       	out	0x0b, r24	; 11
    //PORTE = 0b11111111;
    PORTF = 0b11111111;
    3056:	81 bb       	out	0x11, r24	; 17
    //PORTG = 0b00011111;

#ifdef USE_TIMER3_FATFS
    // TIMER3
    TCCR3A = 0;
    3058:	10 92 90 00 	sts	0x0090, r1	; 0x800090 <__TEXT_REGION_LENGTH__+0x7e0090>
    TCCR3B = 0;
    305c:	e1 e9       	ldi	r30, 0x91	; 145
    305e:	f0 e0       	ldi	r31, 0x00	; 0
    3060:	10 82       	st	Z, r1
    TCCR3B |= (1 << WGM32);   //CTC mode; clock timer comare
    3062:	80 81       	ld	r24, Z
    3064:	88 60       	ori	r24, 0x08	; 8
    3066:	80 83       	st	Z, r24
    TIMSK3 |= (1 << OCIE3A); //ENABLE INTERUPTs
    3068:	a1 e7       	ldi	r26, 0x71	; 113
    306a:	b0 e0       	ldi	r27, 0x00	; 0
    306c:	8c 91       	ld	r24, X
    306e:	82 60       	ori	r24, 0x02	; 2
    3070:	8c 93       	st	X, r24
    OCR3A = 0x4E20;
    3072:	80 e2       	ldi	r24, 0x20	; 32
    3074:	9e e4       	ldi	r25, 0x4E	; 78
    3076:	90 93 99 00 	sts	0x0099, r25	; 0x800099 <__TEXT_REGION_LENGTH__+0x7e0099>
    307a:	80 93 98 00 	sts	0x0098, r24	; 0x800098 <__TEXT_REGION_LENGTH__+0x7e0098>
    TCCR3B |=  (1 << CS31); //PRESCALER
    307e:	80 81       	ld	r24, Z
    3080:	82 60       	ori	r24, 0x02	; 2
    3082:	80 83       	st	Z, r24
    TIMSK1 |= (1 << OCIE1A); //ENABLE INTERUPTs
    OCR1A = 0x4E20;
    TCCR1B |=  (1 << CS11); //PRESCALER
#endif

    sei();
    3084:	78 94       	sei
    3086:	08 95       	ret

00003088 <myrand>:
    static uint8_t cur;
    //32 bit random number, from noinit sram
    static uint32_t random31 __attribute__((section(".noinit")));
    //temp storage for random number
    uint32_t temp;
    temp = random31 << 1;
    3088:	80 91 87 0c 	lds	r24, 0x0C87	; 0x800c87 <__bss_end>
    308c:	90 91 88 0c 	lds	r25, 0x0C88	; 0x800c88 <__bss_end+0x1>
    3090:	a0 91 89 0c 	lds	r26, 0x0C89	; 0x800c89 <__bss_end+0x2>
    3094:	b0 91 8a 0c 	lds	r27, 0x0C8A	; 0x800c8a <__bss_end+0x3>
    3098:	88 0f       	add	r24, r24
    309a:	99 1f       	adc	r25, r25
    309c:	aa 1f       	adc	r26, r26
    309e:	bb 1f       	adc	r27, r27
    //if bit31 set, or if init sram happens to be 0
    if ((temp & 0x80000000) || (temp == 0))
    30a0:	18 16       	cp	r1, r24
    30a2:	19 06       	cpc	r1, r25
    30a4:	1a 06       	cpc	r1, r26
    30a6:	1b 06       	cpc	r1, r27
    30a8:	44 f0       	brlt	.+16     	; 0x30ba <myrand+0x32>
    {
        //xor magic number (taps)
        temp ^= 0x20AA95B5;
    30aa:	25 eb       	ldi	r18, 0xB5	; 181
    30ac:	82 27       	eor	r24, r18
    30ae:	25 e9       	ldi	r18, 0x95	; 149
    30b0:	92 27       	eor	r25, r18
    30b2:	2a ea       	ldi	r18, 0xAA	; 170
    30b4:	a2 27       	eor	r26, r18
    30b6:	20 e2       	ldi	r18, 0x20	; 32
    30b8:	b2 27       	eor	r27, r18
    }
    //save back to random number for next time
    random31 = temp;
    30ba:	80 93 87 0c 	sts	0x0C87, r24	; 0x800c87 <__bss_end>
    30be:	90 93 88 0c 	sts	0x0C88, r25	; 0x800c88 <__bss_end+0x1>
    30c2:	a0 93 89 0c 	sts	0x0C89, r26	; 0x800c89 <__bss_end+0x2>
    30c6:	b0 93 8a 0c 	sts	0x0C8A, r27	; 0x800c8a <__bss_end+0x3>
    //return lowest byte only
    return temp + cur++;
    30ca:	20 91 fb 05 	lds	r18, 0x05FB	; 0x8005fb <cur.4720>
    30ce:	31 e0       	ldi	r19, 0x01	; 1
    30d0:	32 0f       	add	r19, r18
    30d2:	30 93 fb 05 	sts	0x05FB, r19	; 0x8005fb <cur.4720>
}
    30d6:	82 0f       	add	r24, r18
    30d8:	08 95       	ret

000030da <lufa_hook_usb_serialnumber_randomize>:
Get-CimInstance -ClassName Win32_DiskDrive -Property *  | where{$_.Interfacetype -eq 'USB'}

*/
void lufa_hook_usb_serialnumber_randomize(uint16_t* serial_str,
        size_t nr_elements)
{
    30da:	ef 92       	push	r14
    30dc:	ff 92       	push	r15
    30de:	0f 93       	push	r16
    30e0:	1f 93       	push	r17
    30e2:	cf 93       	push	r28
    30e4:	df 93       	push	r29
    30e6:	7c 01       	movw	r14, r24
    30e8:	8b 01       	movw	r16, r22
    /*
        hooked LUFA USB_Device_GetInternalSerialDescriptor (DeviceStandardReq.c)
    */
    static bool init;
    static uint8_t charset[0x10];
    if (!init)
    30ea:	80 91 fa 05 	lds	r24, 0x05FA	; 0x8005fa <init.4727>
    30ee:	81 11       	cpse	r24, r1
    30f0:	1b c0       	rjmp	.+54     	; 0x3128 <lufa_hook_usb_serialnumber_randomize+0x4e>
    {
        init = true;
    30f2:	81 e0       	ldi	r24, 0x01	; 1
    30f4:	80 93 fa 05 	sts	0x05FA, r24	; 0x8005fa <init.4727>
        for (size_t i = 0; i < sizeof(charset); i++)
    30f8:	c0 e0       	ldi	r28, 0x00	; 0
    30fa:	d0 e0       	ldi	r29, 0x00	; 0
    30fc:	12 c0       	rjmp	.+36     	; 0x3122 <lufa_hook_usb_serialnumber_randomize+0x48>
        {
            charset[i] = (myrand() % ('9' + 1 - '1')) + '1';
    30fe:	c4 df       	rcall	.-120    	; 0x3088 <myrand>
    3100:	fe 01       	movw	r30, r28
    3102:	e6 51       	subi	r30, 0x16	; 22
    3104:	fa 4f       	sbci	r31, 0xFA	; 250
    3106:	99 e3       	ldi	r25, 0x39	; 57
    3108:	89 9f       	mul	r24, r25
    310a:	91 2d       	mov	r25, r1
    310c:	11 24       	eor	r1, r1
    310e:	96 95       	lsr	r25
    3110:	29 2f       	mov	r18, r25
    3112:	22 0f       	add	r18, r18
    3114:	22 0f       	add	r18, r18
    3116:	22 0f       	add	r18, r18
    3118:	92 0f       	add	r25, r18
    311a:	89 1b       	sub	r24, r25
    311c:	8f 5c       	subi	r24, 0xCF	; 207
    311e:	80 83       	st	Z, r24
    static bool init;
    static uint8_t charset[0x10];
    if (!init)
    {
        init = true;
        for (size_t i = 0; i < sizeof(charset); i++)
    3120:	21 96       	adiw	r28, 0x01	; 1
    3122:	c0 31       	cpi	r28, 0x10	; 16
    3124:	d1 05       	cpc	r29, r1
    3126:	58 f3       	brcs	.-42     	; 0x30fe <lufa_hook_usb_serialnumber_randomize+0x24>
    3128:	80 e0       	ldi	r24, 0x00	; 0
    312a:	90 e0       	ldi	r25, 0x00	; 0
    312c:	0f c0       	rjmp	.+30     	; 0x314c <lufa_hook_usb_serialnumber_randomize+0x72>
        }

    }
    for (size_t i = 0; i < nr_elements; i++)
    {
        serial_str[i] = charset[i % sizeof(charset)];
    312e:	fc 01       	movw	r30, r24
    3130:	ee 0f       	add	r30, r30
    3132:	ff 1f       	adc	r31, r31
    3134:	ee 0d       	add	r30, r14
    3136:	ff 1d       	adc	r31, r15
    3138:	dc 01       	movw	r26, r24
    313a:	af 70       	andi	r26, 0x0F	; 15
    313c:	bb 27       	eor	r27, r27
    313e:	a6 51       	subi	r26, 0x16	; 22
    3140:	ba 4f       	sbci	r27, 0xFA	; 250
    3142:	2c 91       	ld	r18, X
    3144:	30 e0       	ldi	r19, 0x00	; 0
    3146:	31 83       	std	Z+1, r19	; 0x01
    3148:	20 83       	st	Z, r18
        {
            charset[i] = (myrand() % ('9' + 1 - '1')) + '1';
        }

    }
    for (size_t i = 0; i < nr_elements; i++)
    314a:	01 96       	adiw	r24, 0x01	; 1
    314c:	80 17       	cp	r24, r16
    314e:	91 07       	cpc	r25, r17
    3150:	70 f3       	brcs	.-36     	; 0x312e <lufa_hook_usb_serialnumber_randomize+0x54>
    {
        serial_str[i] = charset[i % sizeof(charset)];
    }
}
    3152:	df 91       	pop	r29
    3154:	cf 91       	pop	r28
    3156:	1f 91       	pop	r17
    3158:	0f 91       	pop	r16
    315a:	ff 90       	pop	r15
    315c:	ef 90       	pop	r14
    315e:	08 95       	ret

00003160 <__vector_32>:
}

#ifdef USE_TIMER3_FATFS
// TIMER3
ISR(TIMER3_COMPA_vect)
{
    3160:	1f 92       	push	r1
    3162:	0f 92       	push	r0
    3164:	0f b6       	in	r0, 0x3f	; 63
    3166:	0f 92       	push	r0
    3168:	11 24       	eor	r1, r1
    316a:	0b b6       	in	r0, 0x3b	; 59
    316c:	0f 92       	push	r0
    316e:	2f 93       	push	r18
    3170:	3f 93       	push	r19
    3172:	4f 93       	push	r20
    3174:	5f 93       	push	r21
    3176:	6f 93       	push	r22
    3178:	7f 93       	push	r23
    317a:	8f 93       	push	r24
    317c:	9f 93       	push	r25
    317e:	af 93       	push	r26
    3180:	bf 93       	push	r27
    3182:	ef 93       	push	r30
    3184:	ff 93       	push	r31
    Timer++;            /* Performance counter for this module */
    3186:	80 91 0e 0a 	lds	r24, 0x0A0E	; 0x800a0e <Timer>
    318a:	90 91 0f 0a 	lds	r25, 0x0A0F	; 0x800a0f <Timer+0x1>
    318e:	01 96       	adiw	r24, 0x01	; 1
    3190:	90 93 0f 0a 	sts	0x0A0F, r25	; 0x800a0f <Timer+0x1>
    3194:	80 93 0e 0a 	sts	0x0A0E, r24	; 0x800a0e <Timer>
    disk_timerproc();   /* Drive timer procedure of low level disk I/O module */
    3198:	0e 94 2d 03 	call	0x65a	; 0x65a <disk_timerproc>
}
    319c:	ff 91       	pop	r31
    319e:	ef 91       	pop	r30
    31a0:	bf 91       	pop	r27
    31a2:	af 91       	pop	r26
    31a4:	9f 91       	pop	r25
    31a6:	8f 91       	pop	r24
    31a8:	7f 91       	pop	r23
    31aa:	6f 91       	pop	r22
    31ac:	5f 91       	pop	r21
    31ae:	4f 91       	pop	r20
    31b0:	3f 91       	pop	r19
    31b2:	2f 91       	pop	r18
    31b4:	0f 90       	pop	r0
    31b6:	0b be       	out	0x3b, r0	; 59
    31b8:	0f 90       	pop	r0
    31ba:	0f be       	out	0x3f, r0	; 63
    31bc:	0f 90       	pop	r0
    31be:	1f 90       	pop	r1
    31c0:	18 95       	reti

000031c2 <SetupHardware>:

/** Configures the board hardware and chip peripherals for the demo's functionality. */
void SetupHardware(void)
{
    /* Disable watchdog if enabled by bootloader/fuses */
    MCUSR &= ~(1 << WDRF);
    31c2:	84 b7       	in	r24, 0x34	; 52
    31c4:	87 7f       	andi	r24, 0xF7	; 247
    31c6:	84 bf       	out	0x34, r24	; 52
		);
	}
	else
	{
        uint8_t register temp_reg;
		__asm__ __volatile__ (
    31c8:	0f b6       	in	r0, 0x3f	; 63
    31ca:	f8 94       	cli
    31cc:	a8 95       	wdr
    31ce:	80 91 60 00 	lds	r24, 0x0060	; 0x800060 <__TEXT_REGION_LENGTH__+0x7e0060>
    31d2:	88 61       	ori	r24, 0x18	; 24
    31d4:	80 93 60 00 	sts	0x0060, r24	; 0x800060 <__TEXT_REGION_LENGTH__+0x7e0060>
    31d8:	10 92 60 00 	sts	0x0060, r1	; 0x800060 <__TEXT_REGION_LENGTH__+0x7e0060>
    31dc:	0f be       	out	0x3f, r0	; 63
from 1 to 129. Thus, one does not need to use \c clock_div_t type as argument.
*/
void clock_prescale_set(clock_div_t __x)
{
    uint8_t __tmp = _BV(CLKPCE);
    __asm__ __volatile__ (
    31de:	90 e0       	ldi	r25, 0x00	; 0
    31e0:	80 e8       	ldi	r24, 0x80	; 128
    31e2:	0f b6       	in	r0, 0x3f	; 63
    31e4:	f8 94       	cli
    31e6:	80 93 61 00 	sts	0x0061, r24	; 0x800061 <__TEXT_REGION_LENGTH__+0x7e0061>
    31ea:	90 93 61 00 	sts	0x0061, r25	; 0x800061 <__TEXT_REGION_LENGTH__+0x7e0061>
    31ee:	0f be       	out	0x3f, r0	; 63

    /* Disable clock division */
    clock_prescale_set(clock_div_1);

    /* Hardware Initialization */
    ioinit();
    31f0:	2d df       	rcall	.-422    	; 0x304c <ioinit>
			static inline void Serial_Init(const uint32_t BaudRate,
			                               const bool DoubleSpeed);
			static inline void Serial_Init(const uint32_t BaudRate,
			                               const bool DoubleSpeed)
			{
				UBRR1  = (DoubleSpeed ? SERIAL_2X_UBBRVAL(BaudRate) : SERIAL_UBBRVAL(BaudRate));
    31f2:	87 e6       	ldi	r24, 0x67	; 103
    31f4:	90 e0       	ldi	r25, 0x00	; 0
    31f6:	90 93 cd 00 	sts	0x00CD, r25	; 0x8000cd <__TEXT_REGION_LENGTH__+0x7e00cd>
    31fa:	80 93 cc 00 	sts	0x00CC, r24	; 0x8000cc <__TEXT_REGION_LENGTH__+0x7e00cc>

				UCSR1C = ((1 << UCSZ11) | (1 << UCSZ10));
    31fe:	86 e0       	ldi	r24, 0x06	; 6
    3200:	80 93 ca 00 	sts	0x00CA, r24	; 0x8000ca <__TEXT_REGION_LENGTH__+0x7e00ca>
				UCSR1A = (DoubleSpeed ? (1 << U2X1) : 0);
    3204:	10 92 c8 00 	sts	0x00C8, r1	; 0x8000c8 <__TEXT_REGION_LENGTH__+0x7e00c8>
				UCSR1B = ((1 << TXEN1)  | (1 << RXEN1));
    3208:	88 e1       	ldi	r24, 0x18	; 24
    320a:	80 93 c9 00 	sts	0x00C9, r24	; 0x8000c9 <__TEXT_REGION_LENGTH__+0x7e00c9>

				DDRD  |= (1 << 3);
    320e:	8a b1       	in	r24, 0x0a	; 10
    3210:	88 60       	ori	r24, 0x08	; 8
    3212:	8a b9       	out	0x0a, r24	; 10
				PORTD |= (1 << 2);
    3214:	8b b1       	in	r24, 0x0b	; 11
    3216:	84 60       	ori	r24, 0x04	; 4
    3218:	8b b9       	out	0x0b, r24	; 11

    Serial_Init(9600, false);
    Serial_SendString("\r\n\r\nSetup mass storage sd and keyboard by David Reguera Garcia aka Dreg - MIT License\r\ndreg@fr33project.org\r\nhttps://github.com/therealdreg\r\n");
    321a:	8b e7       	ldi	r24, 0x7B	; 123
    321c:	93 e0       	ldi	r25, 0x03	; 3
    321e:	0e 94 e3 26 	call	0x4dc6	; 0x4dc6 <Serial_SendString>
    Serial_CreateStream(NULL);
    3222:	80 e0       	ldi	r24, 0x00	; 0
    3224:	90 e0       	ldi	r25, 0x00	; 0
    3226:	0e 94 f0 26 	call	0x4de0	; 0x4de0 <Serial_CreateStream>
    printf("https://www.rootkit.es\r\n");
    322a:	89 e0       	ldi	r24, 0x09	; 9
    322c:	94 e0       	ldi	r25, 0x04	; 4
    322e:	0e 94 52 31 	call	0x62a4	; 0x62a4 <puts>
    printf_P(PSTR("https://www.fr33project.org\r\npowered by LUFA http://elm-chan.org/fsw/ff/00index_e.html and FatFs http://elm-chan.org/fsw/ff/00index_e.html\r\n\r\n"));
    3232:	87 eb       	ldi	r24, 0xB7	; 183
    3234:	90 e0       	ldi	r25, 0x00	; 0
    3236:	9f 93       	push	r25
    3238:	8f 93       	push	r24
    323a:	0e 94 2b 31 	call	0x6256	; 0x6256 <printf_P>

    on_sd();
    323e:	0e 94 01 01 	call	0x202	; 0x202 <on_sd>

    sdcard_Init();
    3242:	0e 94 35 25 	call	0x4a6a	; 0x4a6a <sdcard_Init>

		/* Inline Functions: */
		#if !defined(__DOXYGEN__)
			static inline void LEDs_Init(void)
			{
				DDRD  |=  LEDS_ALL_LEDS;
    3246:	8a b1       	in	r24, 0x0a	; 10
    3248:	80 6c       	ori	r24, 0xC0	; 192
    324a:	8a b9       	out	0x0a, r24	; 10
				PORTD &= ~LEDS_ALL_LEDS;
    324c:	8b b1       	in	r24, 0x0b	; 11
    324e:	8f 73       	andi	r24, 0x3F	; 63
    3250:	8b b9       	out	0x0b, r24	; 11

		/* Inline Functions: */
		#if !defined(__DOXYGEN__)
			static inline void Buttons_Init(void)
			{
				DDRD  &= ~BUTTONS_BUTTON1;
    3252:	8a b1       	in	r24, 0x0a	; 10
    3254:	8f 7d       	andi	r24, 0xDF	; 223
    3256:	8a b9       	out	0x0a, r24	; 10
				PORTD |=  BUTTONS_BUTTON1;
    3258:	8b b1       	in	r24, 0x0b	; 11
    325a:	80 62       	ori	r24, 0x20	; 32
    325c:	8b b9       	out	0x0b, r24	; 11
                
                DDRE  &= ~BUTTONS_BUTTON2;
    325e:	8d b1       	in	r24, 0x0d	; 13
    3260:	8b 7f       	andi	r24, 0xFB	; 251
    3262:	8d b9       	out	0x0d, r24	; 13
                PORTE |=  BUTTONS_BUTTON2;
    3264:	8e b1       	in	r24, 0x0e	; 14
    3266:	84 60       	ori	r24, 0x04	; 4
    3268:	8e b9       	out	0x0e, r24	; 14

    LEDs_Init();

    Buttons_Init();

    USB_Init();
    326a:	0e 94 a8 2d 	call	0x5b50	; 0x5b50 <USB_Init>
}
    326e:	0f 90       	pop	r0
    3270:	0f 90       	pop	r0
    3272:	08 95       	ret

00003274 <main>:
/** Main program entry point. This routine contains the overall program flow, including initial
 *  setup of all components and the main program loop.
 */
int main(void)
{
    SetupHardware();
    3274:	a6 df       	rcall	.-180    	; 0x31c2 <SetupHardware>
				PORTD &= ~LEDMask;
			}

			static inline void LEDs_SetAllLEDs(const uint8_t LEDMask)
			{
				PORTD = ((PORTD & ~LEDS_ALL_LEDS) | LEDMask);
    3276:	8b b1       	in	r24, 0x0b	; 11
    3278:	8f 73       	andi	r24, 0x3F	; 63
    327a:	80 64       	ori	r24, 0x40	; 64
    327c:	8b b9       	out	0x0b, r24	; 11
			static inline void GlobalInterruptEnable(void)
			{
				GCC_MEMORY_BARRIER();

				#if (ARCH == ARCH_AVR8)
				sei();
    327e:	78 94       	sei

    GlobalInterruptEnable();

    for (;;)
    {
        MS_Device_USBTask(&Disk_MS_Interface);
    3280:	8f e3       	ldi	r24, 0x3F	; 63
    3282:	91 e0       	ldi	r25, 0x01	; 1
    3284:	0e 94 41 2a 	call	0x5482	; 0x5482 <MS_Device_USBTask>
        HID_Device_USBTask(&Keyboard_HID_Interface);
    3288:	8f e2       	ldi	r24, 0x2F	; 47
    328a:	91 e0       	ldi	r25, 0x01	; 1
    328c:	0e 94 77 28 	call	0x50ee	; 0x50ee <HID_Device_USBTask>
        USB_USBTask();
    3290:	0e 94 ab 30 	call	0x6156	; 0x6156 <USB_USBTask>
    3294:	f5 cf       	rjmp	.-22     	; 0x3280 <main+0xc>

00003296 <EVENT_USB_Device_Connect>:
}

/** Event handler for the library USB Connection event. */
void EVENT_USB_Device_Connect(void)
{
    printf_P(PSTR("Connect\r\n"));
    3296:	8d ea       	ldi	r24, 0xAD	; 173
    3298:	90 e0       	ldi	r25, 0x00	; 0
    329a:	9f 93       	push	r25
    329c:	8f 93       	push	r24
    329e:	0e 94 2b 31 	call	0x6256	; 0x6256 <printf_P>
    32a2:	8b b1       	in	r24, 0x0b	; 11
    32a4:	8f 73       	andi	r24, 0x3F	; 63
    32a6:	80 68       	ori	r24, 0x80	; 128
    32a8:	8b b9       	out	0x0b, r24	; 11

    LEDs_SetAllLEDs(LEDMASK_USB_ENUMERATING);
}
    32aa:	0f 90       	pop	r0
    32ac:	0f 90       	pop	r0
    32ae:	08 95       	ret

000032b0 <EVENT_USB_Device_Disconnect>:

/** Event handler for the library USB Disconnection event. */
void EVENT_USB_Device_Disconnect(void)
{
    printf_P(PSTR("Disconnect\r\n"));
    32b0:	80 ea       	ldi	r24, 0xA0	; 160
    32b2:	90 e0       	ldi	r25, 0x00	; 0
    32b4:	9f 93       	push	r25
    32b6:	8f 93       	push	r24
    32b8:	0e 94 2b 31 	call	0x6256	; 0x6256 <printf_P>
    32bc:	8b b1       	in	r24, 0x0b	; 11
    32be:	8f 73       	andi	r24, 0x3F	; 63
    32c0:	80 64       	ori	r24, 0x40	; 64
    32c2:	8b b9       	out	0x0b, r24	; 11
    LEDs_SetAllLEDs(LEDMASK_USB_NOTREADY);
}
    32c4:	0f 90       	pop	r0
    32c6:	0f 90       	pop	r0
    32c8:	08 95       	ret

000032ca <EVENT_USB_Device_ConfigurationChanged>:

/** Event handler for the library USB Configuration Changed event. */
void EVENT_USB_Device_ConfigurationChanged(void)
{
    32ca:	cf 93       	push	r28
    bool ConfigSuccess = true;

    printf_P(PSTR("Ready\r\n"));
    32cc:	88 e9       	ldi	r24, 0x98	; 152
    32ce:	90 e0       	ldi	r25, 0x00	; 0
    32d0:	9f 93       	push	r25
    32d2:	8f 93       	push	r24
    32d4:	0e 94 2b 31 	call	0x6256	; 0x6256 <printf_P>

    ConfigSuccess &= HID_Device_ConfigureEndpoints(&Keyboard_HID_Interface);
    32d8:	8f e2       	ldi	r24, 0x2F	; 47
    32da:	91 e0       	ldi	r25, 0x01	; 1
    32dc:	0e 94 63 28 	call	0x50c6	; 0x50c6 <HID_Device_ConfigureEndpoints>
    32e0:	c8 2f       	mov	r28, r24
    ConfigSuccess &= MS_Device_ConfigureEndpoints(&Disk_MS_Interface);
    32e2:	8f e3       	ldi	r24, 0x3F	; 63
    32e4:	91 e0       	ldi	r25, 0x01	; 1
    32e6:	0e 94 27 2a 	call	0x544e	; 0x544e <MS_Device_ConfigureEndpoints>
						break;
					case USB_INT_EORSTI:
						UDIEN  |= (1 << EORSTE);
						break;
					case USB_INT_SOFI:
						UDIEN  |= (1 << SOFE);
    32ea:	e2 ee       	ldi	r30, 0xE2	; 226
    32ec:	f0 e0       	ldi	r31, 0x00	; 0
    32ee:	90 81       	ld	r25, Z
    32f0:	94 60       	ori	r25, 0x04	; 4
    32f2:	90 83       	st	Z, r25

    USB_Device_EnableSOFEvents();

    LEDs_SetAllLEDs(ConfigSuccess ? LEDMASK_USB_READY : LEDMASK_USB_ERROR);
    32f4:	0f 90       	pop	r0
    32f6:	0f 90       	pop	r0
    32f8:	cc 23       	and	r28, r28
    32fa:	21 f0       	breq	.+8      	; 0x3304 <EVENT_USB_Device_ConfigurationChanged+0x3a>
    32fc:	88 23       	and	r24, r24
    32fe:	11 f0       	breq	.+4      	; 0x3304 <EVENT_USB_Device_ConfigurationChanged+0x3a>
    3300:	90 ec       	ldi	r25, 0xC0	; 192
    3302:	01 c0       	rjmp	.+2      	; 0x3306 <EVENT_USB_Device_ConfigurationChanged+0x3c>
    3304:	90 e4       	ldi	r25, 0x40	; 64
    3306:	8b b1       	in	r24, 0x0b	; 11
    3308:	8f 73       	andi	r24, 0x3F	; 63
    330a:	89 2b       	or	r24, r25
    330c:	8b b9       	out	0x0b, r24	; 11
}
    330e:	cf 91       	pop	r28
    3310:	08 95       	ret

00003312 <EVENT_USB_Device_ControlRequest>:

/** Event handler for the library USB Control Request reception event. */
void EVENT_USB_Device_ControlRequest(void)
{
    MS_Device_ProcessControlRequest(&Disk_MS_Interface);
    3312:	8f e3       	ldi	r24, 0x3F	; 63
    3314:	91 e0       	ldi	r25, 0x01	; 1
    3316:	0e 94 e9 29 	call	0x53d2	; 0x53d2 <MS_Device_ProcessControlRequest>
    HID_Device_ProcessControlRequest(&Keyboard_HID_Interface);
    331a:	8f e2       	ldi	r24, 0x2F	; 47
    331c:	91 e0       	ldi	r25, 0x01	; 1
    331e:	0c 94 0c 27 	jmp	0x4e18	; 0x4e18 <HID_Device_ProcessControlRequest>
    3322:	08 95       	ret

00003324 <CALLBACK_MS_Device_SCSICommandReceived>:
 *
 *  \param[in] MSInterfaceInfo  Pointer to the Mass Storage class interface configuration structure being referenced
 */
bool CALLBACK_MS_Device_SCSICommandReceived(USB_ClassInfo_MS_Device_t* const
        MSInterfaceInfo)
{
    3324:	cf 93       	push	r28
    3326:	df 93       	push	r29
    3328:	ec 01       	movw	r28, r24
    bool CommandSuccess;
    static bool show_os = false;

    if (!show_os)
    332a:	80 91 e9 05 	lds	r24, 0x05E9	; 0x8005e9 <show_os.5014>
    332e:	81 11       	cpse	r24, r1
    3330:	11 c0       	rjmp	.+34     	; 0x3354 <CALLBACK_MS_Device_SCSICommandReceived+0x30>
    {
        show_os = true;
    3332:	81 e0       	ldi	r24, 0x01	; 1
    3334:	80 93 e9 05 	sts	0x05E9, r24	; 0x8005e9 <show_os.5014>
        printf("\r\nguess_host_os: %s\r\n", guess_host_os_string());
    3338:	0e 94 e8 02 	call	0x5d0	; 0x5d0 <guess_host_os_string>
    333c:	9f 93       	push	r25
    333e:	8f 93       	push	r24
    3340:	81 e2       	ldi	r24, 0x21	; 33
    3342:	94 e0       	ldi	r25, 0x04	; 4
    3344:	9f 93       	push	r25
    3346:	8f 93       	push	r24
    3348:	0e 94 18 31 	call	0x6230	; 0x6230 <printf>
    334c:	0f 90       	pop	r0
    334e:	0f 90       	pop	r0
    3350:	0f 90       	pop	r0
    3352:	0f 90       	pop	r0
    }

    if (!last_led)
    3354:	80 91 04 06 	lds	r24, 0x0604	; 0x800604 <last_led>
    3358:	81 11       	cpse	r24, r1
    335a:	04 c0       	rjmp	.+8      	; 0x3364 <CALLBACK_MS_Device_SCSICommandReceived+0x40>
    335c:	8b b1       	in	r24, 0x0b	; 11
    335e:	8f 73       	andi	r24, 0x3F	; 63
    3360:	80 68       	ori	r24, 0x80	; 128
    3362:	8b b9       	out	0x0b, r24	; 11
    {
        LEDs_SetAllLEDs(LEDMASK_USB_BUSY);
    }

    CommandSuccess = SCSI_DecodeSCSICommand(MSInterfaceInfo);
    3364:	ce 01       	movw	r24, r28
    3366:	0e 94 ef 22 	call	0x45de	; 0x45de <SCSI_DecodeSCSICommand>

    if (!last_led)
    336a:	90 91 04 06 	lds	r25, 0x0604	; 0x800604 <last_led>
    336e:	91 11       	cpse	r25, r1
    3370:	03 c0       	rjmp	.+6      	; 0x3378 <CALLBACK_MS_Device_SCSICommandReceived+0x54>
    3372:	9b b1       	in	r25, 0x0b	; 11
    3374:	90 6c       	ori	r25, 0xC0	; 192
    3376:	9b b9       	out	0x0b, r25	; 11
    {
        LEDs_SetAllLEDs(LEDMASK_USB_READY);
    }

    return CommandSuccess;
}
    3378:	df 91       	pop	r29
    337a:	cf 91       	pop	r28
    337c:	08 95       	ret

0000337e <EVENT_USB_Device_StartOfFrame>:
			 *  \param[in,out] HIDInterfaceInfo  Pointer to a structure containing a HID Class configuration and state.
			 */
			static inline void HID_Device_MillisecondElapsed(USB_ClassInfo_HID_Device_t* const HIDInterfaceInfo) ATTR_ALWAYS_INLINE ATTR_NON_NULL_PTR_ARG(1);
			static inline void HID_Device_MillisecondElapsed(USB_ClassInfo_HID_Device_t* const HIDInterfaceInfo)
			{
				if (HIDInterfaceInfo->State.IdleMSRemaining)
    337e:	80 91 3d 01 	lds	r24, 0x013D	; 0x80013d <Keyboard_HID_Interface+0xe>
    3382:	90 91 3e 01 	lds	r25, 0x013E	; 0x80013e <Keyboard_HID_Interface+0xf>
    3386:	00 97       	sbiw	r24, 0x00	; 0
    3388:	29 f0       	breq	.+10     	; 0x3394 <EVENT_USB_Device_StartOfFrame+0x16>
				  HIDInterfaceInfo->State.IdleMSRemaining--;
    338a:	01 97       	sbiw	r24, 0x01	; 1
    338c:	90 93 3e 01 	sts	0x013E, r25	; 0x80013e <Keyboard_HID_Interface+0xf>
    3390:	80 93 3d 01 	sts	0x013D, r24	; 0x80013d <Keyboard_HID_Interface+0xe>
    3394:	08 95       	ret

00003396 <CALLBACK_HID_Device_CreateHIDReport>:
        HIDInterfaceInfo,
        uint8_t* const ReportID,
        const uint8_t ReportType,
        void* ReportData,
        uint16_t* const ReportSize)
{
    3396:	0f 93       	push	r16
    3398:	1f 93       	push	r17
    339a:	cf 93       	push	r28
    339c:	df 93       	push	r29
    339e:	e9 01       	movw	r28, r18
			}

			static inline uint8_t Buttons_GetStatus(void) ATTR_WARN_UNUSED_RESULT;
			static inline uint8_t Buttons_GetStatus(void)
			{
				return (((PIND & BUTTONS_BUTTON1) ^ BUTTONS_BUTTON1) | ((PINE & BUTTONS_BUTTON2) ^ BUTTONS_BUTTON2));
    33a0:	49 b1       	in	r20, 0x09	; 9
    33a2:	8c b1       	in	r24, 0x0c	; 12
    33a4:	40 95       	com	r20
    33a6:	40 72       	andi	r20, 0x20	; 32
    33a8:	80 95       	com	r24
    33aa:	84 70       	andi	r24, 0x04	; 4
    33ac:	48 2b       	or	r20, r24
    static uint16_t i = 0;
    uint8_t ButtonStatus_LCL = Buttons_GetStatus();



    i++;
    33ae:	e0 91 e7 05 	lds	r30, 0x05E7	; 0x8005e7 <i.5031>
    33b2:	f0 91 e8 05 	lds	r31, 0x05E8	; 0x8005e8 <i.5031+0x1>
    33b6:	31 96       	adiw	r30, 0x01	; 1
    33b8:	f0 93 e8 05 	sts	0x05E8, r31	; 0x8005e8 <i.5031+0x1>
    33bc:	e0 93 e7 05 	sts	0x05E7, r30	; 0x8005e7 <i.5031>
    if (i % 0x8F == 0)
    33c0:	9f 01       	movw	r18, r30
    33c2:	a3 e9       	ldi	r26, 0x93	; 147
    33c4:	b2 e7       	ldi	r27, 0x72	; 114
    33c6:	0e 94 cf 30 	call	0x619e	; 0x619e <__umulhisi3>
    33ca:	00 24       	eor	r0, r0
    33cc:	88 0f       	add	r24, r24
    33ce:	99 1f       	adc	r25, r25
    33d0:	00 1c       	adc	r0, r0
    33d2:	88 0f       	add	r24, r24
    33d4:	99 1f       	adc	r25, r25
    33d6:	00 1c       	adc	r0, r0
    33d8:	89 2f       	mov	r24, r25
    33da:	90 2d       	mov	r25, r0
    33dc:	5f e8       	ldi	r21, 0x8F	; 143
    33de:	58 9f       	mul	r21, r24
    33e0:	90 01       	movw	r18, r0
    33e2:	59 9f       	mul	r21, r25
    33e4:	30 0d       	add	r19, r0
    33e6:	11 24       	eor	r1, r1
    33e8:	e2 17       	cp	r30, r18
    33ea:	f3 07       	cpc	r31, r19
    33ec:	21 f4       	brne	.+8      	; 0x33f6 <CALLBACK_HID_Device_CreateHIDReport+0x60>
    {
        i = 0;
    33ee:	10 92 e8 05 	sts	0x05E8, r1	; 0x8005e8 <i.5031+0x1>
    33f2:	10 92 e7 05 	sts	0x05E7, r1	; 0x8005e7 <i.5031>
    }


    if (last_shift)
    33f6:	80 91 e6 05 	lds	r24, 0x05E6	; 0x8005e6 <last_shift.5026>
    33fa:	88 23       	and	r24, r24
    33fc:	19 f0       	breq	.+6      	; 0x3404 <CALLBACK_HID_Device_CreateHIDReport+0x6e>
    {
        KeyboardReport->Modifier = 0;
    33fe:	18 82       	st	Y, r1
        last_shift = false;
    3400:	10 92 e6 05 	sts	0x05E6, r1	; 0x8005e6 <last_shift.5026>
    3404:	84 2f       	mov	r24, r20
    3406:	80 72       	andi	r24, 0x20	; 32
    }

    if ((ButtonStatus_LCL & BUTTONS_BUTTON1)
    3408:	91 f1       	breq	.+100    	; 0x346e <CALLBACK_HID_Device_CreateHIDReport+0xd8>
            && (ButtonStatus_LCL & BUTTONS_BUTTON2))
    340a:	42 ff       	sbrs	r20, 2
    340c:	30 c0       	rjmp	.+96     	; 0x346e <CALLBACK_HID_Device_CreateHIDReport+0xd8>
    {
        KeyboardReport->Modifier = HID_KEYBOARD_MODIFIER_LEFTSHIFT;
    340e:	82 e0       	ldi	r24, 0x02	; 2
    3410:	88 83       	st	Y, r24
        KeyboardReport->KeyCode[0] = HID_KEYBOARD_SC_D;
    3412:	87 e0       	ldi	r24, 0x07	; 7
    3414:	8a 83       	std	Y+2, r24	; 0x02
        last_shift = true;
    3416:	91 e0       	ldi	r25, 0x01	; 1
    3418:	90 93 e6 05 	sts	0x05E6, r25	; 0x8005e6 <last_shift.5026>
    341c:	8b b1       	in	r24, 0x0b	; 11
    341e:	80 6c       	ori	r24, 0xC0	; 192
    3420:	8b b9       	out	0x0b, r24	; 11
        LEDs_SetAllLEDs(LEDS_LED1 | LEDS_LED2);
        last_led = true;
    3422:	90 93 04 06 	sts	0x0604, r25	; 0x800604 <last_led>

        switch (guess_host_os())
    3426:	0e 94 d4 02 	call	0x5a8	; 0x5a8 <guess_host_os>
    342a:	81 30       	cpi	r24, 0x01	; 1
    342c:	59 f0       	breq	.+22     	; 0x3444 <CALLBACK_HID_Device_CreateHIDReport+0xae>
    342e:	18 f0       	brcs	.+6      	; 0x3436 <CALLBACK_HID_Device_CreateHIDReport+0xa0>
    3430:	82 30       	cpi	r24, 0x02	; 2
    3432:	79 f0       	breq	.+30     	; 0x3452 <CALLBACK_HID_Device_CreateHIDReport+0xbc>
    3434:	15 c0       	rjmp	.+42     	; 0x3460 <CALLBACK_HID_Device_CreateHIDReport+0xca>
        {
            case GO_WINDOWS:
                str_to_print = OS_WIN;
    3436:	8c e1       	ldi	r24, 0x1C	; 28
    3438:	91 e0       	ldi	r25, 0x01	; 1
    343a:	90 93 e5 05 	sts	0x05E5, r25	; 0x8005e5 <str_to_print.5027+0x1>
    343e:	80 93 e4 05 	sts	0x05E4, r24	; 0x8005e4 <str_to_print.5027>
                break;
    3442:	4e c0       	rjmp	.+156    	; 0x34e0 <CALLBACK_HID_Device_CreateHIDReport+0x14a>

            case GO_LINUX:
                str_to_print = OS_LIN;
    3444:	8d e0       	ldi	r24, 0x0D	; 13
    3446:	91 e0       	ldi	r25, 0x01	; 1
    3448:	90 93 e5 05 	sts	0x05E5, r25	; 0x8005e5 <str_to_print.5027+0x1>
    344c:	80 93 e4 05 	sts	0x05E4, r24	; 0x8005e4 <str_to_print.5027>
                break;
    3450:	47 c0       	rjmp	.+142    	; 0x34e0 <CALLBACK_HID_Device_CreateHIDReport+0x14a>

            case GO_MAC:
                str_to_print = OS_MAC;
    3452:	80 e0       	ldi	r24, 0x00	; 0
    3454:	91 e0       	ldi	r25, 0x01	; 1
    3456:	90 93 e5 05 	sts	0x05E5, r25	; 0x8005e5 <str_to_print.5027+0x1>
    345a:	80 93 e4 05 	sts	0x05E4, r24	; 0x8005e4 <str_to_print.5027>
                break;
    345e:	40 c0       	rjmp	.+128    	; 0x34e0 <CALLBACK_HID_Device_CreateHIDReport+0x14a>

            default:
                str_to_print = OS_WIN;
    3460:	8c e1       	ldi	r24, 0x1C	; 28
    3462:	91 e0       	ldi	r25, 0x01	; 1
    3464:	90 93 e5 05 	sts	0x05E5, r25	; 0x8005e5 <str_to_print.5027+0x1>
    3468:	80 93 e4 05 	sts	0x05E4, r24	; 0x8005e4 <str_to_print.5027>
                break;
    346c:	39 c0       	rjmp	.+114    	; 0x34e0 <CALLBACK_HID_Device_CreateHIDReport+0x14a>
        }
    }
    else if (ButtonStatus_LCL & BUTTONS_BUTTON2)
    346e:	42 ff       	sbrs	r20, 2
    3470:	0a c0       	rjmp	.+20     	; 0x3486 <CALLBACK_HID_Device_CreateHIDReport+0xf0>
    {
        KeyboardReport->KeyCode[0] = HID_KEYBOARD_SC_R;
    3472:	85 e1       	ldi	r24, 0x15	; 21
    3474:	8a 83       	std	Y+2, r24	; 0x02
    3476:	8b b1       	in	r24, 0x0b	; 11
    3478:	8f 73       	andi	r24, 0x3F	; 63
    347a:	80 64       	ori	r24, 0x40	; 64
    347c:	8b b9       	out	0x0b, r24	; 11
        LEDs_SetAllLEDs(LEDS_LED1);
        last_led = true;
    347e:	81 e0       	ldi	r24, 0x01	; 1
    3480:	80 93 04 06 	sts	0x0604, r24	; 0x800604 <last_led>
    3484:	2d c0       	rjmp	.+90     	; 0x34e0 <CALLBACK_HID_Device_CreateHIDReport+0x14a>
    }
    else if (ButtonStatus_LCL & BUTTONS_BUTTON1)
    3486:	88 23       	and	r24, r24
    3488:	51 f0       	breq	.+20     	; 0x349e <CALLBACK_HID_Device_CreateHIDReport+0x108>
    {
        KeyboardReport->KeyCode[0] = HID_KEYBOARD_SC_G;
    348a:	8a e0       	ldi	r24, 0x0A	; 10
    348c:	8a 83       	std	Y+2, r24	; 0x02
    348e:	8b b1       	in	r24, 0x0b	; 11
    3490:	8f 73       	andi	r24, 0x3F	; 63
    3492:	80 68       	ori	r24, 0x80	; 128
    3494:	8b b9       	out	0x0b, r24	; 11
        LEDs_SetAllLEDs(LEDS_LED2);
        last_led = true;
    3496:	81 e0       	ldi	r24, 0x01	; 1
    3498:	80 93 04 06 	sts	0x0604, r24	; 0x800604 <last_led>
    349c:	21 c0       	rjmp	.+66     	; 0x34e0 <CALLBACK_HID_Device_CreateHIDReport+0x14a>
    }
    else
    {
        if (last_led)
    349e:	80 91 04 06 	lds	r24, 0x0604	; 0x800604 <last_led>
    34a2:	88 23       	and	r24, r24
    34a4:	29 f0       	breq	.+10     	; 0x34b0 <CALLBACK_HID_Device_CreateHIDReport+0x11a>
        {
            last_led = false;
    34a6:	10 92 04 06 	sts	0x0604, r1	; 0x800604 <last_led>
    34aa:	8b b1       	in	r24, 0x0b	; 11
    34ac:	8f 73       	andi	r24, 0x3F	; 63
    34ae:	8b b9       	out	0x0b, r24	; 11
            LEDs_SetAllLEDs(LEDS_NO_LEDS);
        }
        if (*str_to_print == '\0')
    34b0:	e0 91 e4 05 	lds	r30, 0x05E4	; 0x8005e4 <str_to_print.5027>
    34b4:	f0 91 e5 05 	lds	r31, 0x05E5	; 0x8005e5 <str_to_print.5027+0x1>
    34b8:	80 81       	ld	r24, Z
    34ba:	81 11       	cpse	r24, r1
    34bc:	05 c0       	rjmp	.+10     	; 0x34c8 <CALLBACK_HID_Device_CreateHIDReport+0x132>
        {
            str_to_print = NULL;
    34be:	10 92 e5 05 	sts	0x05E5, r1	; 0x8005e5 <str_to_print.5027+0x1>
    34c2:	10 92 e4 05 	sts	0x05E4, r1	; 0x8005e4 <str_to_print.5027>
    34c6:	0c c0       	rjmp	.+24     	; 0x34e0 <CALLBACK_HID_Device_CreateHIDReport+0x14a>
        }
        else
        {
            if (i == 0)
    34c8:	20 91 e7 05 	lds	r18, 0x05E7	; 0x8005e7 <i.5031>
    34cc:	30 91 e8 05 	lds	r19, 0x05E8	; 0x8005e8 <i.5031+0x1>
    34d0:	23 2b       	or	r18, r19
    34d2:	31 f4       	brne	.+12     	; 0x34e0 <CALLBACK_HID_Device_CreateHIDReport+0x14a>
            {
                KeyboardReport->KeyCode[0] = *str_to_print;
    34d4:	8a 83       	std	Y+2, r24	; 0x02
                str_to_print++;
    34d6:	31 96       	adiw	r30, 0x01	; 1
    34d8:	f0 93 e5 05 	sts	0x05E5, r31	; 0x8005e5 <str_to_print.5027+0x1>
    34dc:	e0 93 e4 05 	sts	0x05E4, r30	; 0x8005e4 <str_to_print.5027>
            }
        }
    }

    *ReportSize = sizeof(USB_KeyboardReport_Data_t);
    34e0:	88 e0       	ldi	r24, 0x08	; 8
    34e2:	90 e0       	ldi	r25, 0x00	; 0
    34e4:	f8 01       	movw	r30, r16
    34e6:	91 83       	std	Z+1, r25	; 0x01
    34e8:	80 83       	st	Z, r24
    return false;
}
    34ea:	80 e0       	ldi	r24, 0x00	; 0
    34ec:	df 91       	pop	r29
    34ee:	cf 91       	pop	r28
    34f0:	1f 91       	pop	r17
    34f2:	0f 91       	pop	r16
    34f4:	08 95       	ret

000034f6 <CALLBACK_HID_Device_ProcessHIDReport>:
        const uint16_t ReportSize)
{
    uint8_t  LEDMask   = LEDS_NO_LEDS;
    uint8_t* LEDReport = (uint8_t*)ReportData;

    if (last_led)
    34f6:	80 91 04 06 	lds	r24, 0x0604	; 0x800604 <last_led>
    34fa:	81 11       	cpse	r24, r1
    34fc:	0c c0       	rjmp	.+24     	; 0x3516 <CALLBACK_HID_Device_ProcessHIDReport+0x20>
    {
        return;
    }

    if (*LEDReport & HID_KEYBOARD_LED_NUMLOCK)
    34fe:	f9 01       	movw	r30, r18
    3500:	90 81       	ld	r25, Z
    3502:	90 fd       	sbrc	r25, 0
    {
        LEDMask |= LEDS_LED1;
    3504:	80 e4       	ldi	r24, 0x40	; 64
    }

    if (*LEDReport & HID_KEYBOARD_LED_CAPSLOCK)
    3506:	91 fd       	sbrc	r25, 1
    {
        LEDMask |= LEDS_LED2;
    3508:	80 68       	ori	r24, 0x80	; 128
    }

    if (*LEDReport & HID_KEYBOARD_LED_SCROLLLOCK)
    350a:	92 fd       	sbrc	r25, 2
    {
        LEDMask |= LEDS_LED1 | LEDS_LED2;
    350c:	80 6c       	ori	r24, 0xC0	; 192
    350e:	9b b1       	in	r25, 0x0b	; 11
    3510:	9f 73       	andi	r25, 0x3F	; 63
    3512:	89 2b       	or	r24, r25
    3514:	8b b9       	out	0x0b, r24	; 11
    3516:	08 95       	ret

00003518 <power_on>:
    //To be filled


    /* Configure MOSI/MISO/SCLK/CS pins */
    //CHECK THIS
    PORT_SPI = (1 << DD_MOSI) | (1 << DD_SCK) | (1 << DD_CS);
    3518:	87 e0       	ldi	r24, 0x07	; 7
    351a:	85 b9       	out	0x05, r24	; 5
    // modified for Dreg for SD power
    DDR_SPI |= (1 << DD_MOSI) | (1 << DD_SCK) | (1 << DD_CS);
    351c:	84 b1       	in	r24, 0x04	; 4
    351e:	87 60       	ori	r24, 0x07	; 7
    3520:	84 b9       	out	0x04, r24	; 4

    /* Enable SPI module in SPI mode 0 */
    SPCR = (1 << SPE) | (1 << MSTR) | (1 << SPR1) | (1 << SPR0);
    3522:	83 e5       	ldi	r24, 0x53	; 83
    3524:	8c bd       	out	0x2c, r24	; 44
    3526:	08 95       	ret

00003528 <power_off>:

static
void power_off (void)
{
    /* Disable SPI function */
    SPCR = 0;
    3528:	1c bc       	out	0x2c, r1	; 44


    /* De-configure MOSI/MISO/SCLK/CS pins (set hi-z) */
    // Set SCK/MOSI/CS as hi-z, INS#/WP as pull-up
    // CHECK THIS
    DDR_SPI &= ~(1 << DD_MOSI) | (1 << DD_SCK) | (1 << DD_CS);
    352a:	84 b1       	in	r24, 0x04	; 4
    352c:	8b 7f       	andi	r24, 0xFB	; 251
    352e:	84 b9       	out	0x04, r24	; 4
    PORT_SPI &= ~(1 << DD_MOSI) | (1 << DD_SCK) | (1 << DD_CS);
    3530:	85 b1       	in	r24, 0x05	; 5
    3532:	8b 7f       	andi	r24, 0xFB	; 251
    3534:	85 b9       	out	0x05, r24	; 5
    3536:	08 95       	ret

00003538 <xchg_spi>:
static
BYTE xchg_spi (     /* Returns received data */
    BYTE dat        /* Data to be sent */
)
{
    SPDR = dat;
    3538:	8e bd       	out	0x2e, r24	; 46
    loop_until_bit_is_set(SPSR, SPIF);
    353a:	0d b4       	in	r0, 0x2d	; 45
    353c:	07 fe       	sbrs	r0, 7
    353e:	fd cf       	rjmp	.-6      	; 0x353a <xchg_spi+0x2>
    return SPDR;
    3540:	8e b5       	in	r24, 0x2e	; 46
}
    3542:	08 95       	ret

00003544 <rcvr_spi_multi>:
static
void rcvr_spi_multi (
    BYTE* p,    /* Data read buffer */
    UINT cnt    /* Size of data block */
)
{
    3544:	fc 01       	movw	r30, r24
    3546:	01 c0       	rjmp	.+2      	; 0x354a <rcvr_spi_multi+0x6>
        SPDR = 0xFF;
        loop_until_bit_is_set(SPSR, SPIF);
        *p++ = SPDR;
        SPDR = 0xFF;
        loop_until_bit_is_set(SPSR, SPIF);
        *p++ = SPDR;
    3548:	f9 01       	movw	r30, r18
    UINT cnt    /* Size of data block */
)
{
    do
    {
        SPDR = 0xFF;
    354a:	8f ef       	ldi	r24, 0xFF	; 255
    354c:	8e bd       	out	0x2e, r24	; 46
        loop_until_bit_is_set(SPSR, SPIF);
    354e:	0d b4       	in	r0, 0x2d	; 45
    3550:	07 fe       	sbrs	r0, 7
    3552:	fd cf       	rjmp	.-6      	; 0x354e <rcvr_spi_multi+0xa>
        *p++ = SPDR;
    3554:	8e b5       	in	r24, 0x2e	; 46
    3556:	80 83       	st	Z, r24
        SPDR = 0xFF;
    3558:	8f ef       	ldi	r24, 0xFF	; 255
    355a:	8e bd       	out	0x2e, r24	; 46
        loop_until_bit_is_set(SPSR, SPIF);
    355c:	0d b4       	in	r0, 0x2d	; 45
    355e:	07 fe       	sbrs	r0, 7
    3560:	fd cf       	rjmp	.-6      	; 0x355c <rcvr_spi_multi+0x18>
        *p++ = SPDR;
    3562:	9f 01       	movw	r18, r30
    3564:	2e 5f       	subi	r18, 0xFE	; 254
    3566:	3f 4f       	sbci	r19, 0xFF	; 255
    3568:	8e b5       	in	r24, 0x2e	; 46
    356a:	81 83       	std	Z+1, r24	; 0x01
    } while (cnt -= 2);
    356c:	62 50       	subi	r22, 0x02	; 2
    356e:	71 09       	sbc	r23, r1
    3570:	59 f7       	brne	.-42     	; 0x3548 <rcvr_spi_multi+0x4>
}
    3572:	08 95       	ret

00003574 <xmit_spi_multi>:
static
void xmit_spi_multi (
    const BYTE* p,  /* Data block to be sent */
    UINT cnt        /* Size of data block */
)
{
    3574:	fc 01       	movw	r30, r24
    3576:	01 c0       	rjmp	.+2      	; 0x357a <xmit_spi_multi+0x6>
    do
    {
        SPDR = *p++;
        loop_until_bit_is_set(SPSR, SPIF);
        SPDR = *p++;
    3578:	f9 01       	movw	r30, r18
    UINT cnt        /* Size of data block */
)
{
    do
    {
        SPDR = *p++;
    357a:	80 81       	ld	r24, Z
    357c:	8e bd       	out	0x2e, r24	; 46
        loop_until_bit_is_set(SPSR, SPIF);
    357e:	0d b4       	in	r0, 0x2d	; 45
    3580:	07 fe       	sbrs	r0, 7
    3582:	fd cf       	rjmp	.-6      	; 0x357e <xmit_spi_multi+0xa>
        SPDR = *p++;
    3584:	9f 01       	movw	r18, r30
    3586:	2e 5f       	subi	r18, 0xFE	; 254
    3588:	3f 4f       	sbci	r19, 0xFF	; 255
    358a:	81 81       	ldd	r24, Z+1	; 0x01
    358c:	8e bd       	out	0x2e, r24	; 46
        loop_until_bit_is_set(SPSR, SPIF);
    358e:	0d b4       	in	r0, 0x2d	; 45
    3590:	07 fe       	sbrs	r0, 7
    3592:	fd cf       	rjmp	.-6      	; 0x358e <xmit_spi_multi+0x1a>
    } while (cnt -= 2);
    3594:	62 50       	subi	r22, 0x02	; 2
    3596:	71 09       	sbc	r23, r1
    3598:	79 f7       	brne	.-34     	; 0x3578 <xmit_spi_multi+0x4>
}
    359a:	08 95       	ret

0000359c <wait_ready>:
)
{
    BYTE d;


    wt /= 10;
    359c:	9c 01       	movw	r18, r24
    359e:	ad ec       	ldi	r26, 0xCD	; 205
    35a0:	bc ec       	ldi	r27, 0xCC	; 204
    35a2:	0e 94 cf 30 	call	0x619e	; 0x619e <__umulhisi3>
    35a6:	96 95       	lsr	r25
    35a8:	87 95       	ror	r24
    35aa:	96 95       	lsr	r25
    35ac:	87 95       	ror	r24
    35ae:	96 95       	lsr	r25
    35b0:	87 95       	ror	r24
    cli();
    35b2:	f8 94       	cli
    Timer2 = wt;
    35b4:	90 93 07 06 	sts	0x0607, r25	; 0x800607 <Timer2+0x1>
    35b8:	80 93 06 06 	sts	0x0606, r24	; 0x800606 <Timer2>
    sei();
    35bc:	78 94       	sei
    do
    {
        d = xchg_spi(0xFF);
    35be:	8f ef       	ldi	r24, 0xFF	; 255
    35c0:	bb df       	rcall	.-138    	; 0x3538 <xchg_spi>
        cli();
    35c2:	f8 94       	cli
        wt = Timer2;
    35c4:	20 91 06 06 	lds	r18, 0x0606	; 0x800606 <Timer2>
    35c8:	30 91 07 06 	lds	r19, 0x0607	; 0x800607 <Timer2+0x1>
        sei();
    35cc:	78 94       	sei
    } while (d != 0xFF && wt);
    35ce:	8f 3f       	cpi	r24, 0xFF	; 255
    35d0:	11 f0       	breq	.+4      	; 0x35d6 <wait_ready+0x3a>
    35d2:	23 2b       	or	r18, r19
    35d4:	a1 f7       	brne	.-24     	; 0x35be <wait_ready+0x22>

    return (d == 0xFF) ? 1 : 0;
    35d6:	91 e0       	ldi	r25, 0x01	; 1
    35d8:	8f 3f       	cpi	r24, 0xFF	; 255
    35da:	09 f0       	breq	.+2      	; 0x35de <wait_ready+0x42>
    35dc:	90 e0       	ldi	r25, 0x00	; 0
}
    35de:	89 2f       	mov	r24, r25
    35e0:	90 e0       	ldi	r25, 0x00	; 0
    35e2:	08 95       	ret

000035e4 <deselect>:
/*-----------------------------------------------------------------------*/

static
void deselect (void)
{
    CS_HIGH();      /* Set CS# high */
    35e4:	85 b1       	in	r24, 0x05	; 5
    35e6:	81 60       	ori	r24, 0x01	; 1
    35e8:	85 b9       	out	0x05, r24	; 5
    xchg_spi(0xFF); /* Dummy clock (force DO hi-z for multiple slave SPI) */
    35ea:	8f ef       	ldi	r24, 0xFF	; 255
    35ec:	a5 cf       	rjmp	.-182    	; 0x3538 <xchg_spi>
    35ee:	08 95       	ret

000035f0 <select>:
/* Select the card and wait for ready                                    */
/*-----------------------------------------------------------------------*/

static
int select (void)   /* 1:Successful, 0:Timeout */
{
    35f0:	cf 93       	push	r28
    35f2:	df 93       	push	r29
    CS_LOW();       /* Set CS# low */
    35f4:	85 b1       	in	r24, 0x05	; 5
    35f6:	8e 7f       	andi	r24, 0xFE	; 254
    35f8:	85 b9       	out	0x05, r24	; 5
    xchg_spi(0xFF); /* Dummy clock (force DO enabled) */
    35fa:	8f ef       	ldi	r24, 0xFF	; 255
    35fc:	9d df       	rcall	.-198    	; 0x3538 <xchg_spi>

    if (wait_ready(500))
    35fe:	84 ef       	ldi	r24, 0xF4	; 244
    3600:	91 e0       	ldi	r25, 0x01	; 1
    3602:	cc df       	rcall	.-104    	; 0x359c <wait_ready>
    3604:	ec 01       	movw	r28, r24
    3606:	89 2b       	or	r24, r25
    {
        return 1;    /* Leading busy check: Wait for card ready */
    }

    deselect();     /* Timeout */
    3608:	11 f4       	brne	.+4      	; 0x360e <select+0x1e>
    360a:	ec df       	rcall	.-40     	; 0x35e4 <deselect>
    return 0;
    360c:	02 c0       	rjmp	.+4      	; 0x3612 <select+0x22>
    CS_LOW();       /* Set CS# low */
    xchg_spi(0xFF); /* Dummy clock (force DO enabled) */

    if (wait_ready(500))
    {
        return 1;    /* Leading busy check: Wait for card ready */
    360e:	c1 e0       	ldi	r28, 0x01	; 1
    3610:	d0 e0       	ldi	r29, 0x00	; 0
    }

    deselect();     /* Timeout */
    return 0;
}
    3612:	ce 01       	movw	r24, r28
    3614:	df 91       	pop	r29
    3616:	cf 91       	pop	r28
    3618:	08 95       	ret

0000361a <rcvr_datablock>:
static
int rcvr_datablock (
    BYTE* buff,         /* Data buffer to store received data */
    UINT btr            /* Byte count (must be multiple of 4) */
)
{
    361a:	0f 93       	push	r16
    361c:	1f 93       	push	r17
    361e:	cf 93       	push	r28
    3620:	df 93       	push	r29
    3622:	ec 01       	movw	r28, r24
    3624:	8b 01       	movw	r16, r22
    BYTE token;


    Timer1 = 20;
    3626:	84 e1       	ldi	r24, 0x14	; 20
    3628:	80 93 08 06 	sts	0x0608, r24	; 0x800608 <Timer1>
    do                              /* Wait for data packet in timeout of 200ms */
    {
        token = xchg_spi(0xFF);
    362c:	8f ef       	ldi	r24, 0xFF	; 255
    362e:	84 df       	rcall	.-248    	; 0x3538 <xchg_spi>
    } while ((token == 0xFF) && Timer1);
    3630:	8f 3f       	cpi	r24, 0xFF	; 255
    3632:	21 f4       	brne	.+8      	; 0x363c <rcvr_datablock+0x22>
    3634:	90 91 08 06 	lds	r25, 0x0608	; 0x800608 <Timer1>
    3638:	91 11       	cpse	r25, r1
    363a:	f8 cf       	rjmp	.-16     	; 0x362c <rcvr_datablock+0x12>
    if (token != 0xFE)
    363c:	8e 3f       	cpi	r24, 0xFE	; 254
    363e:	51 f4       	brne	.+20     	; 0x3654 <rcvr_datablock+0x3a>
    {
        return 0;    /* If not valid data token, retutn with error */
    }

    rcvr_spi_multi(buff, btr);      /* Receive the data block into buffer */
    3640:	b8 01       	movw	r22, r16
    3642:	ce 01       	movw	r24, r28
    3644:	7f df       	rcall	.-258    	; 0x3544 <rcvr_spi_multi>
    xchg_spi(0xFF);                 /* Discard CRC */
    3646:	8f ef       	ldi	r24, 0xFF	; 255
    3648:	77 df       	rcall	.-274    	; 0x3538 <xchg_spi>
    xchg_spi(0xFF);
    364a:	8f ef       	ldi	r24, 0xFF	; 255
    364c:	75 df       	rcall	.-278    	; 0x3538 <xchg_spi>
    364e:	81 e0       	ldi	r24, 0x01	; 1

    return 1;                       /* Return with success */
    3650:	90 e0       	ldi	r25, 0x00	; 0
    3652:	02 c0       	rjmp	.+4      	; 0x3658 <rcvr_datablock+0x3e>
    3654:	80 e0       	ldi	r24, 0x00	; 0
    {
        token = xchg_spi(0xFF);
    } while ((token == 0xFF) && Timer1);
    if (token != 0xFE)
    {
        return 0;    /* If not valid data token, retutn with error */
    3656:	90 e0       	ldi	r25, 0x00	; 0
    3658:	df 91       	pop	r29
    rcvr_spi_multi(buff, btr);      /* Receive the data block into buffer */
    xchg_spi(0xFF);                 /* Discard CRC */
    xchg_spi(0xFF);

    return 1;                       /* Return with success */
}
    365a:	cf 91       	pop	r28
    365c:	1f 91       	pop	r17
    365e:	0f 91       	pop	r16
    3660:	08 95       	ret

00003662 <xmit_datablock>:
    3662:	0f 93       	push	r16
static
int xmit_datablock (
    const BYTE* buff,   /* 512 byte data block to be transmitted */
    BYTE token          /* Data/Stop token */
)
{
    3664:	1f 93       	push	r17
    3666:	cf 93       	push	r28
    3668:	8c 01       	movw	r16, r24
    366a:	c6 2f       	mov	r28, r22
    BYTE resp;


    if (!wait_ready(500))
    366c:	84 ef       	ldi	r24, 0xF4	; 244
    366e:	91 e0       	ldi	r25, 0x01	; 1
    3670:	95 df       	rcall	.-214    	; 0x359c <wait_ready>
    3672:	00 97       	sbiw	r24, 0x00	; 0
    3674:	c1 f0       	breq	.+48     	; 0x36a6 <xmit_datablock+0x44>
    {
        return 0;    /* Leading busy check: Wait for card ready to accept data block */
    }

    xchg_spi(token);                    /* Xmit data token */
    3676:	8c 2f       	mov	r24, r28
    3678:	5f df       	rcall	.-322    	; 0x3538 <xchg_spi>
    if (token == 0xFD)
    367a:	cd 3f       	cpi	r28, 0xFD	; 253
    367c:	91 f0       	breq	.+36     	; 0x36a2 <xmit_datablock+0x40>
    {
        return 1;    /* Do not send data if token is StopTran */
    }

    xmit_spi_multi(buff, 512);          /* Data */
    367e:	60 e0       	ldi	r22, 0x00	; 0
    3680:	72 e0       	ldi	r23, 0x02	; 2
    3682:	c8 01       	movw	r24, r16
    xchg_spi(0xFF);
    3684:	77 df       	rcall	.-274    	; 0x3574 <xmit_spi_multi>
    3686:	8f ef       	ldi	r24, 0xFF	; 255
    xchg_spi(0xFF);     /* Dummy CRC */
    3688:	57 df       	rcall	.-338    	; 0x3538 <xchg_spi>
    368a:	8f ef       	ldi	r24, 0xFF	; 255
    368c:	55 df       	rcall	.-342    	; 0x3538 <xchg_spi>

    resp = xchg_spi(0xFF);              /* Receive data resp */
    368e:	8f ef       	ldi	r24, 0xFF	; 255
    3690:	53 df       	rcall	.-346    	; 0x3538 <xchg_spi>
    3692:	8f 71       	andi	r24, 0x1F	; 31

    return (resp & 0x1F) == 0x05 ? 1 : 0;   /* Data was accepted or not */
    3694:	91 e0       	ldi	r25, 0x01	; 1
    3696:	85 30       	cpi	r24, 0x05	; 5
    3698:	09 f0       	breq	.+2      	; 0x369c <xmit_datablock+0x3a>
    369a:	90 e0       	ldi	r25, 0x00	; 0
    369c:	89 2f       	mov	r24, r25
    369e:	90 e0       	ldi	r25, 0x00	; 0
    36a0:	02 c0       	rjmp	.+4      	; 0x36a6 <xmit_datablock+0x44>
    36a2:	81 e0       	ldi	r24, 0x01	; 1
    }

    xchg_spi(token);                    /* Xmit data token */
    if (token == 0xFD)
    {
        return 1;    /* Do not send data if token is StopTran */
    36a4:	90 e0       	ldi	r25, 0x00	; 0
    36a6:	cf 91       	pop	r28
    resp = xchg_spi(0xFF);              /* Receive data resp */

    return (resp & 0x1F) == 0x05 ? 1 : 0;   /* Data was accepted or not */

    /* Busy check is done at next transmission */
}
    36a8:	1f 91       	pop	r17
    36aa:	0f 91       	pop	r16
    36ac:	08 95       	ret

000036ae <send_cmd>:
    36ae:	ff 92       	push	r15
static
BYTE send_cmd (     /* Returns R1 resp (bit7==1:Send failed) */
    BYTE cmd,       /* Command index */
    DWORD arg       /* Argument */
)
{
    36b0:	0f 93       	push	r16
    36b2:	1f 93       	push	r17
    36b4:	cf 93       	push	r28
    36b6:	df 93       	push	r29
    36b8:	c8 2f       	mov	r28, r24
    36ba:	d4 2f       	mov	r29, r20
    36bc:	15 2f       	mov	r17, r21
    36be:	06 2f       	mov	r16, r22
    36c0:	f7 2e       	mov	r15, r23
    BYTE n, res;


    if (cmd & 0x80)     /* ACMD<n> is the command sequense of CMD55-CMD<n> */
    36c2:	88 23       	and	r24, r24
    36c4:	44 f4       	brge	.+16     	; 0x36d6 <send_cmd+0x28>
    {
        cmd &= 0x7F;
    36c6:	cf 77       	andi	r28, 0x7F	; 127
        res = send_cmd(CMD55, 0);
    36c8:	40 e0       	ldi	r20, 0x00	; 0
    36ca:	50 e0       	ldi	r21, 0x00	; 0
    36cc:	ba 01       	movw	r22, r20
    36ce:	87 e3       	ldi	r24, 0x37	; 55
    36d0:	ee df       	rcall	.-36     	; 0x36ae <send_cmd>
        if (res > 1)
    36d2:	82 30       	cpi	r24, 0x02	; 2
    36d4:	38 f5       	brcc	.+78     	; 0x3724 <send_cmd+0x76>
            return res;
        }
    }

    /* Select the card and wait for ready except to stop multiple block read */
    if (cmd != CMD12)
    36d6:	cc 30       	cpi	r28, 0x0C	; 12
    {
        deselect();
    36d8:	21 f0       	breq	.+8      	; 0x36e2 <send_cmd+0x34>
        if (!select())
    36da:	84 df       	rcall	.-248    	; 0x35e4 <deselect>
    36dc:	89 df       	rcall	.-238    	; 0x35f0 <select>
    36de:	89 2b       	or	r24, r25
            return 0xFF;
        }
    }

    /* Send command packet */
    xchg_spi(0x40 | cmd);               /* Start + Command index */
    36e0:	01 f1       	breq	.+64     	; 0x3722 <send_cmd+0x74>
    36e2:	8c 2f       	mov	r24, r28
    36e4:	80 64       	ori	r24, 0x40	; 64
    xchg_spi((BYTE)(arg >> 24));        /* Argument[31..24] */
    36e6:	28 df       	rcall	.-432    	; 0x3538 <xchg_spi>
    36e8:	8f 2d       	mov	r24, r15
    xchg_spi((BYTE)(arg >> 16));        /* Argument[23..16] */
    36ea:	26 df       	rcall	.-436    	; 0x3538 <xchg_spi>
    36ec:	80 2f       	mov	r24, r16
    xchg_spi((BYTE)(arg >> 8));         /* Argument[15..8] */
    36ee:	24 df       	rcall	.-440    	; 0x3538 <xchg_spi>
    36f0:	81 2f       	mov	r24, r17
    36f2:	22 df       	rcall	.-444    	; 0x3538 <xchg_spi>
    xchg_spi((BYTE)arg);                /* Argument[7..0] */
    36f4:	8d 2f       	mov	r24, r29
    36f6:	20 df       	rcall	.-448    	; 0x3538 <xchg_spi>
    36f8:	cc 23       	and	r28, r28
    n = 0x01;                           /* Dummy CRC + Stop */
    if (cmd == CMD0)
    36fa:	11 f0       	breq	.+4      	; 0x3700 <send_cmd+0x52>
    xchg_spi(0x40 | cmd);               /* Start + Command index */
    xchg_spi((BYTE)(arg >> 24));        /* Argument[31..24] */
    xchg_spi((BYTE)(arg >> 16));        /* Argument[23..16] */
    xchg_spi((BYTE)(arg >> 8));         /* Argument[15..8] */
    xchg_spi((BYTE)arg);                /* Argument[7..0] */
    n = 0x01;                           /* Dummy CRC + Stop */
    36fc:	81 e0       	ldi	r24, 0x01	; 1
    36fe:	01 c0       	rjmp	.+2      	; 0x3702 <send_cmd+0x54>
    if (cmd == CMD0)
    {
        n = 0x95;    /* Valid CRC for CMD0(0) + Stop */
    }
    if (cmd == CMD8)
    3700:	85 e9       	ldi	r24, 0x95	; 149
    3702:	c8 30       	cpi	r28, 0x08	; 8
    {
        n = 0x87;    /* Valid CRC for CMD8(0x1AA) Stop */
    }
    xchg_spi(n);
    3704:	09 f4       	brne	.+2      	; 0x3708 <send_cmd+0x5a>
    3706:	87 e8       	ldi	r24, 0x87	; 135

    /* Receive command response */
    if (cmd == CMD12)
    3708:	17 df       	rcall	.-466    	; 0x3538 <xchg_spi>
    370a:	cc 30       	cpi	r28, 0x0C	; 12
    {
        xchg_spi(0xFF);    /* Skip a stuff byte when stop reading */
    370c:	11 f4       	brne	.+4      	; 0x3712 <send_cmd+0x64>
    370e:	8f ef       	ldi	r24, 0xFF	; 255
    3710:	13 df       	rcall	.-474    	; 0x3538 <xchg_spi>
    {
        n = 0x95;    /* Valid CRC for CMD0(0) + Stop */
    }
    if (cmd == CMD8)
    {
        n = 0x87;    /* Valid CRC for CMD8(0x1AA) Stop */
    3712:	ca e0       	ldi	r28, 0x0A	; 10
        xchg_spi(0xFF);    /* Skip a stuff byte when stop reading */
    }
    n = 10;                             /* Wait for a valid response in timeout of 10 attempts */
    do
    {
        res = xchg_spi(0xFF);
    3714:	8f ef       	ldi	r24, 0xFF	; 255
    3716:	10 df       	rcall	.-480    	; 0x3538 <xchg_spi>
    3718:	88 23       	and	r24, r24
    } while ((res & 0x80) && --n);
    371a:	24 f4       	brge	.+8      	; 0x3724 <send_cmd+0x76>
    371c:	c1 50       	subi	r28, 0x01	; 1
    371e:	d1 f7       	brne	.-12     	; 0x3714 <send_cmd+0x66>
    3720:	01 c0       	rjmp	.+2      	; 0x3724 <send_cmd+0x76>
    3722:	8f ef       	ldi	r24, 0xFF	; 255
    if (cmd != CMD12)
    {
        deselect();
        if (!select())
        {
            return 0xFF;
    3724:	df 91       	pop	r29
    {
        res = xchg_spi(0xFF);
    } while ((res & 0x80) && --n);

    return res;         /* Return with the response value */
}
    3726:	cf 91       	pop	r28
    3728:	1f 91       	pop	r17
    372a:	0f 91       	pop	r16
    372c:	ff 90       	pop	r15
    372e:	08 95       	ret

00003730 <mmc_disk_initialize>:
    3730:	ef 92       	push	r14
/*-----------------------------------------------------------------------*/
/* Initialize Disk Drive                                                 */
/*-----------------------------------------------------------------------*/

DSTATUS mmc_disk_initialize (void)
{
    3732:	ff 92       	push	r15
    3734:	0f 93       	push	r16
    3736:	1f 93       	push	r17
    3738:	cf 93       	push	r28
    373a:	df 93       	push	r29
    373c:	00 d0       	rcall	.+0      	; 0x373e <mmc_disk_initialize+0xe>
    373e:	00 d0       	rcall	.+0      	; 0x3740 <mmc_disk_initialize+0x10>
    3740:	cd b7       	in	r28, 0x3d	; 61
    3742:	de b7       	in	r29, 0x3e	; 62
    BYTE n, cmd, ty, ocr[4];


    power_off();                        /* Turn off the socket power to reset the card */
    3744:	f1 de       	rcall	.-542    	; 0x3528 <power_off>
    for (Timer1 = 10; Timer1; ) ;       /* Wait for 100ms */
    3746:	8a e0       	ldi	r24, 0x0A	; 10
    3748:	80 93 08 06 	sts	0x0608, r24	; 0x800608 <Timer1>
    374c:	80 91 08 06 	lds	r24, 0x0608	; 0x800608 <Timer1>
    3750:	81 11       	cpse	r24, r1
    3752:	fc cf       	rjmp	.-8      	; 0x374c <mmc_disk_initialize+0x1c>
    if (Stat & STA_NODISK)
    3754:	80 91 78 01 	lds	r24, 0x0178	; 0x800178 <Stat>
    3758:	81 ff       	sbrs	r24, 1
    375a:	03 c0       	rjmp	.+6      	; 0x3762 <mmc_disk_initialize+0x32>
    {
        return Stat;    /* No card in the socket? */
    375c:	80 91 78 01 	lds	r24, 0x0178	; 0x800178 <Stat>
    }

    power_on();                         /* Turn on the socket power */
    3760:	a5 c0       	rjmp	.+330    	; 0x38ac <mmc_disk_initialize+0x17c>
    3762:	da de       	rcall	.-588    	; 0x3518 <power_on>
    FCLK_SLOW();
    3764:	82 e5       	ldi	r24, 0x52	; 82
    3766:	8c bd       	out	0x2c, r24	; 44
    for (n = 10; n; n--)
    3768:	1a e0       	ldi	r17, 0x0A	; 10
    {
        xchg_spi(0xFF);    /* 80 dummy clocks */
    376a:	03 c0       	rjmp	.+6      	; 0x3772 <mmc_disk_initialize+0x42>
    376c:	8f ef       	ldi	r24, 0xFF	; 255
    376e:	e4 de       	rcall	.-568    	; 0x3538 <xchg_spi>
        return Stat;    /* No card in the socket? */
    }

    power_on();                         /* Turn on the socket power */
    FCLK_SLOW();
    for (n = 10; n; n--)
    3770:	11 50       	subi	r17, 0x01	; 1
    3772:	11 11       	cpse	r17, r1
    3774:	fb cf       	rjmp	.-10     	; 0x376c <mmc_disk_initialize+0x3c>
    {
        xchg_spi(0xFF);    /* 80 dummy clocks */
    }

    ty = 0;
    if (send_cmd(CMD0, 0) == 1)             /* Put the card SPI mode */
    3776:	40 e0       	ldi	r20, 0x00	; 0
    3778:	50 e0       	ldi	r21, 0x00	; 0
    377a:	ba 01       	movw	r22, r20
    377c:	80 e0       	ldi	r24, 0x00	; 0
    377e:	97 df       	rcall	.-210    	; 0x36ae <send_cmd>
    3780:	81 30       	cpi	r24, 0x01	; 1
    3782:	09 f0       	breq	.+2      	; 0x3786 <mmc_disk_initialize+0x56>
    3784:	76 c0       	rjmp	.+236    	; 0x3872 <mmc_disk_initialize+0x142>
    {
        Timer1 = 100;                       /* Initialization timeout of 1000 msec */
    3786:	84 e6       	ldi	r24, 0x64	; 100
    3788:	80 93 08 06 	sts	0x0608, r24	; 0x800608 <Timer1>
        if (send_cmd(CMD8, 0x1AA) == 1)     /* Is the card SDv2? */
    378c:	4a ea       	ldi	r20, 0xAA	; 170
    378e:	51 e0       	ldi	r21, 0x01	; 1
    3790:	60 e0       	ldi	r22, 0x00	; 0
    3792:	70 e0       	ldi	r23, 0x00	; 0
    3794:	88 e0       	ldi	r24, 0x08	; 8
    3796:	8b df       	rcall	.-234    	; 0x36ae <send_cmd>
    3798:	81 30       	cpi	r24, 0x01	; 1
    379a:	09 f0       	breq	.+2      	; 0x379e <mmc_disk_initialize+0x6e>
    379c:	46 c0       	rjmp	.+140    	; 0x382a <mmc_disk_initialize+0xfa>
        {
            for (n = 0; n < 4; n++)
            {
                ocr[n] = xchg_spi(0xFF);    /* Get trailing return value of R7 resp */
    379e:	0d c0       	rjmp	.+26     	; 0x37ba <mmc_disk_initialize+0x8a>
    37a0:	e0 2e       	mov	r14, r16
    37a2:	f1 2c       	mov	r15, r1
    37a4:	8f ef       	ldi	r24, 0xFF	; 255
    37a6:	c8 de       	rcall	.-624    	; 0x3538 <xchg_spi>
    37a8:	e1 e0       	ldi	r30, 0x01	; 1
    37aa:	f0 e0       	ldi	r31, 0x00	; 0
    37ac:	ec 0f       	add	r30, r28
    37ae:	fd 1f       	adc	r31, r29
    37b0:	ee 0d       	add	r30, r14
    37b2:	ff 1d       	adc	r31, r15
    37b4:	80 83       	st	Z, r24
    if (send_cmd(CMD0, 0) == 1)             /* Put the card SPI mode */
    {
        Timer1 = 100;                       /* Initialization timeout of 1000 msec */
        if (send_cmd(CMD8, 0x1AA) == 1)     /* Is the card SDv2? */
        {
            for (n = 0; n < 4; n++)
    37b6:	0f 5f       	subi	r16, 0xFF	; 255
    37b8:	01 c0       	rjmp	.+2      	; 0x37bc <mmc_disk_initialize+0x8c>
    37ba:	01 2f       	mov	r16, r17
    37bc:	04 30       	cpi	r16, 0x04	; 4
    37be:	80 f3       	brcs	.-32     	; 0x37a0 <mmc_disk_initialize+0x70>
            {
                ocr[n] = xchg_spi(0xFF);    /* Get trailing return value of R7 resp */
            }
            if (ocr[2] == 0x01
    37c0:	8b 81       	ldd	r24, Y+3	; 0x03
    37c2:	81 30       	cpi	r24, 0x01	; 1
    37c4:	09 f0       	breq	.+2      	; 0x37c8 <mmc_disk_initialize+0x98>
    37c6:	57 c0       	rjmp	.+174    	; 0x3876 <mmc_disk_initialize+0x146>
                    && ocr[3] ==
    37c8:	8c 81       	ldd	r24, Y+4	; 0x04
    37ca:	8a 3a       	cpi	r24, 0xAA	; 170
    37cc:	09 f0       	breq	.+2      	; 0x37d0 <mmc_disk_initialize+0xa0>
    37ce:	55 c0       	rjmp	.+170    	; 0x387a <mmc_disk_initialize+0x14a>
                    0xAA)               /* The card can work at vdd range of 2.7-3.6V */
            {
                while (Timer1
    37d0:	80 91 08 06 	lds	r24, 0x0608	; 0x800608 <Timer1>
    37d4:	88 23       	and	r24, r24
                        && send_cmd(ACMD41, 1UL <<
    37d6:	41 f0       	breq	.+16     	; 0x37e8 <mmc_disk_initialize+0xb8>
    37d8:	40 e0       	ldi	r20, 0x00	; 0
    37da:	50 e0       	ldi	r21, 0x00	; 0
    37dc:	60 e0       	ldi	r22, 0x00	; 0
    37de:	70 e4       	ldi	r23, 0x40	; 64
    37e0:	89 ea       	ldi	r24, 0xA9	; 169
    37e2:	65 df       	rcall	.-310    	; 0x36ae <send_cmd>
    37e4:	81 11       	cpse	r24, r1
    37e6:	f4 cf       	rjmp	.-24     	; 0x37d0 <mmc_disk_initialize+0xa0>
                                    30));  /* Wait for leaving idle state (ACMD41 with HCS bit) */
                if (Timer1 && send_cmd(CMD58, 0) == 0)          /* Check CCS bit in the OCR */
    37e8:	80 91 08 06 	lds	r24, 0x0608	; 0x800608 <Timer1>
    37ec:	88 23       	and	r24, r24
    37ee:	09 f4       	brne	.+2      	; 0x37f2 <mmc_disk_initialize+0xc2>
    37f0:	46 c0       	rjmp	.+140    	; 0x387e <mmc_disk_initialize+0x14e>
    37f2:	40 e0       	ldi	r20, 0x00	; 0
    37f4:	50 e0       	ldi	r21, 0x00	; 0
    37f6:	ba 01       	movw	r22, r20
    37f8:	8a e3       	ldi	r24, 0x3A	; 58
    37fa:	59 df       	rcall	.-334    	; 0x36ae <send_cmd>
    37fc:	88 23       	and	r24, r24
    for (n = 10; n; n--)
    {
        xchg_spi(0xFF);    /* 80 dummy clocks */
    }

    ty = 0;
    37fe:	71 f0       	breq	.+28     	; 0x381c <mmc_disk_initialize+0xec>
    3800:	10 e0       	ldi	r17, 0x00	; 0
                                    30));  /* Wait for leaving idle state (ACMD41 with HCS bit) */
                if (Timer1 && send_cmd(CMD58, 0) == 0)          /* Check CCS bit in the OCR */
                {
                    for (n = 0; n < 4; n++)
                    {
                        ocr[n] = xchg_spi(0xFF);
    3802:	44 c0       	rjmp	.+136    	; 0x388c <mmc_disk_initialize+0x15c>
    3804:	e1 2e       	mov	r14, r17
    3806:	f1 2c       	mov	r15, r1
    3808:	8f ef       	ldi	r24, 0xFF	; 255
    380a:	96 de       	rcall	.-724    	; 0x3538 <xchg_spi>
    380c:	e1 e0       	ldi	r30, 0x01	; 1
    380e:	f0 e0       	ldi	r31, 0x00	; 0
    3810:	ec 0f       	add	r30, r28
    3812:	fd 1f       	adc	r31, r29
    3814:	ee 0d       	add	r30, r14
    3816:	ff 1d       	adc	r31, r15
    3818:	80 83       	st	Z, r24
                while (Timer1
                        && send_cmd(ACMD41, 1UL <<
                                    30));  /* Wait for leaving idle state (ACMD41 with HCS bit) */
                if (Timer1 && send_cmd(CMD58, 0) == 0)          /* Check CCS bit in the OCR */
                {
                    for (n = 0; n < 4; n++)
    381a:	1f 5f       	subi	r17, 0xFF	; 255
    381c:	14 30       	cpi	r17, 0x04	; 4
    381e:	90 f3       	brcs	.-28     	; 0x3804 <mmc_disk_initialize+0xd4>
                    {
                        ocr[n] = xchg_spi(0xFF);
                    }
                    ty = (ocr[0] & 0x40) ? CT_SDC2 | CT_BLOCK :
    3820:	89 81       	ldd	r24, Y+1	; 0x01
    3822:	86 ff       	sbrs	r24, 6
    3824:	2e c0       	rjmp	.+92     	; 0x3882 <mmc_disk_initialize+0x152>
    3826:	18 e1       	ldi	r17, 0x18	; 24
                }
            }
        }
        else                                /* SDv1 or MMCv3 */
        {
            if (send_cmd(ACMD41, 0) <= 1)
    3828:	31 c0       	rjmp	.+98     	; 0x388c <mmc_disk_initialize+0x15c>
    382a:	40 e0       	ldi	r20, 0x00	; 0
    382c:	50 e0       	ldi	r21, 0x00	; 0
    382e:	ba 01       	movw	r22, r20
    3830:	89 ea       	ldi	r24, 0xA9	; 169
    3832:	3d df       	rcall	.-390    	; 0x36ae <send_cmd>
    3834:	82 30       	cpi	r24, 0x02	; 2
    3836:	18 f4       	brcc	.+6      	; 0x383e <mmc_disk_initialize+0x10e>
            {
                ty = CT_SDC1;
    3838:	14 e0       	ldi	r17, 0x04	; 4
                cmd = ACMD41; /* SDv1 */
    383a:	09 ea       	ldi	r16, 0xA9	; 169
    383c:	02 c0       	rjmp	.+4      	; 0x3842 <mmc_disk_initialize+0x112>
            }
            else
            {
                ty = CT_MMC3;
                cmd = CMD1;   /* MMCv3 */
    383e:	11 e0       	ldi	r17, 0x01	; 1
            }
            while (Timer1 && send_cmd(cmd, 0));         /* Wait for leaving idle state */
    3840:	01 e0       	ldi	r16, 0x01	; 1
    3842:	80 91 08 06 	lds	r24, 0x0608	; 0x800608 <Timer1>
    3846:	88 23       	and	r24, r24
    3848:	39 f0       	breq	.+14     	; 0x3858 <mmc_disk_initialize+0x128>
    384a:	40 e0       	ldi	r20, 0x00	; 0
    384c:	50 e0       	ldi	r21, 0x00	; 0
    384e:	ba 01       	movw	r22, r20
    3850:	80 2f       	mov	r24, r16
    3852:	2d df       	rcall	.-422    	; 0x36ae <send_cmd>
    3854:	81 11       	cpse	r24, r1
            if (!Timer1 || send_cmd(CMD16, 512) != 0)   /* Set R/W block length to 512 */
    3856:	f5 cf       	rjmp	.-22     	; 0x3842 <mmc_disk_initialize+0x112>
    3858:	80 91 08 06 	lds	r24, 0x0608	; 0x800608 <Timer1>
    385c:	88 23       	and	r24, r24
    385e:	99 f0       	breq	.+38     	; 0x3886 <mmc_disk_initialize+0x156>
    3860:	40 e0       	ldi	r20, 0x00	; 0
    3862:	52 e0       	ldi	r21, 0x02	; 2
    3864:	60 e0       	ldi	r22, 0x00	; 0
    3866:	70 e0       	ldi	r23, 0x00	; 0
    3868:	80 e1       	ldi	r24, 0x10	; 16
    386a:	21 df       	rcall	.-446    	; 0x36ae <send_cmd>
    386c:	81 11       	cpse	r24, r1
    386e:	0d c0       	rjmp	.+26     	; 0x388a <mmc_disk_initialize+0x15a>
    3870:	0d c0       	rjmp	.+26     	; 0x388c <mmc_disk_initialize+0x15c>
    for (n = 10; n; n--)
    {
        xchg_spi(0xFF);    /* 80 dummy clocks */
    }

    ty = 0;
    3872:	10 e0       	ldi	r17, 0x00	; 0
    3874:	0b c0       	rjmp	.+22     	; 0x388c <mmc_disk_initialize+0x15c>
    3876:	10 e0       	ldi	r17, 0x00	; 0
    3878:	09 c0       	rjmp	.+18     	; 0x388c <mmc_disk_initialize+0x15c>
    387a:	10 e0       	ldi	r17, 0x00	; 0
    387c:	07 c0       	rjmp	.+14     	; 0x388c <mmc_disk_initialize+0x15c>
    387e:	10 e0       	ldi	r17, 0x00	; 0
                {
                    for (n = 0; n < 4; n++)
                    {
                        ocr[n] = xchg_spi(0xFF);
                    }
                    ty = (ocr[0] & 0x40) ? CT_SDC2 | CT_BLOCK :
    3880:	05 c0       	rjmp	.+10     	; 0x388c <mmc_disk_initialize+0x15c>
    3882:	18 e0       	ldi	r17, 0x08	; 8
                cmd = CMD1;   /* MMCv3 */
            }
            while (Timer1 && send_cmd(cmd, 0));         /* Wait for leaving idle state */
            if (!Timer1 || send_cmd(CMD16, 512) != 0)   /* Set R/W block length to 512 */
            {
                ty = 0;
    3884:	03 c0       	rjmp	.+6      	; 0x388c <mmc_disk_initialize+0x15c>
    3886:	10 e0       	ldi	r17, 0x00	; 0
    3888:	01 c0       	rjmp	.+2      	; 0x388c <mmc_disk_initialize+0x15c>
            }
        }
    }
    CardType = ty;
    388a:	10 e0       	ldi	r17, 0x00	; 0
    deselect();
    388c:	10 93 05 06 	sts	0x0605, r17	; 0x800605 <CardType>

    if (ty)             /* Initialization succeded */
    3890:	a9 de       	rcall	.-686    	; 0x35e4 <deselect>
    3892:	11 23       	and	r17, r17
    {
        Stat &= ~STA_NOINIT;        /* Clear STA_NOINIT */
    3894:	41 f0       	breq	.+16     	; 0x38a6 <mmc_disk_initialize+0x176>
    3896:	80 91 78 01 	lds	r24, 0x0178	; 0x800178 <Stat>
    389a:	8e 7f       	andi	r24, 0xFE	; 254
    389c:	80 93 78 01 	sts	0x0178, r24	; 0x800178 <Stat>
        FCLK_FAST();
    38a0:	80 e5       	ldi	r24, 0x50	; 80
    38a2:	8c bd       	out	0x2c, r24	; 44
    }
    else                /* Initialization failed */
    {
        power_off();
    38a4:	01 c0       	rjmp	.+2      	; 0x38a8 <mmc_disk_initialize+0x178>
    38a6:	40 de       	rcall	.-896    	; 0x3528 <power_off>
    }

    return Stat;
    38a8:	80 91 78 01 	lds	r24, 0x0178	; 0x800178 <Stat>
}
    38ac:	0f 90       	pop	r0
    38ae:	0f 90       	pop	r0
    38b0:	0f 90       	pop	r0
    38b2:	0f 90       	pop	r0
    38b4:	df 91       	pop	r29
    38b6:	cf 91       	pop	r28
    38b8:	1f 91       	pop	r17
    38ba:	0f 91       	pop	r16
    38bc:	ff 90       	pop	r15
    38be:	ef 90       	pop	r14
    38c0:	08 95       	ret

000038c2 <mmc_disk_status>:
/* Get Disk Status                                                       */
/*-----------------------------------------------------------------------*/

DSTATUS mmc_disk_status (void)
{
    return Stat;
    38c2:	80 91 78 01 	lds	r24, 0x0178	; 0x800178 <Stat>
}
    38c6:	08 95       	ret

000038c8 <mmc_disk_read>:
DRESULT mmc_disk_read (
    BYTE* buff,         /* Pointer to the data buffer to store read data */
    LBA_t sector,       /* Start sector number (LBA) */
    UINT count          /* Sector count (1..128) */
)
{
    38c8:	ff 92       	push	r15
    38ca:	0f 93       	push	r16
    38cc:	1f 93       	push	r17
    38ce:	cf 93       	push	r28
    38d0:	df 93       	push	r29
    38d2:	8c 01       	movw	r16, r24
    38d4:	e9 01       	movw	r28, r18
    BYTE cmd;
    DWORD sect = (DWORD)sector;


    if (!count)
    38d6:	20 97       	sbiw	r28, 0x00	; 0
    38d8:	c1 f1       	breq	.+112    	; 0x394a <mmc_disk_read+0x82>
    {
        return RES_PARERR;
    }
    if (Stat & STA_NOINIT)
    38da:	80 91 78 01 	lds	r24, 0x0178	; 0x800178 <Stat>
    38de:	80 fd       	sbrc	r24, 0
    38e0:	36 c0       	rjmp	.+108    	; 0x394e <mmc_disk_read+0x86>
    {
        return RES_NOTRDY;
    }

    if (!(CardType & CT_BLOCK))
    38e2:	80 91 05 06 	lds	r24, 0x0605	; 0x800605 <CardType>
    38e6:	84 fd       	sbrc	r24, 4
    38e8:	09 c0       	rjmp	.+18     	; 0x38fc <mmc_disk_read+0x34>
    {
        sect *= 512;    /* Convert to byte address if needed */
    38ea:	03 2e       	mov	r0, r19
    38ec:	39 e0       	ldi	r19, 0x09	; 9
    38ee:	44 0f       	add	r20, r20
    38f0:	55 1f       	adc	r21, r21
    38f2:	66 1f       	adc	r22, r22
    38f4:	77 1f       	adc	r23, r23
    38f6:	3a 95       	dec	r19
    38f8:	d1 f7       	brne	.-12     	; 0x38ee <mmc_disk_read+0x26>
    38fa:	30 2d       	mov	r19, r0
    }

    cmd = count > 1 ? CMD18 :
    38fc:	c2 30       	cpi	r28, 0x02	; 2
    38fe:	d1 05       	cpc	r29, r1
    3900:	28 f0       	brcs	.+10     	; 0x390c <mmc_disk_read+0x44>
    3902:	0f 2e       	mov	r0, r31
    3904:	f2 e1       	ldi	r31, 0x12	; 18
    3906:	ff 2e       	mov	r15, r31
    3908:	f0 2d       	mov	r31, r0
    390a:	04 c0       	rjmp	.+8      	; 0x3914 <mmc_disk_read+0x4c>
    390c:	0f 2e       	mov	r0, r31
    390e:	f1 e1       	ldi	r31, 0x11	; 17
    3910:	ff 2e       	mov	r15, r31
    3912:	f0 2d       	mov	r31, r0
          CMD17;            /*  READ_MULTIPLE_BLOCK : READ_SINGLE_BLOCK */
    if (send_cmd(cmd, sect) == 0)
    3914:	8f 2d       	mov	r24, r15
    3916:	cb de       	rcall	.-618    	; 0x36ae <send_cmd>
    3918:	81 11       	cpse	r24, r1
    391a:	11 c0       	rjmp	.+34     	; 0x393e <mmc_disk_read+0x76>
    {
        do
        {
            if (!rcvr_datablock(buff, 512))
    391c:	60 e0       	ldi	r22, 0x00	; 0
    391e:	72 e0       	ldi	r23, 0x02	; 2
    3920:	c8 01       	movw	r24, r16
    3922:	7b de       	rcall	.-778    	; 0x361a <rcvr_datablock>
    3924:	89 2b       	or	r24, r25
    3926:	19 f0       	breq	.+6      	; 0x392e <mmc_disk_read+0x66>
            {
                break;
            }
            buff += 512;
    3928:	1e 5f       	subi	r17, 0xFE	; 254
        } while (--count);
    392a:	21 97       	sbiw	r28, 0x01	; 1
    392c:	b9 f7       	brne	.-18     	; 0x391c <mmc_disk_read+0x54>
        if (cmd == CMD18)
    392e:	82 e1       	ldi	r24, 0x12	; 18
    3930:	f8 12       	cpse	r15, r24
    3932:	05 c0       	rjmp	.+10     	; 0x393e <mmc_disk_read+0x76>
        {
            send_cmd(CMD12, 0);    /* STOP_TRANSMISSION */
    3934:	40 e0       	ldi	r20, 0x00	; 0
    3936:	50 e0       	ldi	r21, 0x00	; 0
    3938:	ba 01       	movw	r22, r20
    393a:	8c e0       	ldi	r24, 0x0C	; 12
        }
    }
    deselect();
    393c:	b8 de       	rcall	.-656    	; 0x36ae <send_cmd>
    393e:	52 de       	rcall	.-860    	; 0x35e4 <deselect>

    return count ? RES_ERROR : RES_OK;
    3940:	81 e0       	ldi	r24, 0x01	; 1
    3942:	cd 2b       	or	r28, r29
    3944:	29 f4       	brne	.+10     	; 0x3950 <mmc_disk_read+0x88>
    3946:	80 e0       	ldi	r24, 0x00	; 0
    3948:	03 c0       	rjmp	.+6      	; 0x3950 <mmc_disk_read+0x88>
    DWORD sect = (DWORD)sector;


    if (!count)
    {
        return RES_PARERR;
    394a:	84 e0       	ldi	r24, 0x04	; 4
    394c:	01 c0       	rjmp	.+2      	; 0x3950 <mmc_disk_read+0x88>
    }
    if (Stat & STA_NOINIT)
    {
        return RES_NOTRDY;
    394e:	83 e0       	ldi	r24, 0x03	; 3
        }
    }
    deselect();

    return count ? RES_ERROR : RES_OK;
}
    3950:	df 91       	pop	r29
    3952:	cf 91       	pop	r28
    3954:	1f 91       	pop	r17
    3956:	0f 91       	pop	r16
    3958:	ff 90       	pop	r15
    395a:	08 95       	ret

0000395c <mmc_disk_write>:
DRESULT mmc_disk_write (
    const BYTE* buff,   /* Pointer to the data to be written */
    LBA_t sector,       /* Start sector number (LBA) */
    UINT count          /* Sector count (1..128) */
)
{
    395c:	cf 92       	push	r12
    395e:	df 92       	push	r13
    3960:	ef 92       	push	r14
    3962:	ff 92       	push	r15
    3964:	0f 93       	push	r16
    3966:	1f 93       	push	r17
    3968:	cf 93       	push	r28
    396a:	df 93       	push	r29
    396c:	8c 01       	movw	r16, r24
    396e:	6a 01       	movw	r12, r20
    3970:	7b 01       	movw	r14, r22
    3972:	e9 01       	movw	r28, r18
    DWORD sect = (DWORD)sector;


    if (!count)
    3974:	20 97       	sbiw	r28, 0x00	; 0
    3976:	09 f4       	brne	.+2      	; 0x397a <mmc_disk_write+0x1e>
    3978:	4b c0       	rjmp	.+150    	; 0x3a10 <mmc_disk_write+0xb4>
    {
        return RES_PARERR;
    }
    if (Stat & STA_NOINIT)
    397a:	80 91 78 01 	lds	r24, 0x0178	; 0x800178 <Stat>
    397e:	80 fd       	sbrc	r24, 0
    3980:	49 c0       	rjmp	.+146    	; 0x3a14 <mmc_disk_write+0xb8>
    {
        return RES_NOTRDY;
    }
    if (Stat & STA_PROTECT)
    3982:	80 91 78 01 	lds	r24, 0x0178	; 0x800178 <Stat>
    3986:	82 fd       	sbrc	r24, 2
    3988:	47 c0       	rjmp	.+142    	; 0x3a18 <mmc_disk_write+0xbc>
    {
        return RES_WRPRT;
    }

    if (!(CardType & CT_BLOCK))
    398a:	80 91 05 06 	lds	r24, 0x0605	; 0x800605 <CardType>
    398e:	84 fd       	sbrc	r24, 4
    3990:	09 c0       	rjmp	.+18     	; 0x39a4 <mmc_disk_write+0x48>
    {
        sect *= 512;    /* Convert to byte address if needed */
    3992:	0b 2e       	mov	r0, r27
    3994:	b9 e0       	ldi	r27, 0x09	; 9
    3996:	cc 0c       	add	r12, r12
    3998:	dd 1c       	adc	r13, r13
    399a:	ee 1c       	adc	r14, r14
    399c:	ff 1c       	adc	r15, r15
    399e:	ba 95       	dec	r27
    39a0:	d1 f7       	brne	.-12     	; 0x3996 <mmc_disk_write+0x3a>
    39a2:	b0 2d       	mov	r27, r0
    }

    if (count == 1)     /* Single block write */
    39a4:	c1 30       	cpi	r28, 0x01	; 1
    39a6:	d1 05       	cpc	r29, r1
    39a8:	61 f4       	brne	.+24     	; 0x39c2 <mmc_disk_write+0x66>
    {
        if ((send_cmd(CMD24, sect) == 0)    /* WRITE_BLOCK */
    39aa:	b7 01       	movw	r22, r14
    39ac:	a6 01       	movw	r20, r12
    39ae:	88 e1       	ldi	r24, 0x18	; 24
    39b0:	7e de       	rcall	.-772    	; 0x36ae <send_cmd>
    39b2:	81 11       	cpse	r24, r1
    39b4:	27 c0       	rjmp	.+78     	; 0x3a04 <mmc_disk_write+0xa8>
                && xmit_datablock(buff, 0xFE))
    39b6:	6e ef       	ldi	r22, 0xFE	; 254
    39b8:	c8 01       	movw	r24, r16
    39ba:	53 de       	rcall	.-858    	; 0x3662 <xmit_datablock>
    39bc:	89 2b       	or	r24, r25
    39be:	e9 f4       	brne	.+58     	; 0x39fa <mmc_disk_write+0x9e>
    39c0:	21 c0       	rjmp	.+66     	; 0x3a04 <mmc_disk_write+0xa8>
            count = 0;
        }
    }
    else                /* Multiple block write */
    {
        if (CardType & CT_SDC)
    39c2:	8c 70       	andi	r24, 0x0C	; 12
    39c4:	29 f0       	breq	.+10     	; 0x39d0 <mmc_disk_write+0x74>
        {
            send_cmd(ACMD23, count);
    39c6:	ae 01       	movw	r20, r28
    39c8:	60 e0       	ldi	r22, 0x00	; 0
    39ca:	70 e0       	ldi	r23, 0x00	; 0
    39cc:	87 e9       	ldi	r24, 0x97	; 151
    39ce:	6f de       	rcall	.-802    	; 0x36ae <send_cmd>
        }
        if (send_cmd(CMD25, sect) == 0)     /* WRITE_MULTIPLE_BLOCK */
    39d0:	b7 01       	movw	r22, r14
    39d2:	a6 01       	movw	r20, r12
    39d4:	89 e1       	ldi	r24, 0x19	; 25
    39d6:	6b de       	rcall	.-810    	; 0x36ae <send_cmd>
    39d8:	81 11       	cpse	r24, r1
        {
            do
            {
                if (!xmit_datablock(buff, 0xFC))
    39da:	14 c0       	rjmp	.+40     	; 0x3a04 <mmc_disk_write+0xa8>
    39dc:	6c ef       	ldi	r22, 0xFC	; 252
    39de:	c8 01       	movw	r24, r16
    39e0:	40 de       	rcall	.-896    	; 0x3662 <xmit_datablock>
    39e2:	89 2b       	or	r24, r25
    39e4:	19 f0       	breq	.+6      	; 0x39ec <mmc_disk_write+0x90>
                {
                    break;
                }
                buff += 512;
    39e6:	1e 5f       	subi	r17, 0xFE	; 254
            } while (--count);
    39e8:	21 97       	sbiw	r28, 0x01	; 1
            if (!xmit_datablock(0, 0xFD))
    39ea:	c1 f7       	brne	.-16     	; 0x39dc <mmc_disk_write+0x80>
    39ec:	6d ef       	ldi	r22, 0xFD	; 253
    39ee:	80 e0       	ldi	r24, 0x00	; 0
    39f0:	90 e0       	ldi	r25, 0x00	; 0
    39f2:	37 de       	rcall	.-914    	; 0x3662 <xmit_datablock>
    39f4:	89 2b       	or	r24, r25
    39f6:	21 f0       	breq	.+8      	; 0x3a00 <mmc_disk_write+0xa4>
    if (count == 1)     /* Single block write */
    {
        if ((send_cmd(CMD24, sect) == 0)    /* WRITE_BLOCK */
                && xmit_datablock(buff, 0xFE))
        {
            count = 0;
    39f8:	05 c0       	rjmp	.+10     	; 0x3a04 <mmc_disk_write+0xa8>
    39fa:	c0 e0       	ldi	r28, 0x00	; 0
    39fc:	d0 e0       	ldi	r29, 0x00	; 0
                }
                buff += 512;
            } while (--count);
            if (!xmit_datablock(0, 0xFD))
            {
                count = 1;    /* STOP_TRAN token */
    39fe:	02 c0       	rjmp	.+4      	; 0x3a04 <mmc_disk_write+0xa8>
    3a00:	c1 e0       	ldi	r28, 0x01	; 1
            }
        }
    }
    deselect();
    3a02:	d0 e0       	ldi	r29, 0x00	; 0
    3a04:	ef dd       	rcall	.-1058   	; 0x35e4 <deselect>

    return count ? RES_ERROR : RES_OK;
    3a06:	81 e0       	ldi	r24, 0x01	; 1
    3a08:	cd 2b       	or	r28, r29
    3a0a:	39 f4       	brne	.+14     	; 0x3a1a <mmc_disk_write+0xbe>
    3a0c:	80 e0       	ldi	r24, 0x00	; 0
    3a0e:	05 c0       	rjmp	.+10     	; 0x3a1a <mmc_disk_write+0xbe>
    DWORD sect = (DWORD)sector;


    if (!count)
    {
        return RES_PARERR;
    3a10:	84 e0       	ldi	r24, 0x04	; 4
    3a12:	03 c0       	rjmp	.+6      	; 0x3a1a <mmc_disk_write+0xbe>
    }
    if (Stat & STA_NOINIT)
    {
        return RES_NOTRDY;
    3a14:	83 e0       	ldi	r24, 0x03	; 3
    3a16:	01 c0       	rjmp	.+2      	; 0x3a1a <mmc_disk_write+0xbe>
    }
    if (Stat & STA_PROTECT)
    {
        return RES_WRPRT;
    3a18:	82 e0       	ldi	r24, 0x02	; 2
        }
    }
    deselect();

    return count ? RES_ERROR : RES_OK;
}
    3a1a:	df 91       	pop	r29
    3a1c:	cf 91       	pop	r28
    3a1e:	1f 91       	pop	r17
    3a20:	0f 91       	pop	r16
    3a22:	ff 90       	pop	r15
    3a24:	ef 90       	pop	r14
    3a26:	df 90       	pop	r13
    3a28:	cf 90       	pop	r12
    3a2a:	08 95       	ret

00003a2c <mmc_disk_ioctl>:
#if _USE_IOCTL
DRESULT mmc_disk_ioctl (
    BYTE cmd,       /* Control code */
    void* buff      /* Buffer to send/receive control data */
)
{
    3a2c:	af 92       	push	r10
    3a2e:	bf 92       	push	r11
    3a30:	cf 92       	push	r12
    3a32:	df 92       	push	r13
    3a34:	ef 92       	push	r14
    3a36:	ff 92       	push	r15
    3a38:	0f 93       	push	r16
    3a3a:	1f 93       	push	r17
    3a3c:	cf 93       	push	r28
    3a3e:	df 93       	push	r29
    3a40:	cd b7       	in	r28, 0x3d	; 61
    3a42:	de b7       	in	r29, 0x3e	; 62
    3a44:	60 97       	sbiw	r28, 0x10	; 16
    3a46:	0f b6       	in	r0, 0x3f	; 63
    3a48:	f8 94       	cli
    3a4a:	de bf       	out	0x3e, r29	; 62
    3a4c:	0f be       	out	0x3f, r0	; 63
    3a4e:	cd bf       	out	0x3d, r28	; 61
    3a50:	8b 01       	movw	r16, r22
    SDIO_CTRL* sdi;
    BYTE rc, *bp;
    UINT dc;
#endif

    if (Stat & STA_NOINIT)
    3a52:	90 91 78 01 	lds	r25, 0x0178	; 0x800178 <Stat>
    3a56:	90 fd       	sbrc	r25, 0
    3a58:	d2 c2       	rjmp	.+1444   	; 0x3ffe <mmc_disk_ioctl+0x5d2>
    {
        return RES_NOTRDY;
    }

    res = RES_ERROR;
    switch (cmd)
    3a5a:	83 33       	cpi	r24, 0x33	; 51
    3a5c:	09 f4       	brne	.+2      	; 0x3a60 <mmc_disk_ioctl+0x34>
    3a5e:	47 c1       	rjmp	.+654    	; 0x3cee <mmc_disk_ioctl+0x2c2>
    3a60:	80 f4       	brcc	.+32     	; 0x3a82 <mmc_disk_ioctl+0x56>
    3a62:	83 30       	cpi	r24, 0x03	; 3
    3a64:	09 f4       	brne	.+2      	; 0x3a68 <mmc_disk_ioctl+0x3c>
    3a66:	a4 c0       	rjmp	.+328    	; 0x3bb0 <mmc_disk_ioctl+0x184>
    3a68:	28 f4       	brcc	.+10     	; 0x3a74 <mmc_disk_ioctl+0x48>
    3a6a:	88 23       	and	r24, r24
    3a6c:	f1 f0       	breq	.+60     	; 0x3aaa <mmc_disk_ioctl+0x7e>
    3a6e:	81 30       	cpi	r24, 0x01	; 1
    3a70:	29 f1       	breq	.+74     	; 0x3abc <mmc_disk_ioctl+0x90>
    3a72:	c7 c2       	rjmp	.+1422   	; 0x4002 <mmc_disk_ioctl+0x5d6>
    3a74:	87 30       	cpi	r24, 0x07	; 7
    3a76:	09 f4       	brne	.+2      	; 0x3a7a <mmc_disk_ioctl+0x4e>
    3a78:	98 c1       	rjmp	.+816    	; 0x3daa <mmc_disk_ioctl+0x37e>
    3a7a:	82 33       	cpi	r24, 0x32	; 50
    3a7c:	09 f4       	brne	.+2      	; 0x3a80 <mmc_disk_ioctl+0x54>
    3a7e:	31 c1       	rjmp	.+610    	; 0x3ce2 <mmc_disk_ioctl+0x2b6>
    3a80:	c0 c2       	rjmp	.+1408   	; 0x4002 <mmc_disk_ioctl+0x5d6>
    3a82:	86 33       	cpi	r24, 0x36	; 54
    3a84:	09 f4       	brne	.+2      	; 0x3a88 <mmc_disk_ioctl+0x5c>
    3a86:	7a c1       	rjmp	.+756    	; 0x3d7c <mmc_disk_ioctl+0x350>
    3a88:	38 f4       	brcc	.+14     	; 0x3a98 <mmc_disk_ioctl+0x6c>
    3a8a:	84 33       	cpi	r24, 0x34	; 52
    3a8c:	09 f4       	brne	.+2      	; 0x3a90 <mmc_disk_ioctl+0x64>
    3a8e:	44 c1       	rjmp	.+648    	; 0x3d18 <mmc_disk_ioctl+0x2ec>
    3a90:	85 33       	cpi	r24, 0x35	; 53
    3a92:	09 f4       	brne	.+2      	; 0x3a96 <mmc_disk_ioctl+0x6a>
    3a94:	56 c1       	rjmp	.+684    	; 0x3d42 <mmc_disk_ioctl+0x316>
    3a96:	b5 c2       	rjmp	.+1386   	; 0x4002 <mmc_disk_ioctl+0x5d6>
    3a98:	88 33       	cpi	r24, 0x38	; 56
    3a9a:	09 f4       	brne	.+2      	; 0x3a9e <mmc_disk_ioctl+0x72>
    3a9c:	fe c1       	rjmp	.+1020   	; 0x3e9a <mmc_disk_ioctl+0x46e>
    3a9e:	08 f4       	brcc	.+2      	; 0x3aa2 <mmc_disk_ioctl+0x76>
    3aa0:	8c c1       	rjmp	.+792    	; 0x3dba <mmc_disk_ioctl+0x38e>
    3aa2:	89 33       	cpi	r24, 0x39	; 57
    3aa4:	09 f4       	brne	.+2      	; 0x3aa8 <mmc_disk_ioctl+0x7c>
    3aa6:	60 c2       	rjmp	.+1216   	; 0x3f68 <mmc_disk_ioctl+0x53c>
    3aa8:	ac c2       	rjmp	.+1368   	; 0x4002 <mmc_disk_ioctl+0x5d6>
    {
        case CTRL_SYNC :        /* Make sure that no pending write process. Do not remove this or written sector might not left updated. */
            if (select())
    3aaa:	a2 dd       	rcall	.-1212   	; 0x35f0 <select>
    3aac:	89 2b       	or	r24, r25
    3aae:	11 f4       	brne	.+4      	; 0x3ab4 <mmc_disk_ioctl+0x88>
    if (Stat & STA_NOINIT)
    {
        return RES_NOTRDY;
    }

    res = RES_ERROR;
    3ab0:	11 e0       	ldi	r17, 0x01	; 1
    3ab2:	01 c0       	rjmp	.+2      	; 0x3ab6 <mmc_disk_ioctl+0x8a>
        case CTRL_SYNC :        /* Make sure that no pending write process. Do not remove this or written sector might not left updated. */
            if (select())
            {
                res = RES_OK;
            }
            deselect();
    3ab4:	10 e0       	ldi	r17, 0x00	; 0
    3ab6:	96 dd       	rcall	.-1236   	; 0x35e4 <deselect>
            break;
    3ab8:	81 2f       	mov	r24, r17
    3aba:	a4 c2       	rjmp	.+1352   	; 0x4004 <mmc_disk_ioctl+0x5d8>

        case GET_SECTOR_COUNT : /* Get number of sectors on the disk (DWORD) */
            if ((send_cmd(CMD9, 0) == 0) && rcvr_datablock(csd, 16))
    3abc:	40 e0       	ldi	r20, 0x00	; 0
    3abe:	50 e0       	ldi	r21, 0x00	; 0
    3ac0:	ba 01       	movw	r22, r20
    3ac2:	89 e0       	ldi	r24, 0x09	; 9
    3ac4:	f4 dd       	rcall	.-1048   	; 0x36ae <send_cmd>
    3ac6:	81 11       	cpse	r24, r1
    3ac8:	6d c0       	rjmp	.+218    	; 0x3ba4 <mmc_disk_ioctl+0x178>
    3aca:	60 e1       	ldi	r22, 0x10	; 16
    3acc:	70 e0       	ldi	r23, 0x00	; 0
    3ace:	ce 01       	movw	r24, r28
    3ad0:	01 96       	adiw	r24, 0x01	; 1
    3ad2:	a3 dd       	rcall	.-1210   	; 0x361a <rcvr_datablock>
    3ad4:	89 2b       	or	r24, r25
    3ad6:	09 f4       	brne	.+2      	; 0x3ada <mmc_disk_ioctl+0xae>
    3ad8:	67 c0       	rjmp	.+206    	; 0x3ba8 <mmc_disk_ioctl+0x17c>
            {
                if ((csd[0] >> 6) == 1)     /* SDC ver 2.00 */
    3ada:	89 81       	ldd	r24, Y+1	; 0x01
    3adc:	82 95       	swap	r24
    3ade:	86 95       	lsr	r24
    3ae0:	86 95       	lsr	r24
    3ae2:	83 70       	andi	r24, 0x03	; 3
    3ae4:	81 30       	cpi	r24, 0x01	; 1
    3ae6:	31 f5       	brne	.+76     	; 0x3b34 <mmc_disk_ioctl+0x108>
                {
                    csize = csd[9] + ((WORD)csd[8] << 8) + ((DWORD)(csd[7] & 63) << 16) + 1;
    3ae8:	8a 85       	ldd	r24, Y+10	; 0x0a
    3aea:	29 85       	ldd	r18, Y+9	; 0x09
    3aec:	30 e0       	ldi	r19, 0x00	; 0
    3aee:	32 2f       	mov	r19, r18
    3af0:	22 27       	eor	r18, r18
    3af2:	28 0f       	add	r18, r24
    3af4:	31 1d       	adc	r19, r1
    3af6:	88 85       	ldd	r24, Y+8	; 0x08
    3af8:	8f 73       	andi	r24, 0x3F	; 63
    3afa:	90 e0       	ldi	r25, 0x00	; 0
    3afc:	a0 e0       	ldi	r26, 0x00	; 0
    3afe:	b0 e0       	ldi	r27, 0x00	; 0
    3b00:	dc 01       	movw	r26, r24
    3b02:	99 27       	eor	r25, r25
    3b04:	88 27       	eor	r24, r24
    3b06:	82 0f       	add	r24, r18
    3b08:	93 1f       	adc	r25, r19
    3b0a:	a1 1d       	adc	r26, r1
    3b0c:	b1 1d       	adc	r27, r1
    3b0e:	01 96       	adiw	r24, 0x01	; 1
    3b10:	a1 1d       	adc	r26, r1
    3b12:	b1 1d       	adc	r27, r1
                    *(LBA_t*)buff = csize << 10;
    3b14:	07 2e       	mov	r0, r23
    3b16:	7a e0       	ldi	r23, 0x0A	; 10
    3b18:	88 0f       	add	r24, r24
    3b1a:	99 1f       	adc	r25, r25
    3b1c:	aa 1f       	adc	r26, r26
    3b1e:	bb 1f       	adc	r27, r27
    3b20:	7a 95       	dec	r23
    3b22:	d1 f7       	brne	.-12     	; 0x3b18 <mmc_disk_ioctl+0xec>
    3b24:	70 2d       	mov	r23, r0
    3b26:	f8 01       	movw	r30, r16
    3b28:	80 83       	st	Z, r24
    3b2a:	91 83       	std	Z+1, r25	; 0x01
    3b2c:	a2 83       	std	Z+2, r26	; 0x02
    3b2e:	b3 83       	std	Z+3, r27	; 0x03
                {
                    n = (csd[5] & 15) + ((csd[10] & 128) >> 7) + ((csd[9] & 3) << 1) + 2;
                    csize = (csd[8] >> 6) + ((WORD)csd[7] << 2) + ((WORD)(csd[6] & 3) << 10) + 1;
                    *(LBA_t*)buff = csize << (n - 9);
                }
                res = RES_OK;
    3b30:	10 e0       	ldi	r17, 0x00	; 0
    3b32:	3b c0       	rjmp	.+118    	; 0x3baa <mmc_disk_ioctl+0x17e>
                    csize = csd[9] + ((WORD)csd[8] << 8) + ((DWORD)(csd[7] & 63) << 16) + 1;
                    *(LBA_t*)buff = csize << 10;
                }
                else                        /* SDC ver 1.XX or MMC*/
                {
                    n = (csd[5] & 15) + ((csd[10] & 128) >> 7) + ((csd[9] & 3) << 1) + 2;
    3b34:	2e 81       	ldd	r18, Y+6	; 0x06
    3b36:	9b 85       	ldd	r25, Y+11	; 0x0b
    3b38:	99 1f       	adc	r25, r25
    3b3a:	99 27       	eor	r25, r25
    3b3c:	99 1f       	adc	r25, r25
    3b3e:	8a 85       	ldd	r24, Y+10	; 0x0a
    3b40:	2f 70       	andi	r18, 0x0F	; 15
    3b42:	29 0f       	add	r18, r25
    3b44:	83 70       	andi	r24, 0x03	; 3
    3b46:	88 0f       	add	r24, r24
    3b48:	28 0f       	add	r18, r24
    3b4a:	2e 5f       	subi	r18, 0xFE	; 254
                    csize = (csd[8] >> 6) + ((WORD)csd[7] << 2) + ((WORD)(csd[6] & 3) << 10) + 1;
    3b4c:	39 85       	ldd	r19, Y+9	; 0x09
    3b4e:	88 85       	ldd	r24, Y+8	; 0x08
    3b50:	90 e0       	ldi	r25, 0x00	; 0
    3b52:	88 0f       	add	r24, r24
    3b54:	99 1f       	adc	r25, r25
    3b56:	88 0f       	add	r24, r24
    3b58:	99 1f       	adc	r25, r25
    3b5a:	32 95       	swap	r19
    3b5c:	36 95       	lsr	r19
    3b5e:	36 95       	lsr	r19
    3b60:	33 70       	andi	r19, 0x03	; 3
    3b62:	ac 01       	movw	r20, r24
    3b64:	43 0f       	add	r20, r19
    3b66:	51 1d       	adc	r21, r1
    3b68:	9f 81       	ldd	r25, Y+7	; 0x07
    3b6a:	93 70       	andi	r25, 0x03	; 3
    3b6c:	89 2f       	mov	r24, r25
    3b6e:	90 e0       	ldi	r25, 0x00	; 0
    3b70:	98 2f       	mov	r25, r24
    3b72:	88 27       	eor	r24, r24
    3b74:	99 0f       	add	r25, r25
    3b76:	99 0f       	add	r25, r25
    3b78:	84 0f       	add	r24, r20
    3b7a:	95 1f       	adc	r25, r21
    3b7c:	01 96       	adiw	r24, 0x01	; 1
    3b7e:	a0 e0       	ldi	r26, 0x00	; 0
    3b80:	b0 e0       	ldi	r27, 0x00	; 0
                    *(LBA_t*)buff = csize << (n - 9);
    3b82:	30 e0       	ldi	r19, 0x00	; 0
    3b84:	29 50       	subi	r18, 0x09	; 9
    3b86:	31 09       	sbc	r19, r1
    3b88:	04 c0       	rjmp	.+8      	; 0x3b92 <mmc_disk_ioctl+0x166>
    3b8a:	88 0f       	add	r24, r24
    3b8c:	99 1f       	adc	r25, r25
    3b8e:	aa 1f       	adc	r26, r26
    3b90:	bb 1f       	adc	r27, r27
    3b92:	2a 95       	dec	r18
    3b94:	d2 f7       	brpl	.-12     	; 0x3b8a <mmc_disk_ioctl+0x15e>
    3b96:	f8 01       	movw	r30, r16
    3b98:	80 83       	st	Z, r24
    3b9a:	91 83       	std	Z+1, r25	; 0x01
    3b9c:	a2 83       	std	Z+2, r26	; 0x02
    3b9e:	b3 83       	std	Z+3, r27	; 0x03
                }
                res = RES_OK;
    3ba0:	10 e0       	ldi	r17, 0x00	; 0
    if (Stat & STA_NOINIT)
    {
        return RES_NOTRDY;
    }

    res = RES_ERROR;
    3ba2:	03 c0       	rjmp	.+6      	; 0x3baa <mmc_disk_ioctl+0x17e>
    3ba4:	11 e0       	ldi	r17, 0x01	; 1
    3ba6:	01 c0       	rjmp	.+2      	; 0x3baa <mmc_disk_ioctl+0x17e>
                    csize = (csd[8] >> 6) + ((WORD)csd[7] << 2) + ((WORD)(csd[6] & 3) << 10) + 1;
                    *(LBA_t*)buff = csize << (n - 9);
                }
                res = RES_OK;
            }
            deselect();
    3ba8:	11 e0       	ldi	r17, 0x01	; 1
    3baa:	1c dd       	rcall	.-1480   	; 0x35e4 <deselect>
            break;
    3bac:	81 2f       	mov	r24, r17
    3bae:	2a c2       	rjmp	.+1108   	; 0x4004 <mmc_disk_ioctl+0x5d8>

        case GET_BLOCK_SIZE :   /* Get erase block size in unit of sector (DWORD) */
            if (CardType & CT_SDC2)     /* SDv2? */
    3bb0:	80 91 05 06 	lds	r24, 0x0605	; 0x800605 <CardType>
    3bb4:	83 ff       	sbrs	r24, 3
            {
                if (send_cmd(ACMD13, 0) == 0)   /* Read SD status */
    3bb6:	31 c0       	rjmp	.+98     	; 0x3c1a <mmc_disk_ioctl+0x1ee>
    3bb8:	40 e0       	ldi	r20, 0x00	; 0
    3bba:	50 e0       	ldi	r21, 0x00	; 0
    3bbc:	ba 01       	movw	r22, r20
    3bbe:	8d e8       	ldi	r24, 0x8D	; 141
    3bc0:	76 dd       	rcall	.-1300   	; 0x36ae <send_cmd>
    3bc2:	81 11       	cpse	r24, r1
                {
                    xchg_spi(0xFF);
    3bc4:	86 c0       	rjmp	.+268    	; 0x3cd2 <mmc_disk_ioctl+0x2a6>
    3bc6:	8f ef       	ldi	r24, 0xFF	; 255
                    if (rcvr_datablock(csd, 16))                /* Read partial block */
    3bc8:	b7 dc       	rcall	.-1682   	; 0x3538 <xchg_spi>
    3bca:	60 e1       	ldi	r22, 0x10	; 16
    3bcc:	70 e0       	ldi	r23, 0x00	; 0
    3bce:	ce 01       	movw	r24, r28
    3bd0:	01 96       	adiw	r24, 0x01	; 1
    3bd2:	23 dd       	rcall	.-1466   	; 0x361a <rcvr_datablock>
    3bd4:	89 2b       	or	r24, r25
    if (Stat & STA_NOINIT)
    {
        return RES_NOTRDY;
    }

    res = RES_ERROR;
    3bd6:	31 f4       	brne	.+12     	; 0x3be4 <mmc_disk_ioctl+0x1b8>
    3bd8:	11 e0       	ldi	r17, 0x01	; 1
                    xchg_spi(0xFF);
                    if (rcvr_datablock(csd, 16))                /* Read partial block */
                    {
                        for (n = 64 - 16; n; n--)
                        {
                            xchg_spi(0xFF);    /* Purge trailing data */
    3bda:	80 c0       	rjmp	.+256    	; 0x3cdc <mmc_disk_ioctl+0x2b0>
    3bdc:	8f ef       	ldi	r24, 0xFF	; 255
    3bde:	ac dc       	rcall	.-1704   	; 0x3538 <xchg_spi>
                if (send_cmd(ACMD13, 0) == 0)   /* Read SD status */
                {
                    xchg_spi(0xFF);
                    if (rcvr_datablock(csd, 16))                /* Read partial block */
                    {
                        for (n = 64 - 16; n; n--)
    3be0:	fa 94       	dec	r15
    3be2:	04 c0       	rjmp	.+8      	; 0x3bec <mmc_disk_ioctl+0x1c0>
    3be4:	0f 2e       	mov	r0, r31
    3be6:	f0 e3       	ldi	r31, 0x30	; 48
    3be8:	ff 2e       	mov	r15, r31
    3bea:	f0 2d       	mov	r31, r0
    3bec:	f1 10       	cpse	r15, r1
    3bee:	f6 cf       	rjmp	.-20     	; 0x3bdc <mmc_disk_ioctl+0x1b0>
                        {
                            xchg_spi(0xFF);    /* Purge trailing data */
                        }
                        *(DWORD*)buff = 16UL << (csd[10] >> 4);
    3bf0:	2b 85       	ldd	r18, Y+11	; 0x0b
    3bf2:	22 95       	swap	r18
    3bf4:	2f 70       	andi	r18, 0x0F	; 15
    3bf6:	80 e1       	ldi	r24, 0x10	; 16
    3bf8:	90 e0       	ldi	r25, 0x00	; 0
    3bfa:	a0 e0       	ldi	r26, 0x00	; 0
    3bfc:	b0 e0       	ldi	r27, 0x00	; 0
    3bfe:	04 c0       	rjmp	.+8      	; 0x3c08 <mmc_disk_ioctl+0x1dc>
    3c00:	88 0f       	add	r24, r24
    3c02:	99 1f       	adc	r25, r25
    3c04:	aa 1f       	adc	r26, r26
    3c06:	bb 1f       	adc	r27, r27
    3c08:	2a 95       	dec	r18
    3c0a:	d2 f7       	brpl	.-12     	; 0x3c00 <mmc_disk_ioctl+0x1d4>
    3c0c:	f8 01       	movw	r30, r16
    3c0e:	80 83       	st	Z, r24
    3c10:	91 83       	std	Z+1, r25	; 0x01
    3c12:	a2 83       	std	Z+2, r26	; 0x02
                        res = RES_OK;
    3c14:	b3 83       	std	Z+3, r27	; 0x03
    3c16:	10 e0       	ldi	r17, 0x00	; 0
                    }
                }
            }
            else                        /* SDv1 or MMCv3 */
            {
                if ((send_cmd(CMD9, 0) == 0) && rcvr_datablock(csd, 16))    /* Read CSD */
    3c18:	61 c0       	rjmp	.+194    	; 0x3cdc <mmc_disk_ioctl+0x2b0>
    3c1a:	40 e0       	ldi	r20, 0x00	; 0
    3c1c:	50 e0       	ldi	r21, 0x00	; 0
    3c1e:	ba 01       	movw	r22, r20
    3c20:	89 e0       	ldi	r24, 0x09	; 9
    3c22:	45 dd       	rcall	.-1398   	; 0x36ae <send_cmd>
    3c24:	81 11       	cpse	r24, r1
    3c26:	57 c0       	rjmp	.+174    	; 0x3cd6 <mmc_disk_ioctl+0x2aa>
    3c28:	60 e1       	ldi	r22, 0x10	; 16
    3c2a:	70 e0       	ldi	r23, 0x00	; 0
    3c2c:	ce 01       	movw	r24, r28
    3c2e:	01 96       	adiw	r24, 0x01	; 1
    3c30:	f4 dc       	rcall	.-1560   	; 0x361a <rcvr_datablock>
    3c32:	89 2b       	or	r24, r25
    3c34:	09 f4       	brne	.+2      	; 0x3c38 <mmc_disk_ioctl+0x20c>
    3c36:	51 c0       	rjmp	.+162    	; 0x3cda <mmc_disk_ioctl+0x2ae>
                {
                    if (CardType & CT_SDC1)     /* SDv1 */
    3c38:	80 91 05 06 	lds	r24, 0x0605	; 0x800605 <CardType>
    3c3c:	82 ff       	sbrs	r24, 2
    3c3e:	1f c0       	rjmp	.+62     	; 0x3c7e <mmc_disk_ioctl+0x252>
                    {
                        *(DWORD*)buff = (((csd[10] & 63) << 1) + ((WORD)(csd[11] & 128) >> 7) + 1) << ((
    3c40:	8b 85       	ldd	r24, Y+11	; 0x0b
    3c42:	8f 73       	andi	r24, 0x3F	; 63
    3c44:	90 e0       	ldi	r25, 0x00	; 0
    3c46:	88 0f       	add	r24, r24
    3c48:	99 1f       	adc	r25, r25
    3c4a:	2c 85       	ldd	r18, Y+12	; 0x0c
    3c4c:	27 fd       	sbrc	r18, 7
    3c4e:	01 96       	adiw	r24, 0x01	; 1
    3c50:	01 96       	adiw	r24, 0x01	; 1
                                            csd[13] >> 6) - 1);
    3c52:	2e 85       	ldd	r18, Y+14	; 0x0e
    3c54:	22 95       	swap	r18
    3c56:	26 95       	lsr	r18
    3c58:	26 95       	lsr	r18
    3c5a:	23 70       	andi	r18, 0x03	; 3
    3c5c:	30 e0       	ldi	r19, 0x00	; 0
    3c5e:	21 50       	subi	r18, 0x01	; 1
    3c60:	31 09       	sbc	r19, r1
            {
                if ((send_cmd(CMD9, 0) == 0) && rcvr_datablock(csd, 16))    /* Read CSD */
                {
                    if (CardType & CT_SDC1)     /* SDv1 */
                    {
                        *(DWORD*)buff = (((csd[10] & 63) << 1) + ((WORD)(csd[11] & 128) >> 7) + 1) << ((
    3c62:	02 c0       	rjmp	.+4      	; 0x3c68 <mmc_disk_ioctl+0x23c>
    3c64:	88 0f       	add	r24, r24
    3c66:	99 1f       	adc	r25, r25
    3c68:	2a 95       	dec	r18
    3c6a:	e2 f7       	brpl	.-8      	; 0x3c64 <mmc_disk_ioctl+0x238>
    3c6c:	a0 e0       	ldi	r26, 0x00	; 0
    3c6e:	b0 e0       	ldi	r27, 0x00	; 0
    3c70:	f8 01       	movw	r30, r16
    3c72:	80 83       	st	Z, r24
    3c74:	91 83       	std	Z+1, r25	; 0x01
    3c76:	a2 83       	std	Z+2, r26	; 0x02
    3c78:	b3 83       	std	Z+3, r27	; 0x03
                    else                        /* MMCv3 */
                    {
                        *(DWORD*)buff = ((WORD)((csd[10] & 124) >> 2) + 1) * (((csd[11] & 3) << 3) + ((
                                            csd[11] & 224) >> 5) + 1);
                    }
                    res = RES_OK;
    3c7a:	10 e0       	ldi	r17, 0x00	; 0
    3c7c:	2f c0       	rjmp	.+94     	; 0x3cdc <mmc_disk_ioctl+0x2b0>
                        *(DWORD*)buff = (((csd[10] & 63) << 1) + ((WORD)(csd[11] & 128) >> 7) + 1) << ((
                                            csd[13] >> 6) - 1);
                    }
                    else                        /* MMCv3 */
                    {
                        *(DWORD*)buff = ((WORD)((csd[10] & 124) >> 2) + 1) * (((csd[11] & 3) << 3) + ((
    3c7e:	8b 85       	ldd	r24, Y+11	; 0x0b
    3c80:	8c 77       	andi	r24, 0x7C	; 124
    3c82:	90 e0       	ldi	r25, 0x00	; 0
    3c84:	95 95       	asr	r25
    3c86:	87 95       	ror	r24
    3c88:	95 95       	asr	r25
    3c8a:	87 95       	ror	r24
    3c8c:	01 96       	adiw	r24, 0x01	; 1
    3c8e:	4c 85       	ldd	r20, Y+12	; 0x0c
    3c90:	24 2f       	mov	r18, r20
    3c92:	23 70       	andi	r18, 0x03	; 3
    3c94:	30 e0       	ldi	r19, 0x00	; 0
    3c96:	22 0f       	add	r18, r18
    3c98:	33 1f       	adc	r19, r19
    3c9a:	22 0f       	add	r18, r18
    3c9c:	33 1f       	adc	r19, r19
    3c9e:	22 0f       	add	r18, r18
    3ca0:	33 1f       	adc	r19, r19
                                            csd[11] & 224) >> 5) + 1);
    3ca2:	42 95       	swap	r20
    3ca4:	46 95       	lsr	r20
    3ca6:	47 70       	andi	r20, 0x07	; 7
                        *(DWORD*)buff = (((csd[10] & 63) << 1) + ((WORD)(csd[11] & 128) >> 7) + 1) << ((
                                            csd[13] >> 6) - 1);
                    }
                    else                        /* MMCv3 */
                    {
                        *(DWORD*)buff = ((WORD)((csd[10] & 124) >> 2) + 1) * (((csd[11] & 3) << 3) + ((
    3ca8:	24 0f       	add	r18, r20
    3caa:	31 1d       	adc	r19, r1
                                            csd[11] & 224) >> 5) + 1);
    3cac:	2f 5f       	subi	r18, 0xFF	; 255
    3cae:	3f 4f       	sbci	r19, 0xFF	; 255
                        *(DWORD*)buff = (((csd[10] & 63) << 1) + ((WORD)(csd[11] & 128) >> 7) + 1) << ((
                                            csd[13] >> 6) - 1);
                    }
                    else                        /* MMCv3 */
                    {
                        *(DWORD*)buff = ((WORD)((csd[10] & 124) >> 2) + 1) * (((csd[11] & 3) << 3) + ((
    3cb0:	28 9f       	mul	r18, r24
    3cb2:	a0 01       	movw	r20, r0
    3cb4:	29 9f       	mul	r18, r25
    3cb6:	50 0d       	add	r21, r0
    3cb8:	38 9f       	mul	r19, r24
    3cba:	50 0d       	add	r21, r0
    3cbc:	11 24       	eor	r1, r1
    3cbe:	ca 01       	movw	r24, r20
    3cc0:	a0 e0       	ldi	r26, 0x00	; 0
    3cc2:	b0 e0       	ldi	r27, 0x00	; 0
    3cc4:	f8 01       	movw	r30, r16
    3cc6:	80 83       	st	Z, r24
    3cc8:	91 83       	std	Z+1, r25	; 0x01
    3cca:	a2 83       	std	Z+2, r26	; 0x02
                                            csd[11] & 224) >> 5) + 1);
                    }
                    res = RES_OK;
    3ccc:	b3 83       	std	Z+3, r27	; 0x03
    3cce:	10 e0       	ldi	r17, 0x00	; 0
    if (Stat & STA_NOINIT)
    {
        return RES_NOTRDY;
    }

    res = RES_ERROR;
    3cd0:	05 c0       	rjmp	.+10     	; 0x3cdc <mmc_disk_ioctl+0x2b0>
    3cd2:	11 e0       	ldi	r17, 0x01	; 1
    3cd4:	03 c0       	rjmp	.+6      	; 0x3cdc <mmc_disk_ioctl+0x2b0>
    3cd6:	11 e0       	ldi	r17, 0x01	; 1
    3cd8:	01 c0       	rjmp	.+2      	; 0x3cdc <mmc_disk_ioctl+0x2b0>
                                            csd[11] & 224) >> 5) + 1);
                    }
                    res = RES_OK;
                }
            }
            deselect();
    3cda:	11 e0       	ldi	r17, 0x01	; 1
    3cdc:	83 dc       	rcall	.-1786   	; 0x35e4 <deselect>
            break;
    3cde:	81 2f       	mov	r24, r17
            break;
#endif
        /* Following commands are never used by FatFs module */

        case MMC_GET_TYPE :     /* Get card type flags (1 byte) */
            *ptr = CardType;
    3ce0:	91 c1       	rjmp	.+802    	; 0x4004 <mmc_disk_ioctl+0x5d8>
    3ce2:	80 91 05 06 	lds	r24, 0x0605	; 0x800605 <CardType>
    3ce6:	db 01       	movw	r26, r22
            res = RES_OK;
            break;
    3ce8:	8c 93       	st	X, r24

        case MMC_GET_CSD :      /* Receive CSD as a data block (16 bytes) */
            if (send_cmd(CMD9, 0) == 0 && rcvr_datablock(ptr, 16))      /* READ_CSD */
    3cea:	80 e0       	ldi	r24, 0x00	; 0
    3cec:	8b c1       	rjmp	.+790    	; 0x4004 <mmc_disk_ioctl+0x5d8>
    3cee:	40 e0       	ldi	r20, 0x00	; 0
    3cf0:	50 e0       	ldi	r21, 0x00	; 0
    3cf2:	ba 01       	movw	r22, r20
    3cf4:	89 e0       	ldi	r24, 0x09	; 9
    3cf6:	db dc       	rcall	.-1610   	; 0x36ae <send_cmd>
    3cf8:	81 11       	cpse	r24, r1
    3cfa:	08 c0       	rjmp	.+16     	; 0x3d0c <mmc_disk_ioctl+0x2e0>
    3cfc:	60 e1       	ldi	r22, 0x10	; 16
    3cfe:	70 e0       	ldi	r23, 0x00	; 0
    3d00:	c8 01       	movw	r24, r16
    3d02:	8b dc       	rcall	.-1770   	; 0x361a <rcvr_datablock>
    if (Stat & STA_NOINIT)
    {
        return RES_NOTRDY;
    }

    res = RES_ERROR;
    3d04:	89 2b       	or	r24, r25
    3d06:	21 f4       	brne	.+8      	; 0x3d10 <mmc_disk_ioctl+0x2e4>
    3d08:	11 e0       	ldi	r17, 0x01	; 1
    3d0a:	03 c0       	rjmp	.+6      	; 0x3d12 <mmc_disk_ioctl+0x2e6>
        case MMC_GET_CSD :      /* Receive CSD as a data block (16 bytes) */
            if (send_cmd(CMD9, 0) == 0 && rcvr_datablock(ptr, 16))      /* READ_CSD */
            {
                res = RES_OK;
            }
            deselect();
    3d0c:	11 e0       	ldi	r17, 0x01	; 1
    3d0e:	01 c0       	rjmp	.+2      	; 0x3d12 <mmc_disk_ioctl+0x2e6>
            break;
    3d10:	10 e0       	ldi	r17, 0x00	; 0
    3d12:	68 dc       	rcall	.-1840   	; 0x35e4 <deselect>

        case MMC_GET_CID :      /* Receive CID as a data block (16 bytes) */
            if (send_cmd(CMD10, 0) == 0 && rcvr_datablock(ptr, 16))     /* READ_CID */
    3d14:	81 2f       	mov	r24, r17
    3d16:	76 c1       	rjmp	.+748    	; 0x4004 <mmc_disk_ioctl+0x5d8>
    3d18:	40 e0       	ldi	r20, 0x00	; 0
    3d1a:	50 e0       	ldi	r21, 0x00	; 0
    3d1c:	ba 01       	movw	r22, r20
    3d1e:	8a e0       	ldi	r24, 0x0A	; 10
    3d20:	c6 dc       	rcall	.-1652   	; 0x36ae <send_cmd>
    3d22:	81 11       	cpse	r24, r1
    3d24:	08 c0       	rjmp	.+16     	; 0x3d36 <mmc_disk_ioctl+0x30a>
    3d26:	60 e1       	ldi	r22, 0x10	; 16
    3d28:	70 e0       	ldi	r23, 0x00	; 0
    3d2a:	c8 01       	movw	r24, r16
    3d2c:	76 dc       	rcall	.-1812   	; 0x361a <rcvr_datablock>
    if (Stat & STA_NOINIT)
    {
        return RES_NOTRDY;
    }

    res = RES_ERROR;
    3d2e:	89 2b       	or	r24, r25
    3d30:	21 f4       	brne	.+8      	; 0x3d3a <mmc_disk_ioctl+0x30e>
    3d32:	11 e0       	ldi	r17, 0x01	; 1
    3d34:	03 c0       	rjmp	.+6      	; 0x3d3c <mmc_disk_ioctl+0x310>
            break;

        case MMC_GET_CID :      /* Receive CID as a data block (16 bytes) */
            if (send_cmd(CMD10, 0) == 0 && rcvr_datablock(ptr, 16))     /* READ_CID */
            {
                res = RES_OK;
    3d36:	11 e0       	ldi	r17, 0x01	; 1
            }
            deselect();
    3d38:	01 c0       	rjmp	.+2      	; 0x3d3c <mmc_disk_ioctl+0x310>
            break;
    3d3a:	10 e0       	ldi	r17, 0x00	; 0
    3d3c:	53 dc       	rcall	.-1882   	; 0x35e4 <deselect>

        case MMC_GET_OCR :      /* Receive OCR as an R3 resp (4 bytes) */
            if (send_cmd(CMD58, 0) == 0)    /* READ_OCR */
    3d3e:	81 2f       	mov	r24, r17
    3d40:	61 c1       	rjmp	.+706    	; 0x4004 <mmc_disk_ioctl+0x5d8>
    3d42:	40 e0       	ldi	r20, 0x00	; 0
    3d44:	50 e0       	ldi	r21, 0x00	; 0
    3d46:	ba 01       	movw	r22, r20
    3d48:	8a e3       	ldi	r24, 0x3A	; 58
    3d4a:	b1 dc       	rcall	.-1694   	; 0x36ae <send_cmd>
    3d4c:	88 23       	and	r24, r24
    if (Stat & STA_NOINIT)
    {
        return RES_NOTRDY;
    }

    res = RES_ERROR;
    3d4e:	69 f0       	breq	.+26     	; 0x3d6a <mmc_disk_ioctl+0x33e>
        case MMC_GET_OCR :      /* Receive OCR as an R3 resp (4 bytes) */
            if (send_cmd(CMD58, 0) == 0)    /* READ_OCR */
            {
                for (n = 4; n; n--)
                {
                    *ptr++ = xchg_spi(0xFF);
    3d50:	11 e0       	ldi	r17, 0x01	; 1
    3d52:	11 c0       	rjmp	.+34     	; 0x3d76 <mmc_disk_ioctl+0x34a>
    3d54:	68 01       	movw	r12, r16
    3d56:	bf ef       	ldi	r27, 0xFF	; 255
    3d58:	cb 1a       	sub	r12, r27
    3d5a:	db 0a       	sbc	r13, r27
    3d5c:	8f ef       	ldi	r24, 0xFF	; 255
    3d5e:	ec db       	rcall	.-2088   	; 0x3538 <xchg_spi>
    3d60:	f8 01       	movw	r30, r16
    3d62:	80 83       	st	Z, r24
    3d64:	fa 94       	dec	r15
    3d66:	86 01       	movw	r16, r12
            break;

        case MMC_GET_OCR :      /* Receive OCR as an R3 resp (4 bytes) */
            if (send_cmd(CMD58, 0) == 0)    /* READ_OCR */
            {
                for (n = 4; n; n--)
    3d68:	03 c0       	rjmp	.+6      	; 0x3d70 <mmc_disk_ioctl+0x344>
    3d6a:	68 94       	set
                {
                    *ptr++ = xchg_spi(0xFF);
                }
                res = RES_OK;
    3d6c:	ff 24       	eor	r15, r15
            }
            deselect();
    3d6e:	f2 f8       	bld	r15, 2
    3d70:	f1 10       	cpse	r15, r1
            break;
    3d72:	f0 cf       	rjmp	.-32     	; 0x3d54 <mmc_disk_ioctl+0x328>

        case MMC_GET_SDSTAT :   /* Receive SD statsu as a data block (64 bytes) */
            if (send_cmd(ACMD13, 0) == 0)   /* SD_STATUS */
    3d74:	10 e0       	ldi	r17, 0x00	; 0
    3d76:	36 dc       	rcall	.-1940   	; 0x35e4 <deselect>
    3d78:	81 2f       	mov	r24, r17
    3d7a:	44 c1       	rjmp	.+648    	; 0x4004 <mmc_disk_ioctl+0x5d8>
    3d7c:	40 e0       	ldi	r20, 0x00	; 0
    3d7e:	50 e0       	ldi	r21, 0x00	; 0
    3d80:	ba 01       	movw	r22, r20
            {
                xchg_spi(0xFF);
    3d82:	8d e8       	ldi	r24, 0x8D	; 141
    3d84:	94 dc       	rcall	.-1752   	; 0x36ae <send_cmd>
    3d86:	81 11       	cpse	r24, r1
                if (rcvr_datablock(ptr, 64))
    3d88:	0a c0       	rjmp	.+20     	; 0x3d9e <mmc_disk_ioctl+0x372>
    3d8a:	8f ef       	ldi	r24, 0xFF	; 255
    3d8c:	d5 db       	rcall	.-2134   	; 0x3538 <xchg_spi>
    3d8e:	60 e4       	ldi	r22, 0x40	; 64
    3d90:	70 e0       	ldi	r23, 0x00	; 0
    3d92:	c8 01       	movw	r24, r16
    3d94:	42 dc       	rcall	.-1916   	; 0x361a <rcvr_datablock>
    if (Stat & STA_NOINIT)
    {
        return RES_NOTRDY;
    }

    res = RES_ERROR;
    3d96:	89 2b       	or	r24, r25
    3d98:	21 f4       	brne	.+8      	; 0x3da2 <mmc_disk_ioctl+0x376>
    3d9a:	11 e0       	ldi	r17, 0x01	; 1
    3d9c:	03 c0       	rjmp	.+6      	; 0x3da4 <mmc_disk_ioctl+0x378>
            if (send_cmd(ACMD13, 0) == 0)   /* SD_STATUS */
            {
                xchg_spi(0xFF);
                if (rcvr_datablock(ptr, 64))
                {
                    res = RES_OK;
    3d9e:	11 e0       	ldi	r17, 0x01	; 1
                }
            }
            deselect();
    3da0:	01 c0       	rjmp	.+2      	; 0x3da4 <mmc_disk_ioctl+0x378>
    3da2:	10 e0       	ldi	r17, 0x00	; 0
            break;
    3da4:	1f dc       	rcall	.-1986   	; 0x35e4 <deselect>
    3da6:	81 2f       	mov	r24, r17

        case CTRL_POWER_OFF :   /* Power off */
            power_off();
    3da8:	2d c1       	rjmp	.+602    	; 0x4004 <mmc_disk_ioctl+0x5d8>
    3daa:	be db       	rcall	.-2180   	; 0x3528 <power_off>
            Stat |= STA_NOINIT;
    3dac:	80 91 78 01 	lds	r24, 0x0178	; 0x800178 <Stat>
    3db0:	81 60       	ori	r24, 0x01	; 1
    3db2:	80 93 78 01 	sts	0x0178, r24	; 0x800178 <Stat>
            res = RES_OK;
    3db6:	80 e0       	ldi	r24, 0x00	; 0
            break;
    3db8:	25 c1       	rjmp	.+586    	; 0x4004 <mmc_disk_ioctl+0x5d8>
#if _USE_ISDIO
        case ISDIO_READ:
            sdi = buff;
            if (send_cmd(CMD48, 0x80000000 | (DWORD)sdi->func << 28 |
    3dba:	db 01       	movw	r26, r22
    3dbc:	4c 91       	ld	r20, X
    3dbe:	50 e0       	ldi	r21, 0x00	; 0
    3dc0:	60 e0       	ldi	r22, 0x00	; 0
    3dc2:	70 e0       	ldi	r23, 0x00	; 0
    3dc4:	03 2e       	mov	r0, r19
    3dc6:	3c e1       	ldi	r19, 0x1C	; 28
    3dc8:	44 0f       	add	r20, r20
    3dca:	55 1f       	adc	r21, r21
    3dcc:	66 1f       	adc	r22, r22
    3dce:	77 1f       	adc	r23, r23
    3dd0:	3a 95       	dec	r19
    3dd2:	d1 f7       	brne	.-12     	; 0x3dc8 <mmc_disk_ioctl+0x39c>
    3dd4:	30 2d       	mov	r19, r0
                         (DWORD)sdi->addr << 9 | ((sdi->ndata - 1) & 0x1FF)) == 0)
    3dd6:	13 96       	adiw	r26, 0x03	; 3
    3dd8:	8d 91       	ld	r24, X+
    3dda:	9d 91       	ld	r25, X+
    3ddc:	0d 90       	ld	r0, X+
    3dde:	bc 91       	ld	r27, X
    3de0:	a0 2d       	mov	r26, r0
    3de2:	07 2e       	mov	r0, r23
    3de4:	79 e0       	ldi	r23, 0x09	; 9
    3de6:	88 0f       	add	r24, r24
    3de8:	99 1f       	adc	r25, r25
    3dea:	aa 1f       	adc	r26, r26
    3dec:	bb 1f       	adc	r27, r27
    3dee:	7a 95       	dec	r23
            res = RES_OK;
            break;
#if _USE_ISDIO
        case ISDIO_READ:
            sdi = buff;
            if (send_cmd(CMD48, 0x80000000 | (DWORD)sdi->func << 28 |
    3df0:	d1 f7       	brne	.-12     	; 0x3de6 <mmc_disk_ioctl+0x3ba>
    3df2:	70 2d       	mov	r23, r0
    3df4:	48 2b       	or	r20, r24
    3df6:	59 2b       	or	r21, r25
                         (DWORD)sdi->addr << 9 | ((sdi->ndata - 1) & 0x1FF)) == 0)
    3df8:	6a 2b       	or	r22, r26
    3dfa:	7b 2b       	or	r23, r27
    3dfc:	f8 01       	movw	r30, r16
    3dfe:	81 81       	ldd	r24, Z+1	; 0x01
    3e00:	92 81       	ldd	r25, Z+2	; 0x02
    3e02:	01 97       	sbiw	r24, 0x01	; 1
    3e04:	91 70       	andi	r25, 0x01	; 1
    3e06:	a0 e0       	ldi	r26, 0x00	; 0
    3e08:	b0 e0       	ldi	r27, 0x00	; 0
    3e0a:	48 2b       	or	r20, r24
    3e0c:	59 2b       	or	r21, r25
            res = RES_OK;
            break;
#if _USE_ISDIO
        case ISDIO_READ:
            sdi = buff;
            if (send_cmd(CMD48, 0x80000000 | (DWORD)sdi->func << 28 |
    3e0e:	6a 2b       	or	r22, r26
    3e10:	7b 2b       	or	r23, r27
    3e12:	70 68       	ori	r23, 0x80	; 128
    3e14:	80 e3       	ldi	r24, 0x30	; 48
    3e16:	4b dc       	rcall	.-1898   	; 0x36ae <send_cmd>
    3e18:	81 11       	cpse	r24, r1
                         (DWORD)sdi->addr << 9 | ((sdi->ndata - 1) & 0x1FF)) == 0)
            {
                for (Timer1 = 100; (rc = xchg_spi(0xFF)) == 0xFF && Timer1; ) ;
    3e1a:	39 c0       	rjmp	.+114    	; 0x3e8e <mmc_disk_ioctl+0x462>
    3e1c:	84 e6       	ldi	r24, 0x64	; 100
    3e1e:	80 93 08 06 	sts	0x0608, r24	; 0x800608 <Timer1>
    3e22:	8f ef       	ldi	r24, 0xFF	; 255
    3e24:	89 db       	rcall	.-2286   	; 0x3538 <xchg_spi>
    3e26:	8f 3f       	cpi	r24, 0xFF	; 255
    3e28:	21 f4       	brne	.+8      	; 0x3e32 <mmc_disk_ioctl+0x406>
    3e2a:	90 91 08 06 	lds	r25, 0x0608	; 0x800608 <Timer1>
    3e2e:	91 11       	cpse	r25, r1
                if (rc == 0xFE)
    3e30:	f8 cf       	rjmp	.-16     	; 0x3e22 <mmc_disk_ioctl+0x3f6>
    3e32:	8e 3f       	cpi	r24, 0xFE	; 254
                {
                    for (bp = sdi->data, dc = sdi->ndata; dc; dc--)
    3e34:	71 f5       	brne	.+92     	; 0x3e92 <mmc_disk_ioctl+0x466>
    3e36:	d8 01       	movw	r26, r16
    3e38:	17 96       	adiw	r26, 0x07	; 7
    3e3a:	cd 90       	ld	r12, X+
    3e3c:	dc 90       	ld	r13, X
    3e3e:	18 97       	sbiw	r26, 0x08	; 8
    3e40:	11 96       	adiw	r26, 0x01	; 1
    3e42:	ed 90       	ld	r14, X+
    3e44:	fc 90       	ld	r15, X
                    {
                        *bp++ = xchg_spi(0xFF);
    3e46:	12 97       	sbiw	r26, 0x02	; 2
    3e48:	0c c0       	rjmp	.+24     	; 0x3e62 <mmc_disk_ioctl+0x436>
    3e4a:	56 01       	movw	r10, r12
    3e4c:	bf ef       	ldi	r27, 0xFF	; 255
    3e4e:	ab 1a       	sub	r10, r27
    3e50:	bb 0a       	sbc	r11, r27
    3e52:	8f ef       	ldi	r24, 0xFF	; 255
    3e54:	71 db       	rcall	.-2334   	; 0x3538 <xchg_spi>
    3e56:	f6 01       	movw	r30, r12
                         (DWORD)sdi->addr << 9 | ((sdi->ndata - 1) & 0x1FF)) == 0)
            {
                for (Timer1 = 100; (rc = xchg_spi(0xFF)) == 0xFF && Timer1; ) ;
                if (rc == 0xFE)
                {
                    for (bp = sdi->data, dc = sdi->ndata; dc; dc--)
    3e58:	80 83       	st	Z, r24
    3e5a:	f1 e0       	ldi	r31, 0x01	; 1
                    {
                        *bp++ = xchg_spi(0xFF);
    3e5c:	ef 1a       	sub	r14, r31
                         (DWORD)sdi->addr << 9 | ((sdi->ndata - 1) & 0x1FF)) == 0)
            {
                for (Timer1 = 100; (rc = xchg_spi(0xFF)) == 0xFF && Timer1; ) ;
                if (rc == 0xFE)
                {
                    for (bp = sdi->data, dc = sdi->ndata; dc; dc--)
    3e5e:	f1 08       	sbc	r15, r1
    3e60:	65 01       	movw	r12, r10
    3e62:	e1 14       	cp	r14, r1
                    {
                        *bp++ = xchg_spi(0xFF);
                    }
                    for (dc = 514 - sdi->ndata; dc; dc--)
    3e64:	f1 04       	cpc	r15, r1
    3e66:	89 f7       	brne	.-30     	; 0x3e4a <mmc_disk_ioctl+0x41e>
    3e68:	d8 01       	movw	r26, r16
    3e6a:	11 96       	adiw	r26, 0x01	; 1
    3e6c:	8d 91       	ld	r24, X+
    3e6e:	9c 91       	ld	r25, X
    3e70:	12 97       	sbiw	r26, 0x02	; 2
    3e72:	02 e0       	ldi	r16, 0x02	; 2
    3e74:	12 e0       	ldi	r17, 0x02	; 2
    3e76:	08 1b       	sub	r16, r24
                    {
                        xchg_spi(0xFF);
    3e78:	19 0b       	sbc	r17, r25
    3e7a:	04 c0       	rjmp	.+8      	; 0x3e84 <mmc_disk_ioctl+0x458>
    3e7c:	8f ef       	ldi	r24, 0xFF	; 255
                {
                    for (bp = sdi->data, dc = sdi->ndata; dc; dc--)
                    {
                        *bp++ = xchg_spi(0xFF);
                    }
                    for (dc = 514 - sdi->ndata; dc; dc--)
    3e7e:	5c db       	rcall	.-2376   	; 0x3538 <xchg_spi>
    3e80:	01 50       	subi	r16, 0x01	; 1
    3e82:	11 09       	sbc	r17, r1
    3e84:	01 15       	cp	r16, r1
    3e86:	11 05       	cpc	r17, r1
                    {
                        xchg_spi(0xFF);
                    }
                    res = RES_OK;
    3e88:	c9 f7       	brne	.-14     	; 0x3e7c <mmc_disk_ioctl+0x450>
    3e8a:	10 e0       	ldi	r17, 0x00	; 0
    if (Stat & STA_NOINIT)
    {
        return RES_NOTRDY;
    }

    res = RES_ERROR;
    3e8c:	03 c0       	rjmp	.+6      	; 0x3e94 <mmc_disk_ioctl+0x468>
    3e8e:	11 e0       	ldi	r17, 0x01	; 1
    3e90:	01 c0       	rjmp	.+2      	; 0x3e94 <mmc_disk_ioctl+0x468>
                        xchg_spi(0xFF);
                    }
                    res = RES_OK;
                }
            }
            deselect();
    3e92:	11 e0       	ldi	r17, 0x01	; 1
    3e94:	a7 db       	rcall	.-2226   	; 0x35e4 <deselect>
            break;
    3e96:	81 2f       	mov	r24, r17
    3e98:	b5 c0       	rjmp	.+362    	; 0x4004 <mmc_disk_ioctl+0x5d8>

        case ISDIO_WRITE:
            sdi = buff;
            if (send_cmd(CMD49, 0x80000000 | (DWORD)sdi->func << 28 |
    3e9a:	fb 01       	movw	r30, r22
    3e9c:	40 81       	ld	r20, Z
    3e9e:	50 e0       	ldi	r21, 0x00	; 0
    3ea0:	60 e0       	ldi	r22, 0x00	; 0
    3ea2:	70 e0       	ldi	r23, 0x00	; 0
    3ea4:	03 2e       	mov	r0, r19
    3ea6:	3c e1       	ldi	r19, 0x1C	; 28
    3ea8:	44 0f       	add	r20, r20
    3eaa:	55 1f       	adc	r21, r21
    3eac:	66 1f       	adc	r22, r22
    3eae:	77 1f       	adc	r23, r23
    3eb0:	3a 95       	dec	r19
    3eb2:	d1 f7       	brne	.-12     	; 0x3ea8 <mmc_disk_ioctl+0x47c>
                         (DWORD)sdi->addr << 9 | ((sdi->ndata - 1) & 0x1FF)) == 0)
    3eb4:	30 2d       	mov	r19, r0
    3eb6:	83 81       	ldd	r24, Z+3	; 0x03
    3eb8:	94 81       	ldd	r25, Z+4	; 0x04
    3eba:	a5 81       	ldd	r26, Z+5	; 0x05
    3ebc:	b6 81       	ldd	r27, Z+6	; 0x06
    3ebe:	07 2e       	mov	r0, r23
    3ec0:	79 e0       	ldi	r23, 0x09	; 9
    3ec2:	88 0f       	add	r24, r24
    3ec4:	99 1f       	adc	r25, r25
    3ec6:	aa 1f       	adc	r26, r26
    3ec8:	bb 1f       	adc	r27, r27
            deselect();
            break;

        case ISDIO_WRITE:
            sdi = buff;
            if (send_cmd(CMD49, 0x80000000 | (DWORD)sdi->func << 28 |
    3eca:	7a 95       	dec	r23
    3ecc:	d1 f7       	brne	.-12     	; 0x3ec2 <mmc_disk_ioctl+0x496>
    3ece:	70 2d       	mov	r23, r0
    3ed0:	48 2b       	or	r20, r24
                         (DWORD)sdi->addr << 9 | ((sdi->ndata - 1) & 0x1FF)) == 0)
    3ed2:	59 2b       	or	r21, r25
    3ed4:	6a 2b       	or	r22, r26
    3ed6:	7b 2b       	or	r23, r27
    3ed8:	81 81       	ldd	r24, Z+1	; 0x01
    3eda:	92 81       	ldd	r25, Z+2	; 0x02
    3edc:	01 97       	sbiw	r24, 0x01	; 1
    3ede:	91 70       	andi	r25, 0x01	; 1
    3ee0:	a0 e0       	ldi	r26, 0x00	; 0
    3ee2:	b0 e0       	ldi	r27, 0x00	; 0
            deselect();
            break;

        case ISDIO_WRITE:
            sdi = buff;
            if (send_cmd(CMD49, 0x80000000 | (DWORD)sdi->func << 28 |
    3ee4:	48 2b       	or	r20, r24
    3ee6:	59 2b       	or	r21, r25
    3ee8:	6a 2b       	or	r22, r26
    3eea:	7b 2b       	or	r23, r27
    3eec:	70 68       	ori	r23, 0x80	; 128
    3eee:	81 e3       	ldi	r24, 0x31	; 49
                         (DWORD)sdi->addr << 9 | ((sdi->ndata - 1) & 0x1FF)) == 0)
            {
                xchg_spi(0xFF);
    3ef0:	de db       	rcall	.-2116   	; 0x36ae <send_cmd>
    3ef2:	81 11       	cpse	r24, r1
    3ef4:	33 c0       	rjmp	.+102    	; 0x3f5c <mmc_disk_ioctl+0x530>
                xchg_spi(0xFE);
    3ef6:	8f ef       	ldi	r24, 0xFF	; 255
    3ef8:	1f db       	rcall	.-2498   	; 0x3538 <xchg_spi>
    3efa:	8e ef       	ldi	r24, 0xFE	; 254
                for (bp = sdi->data, dc = sdi->ndata; dc; dc--)
    3efc:	1d db       	rcall	.-2502   	; 0x3538 <xchg_spi>
    3efe:	d8 01       	movw	r26, r16
    3f00:	17 96       	adiw	r26, 0x07	; 7
    3f02:	ed 91       	ld	r30, X+
    3f04:	fc 91       	ld	r31, X
    3f06:	18 97       	sbiw	r26, 0x08	; 8
    3f08:	11 96       	adiw	r26, 0x01	; 1
    3f0a:	ed 90       	ld	r14, X+
                {
                    xchg_spi(*bp++);
    3f0c:	fc 90       	ld	r15, X
    3f0e:	12 97       	sbiw	r26, 0x02	; 2
    3f10:	0a c0       	rjmp	.+20     	; 0x3f26 <mmc_disk_ioctl+0x4fa>
    3f12:	6f 01       	movw	r12, r30
    3f14:	bf ef       	ldi	r27, 0xFF	; 255
    3f16:	cb 1a       	sub	r12, r27
            if (send_cmd(CMD49, 0x80000000 | (DWORD)sdi->func << 28 |
                         (DWORD)sdi->addr << 9 | ((sdi->ndata - 1) & 0x1FF)) == 0)
            {
                xchg_spi(0xFF);
                xchg_spi(0xFE);
                for (bp = sdi->data, dc = sdi->ndata; dc; dc--)
    3f18:	db 0a       	sbc	r13, r27
    3f1a:	80 81       	ld	r24, Z
    3f1c:	0d db       	rcall	.-2534   	; 0x3538 <xchg_spi>
                {
                    xchg_spi(*bp++);
    3f1e:	e1 e0       	ldi	r30, 0x01	; 1
            if (send_cmd(CMD49, 0x80000000 | (DWORD)sdi->func << 28 |
                         (DWORD)sdi->addr << 9 | ((sdi->ndata - 1) & 0x1FF)) == 0)
            {
                xchg_spi(0xFF);
                xchg_spi(0xFE);
                for (bp = sdi->data, dc = sdi->ndata; dc; dc--)
    3f20:	ee 1a       	sub	r14, r30
    3f22:	f1 08       	sbc	r15, r1
    3f24:	f6 01       	movw	r30, r12
                {
                    xchg_spi(*bp++);
                }
                for (dc = 514 - sdi->ndata; dc; dc--)
    3f26:	e1 14       	cp	r14, r1
    3f28:	f1 04       	cpc	r15, r1
    3f2a:	99 f7       	brne	.-26     	; 0x3f12 <mmc_disk_ioctl+0x4e6>
    3f2c:	d8 01       	movw	r26, r16
    3f2e:	11 96       	adiw	r26, 0x01	; 1
    3f30:	8d 91       	ld	r24, X+
    3f32:	9c 91       	ld	r25, X
    3f34:	12 97       	sbiw	r26, 0x02	; 2
    3f36:	02 e0       	ldi	r16, 0x02	; 2
    3f38:	12 e0       	ldi	r17, 0x02	; 2
                {
                    xchg_spi(0xFF);
    3f3a:	08 1b       	sub	r16, r24
    3f3c:	19 0b       	sbc	r17, r25
    3f3e:	04 c0       	rjmp	.+8      	; 0x3f48 <mmc_disk_ioctl+0x51c>
                xchg_spi(0xFE);
                for (bp = sdi->data, dc = sdi->ndata; dc; dc--)
                {
                    xchg_spi(*bp++);
                }
                for (dc = 514 - sdi->ndata; dc; dc--)
    3f40:	8f ef       	ldi	r24, 0xFF	; 255
    3f42:	fa da       	rcall	.-2572   	; 0x3538 <xchg_spi>
    3f44:	01 50       	subi	r16, 0x01	; 1
    3f46:	11 09       	sbc	r17, r1
    3f48:	01 15       	cp	r16, r1
                {
                    xchg_spi(0xFF);
                }
                if ((xchg_spi(0xFF) & 0x1F) == 0x05)
    3f4a:	11 05       	cpc	r17, r1
    3f4c:	c9 f7       	brne	.-14     	; 0x3f40 <mmc_disk_ioctl+0x514>
    3f4e:	8f ef       	ldi	r24, 0xFF	; 255
    3f50:	f3 da       	rcall	.-2586   	; 0x3538 <xchg_spi>
    3f52:	8f 71       	andi	r24, 0x1F	; 31
    3f54:	85 30       	cpi	r24, 0x05	; 5
    if (Stat & STA_NOINIT)
    {
        return RES_NOTRDY;
    }

    res = RES_ERROR;
    3f56:	21 f0       	breq	.+8      	; 0x3f60 <mmc_disk_ioctl+0x534>
    3f58:	11 e0       	ldi	r17, 0x01	; 1
    3f5a:	03 c0       	rjmp	.+6      	; 0x3f62 <mmc_disk_ioctl+0x536>
    3f5c:	11 e0       	ldi	r17, 0x01	; 1
                {
                    xchg_spi(0xFF);
                }
                if ((xchg_spi(0xFF) & 0x1F) == 0x05)
                {
                    res = RES_OK;
    3f5e:	01 c0       	rjmp	.+2      	; 0x3f62 <mmc_disk_ioctl+0x536>
                }
            }
            deselect();
    3f60:	10 e0       	ldi	r17, 0x00	; 0
    3f62:	40 db       	rcall	.-2432   	; 0x35e4 <deselect>
            break;
    3f64:	81 2f       	mov	r24, r17
    3f66:	4e c0       	rjmp	.+156    	; 0x4004 <mmc_disk_ioctl+0x5d8>

        case ISDIO_MRITE:
            sdi = buff;
            if (send_cmd(CMD49, 0x84000000 | (DWORD)sdi->func << 28 |
    3f68:	fb 01       	movw	r30, r22
    3f6a:	40 81       	ld	r20, Z
    3f6c:	50 e0       	ldi	r21, 0x00	; 0
    3f6e:	60 e0       	ldi	r22, 0x00	; 0
    3f70:	70 e0       	ldi	r23, 0x00	; 0
    3f72:	03 2e       	mov	r0, r19
    3f74:	3c e1       	ldi	r19, 0x1C	; 28
    3f76:	44 0f       	add	r20, r20
    3f78:	55 1f       	adc	r21, r21
    3f7a:	66 1f       	adc	r22, r22
    3f7c:	77 1f       	adc	r23, r23
                         (DWORD)sdi->addr << 9 | sdi->ndata >> 8) == 0)
    3f7e:	3a 95       	dec	r19
    3f80:	d1 f7       	brne	.-12     	; 0x3f76 <mmc_disk_ioctl+0x54a>
    3f82:	30 2d       	mov	r19, r0
    3f84:	83 81       	ldd	r24, Z+3	; 0x03
    3f86:	94 81       	ldd	r25, Z+4	; 0x04
    3f88:	a5 81       	ldd	r26, Z+5	; 0x05
    3f8a:	b6 81       	ldd	r27, Z+6	; 0x06
    3f8c:	07 2e       	mov	r0, r23
    3f8e:	79 e0       	ldi	r23, 0x09	; 9
    3f90:	88 0f       	add	r24, r24
    3f92:	99 1f       	adc	r25, r25
            deselect();
            break;

        case ISDIO_MRITE:
            sdi = buff;
            if (send_cmd(CMD49, 0x84000000 | (DWORD)sdi->func << 28 |
    3f94:	aa 1f       	adc	r26, r26
    3f96:	bb 1f       	adc	r27, r27
    3f98:	7a 95       	dec	r23
    3f9a:	d1 f7       	brne	.-12     	; 0x3f90 <mmc_disk_ioctl+0x564>
                         (DWORD)sdi->addr << 9 | sdi->ndata >> 8) == 0)
    3f9c:	70 2d       	mov	r23, r0
    3f9e:	48 2b       	or	r20, r24
    3fa0:	59 2b       	or	r21, r25
    3fa2:	6a 2b       	or	r22, r26
    3fa4:	7b 2b       	or	r23, r27
    3fa6:	82 81       	ldd	r24, Z+2	; 0x02
    3fa8:	90 e0       	ldi	r25, 0x00	; 0
            deselect();
            break;

        case ISDIO_MRITE:
            sdi = buff;
            if (send_cmd(CMD49, 0x84000000 | (DWORD)sdi->func << 28 |
    3faa:	a0 e0       	ldi	r26, 0x00	; 0
    3fac:	b0 e0       	ldi	r27, 0x00	; 0
    3fae:	48 2b       	or	r20, r24
    3fb0:	59 2b       	or	r21, r25
    3fb2:	6a 2b       	or	r22, r26
    3fb4:	7b 2b       	or	r23, r27
                         (DWORD)sdi->addr << 9 | sdi->ndata >> 8) == 0)
            {
                xchg_spi(0xFF);
    3fb6:	74 68       	ori	r23, 0x84	; 132
    3fb8:	81 e3       	ldi	r24, 0x31	; 49
    3fba:	79 db       	rcall	.-2318   	; 0x36ae <send_cmd>
                xchg_spi(0xFE);
    3fbc:	81 11       	cpse	r24, r1
    3fbe:	19 c0       	rjmp	.+50     	; 0x3ff2 <mmc_disk_ioctl+0x5c6>
    3fc0:	8f ef       	ldi	r24, 0xFF	; 255
                xchg_spi(sdi->ndata);
    3fc2:	ba da       	rcall	.-2700   	; 0x3538 <xchg_spi>
    3fc4:	8e ef       	ldi	r24, 0xFE	; 254
    3fc6:	b8 da       	rcall	.-2704   	; 0x3538 <xchg_spi>
    3fc8:	d8 01       	movw	r26, r16
    3fca:	11 96       	adiw	r26, 0x01	; 1
                for (dc = 513; dc; dc--)
    3fcc:	8c 91       	ld	r24, X
    3fce:	b4 da       	rcall	.-2712   	; 0x3538 <xchg_spi>
    3fd0:	01 e0       	ldi	r16, 0x01	; 1
                {
                    xchg_spi(0xFF);
    3fd2:	12 e0       	ldi	r17, 0x02	; 2
    3fd4:	04 c0       	rjmp	.+8      	; 0x3fde <mmc_disk_ioctl+0x5b2>
    3fd6:	8f ef       	ldi	r24, 0xFF	; 255
                         (DWORD)sdi->addr << 9 | sdi->ndata >> 8) == 0)
            {
                xchg_spi(0xFF);
                xchg_spi(0xFE);
                xchg_spi(sdi->ndata);
                for (dc = 513; dc; dc--)
    3fd8:	af da       	rcall	.-2722   	; 0x3538 <xchg_spi>
    3fda:	01 50       	subi	r16, 0x01	; 1
    3fdc:	11 09       	sbc	r17, r1
    3fde:	01 15       	cp	r16, r1
    3fe0:	11 05       	cpc	r17, r1
                {
                    xchg_spi(0xFF);
                }
                if ((xchg_spi(0xFF) & 0x1F) == 0x05)
    3fe2:	c9 f7       	brne	.-14     	; 0x3fd6 <mmc_disk_ioctl+0x5aa>
    3fe4:	8f ef       	ldi	r24, 0xFF	; 255
    3fe6:	a8 da       	rcall	.-2736   	; 0x3538 <xchg_spi>
    3fe8:	8f 71       	andi	r24, 0x1F	; 31
    3fea:	85 30       	cpi	r24, 0x05	; 5
    3fec:	21 f0       	breq	.+8      	; 0x3ff6 <mmc_disk_ioctl+0x5ca>
    if (Stat & STA_NOINIT)
    {
        return RES_NOTRDY;
    }

    res = RES_ERROR;
    3fee:	11 e0       	ldi	r17, 0x01	; 1
    3ff0:	03 c0       	rjmp	.+6      	; 0x3ff8 <mmc_disk_ioctl+0x5cc>
    3ff2:	11 e0       	ldi	r17, 0x01	; 1
    3ff4:	01 c0       	rjmp	.+2      	; 0x3ff8 <mmc_disk_ioctl+0x5cc>
                {
                    xchg_spi(0xFF);
                }
                if ((xchg_spi(0xFF) & 0x1F) == 0x05)
                {
                    res = RES_OK;
    3ff6:	10 e0       	ldi	r17, 0x00	; 0
                }
            }
            deselect();
    3ff8:	f5 da       	rcall	.-2582   	; 0x35e4 <deselect>
    3ffa:	81 2f       	mov	r24, r17
            break;
    3ffc:	03 c0       	rjmp	.+6      	; 0x4004 <mmc_disk_ioctl+0x5d8>
    3ffe:	83 e0       	ldi	r24, 0x03	; 3
    UINT dc;
#endif

    if (Stat & STA_NOINIT)
    {
        return RES_NOTRDY;
    4000:	01 c0       	rjmp	.+2      	; 0x4004 <mmc_disk_ioctl+0x5d8>
    4002:	84 e0       	ldi	r24, 0x04	; 4
            }
            deselect();
            break;
#endif
        default:
            res = RES_PARERR;
    4004:	60 96       	adiw	r28, 0x10	; 16
    }

    return res;
}
    4006:	0f b6       	in	r0, 0x3f	; 63
    4008:	f8 94       	cli
    400a:	de bf       	out	0x3e, r29	; 62
    400c:	0f be       	out	0x3f, r0	; 63
    400e:	cd bf       	out	0x3d, r28	; 61
    4010:	df 91       	pop	r29
    4012:	cf 91       	pop	r28
    4014:	1f 91       	pop	r17
    4016:	0f 91       	pop	r16
    4018:	ff 90       	pop	r15
    401a:	ef 90       	pop	r14
    401c:	df 90       	pop	r13
    401e:	cf 90       	pop	r12
    4020:	bf 90       	pop	r11
    4022:	af 90       	pop	r10
    4024:	08 95       	ret

00004026 <mmc_disk_timerproc>:
    4026:	80 91 08 06 	lds	r24, 0x0608	; 0x800608 <Timer1>
{
    BYTE n;
    //BYTE s;

    n = Timer1;             /* 100Hz decrement timer */
    if (n)
    402a:	88 23       	and	r24, r24
    402c:	19 f0       	breq	.+6      	; 0x4034 <mmc_disk_timerproc+0xe>
    {
        Timer1 = --n;
    402e:	81 50       	subi	r24, 0x01	; 1
    4030:	80 93 08 06 	sts	0x0608, r24	; 0x800608 <Timer1>
    }
    n = Timer2;
    4034:	80 91 06 06 	lds	r24, 0x0606	; 0x800606 <Timer2>
    4038:	90 91 07 06 	lds	r25, 0x0607	; 0x800607 <Timer2+0x1>
    if (n)
    403c:	88 23       	and	r24, r24
    403e:	31 f0       	breq	.+12     	; 0x404c <mmc_disk_timerproc+0x26>
    {
        Timer2 = --n;
    4040:	81 50       	subi	r24, 0x01	; 1
    4042:	90 e0       	ldi	r25, 0x00	; 0
    4044:	90 93 07 06 	sts	0x0607, r25	; 0x800607 <Timer2+0x1>
    4048:	80 93 06 06 	sts	0x0606, r24	; 0x800606 <Timer2>
    404c:	08 95       	ret

0000404e <iic_delay>:
	}

	iic_stop();						/* Deselect device */

	return cnt ? 0 : 1;
}
    404e:	84 e0       	ldi	r24, 0x04	; 4
    4050:	90 e0       	ldi	r25, 0x00	; 0
    4052:	02 c0       	rjmp	.+4      	; 0x4058 <iic_delay+0xa>
    4054:	23 b1       	in	r18, 0x03	; 3
    4056:	01 97       	sbiw	r24, 0x01	; 1
    4058:	00 97       	sbiw	r24, 0x00	; 0
    405a:	e1 f7       	brne	.-8      	; 0x4054 <iic_delay+0x6>
    405c:	08 95       	ret

0000405e <iic_start>:
    405e:	84 b1       	in	r24, 0x04	; 4
    4060:	8e 7f       	andi	r24, 0xFE	; 254
    4062:	84 b9       	out	0x04, r24	; 4
    4064:	f4 df       	rcall	.-24     	; 0x404e <iic_delay>
    4066:	84 b1       	in	r24, 0x04	; 4
    4068:	8d 7f       	andi	r24, 0xFD	; 253
    406a:	84 b9       	out	0x04, r24	; 4
    406c:	f0 df       	rcall	.-32     	; 0x404e <iic_delay>
    406e:	84 b1       	in	r24, 0x04	; 4
    4070:	81 60       	ori	r24, 0x01	; 1
    4072:	84 b9       	out	0x04, r24	; 4
    4074:	ec df       	rcall	.-40     	; 0x404e <iic_delay>
    4076:	84 b1       	in	r24, 0x04	; 4
    4078:	82 60       	ori	r24, 0x02	; 2
    407a:	84 b9       	out	0x04, r24	; 4
    407c:	e8 cf       	rjmp	.-48     	; 0x404e <iic_delay>
    407e:	08 95       	ret

00004080 <iic_stop>:
    4080:	84 b1       	in	r24, 0x04	; 4
    4082:	81 60       	ori	r24, 0x01	; 1
    4084:	84 b9       	out	0x04, r24	; 4
    4086:	e3 df       	rcall	.-58     	; 0x404e <iic_delay>
    4088:	84 b1       	in	r24, 0x04	; 4
    408a:	8d 7f       	andi	r24, 0xFD	; 253
    408c:	84 b9       	out	0x04, r24	; 4
    408e:	df df       	rcall	.-66     	; 0x404e <iic_delay>
    4090:	84 b1       	in	r24, 0x04	; 4
    4092:	8e 7f       	andi	r24, 0xFE	; 254
    4094:	84 b9       	out	0x04, r24	; 4
    4096:	db cf       	rjmp	.-74     	; 0x404e <iic_delay>
    4098:	08 95       	ret

0000409a <iic_send>:
    409a:	cf 93       	push	r28
    409c:	df 93       	push	r29
    409e:	d8 2f       	mov	r29, r24
    40a0:	c0 e8       	ldi	r28, 0x80	; 128
    40a2:	8c 2f       	mov	r24, r28
    40a4:	8d 23       	and	r24, r29
    40a6:	21 f0       	breq	.+8      	; 0x40b0 <iic_send+0x16>
    40a8:	84 b1       	in	r24, 0x04	; 4
    40aa:	8e 7f       	andi	r24, 0xFE	; 254
    40ac:	84 b9       	out	0x04, r24	; 4
    40ae:	03 c0       	rjmp	.+6      	; 0x40b6 <iic_send+0x1c>
    40b0:	84 b1       	in	r24, 0x04	; 4
    40b2:	81 60       	ori	r24, 0x01	; 1
    40b4:	84 b9       	out	0x04, r24	; 4
    40b6:	cb df       	rcall	.-106    	; 0x404e <iic_delay>
    40b8:	84 b1       	in	r24, 0x04	; 4
    40ba:	8d 7f       	andi	r24, 0xFD	; 253
    40bc:	84 b9       	out	0x04, r24	; 4
    40be:	c7 df       	rcall	.-114    	; 0x404e <iic_delay>
    40c0:	84 b1       	in	r24, 0x04	; 4
    40c2:	82 60       	ori	r24, 0x02	; 2
    40c4:	84 b9       	out	0x04, r24	; 4
    40c6:	c3 df       	rcall	.-122    	; 0x404e <iic_delay>
    40c8:	c6 95       	lsr	r28
    40ca:	59 f7       	brne	.-42     	; 0x40a2 <iic_send+0x8>
    40cc:	84 b1       	in	r24, 0x04	; 4
    40ce:	8e 7f       	andi	r24, 0xFE	; 254
    40d0:	84 b9       	out	0x04, r24	; 4
    40d2:	bd df       	rcall	.-134    	; 0x404e <iic_delay>
    40d4:	84 b1       	in	r24, 0x04	; 4
    40d6:	8d 7f       	andi	r24, 0xFD	; 253
    40d8:	84 b9       	out	0x04, r24	; 4
    40da:	c3 b1       	in	r28, 0x03	; 3
    40dc:	81 e0       	ldi	r24, 0x01	; 1
    40de:	c8 27       	eor	r28, r24
    40e0:	c1 70       	andi	r28, 0x01	; 1
    40e2:	b5 df       	rcall	.-150    	; 0x404e <iic_delay>
    40e4:	84 b1       	in	r24, 0x04	; 4
    40e6:	82 60       	ori	r24, 0x02	; 2
    40e8:	84 b9       	out	0x04, r24	; 4
    40ea:	b1 df       	rcall	.-158    	; 0x404e <iic_delay>
    40ec:	8c 2f       	mov	r24, r28
    40ee:	90 e0       	ldi	r25, 0x00	; 0
    40f0:	df 91       	pop	r29
    40f2:	cf 91       	pop	r28
    40f4:	08 95       	ret

000040f6 <iic_rcvr>:
    40f6:	0f 93       	push	r16
    40f8:	1f 93       	push	r17
    40fa:	cf 93       	push	r28
    40fc:	df 93       	push	r29
    40fe:	8c 01       	movw	r16, r24
    4100:	c1 e0       	ldi	r28, 0x01	; 1
    4102:	d0 e0       	ldi	r29, 0x00	; 0
    4104:	cc 0f       	add	r28, r28
    4106:	dd 1f       	adc	r29, r29
    4108:	84 b1       	in	r24, 0x04	; 4
    410a:	8d 7f       	andi	r24, 0xFD	; 253
    410c:	84 b9       	out	0x04, r24	; 4
    410e:	18 99       	sbic	0x03, 0	; 3
    4110:	21 96       	adiw	r28, 0x01	; 1
    4112:	9d df       	rcall	.-198    	; 0x404e <iic_delay>
    4114:	84 b1       	in	r24, 0x04	; 4
    4116:	82 60       	ori	r24, 0x02	; 2
    4118:	84 b9       	out	0x04, r24	; 4
    411a:	99 df       	rcall	.-206    	; 0x404e <iic_delay>
    411c:	cf 3f       	cpi	r28, 0xFF	; 255
    411e:	d1 05       	cpc	r29, r1
    4120:	89 f3       	breq	.-30     	; 0x4104 <iic_rcvr+0xe>
    4122:	80 f3       	brcs	.-32     	; 0x4104 <iic_rcvr+0xe>
    4124:	01 2b       	or	r16, r17
    4126:	21 f0       	breq	.+8      	; 0x4130 <iic_rcvr+0x3a>
    4128:	84 b1       	in	r24, 0x04	; 4
    412a:	81 60       	ori	r24, 0x01	; 1
    412c:	84 b9       	out	0x04, r24	; 4
    412e:	03 c0       	rjmp	.+6      	; 0x4136 <iic_rcvr+0x40>
    4130:	84 b1       	in	r24, 0x04	; 4
    4132:	8e 7f       	andi	r24, 0xFE	; 254
    4134:	84 b9       	out	0x04, r24	; 4
    4136:	8b df       	rcall	.-234    	; 0x404e <iic_delay>
    4138:	84 b1       	in	r24, 0x04	; 4
    413a:	8d 7f       	andi	r24, 0xFD	; 253
    413c:	84 b9       	out	0x04, r24	; 4
    413e:	87 df       	rcall	.-242    	; 0x404e <iic_delay>
    4140:	84 b1       	in	r24, 0x04	; 4
    4142:	82 60       	ori	r24, 0x02	; 2
    4144:	84 b9       	out	0x04, r24	; 4
    4146:	84 b1       	in	r24, 0x04	; 4
    4148:	8e 7f       	andi	r24, 0xFE	; 254
    414a:	84 b9       	out	0x04, r24	; 4
    414c:	80 df       	rcall	.-256    	; 0x404e <iic_delay>
    414e:	8c 2f       	mov	r24, r28
    4150:	df 91       	pop	r29
    4152:	cf 91       	pop	r28
    4154:	1f 91       	pop	r17
    4156:	0f 91       	pop	r16
    4158:	08 95       	ret

0000415a <iic_read>:
    415a:	cf 92       	push	r12
    415c:	df 92       	push	r13
    415e:	ef 92       	push	r14
    4160:	ff 92       	push	r15
    4162:	0f 93       	push	r16
    4164:	1f 93       	push	r17
    4166:	cf 93       	push	r28
    4168:	df 93       	push	r29
    416a:	18 2f       	mov	r17, r24
    416c:	06 2f       	mov	r16, r22
    416e:	7a 01       	movw	r14, r20
    4170:	69 01       	movw	r12, r18
    4172:	45 2b       	or	r20, r21
    4174:	79 f1       	breq	.+94     	; 0x41d4 <iic_read+0x7a>
    4176:	ca e0       	ldi	r28, 0x0A	; 10
    4178:	d0 e0       	ldi	r29, 0x00	; 0
    417a:	71 df       	rcall	.-286    	; 0x405e <iic_start>
    417c:	81 2f       	mov	r24, r17
    417e:	8d df       	rcall	.-230    	; 0x409a <iic_send>
    4180:	89 2b       	or	r24, r25
    4182:	11 f4       	brne	.+4      	; 0x4188 <iic_read+0x2e>
    4184:	21 97       	sbiw	r28, 0x01	; 1
    4186:	c9 f7       	brne	.-14     	; 0x417a <iic_read+0x20>
    4188:	cd 2b       	or	r28, r29
    418a:	e9 f0       	breq	.+58     	; 0x41c6 <iic_read+0x6c>
    418c:	80 2f       	mov	r24, r16
    418e:	85 df       	rcall	.-246    	; 0x409a <iic_send>
    4190:	89 2b       	or	r24, r25
    4192:	c9 f0       	breq	.+50     	; 0x41c6 <iic_read+0x6c>
    4194:	64 df       	rcall	.-312    	; 0x405e <iic_start>
    4196:	81 2f       	mov	r24, r17
    4198:	81 60       	ori	r24, 0x01	; 1
    419a:	7f df       	rcall	.-258    	; 0x409a <iic_send>
    419c:	89 2b       	or	r24, r25
    419e:	99 f0       	breq	.+38     	; 0x41c6 <iic_read+0x6c>
    41a0:	81 e0       	ldi	r24, 0x01	; 1
    41a2:	e8 1a       	sub	r14, r24
    41a4:	f1 08       	sbc	r15, r1
    41a6:	e6 01       	movw	r28, r12
    41a8:	21 96       	adiw	r28, 0x01	; 1
    41aa:	81 e0       	ldi	r24, 0x01	; 1
    41ac:	90 e0       	ldi	r25, 0x00	; 0
    41ae:	e1 14       	cp	r14, r1
    41b0:	f1 04       	cpc	r15, r1
    41b2:	11 f4       	brne	.+4      	; 0x41b8 <iic_read+0x5e>
    41b4:	80 e0       	ldi	r24, 0x00	; 0
    41b6:	90 e0       	ldi	r25, 0x00	; 0
    41b8:	9e df       	rcall	.-196    	; 0x40f6 <iic_rcvr>
    41ba:	f6 01       	movw	r30, r12
    41bc:	80 83       	st	Z, r24
    41be:	6e 01       	movw	r12, r28
    41c0:	e1 14       	cp	r14, r1
    41c2:	f1 04       	cpc	r15, r1
    41c4:	69 f7       	brne	.-38     	; 0x41a0 <iic_read+0x46>
    41c6:	5c df       	rcall	.-328    	; 0x4080 <iic_stop>
    41c8:	81 e0       	ldi	r24, 0x01	; 1
    41ca:	ef 28       	or	r14, r15
    41cc:	09 f0       	breq	.+2      	; 0x41d0 <iic_read+0x76>
    41ce:	80 e0       	ldi	r24, 0x00	; 0
    41d0:	90 e0       	ldi	r25, 0x00	; 0
    41d2:	02 c0       	rjmp	.+4      	; 0x41d8 <iic_read+0x7e>
    41d4:	80 e0       	ldi	r24, 0x00	; 0
    41d6:	90 e0       	ldi	r25, 0x00	; 0
    41d8:	df 91       	pop	r29
    41da:	cf 91       	pop	r28
    41dc:	1f 91       	pop	r17
    41de:	0f 91       	pop	r16
    41e0:	ff 90       	pop	r15
    41e2:	ef 90       	pop	r14
    41e4:	df 90       	pop	r13
    41e6:	cf 90       	pop	r12
    41e8:	08 95       	ret

000041ea <rtc_gettime>:
/*-------------------------------------------------*/
/* RTC functions                                   */


int rtc_gettime (RTC *rtc)
{
    41ea:	0f 93       	push	r16
    41ec:	1f 93       	push	r17
    41ee:	cf 93       	push	r28
    41f0:	df 93       	push	r29
    41f2:	cd b7       	in	r28, 0x3d	; 61
    41f4:	de b7       	in	r29, 0x3e	; 62
    41f6:	28 97       	sbiw	r28, 0x08	; 8
    41f8:	0f b6       	in	r0, 0x3f	; 63
    41fa:	f8 94       	cli
    41fc:	de bf       	out	0x3e, r29	; 62
    41fe:	0f be       	out	0x3f, r0	; 63
    4200:	cd bf       	out	0x3d, r28	; 61
    4202:	8c 01       	movw	r16, r24
	uint8_t buf[8];


	if (!iic_read(0xD0, 0, 7, buf)) return 0;
    4204:	9e 01       	movw	r18, r28
    4206:	2f 5f       	subi	r18, 0xFF	; 255
    4208:	3f 4f       	sbci	r19, 0xFF	; 255
    420a:	47 e0       	ldi	r20, 0x07	; 7
    420c:	50 e0       	ldi	r21, 0x00	; 0
    420e:	60 e0       	ldi	r22, 0x00	; 0
    4210:	70 e0       	ldi	r23, 0x00	; 0
    4212:	80 ed       	ldi	r24, 0xD0	; 208
    4214:	a2 df       	rcall	.-188    	; 0x415a <iic_read>
    4216:	00 97       	sbiw	r24, 0x00	; 0
    4218:	09 f4       	brne	.+2      	; 0x421c <rtc_gettime+0x32>
    421a:	60 c0       	rjmp	.+192    	; 0x42dc <rtc_gettime+0xf2>

	rtc->sec = (buf[0] & 0x0F) + ((buf[0] >> 4) & 7) * 10;
    421c:	89 81       	ldd	r24, Y+1	; 0x01
    421e:	98 2f       	mov	r25, r24
    4220:	92 95       	swap	r25
    4222:	9f 70       	andi	r25, 0x0F	; 15
    4224:	97 70       	andi	r25, 0x07	; 7
    4226:	99 0f       	add	r25, r25
    4228:	29 2f       	mov	r18, r25
    422a:	22 0f       	add	r18, r18
    422c:	22 0f       	add	r18, r18
    422e:	92 0f       	add	r25, r18
    4230:	8f 70       	andi	r24, 0x0F	; 15
    4232:	89 0f       	add	r24, r25
    4234:	f8 01       	movw	r30, r16
    4236:	87 83       	std	Z+7, r24	; 0x07
	rtc->min = (buf[1] & 0x0F) + (buf[1] >> 4) * 10;
    4238:	8a 81       	ldd	r24, Y+2	; 0x02
    423a:	98 2f       	mov	r25, r24
    423c:	92 95       	swap	r25
    423e:	9f 70       	andi	r25, 0x0F	; 15
    4240:	99 0f       	add	r25, r25
    4242:	29 2f       	mov	r18, r25
    4244:	22 0f       	add	r18, r18
    4246:	22 0f       	add	r18, r18
    4248:	92 0f       	add	r25, r18
    424a:	8f 70       	andi	r24, 0x0F	; 15
    424c:	89 0f       	add	r24, r25
    424e:	86 83       	std	Z+6, r24	; 0x06
	rtc->hour = (buf[2] & 0x0F) + ((buf[2] >> 4) & 3) * 10;
    4250:	9b 81       	ldd	r25, Y+3	; 0x03
    4252:	89 2f       	mov	r24, r25
    4254:	82 95       	swap	r24
    4256:	8f 70       	andi	r24, 0x0F	; 15
    4258:	83 70       	andi	r24, 0x03	; 3
    425a:	88 0f       	add	r24, r24
    425c:	28 2f       	mov	r18, r24
    425e:	22 0f       	add	r18, r18
    4260:	22 0f       	add	r18, r18
    4262:	82 0f       	add	r24, r18
    4264:	29 2f       	mov	r18, r25
    4266:	2f 70       	andi	r18, 0x0F	; 15
    4268:	82 0f       	add	r24, r18
    426a:	85 83       	std	Z+5, r24	; 0x05
	rtc->wday = (buf[2] & 0x07);
    426c:	97 70       	andi	r25, 0x07	; 7
    426e:	94 83       	std	Z+4, r25	; 0x04
	rtc->mday = (buf[4] & 0x0F) + ((buf[4] >> 4) & 3) * 10;
    4270:	8d 81       	ldd	r24, Y+5	; 0x05
    4272:	98 2f       	mov	r25, r24
    4274:	92 95       	swap	r25
    4276:	9f 70       	andi	r25, 0x0F	; 15
    4278:	93 70       	andi	r25, 0x03	; 3
    427a:	99 0f       	add	r25, r25
    427c:	29 2f       	mov	r18, r25
    427e:	22 0f       	add	r18, r18
    4280:	22 0f       	add	r18, r18
    4282:	92 0f       	add	r25, r18
    4284:	8f 70       	andi	r24, 0x0F	; 15
    4286:	89 0f       	add	r24, r25
    4288:	83 83       	std	Z+3, r24	; 0x03
	rtc->month = (buf[5] & 0x0F) + ((buf[5] >> 4) & 1) * 10;
    428a:	8e 81       	ldd	r24, Y+6	; 0x06
    428c:	84 fb       	bst	r24, 4
    428e:	99 27       	eor	r25, r25
    4290:	90 f9       	bld	r25, 0
    4292:	99 0f       	add	r25, r25
    4294:	29 2f       	mov	r18, r25
    4296:	22 0f       	add	r18, r18
    4298:	22 0f       	add	r18, r18
    429a:	92 0f       	add	r25, r18
    429c:	8f 70       	andi	r24, 0x0F	; 15
    429e:	89 0f       	add	r24, r25
    42a0:	82 83       	std	Z+2, r24	; 0x02
	rtc->year = 2000 + (buf[6] & 0x0F) + (buf[6] >> 4) * 10;
    42a2:	9f 81       	ldd	r25, Y+7	; 0x07
    42a4:	49 2f       	mov	r20, r25
    42a6:	4f 70       	andi	r20, 0x0F	; 15
    42a8:	50 e0       	ldi	r21, 0x00	; 0
    42aa:	40 53       	subi	r20, 0x30	; 48
    42ac:	58 4f       	sbci	r21, 0xF8	; 248
    42ae:	92 95       	swap	r25
    42b0:	9f 70       	andi	r25, 0x0F	; 15
    42b2:	89 2f       	mov	r24, r25
    42b4:	90 e0       	ldi	r25, 0x00	; 0
    42b6:	bc 01       	movw	r22, r24
    42b8:	66 0f       	add	r22, r22
    42ba:	77 1f       	adc	r23, r23
    42bc:	9c 01       	movw	r18, r24
    42be:	22 0f       	add	r18, r18
    42c0:	33 1f       	adc	r19, r19
    42c2:	22 0f       	add	r18, r18
    42c4:	33 1f       	adc	r19, r19
    42c6:	22 0f       	add	r18, r18
    42c8:	33 1f       	adc	r19, r19
    42ca:	cb 01       	movw	r24, r22
    42cc:	82 0f       	add	r24, r18
    42ce:	93 1f       	adc	r25, r19
    42d0:	84 0f       	add	r24, r20
    42d2:	95 1f       	adc	r25, r21
    42d4:	91 83       	std	Z+1, r25	; 0x01
    42d6:	80 83       	st	Z, r24

	return 1;
    42d8:	81 e0       	ldi	r24, 0x01	; 1
    42da:	90 e0       	ldi	r25, 0x00	; 0
}
    42dc:	28 96       	adiw	r28, 0x08	; 8
    42de:	0f b6       	in	r0, 0x3f	; 63
    42e0:	f8 94       	cli
    42e2:	de bf       	out	0x3e, r29	; 62
    42e4:	0f be       	out	0x3f, r0	; 63
    42e6:	cd bf       	out	0x3d, r28	; 61
    42e8:	df 91       	pop	r29
    42ea:	cf 91       	pop	r28
    42ec:	1f 91       	pop	r17
    42ee:	0f 91       	pop	r16
    42f0:	08 95       	ret

000042f2 <SCSI_Command_ModeSense_6>:
 *
 *  \return Boolean \c true if the command completed successfully, \c false otherwise.
 */
static bool SCSI_Command_ModeSense_6(USB_ClassInfo_MS_Device_t* const
                                     MSInterfaceInfo)
{
    42f2:	dc 01       	movw	r26, r24
			 *  \param[in] Data  Data to write into the the currently selected endpoint's FIFO buffer.
			 */
			static inline void Endpoint_Write_8(const uint8_t Data) ATTR_ALWAYS_INLINE;
			static inline void Endpoint_Write_8(const uint8_t Data)
			{
				UEDATX = Data;
    42f4:	e1 ef       	ldi	r30, 0xF1	; 241
    42f6:	f0 e0       	ldi	r31, 0x00	; 0
    42f8:	10 82       	st	Z, r1
    42fa:	10 82       	st	Z, r1
    42fc:	10 82       	st	Z, r1
    42fe:	10 82       	st	Z, r1
			 */
			static inline void Endpoint_ClearIN(void) ATTR_ALWAYS_INLINE;
			static inline void Endpoint_ClearIN(void)
			{
				#if !defined(CONTROL_ONLY_DEVICE)
					UEINTX &= ~((1 << TXINI) | (1 << FIFOCON));
    4300:	e8 ee       	ldi	r30, 0xE8	; 232
    4302:	f0 e0       	ldi	r31, 0x00	; 0
    4304:	90 81       	ld	r25, Z
    4306:	9e 77       	andi	r25, 0x7E	; 126
    4308:	90 83       	st	Z, r25
    Endpoint_Write_8(DISK_READ_ONLY ? 0x80 : 0x00);
    Endpoint_Write_8(0x00);
    Endpoint_ClearIN();

    /* Update the bytes transferred counter and succeed the command */
    MSInterfaceInfo->State.CommandBlock.DataTransferLength -= 4;
    430a:	54 96       	adiw	r26, 0x14	; 20
    430c:	4d 91       	ld	r20, X+
    430e:	5d 91       	ld	r21, X+
    4310:	6d 91       	ld	r22, X+
    4312:	7c 91       	ld	r23, X
    4314:	57 97       	sbiw	r26, 0x17	; 23
    4316:	44 50       	subi	r20, 0x04	; 4
    4318:	51 09       	sbc	r21, r1
    431a:	61 09       	sbc	r22, r1
    431c:	71 09       	sbc	r23, r1
    431e:	54 96       	adiw	r26, 0x14	; 20
    4320:	4d 93       	st	X+, r20
    4322:	5d 93       	st	X+, r21
    4324:	6d 93       	st	X+, r22
    4326:	7c 93       	st	X, r23
    4328:	57 97       	sbiw	r26, 0x17	; 23

    return true;
}
    432a:	81 e0       	ldi	r24, 0x01	; 1
    432c:	08 95       	ret

0000432e <SCSI_Command_Request_Sense>:
 *
 *  \return Boolean \c true if the command completed successfully, \c false otherwise.
 */
static bool SCSI_Command_Request_Sense(USB_ClassInfo_MS_Device_t* const
                                       MSInterfaceInfo)
{
    432e:	ef 92       	push	r14
    4330:	ff 92       	push	r15
    4332:	0f 93       	push	r16
    4334:	1f 93       	push	r17
    4336:	cf 93       	push	r28
    4338:	df 93       	push	r29
    433a:	8c 01       	movw	r16, r24
    uint8_t  AllocationLength =
    433c:	fc 01       	movw	r30, r24
    433e:	c7 8d       	ldd	r28, Z+31	; 0x1f
        MSInterfaceInfo->State.CommandBlock.SCSICommandData[4];
    uint8_t  BytesTransferred = MIN(AllocationLength, sizeof(SenseData));
    4340:	dc 2f       	mov	r29, r28
    4342:	c3 31       	cpi	r28, 0x13	; 19
    4344:	08 f0       	brcs	.+2      	; 0x4348 <SCSI_Command_Request_Sense+0x1a>
    4346:	d2 e1       	ldi	r29, 0x12	; 18

    Endpoint_Write_Stream_LE(&SenseData, BytesTransferred, NULL);
    4348:	ed 2e       	mov	r14, r29
    434a:	f1 2c       	mov	r15, r1
    434c:	40 e0       	ldi	r20, 0x00	; 0
    434e:	50 e0       	ldi	r21, 0x00	; 0
    4350:	b7 01       	movw	r22, r14
    4352:	89 e7       	ldi	r24, 0x79	; 121
    4354:	91 e0       	ldi	r25, 0x01	; 1
    4356:	0e 94 fc 2a 	call	0x55f8	; 0x55f8 <Endpoint_Write_Stream_LE>
    Endpoint_Null_Stream((AllocationLength - BytesTransferred), NULL);
    435a:	8c 2f       	mov	r24, r28
    435c:	90 e0       	ldi	r25, 0x00	; 0
    435e:	60 e0       	ldi	r22, 0x00	; 0
    4360:	70 e0       	ldi	r23, 0x00	; 0
    4362:	8e 19       	sub	r24, r14
    4364:	9f 09       	sbc	r25, r15
    4366:	0e 94 be 2a 	call	0x557c	; 0x557c <Endpoint_Null_Stream>
    436a:	e8 ee       	ldi	r30, 0xE8	; 232
    436c:	f0 e0       	ldi	r31, 0x00	; 0
    436e:	80 81       	ld	r24, Z
    4370:	8e 77       	andi	r24, 0x7E	; 126
    4372:	80 83       	st	Z, r24
    Endpoint_ClearIN();

    /* Succeed the command and update the bytes transferred counter */
    MSInterfaceInfo->State.CommandBlock.DataTransferLength -= BytesTransferred;
    4374:	f8 01       	movw	r30, r16
    4376:	84 89       	ldd	r24, Z+20	; 0x14
    4378:	95 89       	ldd	r25, Z+21	; 0x15
    437a:	a6 89       	ldd	r26, Z+22	; 0x16
    437c:	b7 89       	ldd	r27, Z+23	; 0x17
    437e:	8d 1b       	sub	r24, r29
    4380:	91 09       	sbc	r25, r1
    4382:	a1 09       	sbc	r26, r1
    4384:	b1 09       	sbc	r27, r1
    4386:	84 8b       	std	Z+20, r24	; 0x14
    4388:	95 8b       	std	Z+21, r25	; 0x15
    438a:	a6 8b       	std	Z+22, r26	; 0x16
    438c:	b7 8b       	std	Z+23, r27	; 0x17

    return true;
}
    438e:	81 e0       	ldi	r24, 0x01	; 1
    4390:	df 91       	pop	r29
    4392:	cf 91       	pop	r28
    4394:	1f 91       	pop	r17
    4396:	0f 91       	pop	r16
    4398:	ff 90       	pop	r15
    439a:	ef 90       	pop	r14
    439c:	08 95       	ret

0000439e <SCSI_Command_Inquiry>:
 *
 *  \return Boolean \c true if the command completed successfully, \c false otherwise.
 */
static bool SCSI_Command_Inquiry(USB_ClassInfo_MS_Device_t* const
                                 MSInterfaceInfo)
{
    439e:	ef 92       	push	r14
    43a0:	ff 92       	push	r15
    43a2:	0f 93       	push	r16
    43a4:	1f 93       	push	r17
    43a6:	cf 93       	push	r28
    43a8:	df 93       	push	r29
    43aa:	fc 01       	movw	r30, r24
    uint16_t AllocationLength  = SwapEndian_16(*(uint16_t*)
    43ac:	86 8d       	ldd	r24, Z+30	; 0x1e
    43ae:	97 8d       	ldd	r25, Z+31	; 0x1f

				Temp = Data.Bytes[0];
				Data.Bytes[0] = Data.Bytes[1];
				Data.Bytes[1] = Temp;

				return Data.Word;
    43b0:	09 2f       	mov	r16, r25
    43b2:	18 2f       	mov	r17, r24
                                 &MSInterfaceInfo->State.CommandBlock.SCSICommandData[3]);
    uint16_t BytesTransferred  = MIN(AllocationLength, sizeof(InquiryData));
    43b4:	78 01       	movw	r14, r16
    43b6:	05 32       	cpi	r16, 0x25	; 37
    43b8:	11 05       	cpc	r17, r1
    43ba:	28 f0       	brcs	.+10     	; 0x43c6 <SCSI_Command_Inquiry+0x28>
    43bc:	0f 2e       	mov	r0, r31
    43be:	f4 e2       	ldi	r31, 0x24	; 36
    43c0:	ef 2e       	mov	r14, r31
    43c2:	f1 2c       	mov	r15, r1
    43c4:	f0 2d       	mov	r31, r0

    /* Only the standard INQUIRY data is supported, check if any optional INQUIRY bits set */
    if ((MSInterfaceInfo->State.CommandBlock.SCSICommandData[1] & ((1 << 0) |
    43c6:	84 8d       	ldd	r24, Z+28	; 0x1c
    43c8:	83 70       	andi	r24, 0x03	; 3
    43ca:	19 f4       	brne	.+6      	; 0x43d2 <SCSI_Command_Inquiry+0x34>
            (1 << 1))) ||
            MSInterfaceInfo->State.CommandBlock.SCSICommandData[2])
    43cc:	85 8d       	ldd	r24, Z+29	; 0x1d
                                 &MSInterfaceInfo->State.CommandBlock.SCSICommandData[3]);
    uint16_t BytesTransferred  = MIN(AllocationLength, sizeof(InquiryData));

    /* Only the standard INQUIRY data is supported, check if any optional INQUIRY bits set */
    if ((MSInterfaceInfo->State.CommandBlock.SCSICommandData[1] & ((1 << 0) |
            (1 << 1))) ||
    43ce:	88 23       	and	r24, r24
    43d0:	69 f0       	breq	.+26     	; 0x43ec <SCSI_Command_Inquiry+0x4e>
            MSInterfaceInfo->State.CommandBlock.SCSICommandData[2])
    {
        /* Optional but unsupported bits set - update the SENSE key and fail the request */
        SCSI_SET_SENSE(SCSI_SENSE_KEY_ILLEGAL_REQUEST,
    43d2:	eb e7       	ldi	r30, 0x7B	; 123
    43d4:	f1 e0       	ldi	r31, 0x01	; 1
    43d6:	80 81       	ld	r24, Z
    43d8:	80 7f       	andi	r24, 0xF0	; 240
    43da:	85 60       	ori	r24, 0x05	; 5
    43dc:	80 83       	st	Z, r24
    43de:	e9 e7       	ldi	r30, 0x79	; 121
    43e0:	f1 e0       	ldi	r31, 0x01	; 1
    43e2:	84 e2       	ldi	r24, 0x24	; 36
    43e4:	84 87       	std	Z+12, r24	; 0x0c
    43e6:	15 86       	std	Z+13, r1	; 0x0d
                       SCSI_ASENSE_INVALID_FIELD_IN_CDB,
                       SCSI_ASENSEQ_NO_QUALIFIER);

        return false;
    43e8:	80 e0       	ldi	r24, 0x00	; 0
    43ea:	21 c0       	rjmp	.+66     	; 0x442e <SCSI_Command_Inquiry+0x90>
    43ec:	ef 01       	movw	r28, r30
    }

    Endpoint_Write_Stream_LE(&InquiryData, BytesTransferred, NULL);
    43ee:	40 e0       	ldi	r20, 0x00	; 0
    43f0:	50 e0       	ldi	r21, 0x00	; 0
    43f2:	b7 01       	movw	r22, r14
    43f4:	87 e3       	ldi	r24, 0x37	; 55
    43f6:	94 e0       	ldi	r25, 0x04	; 4
    43f8:	0e 94 fc 2a 	call	0x55f8	; 0x55f8 <Endpoint_Write_Stream_LE>

    /* Pad out remaining bytes with 0x00 */
    Endpoint_Null_Stream((AllocationLength - BytesTransferred), NULL);
    43fc:	60 e0       	ldi	r22, 0x00	; 0
    43fe:	70 e0       	ldi	r23, 0x00	; 0
    4400:	c8 01       	movw	r24, r16
    4402:	8e 19       	sub	r24, r14
    4404:	9f 09       	sbc	r25, r15
    4406:	0e 94 be 2a 	call	0x557c	; 0x557c <Endpoint_Null_Stream>
    440a:	e8 ee       	ldi	r30, 0xE8	; 232
    440c:	f0 e0       	ldi	r31, 0x00	; 0
    440e:	80 81       	ld	r24, Z
    4410:	8e 77       	andi	r24, 0x7E	; 126
    4412:	80 83       	st	Z, r24

    /* Finalize the stream transfer to send the last packet */
    Endpoint_ClearIN();

    /* Succeed the command and update the bytes transferred counter */
    MSInterfaceInfo->State.CommandBlock.DataTransferLength -= BytesTransferred;
    4414:	8c 89       	ldd	r24, Y+20	; 0x14
    4416:	9d 89       	ldd	r25, Y+21	; 0x15
    4418:	ae 89       	ldd	r26, Y+22	; 0x16
    441a:	bf 89       	ldd	r27, Y+23	; 0x17
    441c:	8e 19       	sub	r24, r14
    441e:	9f 09       	sbc	r25, r15
    4420:	a1 09       	sbc	r26, r1
    4422:	b1 09       	sbc	r27, r1
    4424:	8c 8b       	std	Y+20, r24	; 0x14
    4426:	9d 8b       	std	Y+21, r25	; 0x15
    4428:	ae 8b       	std	Y+22, r26	; 0x16
    442a:	bf 8b       	std	Y+23, r27	; 0x17

    return true;
    442c:	81 e0       	ldi	r24, 0x01	; 1
}
    442e:	df 91       	pop	r29
    4430:	cf 91       	pop	r28
    4432:	1f 91       	pop	r17
    4434:	0f 91       	pop	r16
    4436:	ff 90       	pop	r15
    4438:	ef 90       	pop	r14
    443a:	08 95       	ret

0000443c <SCSI_Command_Read_Capacity_10>:
 *
 *  \return Boolean \c true if the command completed successfully, \c false otherwise.
 */
static bool SCSI_Command_Read_Capacity_10(USB_ClassInfo_MS_Device_t* const
        MSInterfaceInfo)
{
    443c:	0f 93       	push	r16
    443e:	1f 93       	push	r17
    4440:	cf 93       	push	r28
    4442:	df 93       	push	r29
    4444:	cd b7       	in	r28, 0x3d	; 61
    4446:	de b7       	in	r29, 0x3e	; 62
    4448:	28 97       	sbiw	r28, 0x08	; 8
    444a:	0f b6       	in	r0, 0x3f	; 63
    444c:	f8 94       	cli
    444e:	de bf       	out	0x3e, r29	; 62
    4450:	0f be       	out	0x3f, r0	; 63
    4452:	cd bf       	out	0x3d, r28	; 61
    4454:	8c 01       	movw	r16, r24
    uint32_t LastBlockAddressInLUN = (LUN_MEDIA_BLOCKS - 1);
    4456:	c0 d2       	rcall	.+1408   	; 0x49d8 <sdcard_GetNbBlocks>
    4458:	dc 01       	movw	r26, r24
    445a:	cb 01       	movw	r24, r22
    445c:	01 97       	sbiw	r24, 0x01	; 1
    445e:	a1 09       	sbc	r26, r1
    4460:	b1 09       	sbc	r27, r1
    4462:	89 83       	std	Y+1, r24	; 0x01
    4464:	9a 83       	std	Y+2, r25	; 0x02
    4466:	ab 83       	std	Y+3, r26	; 0x03
    4468:	bc 83       	std	Y+4, r27	; 0x04
    uint32_t MediaBlockSize        = VIRTUAL_MEMORY_BLOCK_SIZE;
    446a:	80 e0       	ldi	r24, 0x00	; 0
    446c:	92 e0       	ldi	r25, 0x02	; 2
    446e:	a0 e0       	ldi	r26, 0x00	; 0
    4470:	b0 e0       	ldi	r27, 0x00	; 0
    4472:	8d 83       	std	Y+5, r24	; 0x05
    4474:	9e 83       	std	Y+6, r25	; 0x06
    4476:	af 83       	std	Y+7, r26	; 0x07
    4478:	b8 87       	std	Y+8, r27	; 0x08

    Endpoint_Write_Stream_BE(&LastBlockAddressInLUN, sizeof(LastBlockAddressInLUN),
    447a:	40 e0       	ldi	r20, 0x00	; 0
    447c:	50 e0       	ldi	r21, 0x00	; 0
    447e:	64 e0       	ldi	r22, 0x04	; 4
    4480:	70 e0       	ldi	r23, 0x00	; 0
    4482:	ce 01       	movw	r24, r28
    4484:	01 96       	adiw	r24, 0x01	; 1
    4486:	0e 94 45 2b 	call	0x568a	; 0x568a <Endpoint_Write_Stream_BE>
                             NULL);
    Endpoint_Write_Stream_BE(&MediaBlockSize, sizeof(MediaBlockSize), NULL);
    448a:	40 e0       	ldi	r20, 0x00	; 0
    448c:	50 e0       	ldi	r21, 0x00	; 0
    448e:	64 e0       	ldi	r22, 0x04	; 4
    4490:	70 e0       	ldi	r23, 0x00	; 0
    4492:	ce 01       	movw	r24, r28
    4494:	05 96       	adiw	r24, 0x05	; 5
    4496:	0e 94 45 2b 	call	0x568a	; 0x568a <Endpoint_Write_Stream_BE>
    449a:	e8 ee       	ldi	r30, 0xE8	; 232
    449c:	f0 e0       	ldi	r31, 0x00	; 0
    449e:	80 81       	ld	r24, Z
    44a0:	8e 77       	andi	r24, 0x7E	; 126
    44a2:	80 83       	st	Z, r24
    Endpoint_ClearIN();

    /* Succeed the command and update the bytes transferred counter */
    MSInterfaceInfo->State.CommandBlock.DataTransferLength -= 8;
    44a4:	f8 01       	movw	r30, r16
    44a6:	84 89       	ldd	r24, Z+20	; 0x14
    44a8:	95 89       	ldd	r25, Z+21	; 0x15
    44aa:	a6 89       	ldd	r26, Z+22	; 0x16
    44ac:	b7 89       	ldd	r27, Z+23	; 0x17
    44ae:	08 97       	sbiw	r24, 0x08	; 8
    44b0:	a1 09       	sbc	r26, r1
    44b2:	b1 09       	sbc	r27, r1
    44b4:	84 8b       	std	Z+20, r24	; 0x14
    44b6:	95 8b       	std	Z+21, r25	; 0x15
    44b8:	a6 8b       	std	Z+22, r26	; 0x16
    44ba:	b7 8b       	std	Z+23, r27	; 0x17

    return true;
}
    44bc:	81 e0       	ldi	r24, 0x01	; 1
    44be:	28 96       	adiw	r28, 0x08	; 8
    44c0:	0f b6       	in	r0, 0x3f	; 63
    44c2:	f8 94       	cli
    44c4:	de bf       	out	0x3e, r29	; 62
    44c6:	0f be       	out	0x3f, r0	; 63
    44c8:	cd bf       	out	0x3d, r28	; 61
    44ca:	df 91       	pop	r29
    44cc:	cf 91       	pop	r28
    44ce:	1f 91       	pop	r17
    44d0:	0f 91       	pop	r16
    44d2:	08 95       	ret

000044d4 <SCSI_Command_Send_Diagnostic>:
 *
 *  \return Boolean \c true if the command completed successfully, \c false otherwise.
 */
static bool SCSI_Command_Send_Diagnostic(USB_ClassInfo_MS_Device_t* const
        MSInterfaceInfo)
{
    44d4:	cf 93       	push	r28
    44d6:	df 93       	push	r29
    /* Check to see if the SELF TEST bit is not set */
    if (!(MSInterfaceInfo->State.CommandBlock.SCSICommandData[1] & (1 << 2)))
    44d8:	fc 01       	movw	r30, r24
    44da:	24 8d       	ldd	r18, Z+28	; 0x1c
    44dc:	22 fd       	sbrc	r18, 2
    44de:	0d c0       	rjmp	.+26     	; 0x44fa <SCSI_Command_Send_Diagnostic+0x26>
    {
        /* Only self-test supported - update SENSE key and fail the command */
        SCSI_SET_SENSE(SCSI_SENSE_KEY_ILLEGAL_REQUEST,
    44e0:	eb e7       	ldi	r30, 0x7B	; 123
    44e2:	f1 e0       	ldi	r31, 0x01	; 1
    44e4:	80 81       	ld	r24, Z
    44e6:	80 7f       	andi	r24, 0xF0	; 240
    44e8:	85 60       	ori	r24, 0x05	; 5
    44ea:	80 83       	st	Z, r24
    44ec:	e9 e7       	ldi	r30, 0x79	; 121
    44ee:	f1 e0       	ldi	r31, 0x01	; 1
    44f0:	84 e2       	ldi	r24, 0x24	; 36
    44f2:	84 87       	std	Z+12, r24	; 0x0c
    44f4:	15 86       	std	Z+13, r1	; 0x0d
                       SCSI_ASENSE_INVALID_FIELD_IN_CDB,
                       SCSI_ASENSEQ_NO_QUALIFIER);

        return false;
    44f6:	80 e0       	ldi	r24, 0x00	; 0
    44f8:	13 c0       	rjmp	.+38     	; 0x4520 <SCSI_Command_Send_Diagnostic+0x4c>
    44fa:	ec 01       	movw	r28, r24
    }

    /* Check to see if all attached Dataflash ICs are functional */
    if (!(sdcard_CheckDataflashOperation()))
    44fc:	47 d4       	rcall	.+2190   	; 0x4d8c <sdcard_CheckDataflashOperation>
    44fe:	81 11       	cpse	r24, r1
    4500:	0b c0       	rjmp	.+22     	; 0x4518 <SCSI_Command_Send_Diagnostic+0x44>
    {
        /* Update SENSE key with a hardware error condition and return command fail */
        SCSI_SET_SENSE(SCSI_SENSE_KEY_HARDWARE_ERROR,
    4502:	eb e7       	ldi	r30, 0x7B	; 123
    4504:	f1 e0       	ldi	r31, 0x01	; 1
    4506:	90 81       	ld	r25, Z
    4508:	90 7f       	andi	r25, 0xF0	; 240
    450a:	94 60       	ori	r25, 0x04	; 4
    450c:	90 83       	st	Z, r25
    450e:	e9 e7       	ldi	r30, 0x79	; 121
    4510:	f1 e0       	ldi	r31, 0x01	; 1
    4512:	14 86       	std	Z+12, r1	; 0x0c
    4514:	15 86       	std	Z+13, r1	; 0x0d
                       SCSI_ASENSE_NO_ADDITIONAL_INFORMATION,
                       SCSI_ASENSEQ_NO_QUALIFIER);

        return false;
    4516:	04 c0       	rjmp	.+8      	; 0x4520 <SCSI_Command_Send_Diagnostic+0x4c>
    }

    /* Succeed the command and update the bytes transferred counter */
    MSInterfaceInfo->State.CommandBlock.DataTransferLength = 0;
    4518:	1c 8a       	std	Y+20, r1	; 0x14
    451a:	1d 8a       	std	Y+21, r1	; 0x15
    451c:	1e 8a       	std	Y+22, r1	; 0x16
    451e:	1f 8a       	std	Y+23, r1	; 0x17

    return true;
}
    4520:	df 91       	pop	r29
    4522:	cf 91       	pop	r28
    4524:	08 95       	ret

00004526 <SCSI_Command_ReadWrite_10>:
 *  \return Boolean \c true if the command completed successfully, \c false otherwise.
 */
static bool SCSI_Command_ReadWrite_10(USB_ClassInfo_MS_Device_t* const
                                      MSInterfaceInfo,
                                      const bool IsDataRead)
{
    4526:	bf 92       	push	r11
    4528:	cf 92       	push	r12
    452a:	df 92       	push	r13
    452c:	ef 92       	push	r14
    452e:	ff 92       	push	r15
    4530:	0f 93       	push	r16
    4532:	1f 93       	push	r17
    4534:	cf 93       	push	r28
    4536:	df 93       	push	r29
    4538:	ec 01       	movw	r28, r24
    453a:	b6 2e       	mov	r11, r22

        return false;
    }

    /* Load in the 32-bit block address (SCSI uses big-endian, so have to reverse the byte order) */
    BlockAddress = SwapEndian_32(*(uint32_t*)
    453c:	8d 8d       	ldd	r24, Y+29	; 0x1d
    453e:	9e 8d       	ldd	r25, Y+30	; 0x1e
    4540:	2f 8d       	ldd	r18, Y+31	; 0x1f
    4542:	38 a1       	ldd	r19, Y+32	; 0x20

				Temp = Data.Bytes[1];
				Data.Bytes[1] = Data.Bytes[2];
				Data.Bytes[2] = Temp;

				return Data.DWord;
    4544:	c3 2e       	mov	r12, r19
    4546:	d2 2e       	mov	r13, r18
    4548:	e9 2e       	mov	r14, r25
    454a:	f8 2e       	mov	r15, r24
                                 &MSInterfaceInfo->State.CommandBlock.SCSICommandData[2]);

    /* Load in the 16-bit total blocks (SCSI uses big-endian, so have to reverse the byte order) */
    TotalBlocks  = SwapEndian_16(*(uint16_t*)
    454c:	8a a1       	ldd	r24, Y+34	; 0x22
    454e:	9b a1       	ldd	r25, Y+35	; 0x23

				Temp = Data.Bytes[0];
				Data.Bytes[0] = Data.Bytes[1];
				Data.Bytes[1] = Temp;

				return Data.Word;
    4550:	09 2f       	mov	r16, r25
    4552:	18 2f       	mov	r17, r24
                                 &MSInterfaceInfo->State.CommandBlock.SCSICommandData[7]);

    /* Check if the block address is outside the maximum allowable value for the LUN */
    if (BlockAddress >= LUN_MEDIA_BLOCKS)
    4554:	41 d2       	rcall	.+1154   	; 0x49d8 <sdcard_GetNbBlocks>
    4556:	c6 16       	cp	r12, r22
    4558:	d7 06       	cpc	r13, r23
    455a:	e8 06       	cpc	r14, r24
    455c:	f9 06       	cpc	r15, r25
    455e:	68 f0       	brcs	.+26     	; 0x457a <SCSI_Command_ReadWrite_10+0x54>
    {
        /* Block address is invalid, update SENSE key and return command fail */
        SCSI_SET_SENSE(SCSI_SENSE_KEY_ILLEGAL_REQUEST,
    4560:	eb e7       	ldi	r30, 0x7B	; 123
    4562:	f1 e0       	ldi	r31, 0x01	; 1
    4564:	80 81       	ld	r24, Z
    4566:	80 7f       	andi	r24, 0xF0	; 240
    4568:	85 60       	ori	r24, 0x05	; 5
    456a:	80 83       	st	Z, r24
    456c:	e9 e7       	ldi	r30, 0x79	; 121
    456e:	f1 e0       	ldi	r31, 0x01	; 1
    4570:	81 e2       	ldi	r24, 0x21	; 33
    4572:	84 87       	std	Z+12, r24	; 0x0c
    4574:	15 86       	std	Z+13, r1	; 0x0d
                       SCSI_ASENSE_LOGICAL_BLOCK_ADDRESS_OUT_OF_RANGE,
                       SCSI_ASENSEQ_NO_QUALIFIER);

        return false;
    4576:	80 e0       	ldi	r24, 0x00	; 0
    4578:	28 c0       	rjmp	.+80     	; 0x45ca <SCSI_Command_ReadWrite_10+0xa4>
    BlockAddress += ((uint32_t)MSInterfaceInfo->State.CommandBlock.LUN *
                     LUN_MEDIA_BLOCKS);
#endif

    /* Determine if the packet is a READ (10) or WRITE (10) command, call appropriate function */
    if (IsDataRead == DATA_READ)
    457a:	bb 20       	and	r11, r11
    457c:	31 f0       	breq	.+12     	; 0x458a <SCSI_Command_ReadWrite_10+0x64>
    {
        sdcard_ReadBlocks(MSInterfaceInfo, BlockAddress, TotalBlocks);
    457e:	98 01       	movw	r18, r16
    4580:	b7 01       	movw	r22, r14
    4582:	a6 01       	movw	r20, r12
    4584:	ce 01       	movw	r24, r28
    4586:	73 d3       	rcall	.+1766   	; 0x4c6e <sdcard_ReadBlocks>
    4588:	05 c0       	rjmp	.+10     	; 0x4594 <SCSI_Command_ReadWrite_10+0x6e>
    }
    else
    {
        sdcard_WriteBlocks(MSInterfaceInfo, BlockAddress, TotalBlocks);
    458a:	98 01       	movw	r18, r16
    458c:	b7 01       	movw	r22, r14
    458e:	a6 01       	movw	r20, r12
    4590:	ce 01       	movw	r24, r28
    4592:	01 d3       	rcall	.+1538   	; 0x4b96 <sdcard_WriteBlocks>
    }

    /* Update the bytes transferred counter and succeed the command */
    MSInterfaceInfo->State.CommandBlock.DataTransferLength -= ((
    4594:	c8 01       	movw	r24, r16
    4596:	a0 e0       	ldi	r26, 0x00	; 0
    4598:	b0 e0       	ldi	r27, 0x00	; 0
                uint32_t)TotalBlocks * VIRTUAL_MEMORY_BLOCK_SIZE);
    459a:	07 2e       	mov	r0, r23
    459c:	79 e0       	ldi	r23, 0x09	; 9
    459e:	88 0f       	add	r24, r24
    45a0:	99 1f       	adc	r25, r25
    45a2:	aa 1f       	adc	r26, r26
    45a4:	bb 1f       	adc	r27, r27
    45a6:	7a 95       	dec	r23
    45a8:	d1 f7       	brne	.-12     	; 0x459e <SCSI_Command_ReadWrite_10+0x78>
    45aa:	70 2d       	mov	r23, r0
    {
        sdcard_WriteBlocks(MSInterfaceInfo, BlockAddress, TotalBlocks);
    }

    /* Update the bytes transferred counter and succeed the command */
    MSInterfaceInfo->State.CommandBlock.DataTransferLength -= ((
    45ac:	4c 89       	ldd	r20, Y+20	; 0x14
    45ae:	5d 89       	ldd	r21, Y+21	; 0x15
    45b0:	6e 89       	ldd	r22, Y+22	; 0x16
    45b2:	7f 89       	ldd	r23, Y+23	; 0x17
    45b4:	8a 01       	movw	r16, r20
    45b6:	9b 01       	movw	r18, r22
    45b8:	08 1b       	sub	r16, r24
    45ba:	19 0b       	sbc	r17, r25
    45bc:	2a 0b       	sbc	r18, r26
    45be:	3b 0b       	sbc	r19, r27
    45c0:	0c 8b       	std	Y+20, r16	; 0x14
    45c2:	1d 8b       	std	Y+21, r17	; 0x15
    45c4:	2e 8b       	std	Y+22, r18	; 0x16
    45c6:	3f 8b       	std	Y+23, r19	; 0x17
                uint32_t)TotalBlocks * VIRTUAL_MEMORY_BLOCK_SIZE);

    return true;
    45c8:	81 e0       	ldi	r24, 0x01	; 1
}
    45ca:	df 91       	pop	r29
    45cc:	cf 91       	pop	r28
    45ce:	1f 91       	pop	r17
    45d0:	0f 91       	pop	r16
    45d2:	ff 90       	pop	r15
    45d4:	ef 90       	pop	r14
    45d6:	df 90       	pop	r13
    45d8:	cf 90       	pop	r12
    45da:	bf 90       	pop	r11
    45dc:	08 95       	ret

000045de <SCSI_DecodeSCSICommand>:
 *  \param[in] MSInterfaceInfo  Pointer to the Mass Storage class interface structure that the command is associated with
 *
 *  \return Boolean \c true if the command completed successfully, \c false otherwise
 */
bool SCSI_DecodeSCSICommand(USB_ClassInfo_MS_Device_t* const MSInterfaceInfo)
{
    45de:	fc 01       	movw	r30, r24
    bool CommandSuccess = false;

    /* Run the appropriate SCSI command hander function based on the passed command */
    switch (MSInterfaceInfo->State.CommandBlock.SCSICommandData[0])
    45e0:	93 8d       	ldd	r25, Z+27	; 0x1b
    45e2:	9d 31       	cpi	r25, 0x1D	; 29
    45e4:	21 f1       	breq	.+72     	; 0x462e <SCSI_DecodeSCSICommand+0x50>
    45e6:	68 f4       	brcc	.+26     	; 0x4602 <SCSI_DecodeSCSICommand+0x24>
    45e8:	92 31       	cpi	r25, 0x12	; 18
    45ea:	c1 f0       	breq	.+48     	; 0x461c <SCSI_DecodeSCSICommand+0x3e>
    45ec:	28 f4       	brcc	.+10     	; 0x45f8 <SCSI_DecodeSCSICommand+0x1a>
    45ee:	99 23       	and	r25, r25
    45f0:	61 f1       	breq	.+88     	; 0x464a <SCSI_DecodeSCSICommand+0x6c>
    45f2:	93 30       	cpi	r25, 0x03	; 3
    45f4:	b1 f0       	breq	.+44     	; 0x4622 <SCSI_DecodeSCSICommand+0x44>
    45f6:	2f c0       	rjmp	.+94     	; 0x4656 <SCSI_DecodeSCSICommand+0x78>
    45f8:	9a 31       	cpi	r25, 0x1A	; 26
    45fa:	21 f1       	breq	.+72     	; 0x4644 <SCSI_DecodeSCSICommand+0x66>
    45fc:	9b 31       	cpi	r25, 0x1B	; 27
    45fe:	29 f1       	breq	.+74     	; 0x464a <SCSI_DecodeSCSICommand+0x6c>
    4600:	2a c0       	rjmp	.+84     	; 0x4656 <SCSI_DecodeSCSICommand+0x78>
    4602:	98 32       	cpi	r25, 0x28	; 40
    4604:	d9 f0       	breq	.+54     	; 0x463c <SCSI_DecodeSCSICommand+0x5e>
    4606:	28 f4       	brcc	.+10     	; 0x4612 <SCSI_DecodeSCSICommand+0x34>
    4608:	9e 31       	cpi	r25, 0x1E	; 30
    460a:	f9 f0       	breq	.+62     	; 0x464a <SCSI_DecodeSCSICommand+0x6c>
    460c:	95 32       	cpi	r25, 0x25	; 37
    460e:	61 f0       	breq	.+24     	; 0x4628 <SCSI_DecodeSCSICommand+0x4a>
    4610:	22 c0       	rjmp	.+68     	; 0x4656 <SCSI_DecodeSCSICommand+0x78>
    4612:	9a 32       	cpi	r25, 0x2A	; 42
    4614:	79 f0       	breq	.+30     	; 0x4634 <SCSI_DecodeSCSICommand+0x56>
    4616:	9f 32       	cpi	r25, 0x2F	; 47
    4618:	c1 f0       	breq	.+48     	; 0x464a <SCSI_DecodeSCSICommand+0x6c>
    461a:	1d c0       	rjmp	.+58     	; 0x4656 <SCSI_DecodeSCSICommand+0x78>
    {
        case SCSI_CMD_INQUIRY:
            CommandSuccess = SCSI_Command_Inquiry(MSInterfaceInfo);
    461c:	cf 01       	movw	r24, r30
    461e:	bf de       	rcall	.-642    	; 0x439e <SCSI_Command_Inquiry>
            break;
    4620:	26 c0       	rjmp	.+76     	; 0x466e <SCSI_DecodeSCSICommand+0x90>
        case SCSI_CMD_REQUEST_SENSE:
            CommandSuccess = SCSI_Command_Request_Sense(MSInterfaceInfo);
    4622:	cf 01       	movw	r24, r30
    4624:	84 de       	rcall	.-760    	; 0x432e <SCSI_Command_Request_Sense>
            break;
        case SCSI_CMD_READ_CAPACITY_10:
            CommandSuccess = SCSI_Command_Read_Capacity_10(MSInterfaceInfo);
    4626:	23 c0       	rjmp	.+70     	; 0x466e <SCSI_DecodeSCSICommand+0x90>
    4628:	cf 01       	movw	r24, r30
            break;
    462a:	08 df       	rcall	.-496    	; 0x443c <SCSI_Command_Read_Capacity_10>
        case SCSI_CMD_SEND_DIAGNOSTIC:
            CommandSuccess = SCSI_Command_Send_Diagnostic(MSInterfaceInfo);
    462c:	20 c0       	rjmp	.+64     	; 0x466e <SCSI_DecodeSCSICommand+0x90>
    462e:	cf 01       	movw	r24, r30
            break;
    4630:	51 df       	rcall	.-350    	; 0x44d4 <SCSI_Command_Send_Diagnostic>
        case SCSI_CMD_WRITE_10:
            CommandSuccess = SCSI_Command_ReadWrite_10(MSInterfaceInfo, DATA_WRITE);
    4632:	1d c0       	rjmp	.+58     	; 0x466e <SCSI_DecodeSCSICommand+0x90>
    4634:	60 e0       	ldi	r22, 0x00	; 0
    4636:	cf 01       	movw	r24, r30
            break;
    4638:	76 df       	rcall	.-276    	; 0x4526 <SCSI_Command_ReadWrite_10>
        case SCSI_CMD_READ_10:
            CommandSuccess = SCSI_Command_ReadWrite_10(MSInterfaceInfo, DATA_READ);
    463a:	19 c0       	rjmp	.+50     	; 0x466e <SCSI_DecodeSCSICommand+0x90>
    463c:	61 e0       	ldi	r22, 0x01	; 1
    463e:	cf 01       	movw	r24, r30
            break;
    4640:	72 df       	rcall	.-284    	; 0x4526 <SCSI_Command_ReadWrite_10>
        case SCSI_CMD_MODE_SENSE_6:
            CommandSuccess = SCSI_Command_ModeSense_6(MSInterfaceInfo);
    4642:	15 c0       	rjmp	.+42     	; 0x466e <SCSI_DecodeSCSICommand+0x90>
    4644:	cf 01       	movw	r24, r30
    4646:	55 de       	rcall	.-854    	; 0x42f2 <SCSI_Command_ModeSense_6>
            break;
    4648:	12 c0       	rjmp	.+36     	; 0x466e <SCSI_DecodeSCSICommand+0x90>
        case SCSI_CMD_TEST_UNIT_READY:
        case SCSI_CMD_PREVENT_ALLOW_MEDIUM_REMOVAL:
        case SCSI_CMD_VERIFY_10:
            /* These commands should just succeed, no handling required */
            CommandSuccess = true;
            MSInterfaceInfo->State.CommandBlock.DataTransferLength = 0;
    464a:	14 8a       	std	Z+20, r1	; 0x14
    464c:	15 8a       	std	Z+21, r1	; 0x15
    464e:	16 8a       	std	Z+22, r1	; 0x16
    4650:	17 8a       	std	Z+23, r1	; 0x17
        case SCSI_CMD_START_STOP_UNIT:
        case SCSI_CMD_TEST_UNIT_READY:
        case SCSI_CMD_PREVENT_ALLOW_MEDIUM_REMOVAL:
        case SCSI_CMD_VERIFY_10:
            /* These commands should just succeed, no handling required */
            CommandSuccess = true;
    4652:	81 e0       	ldi	r24, 0x01	; 1
            MSInterfaceInfo->State.CommandBlock.DataTransferLength = 0;
            break;
    4654:	0c c0       	rjmp	.+24     	; 0x466e <SCSI_DecodeSCSICommand+0x90>
        default:
            /* Update the SENSE key to reflect the invalid command */
            SCSI_SET_SENSE(SCSI_SENSE_KEY_ILLEGAL_REQUEST,
    4656:	eb e7       	ldi	r30, 0x7B	; 123
    4658:	f1 e0       	ldi	r31, 0x01	; 1
    465a:	80 81       	ld	r24, Z
    465c:	80 7f       	andi	r24, 0xF0	; 240
    465e:	85 60       	ori	r24, 0x05	; 5
    4660:	80 83       	st	Z, r24
    4662:	e9 e7       	ldi	r30, 0x79	; 121
    4664:	f1 e0       	ldi	r31, 0x01	; 1
    4666:	80 e2       	ldi	r24, 0x20	; 32
    4668:	84 87       	std	Z+12, r24	; 0x0c
    466a:	15 86       	std	Z+13, r1	; 0x0d
 *
 *  \return Boolean \c true if the command completed successfully, \c false otherwise
 */
bool SCSI_DecodeSCSICommand(USB_ClassInfo_MS_Device_t* const MSInterfaceInfo)
{
    bool CommandSuccess = false;
    466c:	80 e0       	ldi	r24, 0x00	; 0
                           SCSI_ASENSEQ_NO_QUALIFIER);
            break;
    }

    /* Check if command was successfully processed */
    if (CommandSuccess)
    466e:	88 23       	and	r24, r24
    4670:	59 f0       	breq	.+22     	; 0x4688 <SCSI_DecodeSCSICommand+0xaa>
    {
        SCSI_SET_SENSE(SCSI_SENSE_KEY_GOOD,
    4672:	eb e7       	ldi	r30, 0x7B	; 123
    4674:	f1 e0       	ldi	r31, 0x01	; 1
    4676:	80 81       	ld	r24, Z
    4678:	80 7f       	andi	r24, 0xF0	; 240
    467a:	80 83       	st	Z, r24
    467c:	e9 e7       	ldi	r30, 0x79	; 121
    467e:	f1 e0       	ldi	r31, 0x01	; 1
    4680:	14 86       	std	Z+12, r1	; 0x0c
    4682:	15 86       	std	Z+13, r1	; 0x0d
                       SCSI_ASENSE_NO_ADDITIONAL_INFORMATION,
                       SCSI_ASENSEQ_NO_QUALIFIER);

        return true;
    4684:	81 e0       	ldi	r24, 0x01	; 1
    4686:	08 95       	ret
    }

    return false;
    4688:	80 e0       	ldi	r24, 0x00	; 0
}
    468a:	08 95       	ret

0000468c <get_fattime>:
FIL File[1];        /* File object */

BYTE RtcOk;             /* RTC is available */

DWORD get_fattime (void)
{
    468c:	cf 93       	push	r28
    468e:	df 93       	push	r29
    4690:	cd b7       	in	r28, 0x3d	; 61
    4692:	de b7       	in	r29, 0x3e	; 62
    4694:	28 97       	sbiw	r28, 0x08	; 8
    4696:	0f b6       	in	r0, 0x3f	; 63
    4698:	f8 94       	cli
    469a:	de bf       	out	0x3e, r29	; 62
    469c:	0f be       	out	0x3f, r0	; 63
    469e:	cd bf       	out	0x3d, r28	; 61
    RTC rtc;


    if (!RtcOk)
    46a0:	80 91 65 0c 	lds	r24, 0x0C65	; 0x800c65 <RtcOk>
    46a4:	88 23       	and	r24, r24
    46a6:	09 f4       	brne	.+2      	; 0x46aa <get_fattime+0x1e>
    46a8:	61 c0       	rjmp	.+194    	; 0x476c <get_fattime+0xe0>
    {
        return 0;
    }

    /* Get local time */
    rtc_gettime(&rtc);
    46aa:	ce 01       	movw	r24, r28
    46ac:	01 96       	adiw	r24, 0x01	; 1
    46ae:	9d dd       	rcall	.-1222   	; 0x41ea <rtc_gettime>

    /* Pack date and time into a DWORD variable */
    return    ((DWORD)(rtc.year - 1980) << 25)
    46b0:	49 81       	ldd	r20, Y+1	; 0x01
    46b2:	5a 81       	ldd	r21, Y+2	; 0x02
    46b4:	4c 5b       	subi	r20, 0xBC	; 188
    46b6:	57 40       	sbci	r21, 0x07	; 7
    46b8:	60 e0       	ldi	r22, 0x00	; 0
    46ba:	70 e0       	ldi	r23, 0x00	; 0
    46bc:	03 2e       	mov	r0, r19
    46be:	39 e1       	ldi	r19, 0x19	; 25
    46c0:	44 0f       	add	r20, r20
    46c2:	55 1f       	adc	r21, r21
    46c4:	66 1f       	adc	r22, r22
    46c6:	77 1f       	adc	r23, r23
    46c8:	3a 95       	dec	r19
    46ca:	d1 f7       	brne	.-12     	; 0x46c0 <get_fattime+0x34>
    46cc:	30 2d       	mov	r19, r0
              | ((DWORD)rtc.month << 21)
    46ce:	8b 81       	ldd	r24, Y+3	; 0x03
    46d0:	90 e0       	ldi	r25, 0x00	; 0
    46d2:	a0 e0       	ldi	r26, 0x00	; 0
    46d4:	b0 e0       	ldi	r27, 0x00	; 0
    46d6:	07 2e       	mov	r0, r23
    46d8:	75 e1       	ldi	r23, 0x15	; 21
    46da:	88 0f       	add	r24, r24
    46dc:	99 1f       	adc	r25, r25
    46de:	aa 1f       	adc	r26, r26
    46e0:	bb 1f       	adc	r27, r27
    46e2:	7a 95       	dec	r23
    46e4:	d1 f7       	brne	.-12     	; 0x46da <get_fattime+0x4e>
    46e6:	70 2d       	mov	r23, r0
    46e8:	48 2b       	or	r20, r24
    46ea:	59 2b       	or	r21, r25
    46ec:	6a 2b       	or	r22, r26
    46ee:	7b 2b       	or	r23, r27
              | ((DWORD)rtc.mday << 16)
    46f0:	8c 81       	ldd	r24, Y+4	; 0x04
    46f2:	90 e0       	ldi	r25, 0x00	; 0
    46f4:	a0 e0       	ldi	r26, 0x00	; 0
    46f6:	b0 e0       	ldi	r27, 0x00	; 0
    46f8:	dc 01       	movw	r26, r24
    46fa:	99 27       	eor	r25, r25
    46fc:	88 27       	eor	r24, r24
    46fe:	48 2b       	or	r20, r24
    4700:	59 2b       	or	r21, r25
    4702:	6a 2b       	or	r22, r26
    4704:	7b 2b       	or	r23, r27
              | ((DWORD)rtc.hour << 11)
    4706:	8e 81       	ldd	r24, Y+6	; 0x06
    4708:	90 e0       	ldi	r25, 0x00	; 0
    470a:	a0 e0       	ldi	r26, 0x00	; 0
    470c:	b0 e0       	ldi	r27, 0x00	; 0
    470e:	07 2e       	mov	r0, r23
    4710:	7b e0       	ldi	r23, 0x0B	; 11
    4712:	88 0f       	add	r24, r24
    4714:	99 1f       	adc	r25, r25
    4716:	aa 1f       	adc	r26, r26
    4718:	bb 1f       	adc	r27, r27
    471a:	7a 95       	dec	r23
    471c:	d1 f7       	brne	.-12     	; 0x4712 <get_fattime+0x86>
    471e:	70 2d       	mov	r23, r0
    4720:	48 2b       	or	r20, r24
    4722:	59 2b       	or	r21, r25
    4724:	6a 2b       	or	r22, r26
    4726:	7b 2b       	or	r23, r27
              | ((DWORD)rtc.min << 5)
    4728:	8f 81       	ldd	r24, Y+7	; 0x07
    472a:	90 e0       	ldi	r25, 0x00	; 0
    472c:	a0 e0       	ldi	r26, 0x00	; 0
    472e:	b0 e0       	ldi	r27, 0x00	; 0
    4730:	88 0f       	add	r24, r24
    4732:	99 1f       	adc	r25, r25
    4734:	aa 1f       	adc	r26, r26
    4736:	bb 1f       	adc	r27, r27
    4738:	88 0f       	add	r24, r24
    473a:	99 1f       	adc	r25, r25
    473c:	aa 1f       	adc	r26, r26
    473e:	bb 1f       	adc	r27, r27
    4740:	88 0f       	add	r24, r24
    4742:	99 1f       	adc	r25, r25
    4744:	aa 1f       	adc	r26, r26
    4746:	bb 1f       	adc	r27, r27
    4748:	88 0f       	add	r24, r24
    474a:	99 1f       	adc	r25, r25
    474c:	aa 1f       	adc	r26, r26
    474e:	bb 1f       	adc	r27, r27
    4750:	88 0f       	add	r24, r24
    4752:	99 1f       	adc	r25, r25
    4754:	aa 1f       	adc	r26, r26
    4756:	bb 1f       	adc	r27, r27
    4758:	84 2b       	or	r24, r20
    475a:	95 2b       	or	r25, r21
    475c:	a6 2b       	or	r26, r22
    475e:	b7 2b       	or	r27, r23
              | ((DWORD)rtc.sec >> 1);
    4760:	28 85       	ldd	r18, Y+8	; 0x08
    4762:	26 95       	lsr	r18

    /* Get local time */
    rtc_gettime(&rtc);

    /* Pack date and time into a DWORD variable */
    return    ((DWORD)(rtc.year - 1980) << 25)
    4764:	bc 01       	movw	r22, r24
    4766:	cd 01       	movw	r24, r26
    4768:	62 2b       	or	r22, r18
    476a:	03 c0       	rjmp	.+6      	; 0x4772 <get_fattime+0xe6>
    RTC rtc;


    if (!RtcOk)
    {
        return 0;
    476c:	60 e0       	ldi	r22, 0x00	; 0
    476e:	70 e0       	ldi	r23, 0x00	; 0
    4770:	cb 01       	movw	r24, r22
              | ((DWORD)rtc.month << 21)
              | ((DWORD)rtc.mday << 16)
              | ((DWORD)rtc.hour << 11)
              | ((DWORD)rtc.min << 5)
              | ((DWORD)rtc.sec >> 1);
}
    4772:	28 96       	adiw	r28, 0x08	; 8
    4774:	0f b6       	in	r0, 0x3f	; 63
    4776:	f8 94       	cli
    4778:	de bf       	out	0x3e, r29	; 62
    477a:	0f be       	out	0x3f, r0	; 63
    477c:	cd bf       	out	0x3d, r28	; 61
    477e:	df 91       	pop	r29
    4780:	cf 91       	pop	r28
    4782:	08 95       	ret

00004784 <sdcard_create_sdload_times_file>:



bool sdcard_create_sdload_times_file(void)
{
    4784:	df 92       	push	r13
    4786:	ef 92       	push	r14
    4788:	ff 92       	push	r15
    478a:	0f 93       	push	r16
    478c:	1f 93       	push	r17
    478e:	cf 93       	push	r28
    4790:	df 93       	push	r29
    4792:	cd b7       	in	r28, 0x3d	; 61
    4794:	de b7       	in	r29, 0x3e	; 62
    4796:	c7 54       	subi	r28, 0x47	; 71
    4798:	d3 40       	sbci	r29, 0x03	; 3
    479a:	0f b6       	in	r0, 0x3f	; 63
    479c:	f8 94       	cli
    479e:	de bf       	out	0x3e, r29	; 62
    47a0:	0f be       	out	0x3f, r0	; 63
    47a2:	cd bf       	out	0x3d, r28	; 61
#define FILE_NAM_TEMPLATE "DRG_X%02X.TXT"
    char file_name[120] = { 0 };
    47a4:	88 e7       	ldi	r24, 0x78	; 120
    47a6:	fe 01       	movw	r30, r28
    47a8:	31 96       	adiw	r30, 0x01	; 1
    47aa:	df 01       	movw	r26, r30
    47ac:	98 2f       	mov	r25, r24
    47ae:	1d 92       	st	X+, r1
    47b0:	9a 95       	dec	r25
    47b2:	e9 f7       	brne	.-6      	; 0x47ae <sdcard_create_sdload_times_file+0x2a>
    FATFS fs;
    char line[120] = { 0 };
    47b4:	e5 55       	subi	r30, 0x55	; 85
    47b6:	fd 4f       	sbci	r31, 0xFD	; 253
    47b8:	df 01       	movw	r26, r30
    47ba:	1d 92       	st	X+, r1
    47bc:	8a 95       	dec	r24
    47be:	e9 f7       	brne	.-6      	; 0x47ba <sdcard_create_sdload_times_file+0x36>
    FIL file1;
    UINT bw;
    FRESULT fr;
    bool retf = false;

    printf("mounting fs\r\n");
    47c0:	8b e5       	ldi	r24, 0x5B	; 91
    47c2:	94 e0       	ldi	r25, 0x04	; 4
    47c4:	0e 94 52 31 	call	0x62a4	; 0x62a4 <puts>
    fr = f_mount(&fs, "", 0);
    47c8:	40 e0       	ldi	r20, 0x00	; 0
    47ca:	61 e4       	ldi	r22, 0x41	; 65
    47cc:	72 e0       	ldi	r23, 0x02	; 2
    47ce:	ce 01       	movw	r24, r28
    47d0:	87 58       	subi	r24, 0x87	; 135
    47d2:	9f 4f       	sbci	r25, 0xFF	; 255
    47d4:	0e 94 cd 11 	call	0x239a	; 0x239a <f_mount>
    if (fr == FR_OK)
    47d8:	81 11       	cpse	r24, r1
    47da:	e9 c0       	rjmp	.+466    	; 0x49ae <sdcard_create_sdload_times_file+0x22a>
    {
        printf("mount fs success \r\n");
    47dc:	88 e6       	ldi	r24, 0x68	; 104
    47de:	94 e0       	ldi	r25, 0x04	; 4
    47e0:	0e 94 52 31 	call	0x62a4	; 0x62a4 <puts>

        sprintf(file_name, FILE_NAM_TEMPLATE, eeprom_read_byte((uint8_t*)0x69));
    47e4:	89 e6       	ldi	r24, 0x69	; 105
    47e6:	90 e0       	ldi	r25, 0x00	; 0
    47e8:	0e 94 60 34 	call	0x68c0	; 0x68c0 <eeprom_read_byte>
    47ec:	1f 92       	push	r1
    47ee:	8f 93       	push	r24
    47f0:	0f 2e       	mov	r0, r31
    47f2:	fb e7       	ldi	r31, 0x7B	; 123
    47f4:	ef 2e       	mov	r14, r31
    47f6:	f4 e0       	ldi	r31, 0x04	; 4
    47f8:	ff 2e       	mov	r15, r31
    47fa:	f0 2d       	mov	r31, r0
    47fc:	ff 92       	push	r15
    47fe:	ef 92       	push	r14
    4800:	8e 01       	movw	r16, r28
    4802:	0f 5f       	subi	r16, 0xFF	; 255
    4804:	1f 4f       	sbci	r17, 0xFF	; 255
    4806:	1f 93       	push	r17
    4808:	0f 93       	push	r16
    480a:	0e 94 82 31 	call	0x6304	; 0x6304 <sprintf>
        printf("deleting last load file: %s\r\n", file_name);
    480e:	1f 93       	push	r17
    4810:	0f 93       	push	r16
    4812:	89 e8       	ldi	r24, 0x89	; 137
    4814:	94 e0       	ldi	r25, 0x04	; 4
    4816:	9f 93       	push	r25
    4818:	8f 93       	push	r24
    481a:	0e 94 18 31 	call	0x6230	; 0x6230 <printf>
        f_unlink(file_name);
    481e:	c8 01       	movw	r24, r16
    4820:	0e 94 75 17 	call	0x2eea	; 0x2eea <f_unlink>

        uint8_t new_id = eeprom_read_byte((uint8_t*)0x69) + 3;
    4824:	89 e6       	ldi	r24, 0x69	; 105
    4826:	90 e0       	ldi	r25, 0x00	; 0
    4828:	0e 94 60 34 	call	0x68c0	; 0x68c0 <eeprom_read_byte>
    482c:	0f 2e       	mov	r0, r31
    482e:	f3 e0       	ldi	r31, 0x03	; 3
    4830:	df 2e       	mov	r13, r31
    4832:	f0 2d       	mov	r31, r0
    4834:	d8 0e       	add	r13, r24
        memset(file_name, 0, sizeof(file_name));
    4836:	88 e7       	ldi	r24, 0x78	; 120
    4838:	f8 01       	movw	r30, r16
    483a:	11 92       	st	Z+, r1
    483c:	8a 95       	dec	r24
    483e:	e9 f7       	brne	.-6      	; 0x483a <sdcard_create_sdload_times_file+0xb6>

        sprintf(file_name, FILE_NAM_TEMPLATE, new_id);
    4840:	1f 92       	push	r1
    4842:	df 92       	push	r13
    4844:	ff 92       	push	r15
    4846:	ef 92       	push	r14
    4848:	1f 93       	push	r17
    484a:	0f 93       	push	r16
    484c:	0e 94 82 31 	call	0x6304	; 0x6304 <sprintf>
        sprintf(line, "sd load nr times: 0x%02X\r\n", new_id);
    4850:	1f 92       	push	r1
    4852:	df 92       	push	r13
    4854:	87 ea       	ldi	r24, 0xA7	; 167
    4856:	94 e0       	ldi	r25, 0x04	; 4
    4858:	9f 93       	push	r25
    485a:	8f 93       	push	r24
    485c:	ce 01       	movw	r24, r28
    485e:	84 55       	subi	r24, 0x54	; 84
    4860:	9d 4f       	sbci	r25, 0xFD	; 253
    4862:	9f 93       	push	r25
    4864:	8f 93       	push	r24
    4866:	0e 94 82 31 	call	0x6304	; 0x6304 <sprintf>
        eeprom_write_byte((uint8_t*)0x69, new_id);
    486a:	6d 2d       	mov	r22, r13
    486c:	89 e6       	ldi	r24, 0x69	; 105
    486e:	90 e0       	ldi	r25, 0x00	; 0
    4870:	0e 94 68 34 	call	0x68d0	; 0x68d0 <eeprom_write_byte>

        printf("opening: %s\r\n", file_name);
    4874:	1f 93       	push	r17
    4876:	0f 93       	push	r16
    4878:	82 ec       	ldi	r24, 0xC2	; 194
    487a:	94 e0       	ldi	r25, 0x04	; 4
    487c:	9f 93       	push	r25
    487e:	8f 93       	push	r24
    4880:	0e 94 18 31 	call	0x6230	; 0x6230 <printf>
        fr = f_open(&file1, file_name, FA_CREATE_ALWAYS | FA_WRITE | FA_READ);
    4884:	4b e0       	ldi	r20, 0x0B	; 11
    4886:	b8 01       	movw	r22, r16
    4888:	ce 01       	movw	r24, r28
    488a:	8c 5d       	subi	r24, 0xDC	; 220
    488c:	9c 4f       	sbci	r25, 0xFC	; 252
    488e:	0e 94 13 12 	call	0x2426	; 0x2426 <f_open>
    4892:	f8 2e       	mov	r15, r24
        if (fr == FR_OK)
    4894:	0f b6       	in	r0, 0x3f	; 63
    4896:	f8 94       	cli
    4898:	de bf       	out	0x3e, r29	; 62
    489a:	0f be       	out	0x3f, r0	; 63
    489c:	cd bf       	out	0x3d, r28	; 61
    489e:	f1 10       	cpse	r15, r1
    48a0:	80 c0       	rjmp	.+256    	; 0x49a2 <sdcard_create_sdload_times_file+0x21e>
        {
            printf("file open success \r\n");
    48a2:	80 ed       	ldi	r24, 0xD0	; 208
    48a4:	94 e0       	ldi	r25, 0x04	; 4
    48a6:	0e 94 52 31 	call	0x62a4	; 0x62a4 <puts>
            printf("disk mounted and file opened \r\n");
    48aa:	84 ee       	ldi	r24, 0xE4	; 228
    48ac:	94 e0       	ldi	r25, 0x04	; 4
    48ae:	0e 94 52 31 	call	0x62a4	; 0x62a4 <puts>
            printf("writing: %s\r\n", line);
    48b2:	05 55       	subi	r16, 0x55	; 85
    48b4:	1d 4f       	sbci	r17, 0xFD	; 253
    48b6:	1f 93       	push	r17
    48b8:	0f 93       	push	r16
    48ba:	83 e0       	ldi	r24, 0x03	; 3
    48bc:	95 e0       	ldi	r25, 0x05	; 5
    48be:	9f 93       	push	r25
    48c0:	8f 93       	push	r24
    48c2:	0e 94 18 31 	call	0x6230	; 0x6230 <printf>
            f_write(&file1, line, strlen(line), &bw);
    48c6:	f8 01       	movw	r30, r16
    48c8:	01 90       	ld	r0, Z+
    48ca:	00 20       	and	r0, r0
    48cc:	e9 f7       	brne	.-6      	; 0x48c8 <sdcard_create_sdload_times_file+0x144>
    48ce:	31 97       	sbiw	r30, 0x01	; 1
    48d0:	af 01       	movw	r20, r30
    48d2:	40 1b       	sub	r20, r16
    48d4:	51 0b       	sbc	r21, r17
    48d6:	9e 01       	movw	r18, r28
    48d8:	2a 5b       	subi	r18, 0xBA	; 186
    48da:	3c 4f       	sbci	r19, 0xFC	; 252
    48dc:	b8 01       	movw	r22, r16
    48de:	ce 01       	movw	r24, r28
    48e0:	8c 5d       	subi	r24, 0xDC	; 220
    48e2:	9c 4f       	sbci	r25, 0xFC	; 252
    48e4:	0e 94 1c 15 	call	0x2a38	; 0x2a38 <f_write>
            if (fr == FR_OK)
    48e8:	0f 90       	pop	r0
    48ea:	0f 90       	pop	r0
    48ec:	0f 90       	pop	r0
    48ee:	0f 90       	pop	r0
    48f0:	f1 10       	cpse	r15, r1
    48f2:	51 c0       	rjmp	.+162    	; 0x4996 <sdcard_create_sdload_times_file+0x212>
            {
                printf("file write success \r\n");
    48f4:	81 e1       	ldi	r24, 0x11	; 17
    48f6:	95 e0       	ldi	r25, 0x05	; 5
    48f8:	0e 94 52 31 	call	0x62a4	; 0x62a4 <puts>
                f_close(&file1);
    48fc:	ce 01       	movw	r24, r28
    48fe:	8c 5d       	subi	r24, 0xDC	; 220
    4900:	9c 4f       	sbci	r25, 0xFC	; 252
    4902:	0e 94 58 17 	call	0x2eb0	; 0x2eb0 <f_close>

                printf("openning the file again for reading...\r\n");
    4906:	86 e2       	ldi	r24, 0x26	; 38
    4908:	95 e0       	ldi	r25, 0x05	; 5
    490a:	0e 94 52 31 	call	0x62a4	; 0x62a4 <puts>
                fr = f_open(&file1, file_name, FA_READ);
    490e:	41 e0       	ldi	r20, 0x01	; 1
    4910:	be 01       	movw	r22, r28
    4912:	6f 5f       	subi	r22, 0xFF	; 255
    4914:	7f 4f       	sbci	r23, 0xFF	; 255
    4916:	ce 01       	movw	r24, r28
    4918:	8c 5d       	subi	r24, 0xDC	; 220
    491a:	9c 4f       	sbci	r25, 0xFC	; 252
    491c:	0e 94 13 12 	call	0x2426	; 0x2426 <f_open>
                if (fr == FR_OK)
    4920:	81 11       	cpse	r24, r1
    4922:	31 c0       	rjmp	.+98     	; 0x4986 <sdcard_create_sdload_times_file+0x202>
                {
                    printf("reading content of the file\r\n");
    4924:	8e e4       	ldi	r24, 0x4E	; 78
    4926:	95 e0       	ldi	r25, 0x05	; 5
    4928:	0e 94 52 31 	call	0x62a4	; 0x62a4 <puts>
                    fr = f_read(&file1, line, strlen(line), &bw);
    492c:	b8 01       	movw	r22, r16
    492e:	f8 01       	movw	r30, r16
    4930:	01 90       	ld	r0, Z+
    4932:	00 20       	and	r0, r0
    4934:	e9 f7       	brne	.-6      	; 0x4930 <sdcard_create_sdload_times_file+0x1ac>
    4936:	31 97       	sbiw	r30, 0x01	; 1
    4938:	af 01       	movw	r20, r30
    493a:	40 1b       	sub	r20, r16
    493c:	51 0b       	sbc	r21, r17
    493e:	9e 01       	movw	r18, r28
    4940:	2a 5b       	subi	r18, 0xBA	; 186
    4942:	3c 4f       	sbci	r19, 0xFC	; 252
    4944:	ce 01       	movw	r24, r28
    4946:	8c 5d       	subi	r24, 0xDC	; 220
    4948:	9c 4f       	sbci	r25, 0xFC	; 252
    494a:	0e 94 b1 13 	call	0x2762	; 0x2762 <f_read>
                    if (fr == FR_OK)
    494e:	81 11       	cpse	r24, r1
    4950:	13 c0       	rjmp	.+38     	; 0x4978 <sdcard_create_sdload_times_file+0x1f4>
                    {
                        printf("content:\r\n%s\r\n", line);
    4952:	c8 01       	movw	r24, r16
    4954:	9f 93       	push	r25
    4956:	0f 93       	push	r16
    4958:	8b e6       	ldi	r24, 0x6B	; 107
    495a:	95 e0       	ldi	r25, 0x05	; 5
    495c:	9f 93       	push	r25
    495e:	8f 93       	push	r24
    4960:	0e 94 18 31 	call	0x6230	; 0x6230 <printf>

                        printf("\r\nsuccess!! FatFs is working good\r\n");
    4964:	8a e7       	ldi	r24, 0x7A	; 122
    4966:	95 e0       	ldi	r25, 0x05	; 5
    4968:	0e 94 52 31 	call	0x62a4	; 0x62a4 <puts>
    496c:	0f 90       	pop	r0
    496e:	0f 90       	pop	r0
    4970:	0f 90       	pop	r0
    4972:	0f 90       	pop	r0
                        retf = true;
    4974:	11 e0       	ldi	r17, 0x01	; 1
    4976:	01 c0       	rjmp	.+2      	; 0x497a <sdcard_create_sdload_times_file+0x1f6>
    FATFS fs;
    char line[120] = { 0 };
    FIL file1;
    UINT bw;
    FRESULT fr;
    bool retf = false;
    4978:	10 e0       	ldi	r17, 0x00	; 0
                        printf("content:\r\n%s\r\n", line);

                        printf("\r\nsuccess!! FatFs is working good\r\n");
                        retf = true;
                    }
                    f_close(&file1);
    497a:	ce 01       	movw	r24, r28
    497c:	8c 5d       	subi	r24, 0xDC	; 220
    497e:	9c 4f       	sbci	r25, 0xFC	; 252
    4980:	0e 94 58 17 	call	0x2eb0	; 0x2eb0 <f_close>
    4984:	01 c0       	rjmp	.+2      	; 0x4988 <sdcard_create_sdload_times_file+0x204>
    FATFS fs;
    char line[120] = { 0 };
    FIL file1;
    UINT bw;
    FRESULT fr;
    bool retf = false;
    4986:	10 e0       	ldi	r17, 0x00	; 0
                        printf("\r\nsuccess!! FatFs is working good\r\n");
                        retf = true;
                    }
                    f_close(&file1);
                }
                if (!retf)
    4988:	11 11       	cpse	r17, r1
    498a:	16 c0       	rjmp	.+44     	; 0x49b8 <sdcard_create_sdload_times_file+0x234>
                {
                    printf("\r\nERROR!!\r\n");
    498c:	8d e9       	ldi	r24, 0x9D	; 157
    498e:	95 e0       	ldi	r25, 0x05	; 5
    4990:	0e 94 52 31 	call	0x62a4	; 0x62a4 <puts>
    4994:	11 c0       	rjmp	.+34     	; 0x49b8 <sdcard_create_sdload_times_file+0x234>
                }
            }
            else
            {
                printf("file write error \r\n");
    4996:	88 ea       	ldi	r24, 0xA8	; 168
    4998:	95 e0       	ldi	r25, 0x05	; 5
    499a:	0e 94 52 31 	call	0x62a4	; 0x62a4 <puts>
    FATFS fs;
    char line[120] = { 0 };
    FIL file1;
    UINT bw;
    FRESULT fr;
    bool retf = false;
    499e:	10 e0       	ldi	r17, 0x00	; 0
    49a0:	0b c0       	rjmp	.+22     	; 0x49b8 <sdcard_create_sdload_times_file+0x234>
                printf("file write error \r\n");
            }
        }
        else
        {
            printf("file open error \r\n");
    49a2:	8b eb       	ldi	r24, 0xBB	; 187
    49a4:	95 e0       	ldi	r25, 0x05	; 5
    49a6:	0e 94 52 31 	call	0x62a4	; 0x62a4 <puts>
    FATFS fs;
    char line[120] = { 0 };
    FIL file1;
    UINT bw;
    FRESULT fr;
    bool retf = false;
    49aa:	10 e0       	ldi	r17, 0x00	; 0
    49ac:	05 c0       	rjmp	.+10     	; 0x49b8 <sdcard_create_sdload_times_file+0x234>
            printf("file open error \r\n");
        }
    }
    else
    {
        printf("mount error \r\n");
    49ae:	8d ec       	ldi	r24, 0xCD	; 205
    49b0:	95 e0       	ldi	r25, 0x05	; 5
    49b2:	0e 94 52 31 	call	0x62a4	; 0x62a4 <puts>
    FATFS fs;
    char line[120] = { 0 };
    FIL file1;
    UINT bw;
    FRESULT fr;
    bool retf = false;
    49b6:	10 e0       	ldi	r17, 0x00	; 0
    {
        printf("mount error \r\n");
    }

    return retf;
}
    49b8:	81 2f       	mov	r24, r17
    49ba:	c9 5b       	subi	r28, 0xB9	; 185
    49bc:	dc 4f       	sbci	r29, 0xFC	; 252
    49be:	0f b6       	in	r0, 0x3f	; 63
    49c0:	f8 94       	cli
    49c2:	de bf       	out	0x3e, r29	; 62
    49c4:	0f be       	out	0x3f, r0	; 63
    49c6:	cd bf       	out	0x3d, r28	; 61
    49c8:	df 91       	pop	r29
    49ca:	cf 91       	pop	r28
    49cc:	1f 91       	pop	r17
    49ce:	0f 91       	pop	r16
    49d0:	ff 90       	pop	r15
    49d2:	ef 90       	pop	r14
    49d4:	df 90       	pop	r13
    49d6:	08 95       	ret

000049d8 <sdcard_GetNbBlocks>:

    return true;
}

uint32_t sdcard_GetNbBlocks(void)
{
    49d8:	cf 93       	push	r28
    49da:	df 93       	push	r29
    49dc:	00 d0       	rcall	.+0      	; 0x49de <sdcard_GetNbBlocks+0x6>
    49de:	00 d0       	rcall	.+0      	; 0x49e0 <sdcard_GetNbBlocks+0x8>
    49e0:	cd b7       	in	r28, 0x3d	; 61
    49e2:	de b7       	in	r29, 0x3e	; 62
    static uint32_t CachedTotalBlocks = 0;

    DWORD ioct_rsp = 0;
    49e4:	19 82       	std	Y+1, r1	; 0x01
    49e6:	1a 82       	std	Y+2, r1	; 0x02
    49e8:	1b 82       	std	Y+3, r1	; 0x03
    49ea:	1c 82       	std	Y+4, r1	; 0x04

    if (CachedTotalBlocks != 0)
    49ec:	60 91 09 0a 	lds	r22, 0x0A09	; 0x800a09 <CachedTotalBlocks.4959>
    49f0:	70 91 0a 0a 	lds	r23, 0x0A0A	; 0x800a0a <CachedTotalBlocks.4959+0x1>
    49f4:	80 91 0b 0a 	lds	r24, 0x0A0B	; 0x800a0b <CachedTotalBlocks.4959+0x2>
    49f8:	90 91 0c 0a 	lds	r25, 0x0A0C	; 0x800a0c <CachedTotalBlocks.4959+0x3>
    49fc:	61 15       	cp	r22, r1
    49fe:	71 05       	cpc	r23, r1
    4a00:	81 05       	cpc	r24, r1
    4a02:	91 05       	cpc	r25, r1
    4a04:	59 f5       	brne	.+86     	; 0x4a5c <sdcard_GetNbBlocks+0x84>
    {
        return CachedTotalBlocks;
    }

    disk_ioctl(0, GET_SECTOR_COUNT, &ioct_rsp);
    4a06:	ae 01       	movw	r20, r28
    4a08:	4f 5f       	subi	r20, 0xFF	; 255
    4a0a:	5f 4f       	sbci	r21, 0xFF	; 255
    4a0c:	61 e0       	ldi	r22, 0x01	; 1
    4a0e:	80 e0       	ldi	r24, 0x00	; 0
    4a10:	0e 94 24 03 	call	0x648	; 0x648 <disk_ioctl>

    CachedTotalBlocks = ioct_rsp;
    4a14:	89 81       	ldd	r24, Y+1	; 0x01
    4a16:	9a 81       	ldd	r25, Y+2	; 0x02
    4a18:	2b 81       	ldd	r18, Y+3	; 0x03
    4a1a:	3c 81       	ldd	r19, Y+4	; 0x04
    4a1c:	80 93 09 0a 	sts	0x0A09, r24	; 0x800a09 <CachedTotalBlocks.4959>
    4a20:	90 93 0a 0a 	sts	0x0A0A, r25	; 0x800a0a <CachedTotalBlocks.4959+0x1>
    4a24:	20 93 0b 0a 	sts	0x0A0B, r18	; 0x800a0b <CachedTotalBlocks.4959+0x2>
    4a28:	30 93 0c 0a 	sts	0x0A0C, r19	; 0x800a0c <CachedTotalBlocks.4959+0x3>
    printf_P(PSTR("SD blocks: %li\r\n"), CachedTotalBlocks);
    4a2c:	3f 93       	push	r19
    4a2e:	2f 93       	push	r18
    4a30:	9f 93       	push	r25
    4a32:	8f 93       	push	r24
    4a34:	8c e5       	ldi	r24, 0x5C	; 92
    4a36:	91 e0       	ldi	r25, 0x01	; 1
    4a38:	9f 93       	push	r25
    4a3a:	8f 93       	push	r24
    4a3c:	0e 94 2b 31 	call	0x6256	; 0x6256 <printf_P>

    return CachedTotalBlocks;
    4a40:	60 91 09 0a 	lds	r22, 0x0A09	; 0x800a09 <CachedTotalBlocks.4959>
    4a44:	70 91 0a 0a 	lds	r23, 0x0A0A	; 0x800a0a <CachedTotalBlocks.4959+0x1>
    4a48:	80 91 0b 0a 	lds	r24, 0x0A0B	; 0x800a0b <CachedTotalBlocks.4959+0x2>
    4a4c:	90 91 0c 0a 	lds	r25, 0x0A0C	; 0x800a0c <CachedTotalBlocks.4959+0x3>
    4a50:	0f 90       	pop	r0
    4a52:	0f 90       	pop	r0
    4a54:	0f 90       	pop	r0
    4a56:	0f 90       	pop	r0
    4a58:	0f 90       	pop	r0
    4a5a:	0f 90       	pop	r0
}
    4a5c:	0f 90       	pop	r0
    4a5e:	0f 90       	pop	r0
    4a60:	0f 90       	pop	r0
    4a62:	0f 90       	pop	r0
    4a64:	df 91       	pop	r29
    4a66:	cf 91       	pop	r28
    4a68:	08 95       	ret

00004a6a <sdcard_Init>:

    return retf;
}

bool sdcard_Init(void)
{
    4a6a:	0f 93       	push	r16
    4a6c:	1f 93       	push	r17
    4a6e:	cf 93       	push	r28
    4a70:	df 93       	push	r29
    4a72:	cd b7       	in	r28, 0x3d	; 61
    4a74:	de b7       	in	r29, 0x3e	; 62
    4a76:	d2 50       	subi	r29, 0x02	; 2
    4a78:	0f b6       	in	r0, 0x3f	; 63
    4a7a:	f8 94       	cli
    4a7c:	de bf       	out	0x3e, r29	; 62
    4a7e:	0f be       	out	0x3f, r0	; 63
    4a80:	cd bf       	out	0x3d, r28	; 61
    printf_P(PSTR("\r\n\r\n"));
    4a82:	8c eb       	ldi	r24, 0xBC	; 188
    4a84:	91 e0       	ldi	r25, 0x01	; 1
    4a86:	9f 93       	push	r25
    4a88:	8f 93       	push	r24
    4a8a:	0e 94 2b 31 	call	0x6256	; 0x6256 <printf_P>
    4a8e:	0f 90       	pop	r0
    4a90:	0f 90       	pop	r0
    do
    {
        printf_P(PSTR("trying ... disk_initialize\r\n"));
    4a92:	8f e9       	ldi	r24, 0x9F	; 159
    4a94:	91 e0       	ldi	r25, 0x01	; 1
    4a96:	9f 93       	push	r25
    4a98:	8f 93       	push	r24
    4a9a:	0e 94 2b 31 	call	0x6256	; 0x6256 <printf_P>
    } while (disk_initialize(0) != FR_OK);
    4a9e:	80 e0       	ldi	r24, 0x00	; 0
    4aa0:	0e 94 fd 02 	call	0x5fa	; 0x5fa <disk_initialize>
    4aa4:	0f 90       	pop	r0
    4aa6:	0f 90       	pop	r0
    4aa8:	81 11       	cpse	r24, r1
    4aaa:	f3 cf       	rjmp	.-26     	; 0x4a92 <sdcard_Init+0x28>

    printf_P(PSTR("disk_initialize success\r\n"));
    4aac:	85 e8       	ldi	r24, 0x85	; 133
    4aae:	91 e0       	ldi	r25, 0x01	; 1
    4ab0:	9f 93       	push	r25
    4ab2:	8f 93       	push	r24
    4ab4:	0e 94 2b 31 	call	0x6256	; 0x6256 <printf_P>

    sdcard_GetNbBlocks();
    4ab8:	8f df       	rcall	.-226    	; 0x49d8 <sdcard_GetNbBlocks>

    uint8_t readed_sector[512] = { 0 };
    4aba:	8e 01       	movw	r16, r28
    4abc:	0f 5f       	subi	r16, 0xFF	; 255
    4abe:	1f 4f       	sbci	r17, 0xFF	; 255
    4ac0:	80 e0       	ldi	r24, 0x00	; 0
    4ac2:	92 e0       	ldi	r25, 0x02	; 2
    4ac4:	f8 01       	movw	r30, r16
    4ac6:	9c 01       	movw	r18, r24
    4ac8:	11 92       	st	Z+, r1
    4aca:	21 50       	subi	r18, 0x01	; 1
    4acc:	30 40       	sbci	r19, 0x00	; 0
    4ace:	e1 f7       	brne	.-8      	; 0x4ac8 <sdcard_Init+0x5e>
    SD_read_sector(0, readed_sector);
    4ad0:	a8 01       	movw	r20, r16
    4ad2:	60 e0       	ldi	r22, 0x00	; 0
    4ad4:	70 e0       	ldi	r23, 0x00	; 0
    4ad6:	cb 01       	movw	r24, r22
    4ad8:	0e 94 10 02 	call	0x420	; 0x420 <SD_read_sector>
    printf_P(PSTR("first SD sector:\r\n"));
    4adc:	82 e7       	ldi	r24, 0x72	; 114
    4ade:	91 e0       	ldi	r25, 0x01	; 1
    4ae0:	9f 93       	push	r25
    4ae2:	8f 93       	push	r24
    4ae4:	0e 94 2b 31 	call	0x6256	; 0x6256 <printf_P>
    uart_printhexdump(readed_sector, 512);
    4ae8:	60 e0       	ldi	r22, 0x00	; 0
    4aea:	72 e0       	ldi	r23, 0x02	; 2
    4aec:	c8 01       	movw	r24, r16
    4aee:	0e 94 60 01 	call	0x2c0	; 0x2c0 <uart_printhexdump>
    printf_P(PSTR("\r\n\r\n"));
    4af2:	8d e6       	ldi	r24, 0x6D	; 109
    4af4:	91 e0       	ldi	r25, 0x01	; 1
    4af6:	9f 93       	push	r25
    4af8:	8f 93       	push	r24
    4afa:	0e 94 2b 31 	call	0x6256	; 0x6256 <printf_P>

    sdcard_create_sdload_times_file();
    4afe:	42 de       	rcall	.-892    	; 0x4784 <sdcard_create_sdload_times_file>

    return true;
    4b00:	0f 90       	pop	r0
    4b02:	0f 90       	pop	r0
    4b04:	0f 90       	pop	r0
    4b06:	0f 90       	pop	r0
    4b08:	0f 90       	pop	r0
    4b0a:	0f 90       	pop	r0
}
    4b0c:	81 e0       	ldi	r24, 0x01	; 1
    4b0e:	de 5f       	subi	r29, 0xFE	; 254
    4b10:	0f b6       	in	r0, 0x3f	; 63
    4b12:	f8 94       	cli
    4b14:	de bf       	out	0x3e, r29	; 62
    4b16:	0f be       	out	0x3f, r0	; 63
    4b18:	cd bf       	out	0x3d, r28	; 61
    4b1a:	df 91       	pop	r29
    4b1c:	cf 91       	pop	r28
    4b1e:	1f 91       	pop	r17
    4b20:	0f 91       	pop	r16
    4b22:	08 95       	ret

00004b24 <sdcard_WriteBlockHandler>:
 *
 *  \param[in] BlockAddress  Data block starting address for the write sequence
 *  \param[in] TotalBlocks   Number of blocks of data to write
 */
uintptr_t sdcard_WriteBlockHandler(uint8_t* buff_to_write, void* a, void* p)
{
    4b24:	cf 93       	push	r28
    4b26:	df 93       	push	r29
    4b28:	ec 01       	movw	r28, r24
			 *          on its direction.
			 */
			static inline bool Endpoint_IsReadWriteAllowed(void) ATTR_WARN_UNUSED_RESULT ATTR_ALWAYS_INLINE;
			static inline bool Endpoint_IsReadWriteAllowed(void)
			{
				return ((UEINTX & (1 << RWAL)) ? true : false);
    4b2a:	80 91 e8 00 	lds	r24, 0x00E8	; 0x8000e8 <__TEXT_REGION_LENGTH__+0x7e00e8>
    /* Check if the endpoint is currently empty */
    if (!(Endpoint_IsReadWriteAllowed()))
    4b2e:	85 fd       	sbrc	r24, 5
    4b30:	08 c0       	rjmp	.+16     	; 0x4b42 <sdcard_WriteBlockHandler+0x1e>
			 */
			static inline void Endpoint_ClearOUT(void) ATTR_ALWAYS_INLINE;
			static inline void Endpoint_ClearOUT(void)
			{
				#if !defined(CONTROL_ONLY_DEVICE)
					UEINTX &= ~((1 << RXOUTI) | (1 << FIFOCON));
    4b32:	e8 ee       	ldi	r30, 0xE8	; 232
    4b34:	f0 e0       	ldi	r31, 0x00	; 0
    4b36:	80 81       	ld	r24, Z
    4b38:	8b 77       	andi	r24, 0x7B	; 123
    4b3a:	80 83       	st	Z, r24
    {
        /* Clear the current endpoint bank */
        Endpoint_ClearOUT();

        /* Wait until the host has sent another packet */
        if (Endpoint_WaitUntilReady())
    4b3c:	88 d7       	rcall	.+3856   	; 0x5a4e <Endpoint_WaitUntilReady>
    4b3e:	81 11       	cpse	r24, r1
    4b40:	25 c0       	rjmp	.+74     	; 0x4b8c <sdcard_WriteBlockHandler+0x68>
			 *  \return Next byte in the currently selected endpoint's FIFO buffer.
			 */
			static inline uint8_t Endpoint_Read_8(void) ATTR_WARN_UNUSED_RESULT ATTR_ALWAYS_INLINE;
			static inline uint8_t Endpoint_Read_8(void)
			{
				return UEDATX;
    4b42:	e1 ef       	ldi	r30, 0xF1	; 241
    4b44:	f0 e0       	ldi	r31, 0x00	; 0
    4b46:	80 81       	ld	r24, Z
            return 0;
        }
    }

    /* Write one 16-byte chunk of data to the dataflash */
    buff_to_write[0] = Endpoint_Read_8();
    4b48:	88 83       	st	Y, r24
    4b4a:	80 81       	ld	r24, Z
    buff_to_write[1] = Endpoint_Read_8();
    4b4c:	89 83       	std	Y+1, r24	; 0x01
    4b4e:	80 81       	ld	r24, Z
    buff_to_write[2] = Endpoint_Read_8();
    4b50:	8a 83       	std	Y+2, r24	; 0x02
    4b52:	80 81       	ld	r24, Z
    buff_to_write[3] = Endpoint_Read_8();
    4b54:	8b 83       	std	Y+3, r24	; 0x03
    4b56:	80 81       	ld	r24, Z
    buff_to_write[4] = Endpoint_Read_8();
    4b58:	8c 83       	std	Y+4, r24	; 0x04
    4b5a:	80 81       	ld	r24, Z
    buff_to_write[5] = Endpoint_Read_8();
    4b5c:	8d 83       	std	Y+5, r24	; 0x05
    4b5e:	80 81       	ld	r24, Z
    buff_to_write[6] = Endpoint_Read_8();
    4b60:	8e 83       	std	Y+6, r24	; 0x06
    4b62:	80 81       	ld	r24, Z
    buff_to_write[7] = Endpoint_Read_8();
    4b64:	8f 83       	std	Y+7, r24	; 0x07
    4b66:	80 81       	ld	r24, Z
    buff_to_write[8] = Endpoint_Read_8();
    4b68:	88 87       	std	Y+8, r24	; 0x08
    4b6a:	80 81       	ld	r24, Z
    buff_to_write[9] = Endpoint_Read_8();
    4b6c:	89 87       	std	Y+9, r24	; 0x09
    4b6e:	80 81       	ld	r24, Z
    buff_to_write[10] = Endpoint_Read_8();
    4b70:	8a 87       	std	Y+10, r24	; 0x0a
    4b72:	80 81       	ld	r24, Z
    buff_to_write[11] = Endpoint_Read_8();
    4b74:	8b 87       	std	Y+11, r24	; 0x0b
    4b76:	80 81       	ld	r24, Z
    buff_to_write[12] = Endpoint_Read_8();
    4b78:	8c 87       	std	Y+12, r24	; 0x0c
    4b7a:	80 81       	ld	r24, Z
    buff_to_write[13] = Endpoint_Read_8();
    4b7c:	8d 87       	std	Y+13, r24	; 0x0d
    4b7e:	80 81       	ld	r24, Z
    buff_to_write[14] = Endpoint_Read_8();
    4b80:	8e 87       	std	Y+14, r24	; 0x0e
    4b82:	80 81       	ld	r24, Z
    buff_to_write[15] = Endpoint_Read_8();
    4b84:	8f 87       	std	Y+15, r24	; 0x0f

    return 16;
    4b86:	80 e1       	ldi	r24, 0x10	; 16
    4b88:	90 e0       	ldi	r25, 0x00	; 0
    4b8a:	02 c0       	rjmp	.+4      	; 0x4b90 <sdcard_WriteBlockHandler+0x6c>
        Endpoint_ClearOUT();

        /* Wait until the host has sent another packet */
        if (Endpoint_WaitUntilReady())
        {
            return 0;
    4b8c:	80 e0       	ldi	r24, 0x00	; 0
    4b8e:	90 e0       	ldi	r25, 0x00	; 0
    buff_to_write[13] = Endpoint_Read_8();
    buff_to_write[14] = Endpoint_Read_8();
    buff_to_write[15] = Endpoint_Read_8();

    return 16;
}
    4b90:	df 91       	pop	r29
    4b92:	cf 91       	pop	r28
    4b94:	08 95       	ret

00004b96 <sdcard_WriteBlocks>:

void sdcard_WriteBlocks(USB_ClassInfo_MS_Device_t* MSInterfaceInfo,
                        uint32_t BlockAddress, uint16_t TotalBlocks)
{
    4b96:	8f 92       	push	r8
    4b98:	9f 92       	push	r9
    4b9a:	af 92       	push	r10
    4b9c:	bf 92       	push	r11
    4b9e:	cf 92       	push	r12
    4ba0:	df 92       	push	r13
    4ba2:	ef 92       	push	r14
    4ba4:	ff 92       	push	r15
    4ba6:	0f 93       	push	r16
    4ba8:	1f 93       	push	r17
    4baa:	cf 93       	push	r28
    4bac:	df 93       	push	r29
    4bae:	6c 01       	movw	r12, r24
    4bb0:	4a 01       	movw	r8, r20
    4bb2:	5b 01       	movw	r10, r22
    4bb4:	79 01       	movw	r14, r18
    int i;
    static uint8_t buff_to_write[512];

    printf_P(PSTR("W %li %i\r\n"), BlockAddress, TotalBlocks);
    4bb6:	ff 92       	push	r15
    4bb8:	2f 93       	push	r18
    4bba:	bf 92       	push	r11
    4bbc:	af 92       	push	r10
    4bbe:	9f 92       	push	r9
    4bc0:	4f 93       	push	r20
    4bc2:	81 e5       	ldi	r24, 0x51	; 81
    4bc4:	91 e0       	ldi	r25, 0x01	; 1
    4bc6:	9f 93       	push	r25
    4bc8:	8f 93       	push	r24
    4bca:	0e 94 2b 31 	call	0x6256	; 0x6256 <printf_P>

    /* Wait until endpoint is ready before continuing */
    if (Endpoint_WaitUntilReady())
    4bce:	3f d7       	rcall	.+3710   	; 0x5a4e <Endpoint_WaitUntilReady>
    4bd0:	2d b7       	in	r18, 0x3d	; 61
    4bd2:	3e b7       	in	r19, 0x3e	; 62
    4bd4:	28 5f       	subi	r18, 0xF8	; 248
    4bd6:	3f 4f       	sbci	r19, 0xFF	; 255
    4bd8:	0f b6       	in	r0, 0x3f	; 63
    4bda:	f8 94       	cli
    4bdc:	3e bf       	out	0x3e, r19	; 62
    4bde:	0f be       	out	0x3f, r0	; 63
    4be0:	2d bf       	out	0x3d, r18	; 61
    4be2:	88 23       	and	r24, r24
    4be4:	59 f1       	breq	.+86     	; 0x4c3c <sdcard_WriteBlocks+0xa6>
    4be6:	36 c0       	rjmp	.+108    	; 0x4c54 <sdcard_WriteBlocks+0xbe>

    while (TotalBlocks)
    {
        for (i = 0; i < 32; i++)
        {
            sdcard_WriteBlockHandler(buff_to_write + (16 * i), NULL, NULL);
    4be8:	ce 01       	movw	r24, r28
    4bea:	82 95       	swap	r24
    4bec:	92 95       	swap	r25
    4bee:	90 7f       	andi	r25, 0xF0	; 240
    4bf0:	98 27       	eor	r25, r24
    4bf2:	80 7f       	andi	r24, 0xF0	; 240
    4bf4:	98 27       	eor	r25, r24
    4bf6:	40 e0       	ldi	r20, 0x00	; 0
    4bf8:	50 e0       	ldi	r21, 0x00	; 0
    4bfa:	60 e0       	ldi	r22, 0x00	; 0
    4bfc:	70 e0       	ldi	r23, 0x00	; 0
    4bfe:	87 5f       	subi	r24, 0xF7	; 247
    4c00:	97 4f       	sbci	r25, 0xF7	; 247
    4c02:	90 df       	rcall	.-224    	; 0x4b24 <sdcard_WriteBlockHandler>
        return;
    }

    while (TotalBlocks)
    {
        for (i = 0; i < 32; i++)
    4c04:	21 96       	adiw	r28, 0x01	; 1
    4c06:	02 c0       	rjmp	.+4      	; 0x4c0c <sdcard_WriteBlocks+0x76>
    4c08:	c0 e0       	ldi	r28, 0x00	; 0
    4c0a:	d0 e0       	ldi	r29, 0x00	; 0
    4c0c:	c0 32       	cpi	r28, 0x20	; 32
    4c0e:	d1 05       	cpc	r29, r1
    4c10:	5c f3       	brlt	.-42     	; 0x4be8 <sdcard_WriteBlocks+0x52>
        {
            sdcard_WriteBlockHandler(buff_to_write + (16 * i), NULL, NULL);
        }

        disk_write(0, buff_to_write, BlockAddress, 1);
    4c12:	01 e0       	ldi	r16, 0x01	; 1
    4c14:	10 e0       	ldi	r17, 0x00	; 0
    4c16:	a5 01       	movw	r20, r10
    4c18:	94 01       	movw	r18, r8
    4c1a:	69 e0       	ldi	r22, 0x09	; 9
    4c1c:	78 e0       	ldi	r23, 0x08	; 8
    4c1e:	80 e0       	ldi	r24, 0x00	; 0
    4c20:	0e 94 14 03 	call	0x628	; 0x628 <disk_write>

        /* Check if the current command is being aborted by the host */
        if (MSInterfaceInfo->State.IsMassStoreReset)
    4c24:	f6 01       	movw	r30, r12
    4c26:	80 ad       	ldd	r24, Z+56	; 0x38
    4c28:	81 11       	cpse	r24, r1
    4c2a:	14 c0       	rjmp	.+40     	; 0x4c54 <sdcard_WriteBlocks+0xbe>
        {
            return;
        }

        /* Decrement the blocks remaining counter and reset the sub block counter */
        BlockAddress++;
    4c2c:	ff ef       	ldi	r31, 0xFF	; 255
    4c2e:	8f 1a       	sub	r8, r31
    4c30:	9f 0a       	sbc	r9, r31
    4c32:	af 0a       	sbc	r10, r31
    4c34:	bf 0a       	sbc	r11, r31
        TotalBlocks--;
    4c36:	21 e0       	ldi	r18, 0x01	; 1
    4c38:	e2 1a       	sub	r14, r18
    4c3a:	f1 08       	sbc	r15, r1
    if (Endpoint_WaitUntilReady())
    {
        return;
    }

    while (TotalBlocks)
    4c3c:	e1 14       	cp	r14, r1
    4c3e:	f1 04       	cpc	r15, r1
    4c40:	19 f7       	brne	.-58     	; 0x4c08 <sdcard_WriteBlocks+0x72>
			 *          on its direction.
			 */
			static inline bool Endpoint_IsReadWriteAllowed(void) ATTR_WARN_UNUSED_RESULT ATTR_ALWAYS_INLINE;
			static inline bool Endpoint_IsReadWriteAllowed(void)
			{
				return ((UEINTX & (1 << RWAL)) ? true : false);
    4c42:	80 91 e8 00 	lds	r24, 0x00E8	; 0x8000e8 <__TEXT_REGION_LENGTH__+0x7e00e8>
        BlockAddress++;
        TotalBlocks--;
    }

    /* If the endpoint is empty, clear it ready for the next packet from the host */
    if (!(Endpoint_IsReadWriteAllowed()))
    4c46:	85 fd       	sbrc	r24, 5
    4c48:	05 c0       	rjmp	.+10     	; 0x4c54 <sdcard_WriteBlocks+0xbe>
			 */
			static inline void Endpoint_ClearOUT(void) ATTR_ALWAYS_INLINE;
			static inline void Endpoint_ClearOUT(void)
			{
				#if !defined(CONTROL_ONLY_DEVICE)
					UEINTX &= ~((1 << RXOUTI) | (1 << FIFOCON));
    4c4a:	e8 ee       	ldi	r30, 0xE8	; 232
    4c4c:	f0 e0       	ldi	r31, 0x00	; 0
    4c4e:	80 81       	ld	r24, Z
    4c50:	8b 77       	andi	r24, 0x7B	; 123
    4c52:	80 83       	st	Z, r24
    {
        Endpoint_ClearOUT();
    }
}
    4c54:	df 91       	pop	r29
    4c56:	cf 91       	pop	r28
    4c58:	1f 91       	pop	r17
    4c5a:	0f 91       	pop	r16
    4c5c:	ff 90       	pop	r15
    4c5e:	ef 90       	pop	r14
    4c60:	df 90       	pop	r13
    4c62:	cf 90       	pop	r12
    4c64:	bf 90       	pop	r11
    4c66:	af 90       	pop	r10
    4c68:	9f 90       	pop	r9
    4c6a:	8f 90       	pop	r8
    4c6c:	08 95       	ret

00004c6e <sdcard_ReadBlocks>:
    return 1;
}

void sdcard_ReadBlocks(USB_ClassInfo_MS_Device_t* MSInterfaceInfo,
                       uint32_t BlockAddress, uint16_t TotalBlocks)
{
    4c6e:	8f 92       	push	r8
    4c70:	9f 92       	push	r9
    4c72:	af 92       	push	r10
    4c74:	bf 92       	push	r11
    4c76:	ef 92       	push	r14
    4c78:	ff 92       	push	r15
    4c7a:	0f 93       	push	r16
    4c7c:	1f 93       	push	r17
    4c7e:	cf 93       	push	r28
    4c80:	df 93       	push	r29
    4c82:	4a 01       	movw	r8, r20
    4c84:	5b 01       	movw	r10, r22
    4c86:	79 01       	movw	r14, r18
    static uint8_t buff_rd[512];
    int i;

    printf_P(PSTR("R %li %i\r\n"), BlockAddress, TotalBlocks);
    4c88:	ff 92       	push	r15
    4c8a:	2f 93       	push	r18
    4c8c:	bf 92       	push	r11
    4c8e:	af 92       	push	r10
    4c90:	9f 92       	push	r9
    4c92:	4f 93       	push	r20
    4c94:	86 e4       	ldi	r24, 0x46	; 70
    4c96:	91 e0       	ldi	r25, 0x01	; 1
    4c98:	9f 93       	push	r25
    4c9a:	8f 93       	push	r24
    4c9c:	0e 94 2b 31 	call	0x6256	; 0x6256 <printf_P>

    /* Wait until endpoint is ready before continuing */
    if (Endpoint_WaitUntilReady())
    4ca0:	d6 d6       	rcall	.+3500   	; 0x5a4e <Endpoint_WaitUntilReady>
    4ca2:	2d b7       	in	r18, 0x3d	; 61
    4ca4:	3e b7       	in	r19, 0x3e	; 62
    4ca6:	28 5f       	subi	r18, 0xF8	; 248
    4ca8:	3f 4f       	sbci	r19, 0xFF	; 255
    4caa:	0f b6       	in	r0, 0x3f	; 63
    4cac:	f8 94       	cli
    4cae:	3e bf       	out	0x3e, r19	; 62
    4cb0:	0f be       	out	0x3f, r0	; 63
    4cb2:	2d bf       	out	0x3d, r18	; 61
    4cb4:	88 23       	and	r24, r24
    4cb6:	09 f4       	brne	.+2      	; 0x4cba <sdcard_ReadBlocks+0x4c>
    4cb8:	51 c0       	rjmp	.+162    	; 0x4d5c <sdcard_ReadBlocks+0xee>
    4cba:	5d c0       	rjmp	.+186    	; 0x4d76 <sdcard_ReadBlocks+0x108>
        return;
    }

    while (TotalBlocks)
    {
        disk_read(0, buff_rd, BlockAddress, 1);
    4cbc:	01 e0       	ldi	r16, 0x01	; 1
    4cbe:	10 e0       	ldi	r17, 0x00	; 0
    4cc0:	a5 01       	movw	r20, r10
    4cc2:	94 01       	movw	r18, r8
    4cc4:	69 e0       	ldi	r22, 0x09	; 9
    4cc6:	76 e0       	ldi	r23, 0x06	; 6
    4cc8:	80 e0       	ldi	r24, 0x00	; 0
    4cca:	0e 94 04 03 	call	0x608	; 0x608 <disk_read>
        for (i = 0; i < 32; i++)
    4cce:	00 e0       	ldi	r16, 0x00	; 0
    4cd0:	10 e0       	ldi	r17, 0x00	; 0
    4cd2:	39 c0       	rjmp	.+114    	; 0x4d46 <sdcard_ReadBlocks+0xd8>
        {
            sdcard_ReadBlockHandler(buff_rd + (16 * i), NULL, NULL);
    4cd4:	e8 01       	movw	r28, r16
    4cd6:	c2 95       	swap	r28
    4cd8:	d2 95       	swap	r29
    4cda:	d0 7f       	andi	r29, 0xF0	; 240
    4cdc:	dc 27       	eor	r29, r28
    4cde:	c0 7f       	andi	r28, 0xF0	; 240
    4ce0:	dc 27       	eor	r29, r28
    4ce2:	c7 5f       	subi	r28, 0xF7	; 247
    4ce4:	d9 4f       	sbci	r29, 0xF9	; 249
			 *          on its direction.
			 */
			static inline bool Endpoint_IsReadWriteAllowed(void) ATTR_WARN_UNUSED_RESULT ATTR_ALWAYS_INLINE;
			static inline bool Endpoint_IsReadWriteAllowed(void)
			{
				return ((UEINTX & (1 << RWAL)) ? true : false);
    4ce6:	80 91 e8 00 	lds	r24, 0x00E8	; 0x8000e8 <__TEXT_REGION_LENGTH__+0x7e00e8>
 */

static inline uint8_t sdcard_ReadBlockHandler(uint8_t* buffer, void* a, void* p)
{
    /* Check if the endpoint is currently full */
    if (!(Endpoint_IsReadWriteAllowed()))
    4cea:	85 fd       	sbrc	r24, 5
    4cec:	08 c0       	rjmp	.+16     	; 0x4cfe <sdcard_ReadBlocks+0x90>
			 */
			static inline void Endpoint_ClearIN(void) ATTR_ALWAYS_INLINE;
			static inline void Endpoint_ClearIN(void)
			{
				#if !defined(CONTROL_ONLY_DEVICE)
					UEINTX &= ~((1 << TXINI) | (1 << FIFOCON));
    4cee:	e8 ee       	ldi	r30, 0xE8	; 232
    4cf0:	f0 e0       	ldi	r31, 0x00	; 0
    4cf2:	80 81       	ld	r24, Z
    4cf4:	8e 77       	andi	r24, 0x7E	; 126
    {
        /* Clear the endpoint bank to send its contents to the host */
        Endpoint_ClearIN();

        /* Wait until the endpoint is ready for more data */
        if (Endpoint_WaitUntilReady())
    4cf6:	80 83       	st	Z, r24
    4cf8:	aa d6       	rcall	.+3412   	; 0x5a4e <Endpoint_WaitUntilReady>
    4cfa:	81 11       	cpse	r24, r1
    4cfc:	22 c0       	rjmp	.+68     	; 0x4d42 <sdcard_ReadBlocks+0xd4>
        {
            return 0;
        }
    }

    Endpoint_Write_8(buffer[0]);
    4cfe:	88 81       	ld	r24, Y
			 *  \param[in] Data  Data to write into the the currently selected endpoint's FIFO buffer.
			 */
			static inline void Endpoint_Write_8(const uint8_t Data) ATTR_ALWAYS_INLINE;
			static inline void Endpoint_Write_8(const uint8_t Data)
			{
				UEDATX = Data;
    4d00:	e1 ef       	ldi	r30, 0xF1	; 241
    4d02:	f0 e0       	ldi	r31, 0x00	; 0
    4d04:	80 83       	st	Z, r24
    Endpoint_Write_8(buffer[1]);
    4d06:	89 81       	ldd	r24, Y+1	; 0x01
    4d08:	80 83       	st	Z, r24
    Endpoint_Write_8(buffer[2]);
    4d0a:	8a 81       	ldd	r24, Y+2	; 0x02
    4d0c:	80 83       	st	Z, r24
    Endpoint_Write_8(buffer[3]);
    4d0e:	8b 81       	ldd	r24, Y+3	; 0x03
    4d10:	80 83       	st	Z, r24
    Endpoint_Write_8(buffer[4]);
    4d12:	8c 81       	ldd	r24, Y+4	; 0x04
    4d14:	80 83       	st	Z, r24
    Endpoint_Write_8(buffer[5]);
    4d16:	8d 81       	ldd	r24, Y+5	; 0x05
    4d18:	80 83       	st	Z, r24
    Endpoint_Write_8(buffer[6]);
    4d1a:	8e 81       	ldd	r24, Y+6	; 0x06
    4d1c:	80 83       	st	Z, r24
    Endpoint_Write_8(buffer[7]);
    4d1e:	8f 81       	ldd	r24, Y+7	; 0x07
    4d20:	80 83       	st	Z, r24
    Endpoint_Write_8(buffer[8]);
    4d22:	88 85       	ldd	r24, Y+8	; 0x08
    4d24:	80 83       	st	Z, r24
    Endpoint_Write_8(buffer[9]);
    4d26:	89 85       	ldd	r24, Y+9	; 0x09
    4d28:	80 83       	st	Z, r24
    Endpoint_Write_8(buffer[10]);
    4d2a:	8a 85       	ldd	r24, Y+10	; 0x0a
    4d2c:	80 83       	st	Z, r24
    Endpoint_Write_8(buffer[11]);
    4d2e:	8b 85       	ldd	r24, Y+11	; 0x0b
    4d30:	80 83       	st	Z, r24
    Endpoint_Write_8(buffer[12]);
    4d32:	8c 85       	ldd	r24, Y+12	; 0x0c
    4d34:	80 83       	st	Z, r24
    Endpoint_Write_8(buffer[13]);
    4d36:	8d 85       	ldd	r24, Y+13	; 0x0d
    4d38:	80 83       	st	Z, r24
    Endpoint_Write_8(buffer[14]);
    4d3a:	8e 85       	ldd	r24, Y+14	; 0x0e
    4d3c:	80 83       	st	Z, r24
    Endpoint_Write_8(buffer[15]);
    4d3e:	8f 85       	ldd	r24, Y+15	; 0x0f
    4d40:	80 83       	st	Z, r24
    }

    while (TotalBlocks)
    {
        disk_read(0, buff_rd, BlockAddress, 1);
        for (i = 0; i < 32; i++)
    4d42:	0f 5f       	subi	r16, 0xFF	; 255
    4d44:	1f 4f       	sbci	r17, 0xFF	; 255
    4d46:	00 32       	cpi	r16, 0x20	; 32
    4d48:	11 05       	cpc	r17, r1
    4d4a:	24 f2       	brlt	.-120    	; 0x4cd4 <sdcard_ReadBlocks+0x66>
        {
            sdcard_ReadBlockHandler(buff_rd + (16 * i), NULL, NULL);
        }
        /* Decrement the blocks remaining counter */
        BlockAddress++;
    4d4c:	3f ef       	ldi	r19, 0xFF	; 255
    4d4e:	83 1a       	sub	r8, r19
    4d50:	93 0a       	sbc	r9, r19
    4d52:	a3 0a       	sbc	r10, r19
    4d54:	b3 0a       	sbc	r11, r19
        TotalBlocks--;
    4d56:	81 e0       	ldi	r24, 0x01	; 1
    4d58:	e8 1a       	sub	r14, r24
    4d5a:	f1 08       	sbc	r15, r1
    if (Endpoint_WaitUntilReady())
    {
        return;
    }

    while (TotalBlocks)
    4d5c:	e1 14       	cp	r14, r1
    4d5e:	f1 04       	cpc	r15, r1
    4d60:	09 f0       	breq	.+2      	; 0x4d64 <sdcard_ReadBlocks+0xf6>
    4d62:	ac cf       	rjmp	.-168    	; 0x4cbc <sdcard_ReadBlocks+0x4e>
			 *          on its direction.
			 */
			static inline bool Endpoint_IsReadWriteAllowed(void) ATTR_WARN_UNUSED_RESULT ATTR_ALWAYS_INLINE;
			static inline bool Endpoint_IsReadWriteAllowed(void)
			{
				return ((UEINTX & (1 << RWAL)) ? true : false);
    4d64:	80 91 e8 00 	lds	r24, 0x00E8	; 0x8000e8 <__TEXT_REGION_LENGTH__+0x7e00e8>
        BlockAddress++;
        TotalBlocks--;
    }

    /* If the endpoint is full, send its contents to the host */
    if (!(Endpoint_IsReadWriteAllowed()))
    4d68:	85 fd       	sbrc	r24, 5
    4d6a:	05 c0       	rjmp	.+10     	; 0x4d76 <sdcard_ReadBlocks+0x108>
			 */
			static inline void Endpoint_ClearIN(void) ATTR_ALWAYS_INLINE;
			static inline void Endpoint_ClearIN(void)
			{
				#if !defined(CONTROL_ONLY_DEVICE)
					UEINTX &= ~((1 << TXINI) | (1 << FIFOCON));
    4d6c:	e8 ee       	ldi	r30, 0xE8	; 232
    4d6e:	f0 e0       	ldi	r31, 0x00	; 0
    4d70:	80 81       	ld	r24, Z
    4d72:	8e 77       	andi	r24, 0x7E	; 126
    4d74:	80 83       	st	Z, r24
    {
        Endpoint_ClearIN();
    }
}
    4d76:	df 91       	pop	r29
    4d78:	cf 91       	pop	r28
    4d7a:	1f 91       	pop	r17
    4d7c:	0f 91       	pop	r16
    4d7e:	ff 90       	pop	r15
    4d80:	ef 90       	pop	r14
    4d82:	bf 90       	pop	r11
    4d84:	af 90       	pop	r10
    4d86:	9f 90       	pop	r9
    4d88:	8f 90       	pop	r8
    4d8a:	08 95       	ret

00004d8c <sdcard_CheckDataflashOperation>:
 *  \return Boolean true if all media chips are working, false otherwise
 */
bool sdcard_CheckDataflashOperation(void)
{
    return true;
}
    4d8c:	81 e0       	ldi	r24, 0x01	; 1
    4d8e:	08 95       	ret

00004d90 <Serial_putchar>:
{
	uint8_t* CurrByte = (uint8_t*)Buffer;

	while (Length--)
	  Serial_SendByte(*(CurrByte++));
}
    4d90:	90 91 c8 00 	lds	r25, 0x00C8	; 0x8000c8 <__TEXT_REGION_LENGTH__+0x7e00c8>
    4d94:	95 ff       	sbrs	r25, 5
    4d96:	fc cf       	rjmp	.-8      	; 0x4d90 <Serial_putchar>
    4d98:	80 93 ce 00 	sts	0x00CE, r24	; 0x8000ce <__TEXT_REGION_LENGTH__+0x7e00ce>
    4d9c:	80 e0       	ldi	r24, 0x00	; 0
    4d9e:	90 e0       	ldi	r25, 0x00	; 0
    4da0:	08 95       	ret

00004da2 <Serial_getchar>:
    4da2:	80 91 c8 00 	lds	r24, 0x00C8	; 0x8000c8 <__TEXT_REGION_LENGTH__+0x7e00c8>
    4da6:	88 23       	and	r24, r24
    4da8:	5c f4       	brge	.+22     	; 0x4dc0 <Serial_getchar+0x1e>
    4daa:	80 91 c8 00 	lds	r24, 0x00C8	; 0x8000c8 <__TEXT_REGION_LENGTH__+0x7e00c8>
    4dae:	88 23       	and	r24, r24
    4db0:	24 f4       	brge	.+8      	; 0x4dba <Serial_getchar+0x18>
    4db2:	80 91 ce 00 	lds	r24, 0x00CE	; 0x8000ce <__TEXT_REGION_LENGTH__+0x7e00ce>
    4db6:	90 e0       	ldi	r25, 0x00	; 0
    4db8:	08 95       	ret
    4dba:	8f ef       	ldi	r24, 0xFF	; 255
    4dbc:	9f ef       	ldi	r25, 0xFF	; 255
    4dbe:	08 95       	ret
    4dc0:	8e ef       	ldi	r24, 0xFE	; 254
    4dc2:	9f ef       	ldi	r25, 0xFF	; 255
    4dc4:	08 95       	ret

00004dc6 <Serial_SendString>:
    4dc6:	fc 01       	movw	r30, r24
    4dc8:	07 c0       	rjmp	.+14     	; 0x4dd8 <Serial_SendString+0x12>
    4dca:	90 91 c8 00 	lds	r25, 0x00C8	; 0x8000c8 <__TEXT_REGION_LENGTH__+0x7e00c8>
    4dce:	95 ff       	sbrs	r25, 5
    4dd0:	fc cf       	rjmp	.-8      	; 0x4dca <Serial_SendString+0x4>
    4dd2:	80 93 ce 00 	sts	0x00CE, r24	; 0x8000ce <__TEXT_REGION_LENGTH__+0x7e00ce>
    4dd6:	31 96       	adiw	r30, 0x01	; 1
    4dd8:	80 81       	ld	r24, Z
    4dda:	81 11       	cpse	r24, r1
    4ddc:	f6 cf       	rjmp	.-20     	; 0x4dca <Serial_SendString+0x4>
    4dde:	08 95       	ret

00004de0 <Serial_CreateStream>:

void Serial_CreateStream(FILE* Stream)
{
    4de0:	fc 01       	movw	r30, r24
	if (!(Stream))
    4de2:	89 2b       	or	r24, r25
    4de4:	49 f4       	brne	.+18     	; 0x4df8 <Serial_CreateStream+0x18>
	{
		Stream = &USARTSerialStream;
		stdin  = Stream;
    4de6:	e1 e8       	ldi	r30, 0x81	; 129
    4de8:	fc e0       	ldi	r31, 0x0C	; 12
    4dea:	86 e6       	ldi	r24, 0x66	; 102
    4dec:	9c e0       	ldi	r25, 0x0C	; 12
    4dee:	91 83       	std	Z+1, r25	; 0x01
    4df0:	80 83       	st	Z, r24
		stdout = Stream;
    4df2:	93 83       	std	Z+3, r25	; 0x03
    4df4:	82 83       	std	Z+2, r24	; 0x02

void Serial_CreateStream(FILE* Stream)
{
	if (!(Stream))
	{
		Stream = &USARTSerialStream;
    4df6:	fc 01       	movw	r30, r24
		stdin  = Stream;
		stdout = Stream;
	}

	*Stream = (FILE)FDEV_SETUP_STREAM(Serial_putchar, Serial_getchar, _FDEV_SETUP_RW);
    4df8:	8e e0       	ldi	r24, 0x0E	; 14
    4dfa:	df 01       	movw	r26, r30
    4dfc:	1d 92       	st	X+, r1
    4dfe:	8a 95       	dec	r24
    4e00:	e9 f7       	brne	.-6      	; 0x4dfc <Serial_CreateStream+0x1c>
    4e02:	83 e0       	ldi	r24, 0x03	; 3
    4e04:	83 83       	std	Z+3, r24	; 0x03
    4e06:	88 ec       	ldi	r24, 0xC8	; 200
    4e08:	96 e2       	ldi	r25, 0x26	; 38
    4e0a:	91 87       	std	Z+9, r25	; 0x09
    4e0c:	80 87       	std	Z+8, r24	; 0x08
    4e0e:	81 ed       	ldi	r24, 0xD1	; 209
    4e10:	96 e2       	ldi	r25, 0x26	; 38
    4e12:	93 87       	std	Z+11, r25	; 0x0b
    4e14:	82 87       	std	Z+10, r24	; 0x0a
    4e16:	08 95       	ret

00004e18 <HID_Device_ProcessControlRequest>:
#define  __INCLUDE_FROM_HID_DRIVER
#define  __INCLUDE_FROM_HID_DEVICE_C
#include "HIDClassDevice.h"

void HID_Device_ProcessControlRequest(USB_ClassInfo_HID_Device_t* const HIDInterfaceInfo)
{
    4e18:	3f 92       	push	r3
    4e1a:	4f 92       	push	r4
    4e1c:	5f 92       	push	r5
    4e1e:	6f 92       	push	r6
    4e20:	7f 92       	push	r7
    4e22:	8f 92       	push	r8
    4e24:	9f 92       	push	r9
    4e26:	af 92       	push	r10
    4e28:	bf 92       	push	r11
    4e2a:	cf 92       	push	r12
    4e2c:	df 92       	push	r13
    4e2e:	ef 92       	push	r14
    4e30:	ff 92       	push	r15
    4e32:	0f 93       	push	r16
    4e34:	1f 93       	push	r17
    4e36:	cf 93       	push	r28
    4e38:	df 93       	push	r29
    4e3a:	00 d0       	rcall	.+0      	; 0x4e3c <HID_Device_ProcessControlRequest+0x24>
    4e3c:	1f 92       	push	r1
    4e3e:	cd b7       	in	r28, 0x3d	; 61
    4e40:	de b7       	in	r29, 0x3e	; 62
    4e42:	6c 01       	movw	r12, r24
				Endpoint_ClearStatusStage();
			}

			break;
	}
}
    4e44:	ed b6       	in	r14, 0x3d	; 61
    4e46:	fe b6       	in	r15, 0x3e	; 62
			 *  \return Boolean \c true if the selected endpoint has received a SETUP packet, \c false otherwise.
			 */
			static inline bool Endpoint_IsSETUPReceived(void) ATTR_WARN_UNUSED_RESULT ATTR_ALWAYS_INLINE;
			static inline bool Endpoint_IsSETUPReceived(void)
			{
				return ((UEINTX & (1 << RXSTPI)) ? true : false);
    4e48:	80 91 e8 00 	lds	r24, 0x00E8	; 0x8000e8 <__TEXT_REGION_LENGTH__+0x7e00e8>
#define  __INCLUDE_FROM_HID_DEVICE_C
#include "HIDClassDevice.h"

void HID_Device_ProcessControlRequest(USB_ClassInfo_HID_Device_t* const HIDInterfaceInfo)
{
	if (!(Endpoint_IsSETUPReceived()))
    4e4c:	83 ff       	sbrs	r24, 3
    4e4e:	21 c1       	rjmp	.+578    	; 0x5092 <HID_Device_ProcessControlRequest+0x27a>
	  return;

	if (USB_ControlRequest.wIndex != HIDInterfaceInfo->Config.InterfaceNumber)
    4e50:	20 91 7d 0c 	lds	r18, 0x0C7D	; 0x800c7d <USB_ControlRequest+0x4>
    4e54:	30 91 7e 0c 	lds	r19, 0x0C7E	; 0x800c7e <USB_ControlRequest+0x5>
    4e58:	f6 01       	movw	r30, r12
    4e5a:	80 81       	ld	r24, Z
    4e5c:	90 e0       	ldi	r25, 0x00	; 0
    4e5e:	28 17       	cp	r18, r24
    4e60:	39 07       	cpc	r19, r25
    4e62:	09 f0       	breq	.+2      	; 0x4e66 <HID_Device_ProcessControlRequest+0x4e>
    4e64:	16 c1       	rjmp	.+556    	; 0x5092 <HID_Device_ProcessControlRequest+0x27a>
	  return;

	switch (USB_ControlRequest.bRequest)
    4e66:	80 91 7a 0c 	lds	r24, 0x0C7A	; 0x800c7a <USB_ControlRequest+0x1>
    4e6a:	83 30       	cpi	r24, 0x03	; 3
    4e6c:	09 f4       	brne	.+2      	; 0x4e70 <HID_Device_ProcessControlRequest+0x58>
    4e6e:	ac c0       	rjmp	.+344    	; 0x4fc8 <HID_Device_ProcessControlRequest+0x1b0>
    4e70:	30 f4       	brcc	.+12     	; 0x4e7e <HID_Device_ProcessControlRequest+0x66>
    4e72:	81 30       	cpi	r24, 0x01	; 1
    4e74:	71 f0       	breq	.+28     	; 0x4e92 <HID_Device_ProcessControlRequest+0x7a>
    4e76:	82 30       	cpi	r24, 0x02	; 2
    4e78:	09 f4       	brne	.+2      	; 0x4e7c <HID_Device_ProcessControlRequest+0x64>
    4e7a:	ef c0       	rjmp	.+478    	; 0x505a <HID_Device_ProcessControlRequest+0x242>
    4e7c:	0a c1       	rjmp	.+532    	; 0x5092 <HID_Device_ProcessControlRequest+0x27a>
    4e7e:	8a 30       	cpi	r24, 0x0A	; 10
    4e80:	09 f4       	brne	.+2      	; 0x4e84 <HID_Device_ProcessControlRequest+0x6c>
    4e82:	cf c0       	rjmp	.+414    	; 0x5022 <HID_Device_ProcessControlRequest+0x20a>
    4e84:	8b 30       	cpi	r24, 0x0B	; 11
    4e86:	09 f4       	brne	.+2      	; 0x4e8a <HID_Device_ProcessControlRequest+0x72>
    4e88:	b8 c0       	rjmp	.+368    	; 0x4ffa <HID_Device_ProcessControlRequest+0x1e2>
    4e8a:	89 30       	cpi	r24, 0x09	; 9
    4e8c:	09 f0       	breq	.+2      	; 0x4e90 <HID_Device_ProcessControlRequest+0x78>
    4e8e:	01 c1       	rjmp	.+514    	; 0x5092 <HID_Device_ProcessControlRequest+0x27a>
    4e90:	53 c0       	rjmp	.+166    	; 0x4f38 <HID_Device_ProcessControlRequest+0x120>
	{
		case HID_REQ_GetReport:
			if (USB_ControlRequest.bmRequestType == (REQDIR_DEVICETOHOST | REQTYPE_CLASS | REQREC_INTERFACE))
    4e92:	80 91 79 0c 	lds	r24, 0x0C79	; 0x800c79 <USB_ControlRequest>
    4e96:	81 3a       	cpi	r24, 0xA1	; 161
    4e98:	09 f0       	breq	.+2      	; 0x4e9c <HID_Device_ProcessControlRequest+0x84>
    4e9a:	fb c0       	rjmp	.+502    	; 0x5092 <HID_Device_ProcessControlRequest+0x27a>
			{
    4e9c:	ad b6       	in	r10, 0x3d	; 61
    4e9e:	be b6       	in	r11, 0x3e	; 62
				uint16_t ReportSize = 0;
    4ea0:	1a 82       	std	Y+2, r1	; 0x02
    4ea2:	19 82       	std	Y+1, r1	; 0x01
				uint8_t  ReportID   = (USB_ControlRequest.wValue & 0xFF);
    4ea4:	e9 e7       	ldi	r30, 0x79	; 121
    4ea6:	fc e0       	ldi	r31, 0x0C	; 12
    4ea8:	82 81       	ldd	r24, Z+2	; 0x02
    4eaa:	73 80       	ldd	r7, Z+3	; 0x03
    4eac:	8b 83       	std	Y+3, r24	; 0x03
				uint8_t  ReportType = (USB_ControlRequest.wValue >> 8) - 1;
    4eae:	7a 94       	dec	r7
				uint8_t  ReportData[HIDInterfaceInfo->Config.PrevReportINBufferSize];
    4eb0:	f6 01       	movw	r30, r12
    4eb2:	40 85       	ldd	r20, Z+8	; 0x08
    4eb4:	50 e0       	ldi	r21, 0x00	; 0
    4eb6:	8d b7       	in	r24, 0x3d	; 61
    4eb8:	9e b7       	in	r25, 0x3e	; 62
    4eba:	84 1b       	sub	r24, r20
    4ebc:	95 0b       	sbc	r25, r21
    4ebe:	0f b6       	in	r0, 0x3f	; 63
    4ec0:	f8 94       	cli
    4ec2:	9e bf       	out	0x3e, r25	; 62
    4ec4:	0f be       	out	0x3f, r0	; 63
    4ec6:	8d bf       	out	0x3d, r24	; 61
    4ec8:	ed b7       	in	r30, 0x3d	; 61
    4eca:	fe b7       	in	r31, 0x3e	; 62
    4ecc:	31 96       	adiw	r30, 0x01	; 1
    4ece:	4f 01       	movw	r8, r30

				memset(ReportData, 0, sizeof(ReportData));
    4ed0:	60 e0       	ldi	r22, 0x00	; 0
    4ed2:	70 e0       	ldi	r23, 0x00	; 0
    4ed4:	cf 01       	movw	r24, r30
    4ed6:	0e 94 06 31 	call	0x620c	; 0x620c <memset>

				CALLBACK_HID_Device_CreateHIDReport(HIDInterfaceInfo, &ReportID, ReportType, ReportData, &ReportSize);
    4eda:	8e 01       	movw	r16, r28
    4edc:	0f 5f       	subi	r16, 0xFF	; 255
    4ede:	1f 4f       	sbci	r17, 0xFF	; 255
    4ee0:	94 01       	movw	r18, r8
    4ee2:	47 2d       	mov	r20, r7
    4ee4:	be 01       	movw	r22, r28
    4ee6:	6d 5f       	subi	r22, 0xFD	; 253
    4ee8:	7f 4f       	sbci	r23, 0xFF	; 255
    4eea:	c6 01       	movw	r24, r12
    4eec:	0e 94 cb 19 	call	0x3396	; 0x3396 <CALLBACK_HID_Device_CreateHIDReport>

				if (HIDInterfaceInfo->Config.PrevReportINBuffer != NULL)
    4ef0:	f6 01       	movw	r30, r12
    4ef2:	86 81       	ldd	r24, Z+6	; 0x06
    4ef4:	97 81       	ldd	r25, Z+7	; 0x07
    4ef6:	00 97       	sbiw	r24, 0x00	; 0
    4ef8:	29 f0       	breq	.+10     	; 0x4f04 <HID_Device_ProcessControlRequest+0xec>
				{
					memcpy(HIDInterfaceInfo->Config.PrevReportINBuffer, ReportData,
					       HIDInterfaceInfo->Config.PrevReportINBufferSize);
    4efa:	40 85       	ldd	r20, Z+8	; 0x08

				CALLBACK_HID_Device_CreateHIDReport(HIDInterfaceInfo, &ReportID, ReportType, ReportData, &ReportSize);

				if (HIDInterfaceInfo->Config.PrevReportINBuffer != NULL)
				{
					memcpy(HIDInterfaceInfo->Config.PrevReportINBuffer, ReportData,
    4efc:	50 e0       	ldi	r21, 0x00	; 0
    4efe:	b4 01       	movw	r22, r8
    4f00:	0e 94 fd 30 	call	0x61fa	; 0x61fa <memcpy>
			 */
			static inline void Endpoint_SelectEndpoint(const uint8_t Address) ATTR_ALWAYS_INLINE;
			static inline void Endpoint_SelectEndpoint(const uint8_t Address)
			{
				#if !defined(CONTROL_ONLY_DEVICE)
					UENUM = (Address & ENDPOINT_EPNUM_MASK);
    4f04:	10 92 e9 00 	sts	0x00E9, r1	; 0x8000e9 <__TEXT_REGION_LENGTH__+0x7e00e9>
			 *  \note This is not applicable for non CONTROL type endpoints.
			 */
			static inline void Endpoint_ClearSETUP(void) ATTR_ALWAYS_INLINE;
			static inline void Endpoint_ClearSETUP(void)
			{
				UEINTX &= ~(1 << RXSTPI);
    4f08:	e8 ee       	ldi	r30, 0xE8	; 232
    4f0a:	f0 e0       	ldi	r31, 0x00	; 0
    4f0c:	80 81       	ld	r24, Z
    4f0e:	87 7f       	andi	r24, 0xF7	; 247
    4f10:	80 83       	st	Z, r24

				Endpoint_SelectEndpoint(ENDPOINT_CONTROLEP);

				Endpoint_ClearSETUP();

				if (ReportID)
    4f12:	8b 81       	ldd	r24, Y+3	; 0x03
    4f14:	81 11       	cpse	r24, r1
			 *  \param[in] Data  Data to write into the the currently selected endpoint's FIFO buffer.
			 */
			static inline void Endpoint_Write_8(const uint8_t Data) ATTR_ALWAYS_INLINE;
			static inline void Endpoint_Write_8(const uint8_t Data)
			{
				UEDATX = Data;
    4f16:	80 93 f1 00 	sts	0x00F1, r24	; 0x8000f1 <__TEXT_REGION_LENGTH__+0x7e00f1>
				  Endpoint_Write_8(ReportID);

				Endpoint_Write_Control_Stream_LE(ReportData, ReportSize);
    4f1a:	69 81       	ldd	r22, Y+1	; 0x01
    4f1c:	7a 81       	ldd	r23, Y+2	; 0x02
    4f1e:	c4 01       	movw	r24, r8
    4f20:	4c d4       	rcall	.+2200   	; 0x57ba <Endpoint_Write_Control_Stream_LE>
			 */
			static inline void Endpoint_ClearOUT(void) ATTR_ALWAYS_INLINE;
			static inline void Endpoint_ClearOUT(void)
			{
				#if !defined(CONTROL_ONLY_DEVICE)
					UEINTX &= ~((1 << RXOUTI) | (1 << FIFOCON));
    4f22:	e8 ee       	ldi	r30, 0xE8	; 232
    4f24:	f0 e0       	ldi	r31, 0x00	; 0
    4f26:	80 81       	ld	r24, Z
    4f28:	8b 77       	andi	r24, 0x7B	; 123
    4f2a:	80 83       	st	Z, r24
    4f2c:	0f b6       	in	r0, 0x3f	; 63
    4f2e:	f8 94       	cli
    4f30:	be be       	out	0x3e, r11	; 62
    4f32:	0f be       	out	0x3f, r0	; 63
    4f34:	ad be       	out	0x3d, r10	; 61
    4f36:	ad c0       	rjmp	.+346    	; 0x5092 <HID_Device_ProcessControlRequest+0x27a>
				Endpoint_ClearOUT();
			}

			break;
		case HID_REQ_SetReport:
			if (USB_ControlRequest.bmRequestType == (REQDIR_HOSTTODEVICE | REQTYPE_CLASS | REQREC_INTERFACE))
    4f38:	80 91 79 0c 	lds	r24, 0x0C79	; 0x800c79 <USB_ControlRequest>
    4f3c:	81 32       	cpi	r24, 0x21	; 33
    4f3e:	09 f0       	breq	.+2      	; 0x4f42 <HID_Device_ProcessControlRequest+0x12a>
    4f40:	a8 c0       	rjmp	.+336    	; 0x5092 <HID_Device_ProcessControlRequest+0x27a>
			{
    4f42:	6d b6       	in	r6, 0x3d	; 61
    4f44:	7e b6       	in	r7, 0x3e	; 62
				uint16_t ReportSize = USB_ControlRequest.wLength;
    4f46:	e9 e7       	ldi	r30, 0x79	; 121
    4f48:	fc e0       	ldi	r31, 0x0C	; 12
    4f4a:	06 81       	ldd	r16, Z+6	; 0x06
    4f4c:	17 81       	ldd	r17, Z+7	; 0x07
				uint8_t  ReportID   = (USB_ControlRequest.wValue & 0xFF);
    4f4e:	42 80       	ldd	r4, Z+2	; 0x02
    4f50:	53 80       	ldd	r5, Z+3	; 0x03
    4f52:	34 2c       	mov	r3, r4
				uint8_t  ReportType = (USB_ControlRequest.wValue >> 8) - 1;
    4f54:	5a 94       	dec	r5
				uint8_t  ReportData[ReportSize];
    4f56:	8d b7       	in	r24, 0x3d	; 61
    4f58:	9e b7       	in	r25, 0x3e	; 62
    4f5a:	80 1b       	sub	r24, r16
    4f5c:	91 0b       	sbc	r25, r17
    4f5e:	0f b6       	in	r0, 0x3f	; 63
    4f60:	f8 94       	cli
    4f62:	9e bf       	out	0x3e, r25	; 62
    4f64:	0f be       	out	0x3f, r0	; 63
    4f66:	8d bf       	out	0x3d, r24	; 61
    4f68:	ed b7       	in	r30, 0x3d	; 61
    4f6a:	fe b7       	in	r31, 0x3e	; 62
    4f6c:	31 96       	adiw	r30, 0x01	; 1
    4f6e:	4f 01       	movw	r8, r30
			 *  \note This is not applicable for non CONTROL type endpoints.
			 */
			static inline void Endpoint_ClearSETUP(void) ATTR_ALWAYS_INLINE;
			static inline void Endpoint_ClearSETUP(void)
			{
				UEINTX &= ~(1 << RXSTPI);
    4f70:	0f 2e       	mov	r0, r31
    4f72:	f8 ee       	ldi	r31, 0xE8	; 232
    4f74:	af 2e       	mov	r10, r31
    4f76:	b1 2c       	mov	r11, r1
    4f78:	f0 2d       	mov	r31, r0
    4f7a:	f5 01       	movw	r30, r10
    4f7c:	80 81       	ld	r24, Z
    4f7e:	87 7f       	andi	r24, 0xF7	; 247
    4f80:	80 83       	st	Z, r24

				Endpoint_ClearSETUP();
				Endpoint_Read_Control_Stream_LE(ReportData, ReportSize);
    4f82:	b8 01       	movw	r22, r16
    4f84:	c4 01       	movw	r24, r8
    4f86:	81 d4       	rcall	.+2306   	; 0x588a <Endpoint_Read_Control_Stream_LE>
			 */
			static inline void Endpoint_ClearIN(void) ATTR_ALWAYS_INLINE;
			static inline void Endpoint_ClearIN(void)
			{
				#if !defined(CONTROL_ONLY_DEVICE)
					UEINTX &= ~((1 << TXINI) | (1 << FIFOCON));
    4f88:	f5 01       	movw	r30, r10
    4f8a:	80 81       	ld	r24, Z
    4f8c:	8e 77       	andi	r24, 0x7E	; 126
    4f8e:	80 83       	st	Z, r24
				Endpoint_ClearIN();

				CALLBACK_HID_Device_ProcessHIDReport(HIDInterfaceInfo, ReportID, ReportType,
    4f90:	44 20       	and	r4, r4
    4f92:	19 f0       	breq	.+6      	; 0x4f9a <HID_Device_ProcessControlRequest+0x182>
    4f94:	81 e0       	ldi	r24, 0x01	; 1
    4f96:	90 e0       	ldi	r25, 0x00	; 0
    4f98:	02 c0       	rjmp	.+4      	; 0x4f9e <HID_Device_ProcessControlRequest+0x186>
    4f9a:	80 e0       	ldi	r24, 0x00	; 0
    4f9c:	90 e0       	ldi	r25, 0x00	; 0
				                                     &ReportData[ReportID ? 1 : 0], ReportSize - (ReportID ? 1 : 0));
    4f9e:	21 e0       	ldi	r18, 0x01	; 1
    4fa0:	30 e0       	ldi	r19, 0x00	; 0
    4fa2:	31 10       	cpse	r3, r1
    4fa4:	02 c0       	rjmp	.+4      	; 0x4faa <HID_Device_ProcessControlRequest+0x192>
    4fa6:	20 e0       	ldi	r18, 0x00	; 0
    4fa8:	30 e0       	ldi	r19, 0x00	; 0
    4faa:	28 0d       	add	r18, r8
    4fac:	39 1d       	adc	r19, r9

				Endpoint_ClearSETUP();
				Endpoint_Read_Control_Stream_LE(ReportData, ReportSize);
				Endpoint_ClearIN();

				CALLBACK_HID_Device_ProcessHIDReport(HIDInterfaceInfo, ReportID, ReportType,
    4fae:	08 1b       	sub	r16, r24
    4fb0:	19 0b       	sbc	r17, r25
    4fb2:	45 2d       	mov	r20, r5
    4fb4:	64 2d       	mov	r22, r4
    4fb6:	c6 01       	movw	r24, r12
    4fb8:	0e 94 7b 1a 	call	0x34f6	; 0x34f6 <CALLBACK_HID_Device_ProcessHIDReport>
    4fbc:	0f b6       	in	r0, 0x3f	; 63
    4fbe:	f8 94       	cli
    4fc0:	7e be       	out	0x3e, r7	; 62
    4fc2:	0f be       	out	0x3f, r0	; 63
    4fc4:	6d be       	out	0x3d, r6	; 61
    4fc6:	65 c0       	rjmp	.+202    	; 0x5092 <HID_Device_ProcessControlRequest+0x27a>
				                                     &ReportData[ReportID ? 1 : 0], ReportSize - (ReportID ? 1 : 0));
			}

			break;
		case HID_REQ_GetProtocol:
			if (USB_ControlRequest.bmRequestType == (REQDIR_DEVICETOHOST | REQTYPE_CLASS | REQREC_INTERFACE))
    4fc8:	80 91 79 0c 	lds	r24, 0x0C79	; 0x800c79 <USB_ControlRequest>
    4fcc:	81 3a       	cpi	r24, 0xA1	; 161
    4fce:	09 f0       	breq	.+2      	; 0x4fd2 <HID_Device_ProcessControlRequest+0x1ba>
    4fd0:	60 c0       	rjmp	.+192    	; 0x5092 <HID_Device_ProcessControlRequest+0x27a>
			 *  \note This is not applicable for non CONTROL type endpoints.
			 */
			static inline void Endpoint_ClearSETUP(void) ATTR_ALWAYS_INLINE;
			static inline void Endpoint_ClearSETUP(void)
			{
				UEINTX &= ~(1 << RXSTPI);
    4fd2:	e8 ee       	ldi	r30, 0xE8	; 232
    4fd4:	f0 e0       	ldi	r31, 0x00	; 0
    4fd6:	80 81       	ld	r24, Z
    4fd8:	87 7f       	andi	r24, 0xF7	; 247
    4fda:	80 83       	st	Z, r24
			 *  \return Boolean \c true if the current endpoint is ready for an IN packet, \c false otherwise.
			 */
			static inline bool Endpoint_IsINReady(void) ATTR_WARN_UNUSED_RESULT ATTR_ALWAYS_INLINE;
			static inline bool Endpoint_IsINReady(void)
			{
				return ((UEINTX & (1 << TXINI)) ? true : false);
    4fdc:	80 91 e8 00 	lds	r24, 0x00E8	; 0x8000e8 <__TEXT_REGION_LENGTH__+0x7e00e8>
			{
				Endpoint_ClearSETUP();
				while (!(Endpoint_IsINReady()));
    4fe0:	80 ff       	sbrs	r24, 0
    4fe2:	fc cf       	rjmp	.-8      	; 0x4fdc <HID_Device_ProcessControlRequest+0x1c4>
				Endpoint_Write_8(HIDInterfaceInfo->State.UsingReportProtocol);
    4fe4:	f6 01       	movw	r30, r12
    4fe6:	81 85       	ldd	r24, Z+9	; 0x09
			 *  \param[in] Data  Data to write into the the currently selected endpoint's FIFO buffer.
			 */
			static inline void Endpoint_Write_8(const uint8_t Data) ATTR_ALWAYS_INLINE;
			static inline void Endpoint_Write_8(const uint8_t Data)
			{
				UEDATX = Data;
    4fe8:	80 93 f1 00 	sts	0x00F1, r24	; 0x8000f1 <__TEXT_REGION_LENGTH__+0x7e00f1>
			 */
			static inline void Endpoint_ClearIN(void) ATTR_ALWAYS_INLINE;
			static inline void Endpoint_ClearIN(void)
			{
				#if !defined(CONTROL_ONLY_DEVICE)
					UEINTX &= ~((1 << TXINI) | (1 << FIFOCON));
    4fec:	e8 ee       	ldi	r30, 0xE8	; 232
    4fee:	f0 e0       	ldi	r31, 0x00	; 0
    4ff0:	80 81       	ld	r24, Z
    4ff2:	8e 77       	andi	r24, 0x7E	; 126
				Endpoint_ClearIN();
				Endpoint_ClearStatusStage();
    4ff4:	80 83       	st	Z, r24
    4ff6:	0a d5       	rcall	.+2580   	; 0x5a0c <Endpoint_ClearStatusStage>
    4ff8:	4c c0       	rjmp	.+152    	; 0x5092 <HID_Device_ProcessControlRequest+0x27a>
			}

			break;
		case HID_REQ_SetProtocol:
			if (USB_ControlRequest.bmRequestType == (REQDIR_HOSTTODEVICE | REQTYPE_CLASS | REQREC_INTERFACE))
    4ffa:	80 91 79 0c 	lds	r24, 0x0C79	; 0x800c79 <USB_ControlRequest>
    4ffe:	81 32       	cpi	r24, 0x21	; 33
    5000:	09 f0       	breq	.+2      	; 0x5004 <HID_Device_ProcessControlRequest+0x1ec>
    5002:	47 c0       	rjmp	.+142    	; 0x5092 <HID_Device_ProcessControlRequest+0x27a>
			 *  \note This is not applicable for non CONTROL type endpoints.
			 */
			static inline void Endpoint_ClearSETUP(void) ATTR_ALWAYS_INLINE;
			static inline void Endpoint_ClearSETUP(void)
			{
				UEINTX &= ~(1 << RXSTPI);
    5004:	e8 ee       	ldi	r30, 0xE8	; 232
    5006:	f0 e0       	ldi	r31, 0x00	; 0
    5008:	80 81       	ld	r24, Z
    500a:	87 7f       	andi	r24, 0xF7	; 247
			{
				Endpoint_ClearSETUP();
				Endpoint_ClearStatusStage();
    500c:	80 83       	st	Z, r24
    500e:	fe d4       	rcall	.+2556   	; 0x5a0c <Endpoint_ClearStatusStage>

				HIDInterfaceInfo->State.UsingReportProtocol = ((USB_ControlRequest.wValue & 0xFF) != 0x00);
    5010:	90 91 7b 0c 	lds	r25, 0x0C7B	; 0x800c7b <USB_ControlRequest+0x2>
    5014:	81 e0       	ldi	r24, 0x01	; 1
    5016:	91 11       	cpse	r25, r1
    5018:	01 c0       	rjmp	.+2      	; 0x501c <HID_Device_ProcessControlRequest+0x204>
    501a:	80 e0       	ldi	r24, 0x00	; 0
    501c:	f6 01       	movw	r30, r12
    501e:	81 87       	std	Z+9, r24	; 0x09
    5020:	38 c0       	rjmp	.+112    	; 0x5092 <HID_Device_ProcessControlRequest+0x27a>
			}

			break;
		case HID_REQ_SetIdle:
			if (USB_ControlRequest.bmRequestType == (REQDIR_HOSTTODEVICE | REQTYPE_CLASS | REQREC_INTERFACE))
    5022:	80 91 79 0c 	lds	r24, 0x0C79	; 0x800c79 <USB_ControlRequest>
    5026:	81 32       	cpi	r24, 0x21	; 33
    5028:	a1 f5       	brne	.+104    	; 0x5092 <HID_Device_ProcessControlRequest+0x27a>
    502a:	e8 ee       	ldi	r30, 0xE8	; 232
    502c:	f0 e0       	ldi	r31, 0x00	; 0
    502e:	80 81       	ld	r24, Z
    5030:	87 7f       	andi	r24, 0xF7	; 247
			{
				Endpoint_ClearSETUP();
				Endpoint_ClearStatusStage();
    5032:	80 83       	st	Z, r24
    5034:	eb d4       	rcall	.+2518   	; 0x5a0c <Endpoint_ClearStatusStage>

				HIDInterfaceInfo->State.IdleCount = ((USB_ControlRequest.wValue & 0xFF00) >> 6);
    5036:	80 91 7b 0c 	lds	r24, 0x0C7B	; 0x800c7b <USB_ControlRequest+0x2>
    503a:	90 91 7c 0c 	lds	r25, 0x0C7C	; 0x800c7c <USB_ControlRequest+0x3>
    503e:	88 27       	eor	r24, r24
    5040:	00 24       	eor	r0, r0
    5042:	88 0f       	add	r24, r24
    5044:	99 1f       	adc	r25, r25
    5046:	00 1c       	adc	r0, r0
    5048:	88 0f       	add	r24, r24
    504a:	99 1f       	adc	r25, r25
    504c:	00 1c       	adc	r0, r0
    504e:	89 2f       	mov	r24, r25
    5050:	90 2d       	mov	r25, r0
    5052:	f6 01       	movw	r30, r12
    5054:	95 87       	std	Z+13, r25	; 0x0d
    5056:	84 87       	std	Z+12, r24	; 0x0c
    5058:	1c c0       	rjmp	.+56     	; 0x5092 <HID_Device_ProcessControlRequest+0x27a>
			}

			break;
		case HID_REQ_GetIdle:
			if (USB_ControlRequest.bmRequestType == (REQDIR_DEVICETOHOST | REQTYPE_CLASS | REQREC_INTERFACE))
    505a:	80 91 79 0c 	lds	r24, 0x0C79	; 0x800c79 <USB_ControlRequest>
    505e:	81 3a       	cpi	r24, 0xA1	; 161
    5060:	c1 f4       	brne	.+48     	; 0x5092 <HID_Device_ProcessControlRequest+0x27a>
    5062:	e8 ee       	ldi	r30, 0xE8	; 232
    5064:	f0 e0       	ldi	r31, 0x00	; 0
    5066:	80 81       	ld	r24, Z
    5068:	87 7f       	andi	r24, 0xF7	; 247
    506a:	80 83       	st	Z, r24
			 *  \return Boolean \c true if the current endpoint is ready for an IN packet, \c false otherwise.
			 */
			static inline bool Endpoint_IsINReady(void) ATTR_WARN_UNUSED_RESULT ATTR_ALWAYS_INLINE;
			static inline bool Endpoint_IsINReady(void)
			{
				return ((UEINTX & (1 << TXINI)) ? true : false);
    506c:	80 91 e8 00 	lds	r24, 0x00E8	; 0x8000e8 <__TEXT_REGION_LENGTH__+0x7e00e8>
			{
				Endpoint_ClearSETUP();
				while (!(Endpoint_IsINReady()));
    5070:	80 ff       	sbrs	r24, 0
    5072:	fc cf       	rjmp	.-8      	; 0x506c <HID_Device_ProcessControlRequest+0x254>
				Endpoint_Write_8(HIDInterfaceInfo->State.IdleCount >> 2);
    5074:	f6 01       	movw	r30, r12
    5076:	84 85       	ldd	r24, Z+12	; 0x0c
    5078:	95 85       	ldd	r25, Z+13	; 0x0d
    507a:	96 95       	lsr	r25
    507c:	87 95       	ror	r24
    507e:	96 95       	lsr	r25
    5080:	87 95       	ror	r24
			 *  \param[in] Data  Data to write into the the currently selected endpoint's FIFO buffer.
			 */
			static inline void Endpoint_Write_8(const uint8_t Data) ATTR_ALWAYS_INLINE;
			static inline void Endpoint_Write_8(const uint8_t Data)
			{
				UEDATX = Data;
    5082:	80 93 f1 00 	sts	0x00F1, r24	; 0x8000f1 <__TEXT_REGION_LENGTH__+0x7e00f1>
			 */
			static inline void Endpoint_ClearIN(void) ATTR_ALWAYS_INLINE;
			static inline void Endpoint_ClearIN(void)
			{
				#if !defined(CONTROL_ONLY_DEVICE)
					UEINTX &= ~((1 << TXINI) | (1 << FIFOCON));
    5086:	e8 ee       	ldi	r30, 0xE8	; 232
    5088:	f0 e0       	ldi	r31, 0x00	; 0
    508a:	80 81       	ld	r24, Z
    508c:	8e 77       	andi	r24, 0x7E	; 126
				Endpoint_ClearIN();
				Endpoint_ClearStatusStage();
    508e:	80 83       	st	Z, r24
    5090:	bd d4       	rcall	.+2426   	; 0x5a0c <Endpoint_ClearStatusStage>
			}

			break;
	}
}
    5092:	0f b6       	in	r0, 0x3f	; 63
    5094:	f8 94       	cli
    5096:	fe be       	out	0x3e, r15	; 62
    5098:	0f be       	out	0x3f, r0	; 63
    509a:	ed be       	out	0x3d, r14	; 61
    509c:	0f 90       	pop	r0
    509e:	0f 90       	pop	r0
    50a0:	0f 90       	pop	r0
    50a2:	df 91       	pop	r29
    50a4:	cf 91       	pop	r28
    50a6:	1f 91       	pop	r17
    50a8:	0f 91       	pop	r16
    50aa:	ff 90       	pop	r15
    50ac:	ef 90       	pop	r14
    50ae:	df 90       	pop	r13
    50b0:	cf 90       	pop	r12
    50b2:	bf 90       	pop	r11
    50b4:	af 90       	pop	r10
    50b6:	9f 90       	pop	r9
    50b8:	8f 90       	pop	r8
    50ba:	7f 90       	pop	r7
    50bc:	6f 90       	pop	r6
    50be:	5f 90       	pop	r5
    50c0:	4f 90       	pop	r4
    50c2:	3f 90       	pop	r3
    50c4:	08 95       	ret

000050c6 <HID_Device_ConfigureEndpoints>:

bool HID_Device_ConfigureEndpoints(USB_ClassInfo_HID_Device_t* const HIDInterfaceInfo)
{
	memset(&HIDInterfaceInfo->State, 0x00, sizeof(HIDInterfaceInfo->State));
    50c6:	fc 01       	movw	r30, r24
    50c8:	39 96       	adiw	r30, 0x09	; 9
    50ca:	27 e0       	ldi	r18, 0x07	; 7
    50cc:	df 01       	movw	r26, r30
    50ce:	1d 92       	st	X+, r1
    50d0:	2a 95       	dec	r18
    50d2:	e9 f7       	brne	.-6      	; 0x50ce <HID_Device_ConfigureEndpoints+0x8>
	HIDInterfaceInfo->State.UsingReportProtocol = true;
    50d4:	21 e0       	ldi	r18, 0x01	; 1
    50d6:	fc 01       	movw	r30, r24
    50d8:	21 87       	std	Z+9, r18	; 0x09
	HIDInterfaceInfo->State.IdleCount           = 500;
    50da:	24 ef       	ldi	r18, 0xF4	; 244
    50dc:	31 e0       	ldi	r19, 0x01	; 1
    50de:	35 87       	std	Z+13, r19	; 0x0d
    50e0:	24 87       	std	Z+12, r18	; 0x0c

	HIDInterfaceInfo->Config.ReportINEndpoint.Type = EP_TYPE_INTERRUPT;
    50e2:	23 e0       	ldi	r18, 0x03	; 3
    50e4:	24 83       	std	Z+4, r18	; 0x04

	if (!(Endpoint_ConfigureEndpointTable(&HIDInterfaceInfo->Config.ReportINEndpoint, 1)))
    50e6:	61 e0       	ldi	r22, 0x01	; 1
    50e8:	01 96       	adiw	r24, 0x01	; 1
    50ea:	4a c4       	rjmp	.+2196   	; 0x5980 <Endpoint_ConfigureEndpointTable>
	  return false;

	return true;
}
    50ec:	08 95       	ret

000050ee <HID_Device_USBTask>:

void HID_Device_USBTask(USB_ClassInfo_HID_Device_t* const HIDInterfaceInfo)
{
    50ee:	5f 92       	push	r5
    50f0:	6f 92       	push	r6
    50f2:	7f 92       	push	r7
    50f4:	8f 92       	push	r8
    50f6:	9f 92       	push	r9
    50f8:	af 92       	push	r10
    50fa:	bf 92       	push	r11
    50fc:	cf 92       	push	r12
    50fe:	df 92       	push	r13
    5100:	ef 92       	push	r14
    5102:	ff 92       	push	r15
    5104:	0f 93       	push	r16
    5106:	1f 93       	push	r17
    5108:	cf 93       	push	r28
    510a:	df 93       	push	r29
    510c:	00 d0       	rcall	.+0      	; 0x510e <HID_Device_USBTask+0x20>
    510e:	1f 92       	push	r1
    5110:	cd b7       	in	r28, 0x3d	; 61
    5112:	de b7       	in	r29, 0x3e	; 62
    5114:	7c 01       	movw	r14, r24
			Endpoint_ClearIN();
		}

		HIDInterfaceInfo->State.PrevFrameNum = USB_Device_GetFrameNumber();
	}
}
    5116:	ad b6       	in	r10, 0x3d	; 61
    5118:	be b6       	in	r11, 0x3e	; 62
	return true;
}

void HID_Device_USBTask(USB_ClassInfo_HID_Device_t* const HIDInterfaceInfo)
{
	if (USB_DeviceState != DEVICE_STATE_Configured)
    511a:	80 91 78 0c 	lds	r24, 0x0C78	; 0x800c78 <USB_DeviceState>
    511e:	84 30       	cpi	r24, 0x04	; 4
    5120:	09 f0       	breq	.+2      	; 0x5124 <HID_Device_USBTask+0x36>
    5122:	90 c0       	rjmp	.+288    	; 0x5244 <HID_Device_USBTask+0x156>
	  return;

	if (HIDInterfaceInfo->State.PrevFrameNum == USB_Device_GetFrameNumber())
    5124:	f7 01       	movw	r30, r14
    5126:	22 85       	ldd	r18, Z+10	; 0x0a
    5128:	33 85       	ldd	r19, Z+11	; 0x0b
			 *  \return Current USB frame number from the USB controller.
			 */
			static inline uint16_t USB_Device_GetFrameNumber(void) ATTR_ALWAYS_INLINE ATTR_WARN_UNUSED_RESULT;
			static inline uint16_t USB_Device_GetFrameNumber(void)
			{
				return UDFNUM;
    512a:	80 91 e4 00 	lds	r24, 0x00E4	; 0x8000e4 <__TEXT_REGION_LENGTH__+0x7e00e4>
    512e:	90 91 e5 00 	lds	r25, 0x00E5	; 0x8000e5 <__TEXT_REGION_LENGTH__+0x7e00e5>
    5132:	28 17       	cp	r18, r24
    5134:	39 07       	cpc	r19, r25
    5136:	09 f4       	brne	.+2      	; 0x513a <HID_Device_USBTask+0x4c>
    5138:	85 c0       	rjmp	.+266    	; 0x5244 <HID_Device_USBTask+0x156>
		#else
		return;
		#endif
	}

	Endpoint_SelectEndpoint(HIDInterfaceInfo->Config.ReportINEndpoint.Address);
    513a:	81 81       	ldd	r24, Z+1	; 0x01
			 */
			static inline void Endpoint_SelectEndpoint(const uint8_t Address) ATTR_ALWAYS_INLINE;
			static inline void Endpoint_SelectEndpoint(const uint8_t Address)
			{
				#if !defined(CONTROL_ONLY_DEVICE)
					UENUM = (Address & ENDPOINT_EPNUM_MASK);
    513c:	8f 70       	andi	r24, 0x0F	; 15
    513e:	80 93 e9 00 	sts	0x00E9, r24	; 0x8000e9 <__TEXT_REGION_LENGTH__+0x7e00e9>
			 *          on its direction.
			 */
			static inline bool Endpoint_IsReadWriteAllowed(void) ATTR_WARN_UNUSED_RESULT ATTR_ALWAYS_INLINE;
			static inline bool Endpoint_IsReadWriteAllowed(void)
			{
				return ((UEINTX & (1 << RWAL)) ? true : false);
    5142:	80 91 e8 00 	lds	r24, 0x00E8	; 0x8000e8 <__TEXT_REGION_LENGTH__+0x7e00e8>

	if (Endpoint_IsReadWriteAllowed())
    5146:	85 ff       	sbrs	r24, 5
    5148:	7d c0       	rjmp	.+250    	; 0x5244 <HID_Device_USBTask+0x156>
	{
    514a:	8d b6       	in	r8, 0x3d	; 61
    514c:	9e b6       	in	r9, 0x3e	; 62
		uint8_t  ReportINData[HIDInterfaceInfo->Config.PrevReportINBufferSize];
    514e:	40 85       	ldd	r20, Z+8	; 0x08
    5150:	50 e0       	ldi	r21, 0x00	; 0
    5152:	8d b7       	in	r24, 0x3d	; 61
    5154:	9e b7       	in	r25, 0x3e	; 62
    5156:	84 1b       	sub	r24, r20
    5158:	95 0b       	sbc	r25, r21
    515a:	0f b6       	in	r0, 0x3f	; 63
    515c:	f8 94       	cli
    515e:	9e bf       	out	0x3e, r25	; 62
    5160:	0f be       	out	0x3f, r0	; 63
    5162:	8d bf       	out	0x3d, r24	; 61
    5164:	ed b7       	in	r30, 0x3d	; 61
    5166:	fe b7       	in	r31, 0x3e	; 62
    5168:	31 96       	adiw	r30, 0x01	; 1
    516a:	6f 01       	movw	r12, r30
		uint8_t  ReportID     = 0;
    516c:	1b 82       	std	Y+3, r1	; 0x03
		uint16_t ReportINSize = 0;
    516e:	1a 82       	std	Y+2, r1	; 0x02
    5170:	19 82       	std	Y+1, r1	; 0x01

		memset(ReportINData, 0, sizeof(ReportINData));
    5172:	60 e0       	ldi	r22, 0x00	; 0
    5174:	70 e0       	ldi	r23, 0x00	; 0
    5176:	cf 01       	movw	r24, r30
    5178:	0e 94 06 31 	call	0x620c	; 0x620c <memset>

		bool ForceSend         = CALLBACK_HID_Device_CreateHIDReport(HIDInterfaceInfo, &ReportID, HID_REPORT_ITEM_In,
    517c:	8e 01       	movw	r16, r28
    517e:	0f 5f       	subi	r16, 0xFF	; 255
    5180:	1f 4f       	sbci	r17, 0xFF	; 255
    5182:	96 01       	movw	r18, r12
    5184:	40 e0       	ldi	r20, 0x00	; 0
    5186:	be 01       	movw	r22, r28
    5188:	6d 5f       	subi	r22, 0xFD	; 253
    518a:	7f 4f       	sbci	r23, 0xFF	; 255
    518c:	c7 01       	movw	r24, r14
    518e:	0e 94 cb 19 	call	0x3396	; 0x3396 <CALLBACK_HID_Device_CreateHIDReport>
    5192:	68 2e       	mov	r6, r24
		                                                             ReportINData, &ReportINSize);
		bool StatesChanged     = false;
		bool IdlePeriodElapsed = (HIDInterfaceInfo->State.IdleCount && !(HIDInterfaceInfo->State.IdleMSRemaining));
    5194:	f7 01       	movw	r30, r14
    5196:	84 85       	ldd	r24, Z+12	; 0x0c
    5198:	95 85       	ldd	r25, Z+13	; 0x0d
    519a:	89 2b       	or	r24, r25
    519c:	31 f0       	breq	.+12     	; 0x51aa <HID_Device_USBTask+0xbc>
    519e:	86 85       	ldd	r24, Z+14	; 0x0e
    51a0:	97 85       	ldd	r25, Z+15	; 0x0f
    51a2:	89 2b       	or	r24, r25
    51a4:	21 f0       	breq	.+8      	; 0x51ae <HID_Device_USBTask+0xc0>
    51a6:	80 e0       	ldi	r24, 0x00	; 0
    51a8:	03 c0       	rjmp	.+6      	; 0x51b0 <HID_Device_USBTask+0xc2>
    51aa:	80 e0       	ldi	r24, 0x00	; 0
    51ac:	01 c0       	rjmp	.+2      	; 0x51b0 <HID_Device_USBTask+0xc2>
    51ae:	81 e0       	ldi	r24, 0x01	; 1
    51b0:	81 70       	andi	r24, 0x01	; 1
    51b2:	78 2e       	mov	r7, r24

		if (HIDInterfaceInfo->Config.PrevReportINBuffer != NULL)
    51b4:	f7 01       	movw	r30, r14
    51b6:	06 81       	ldd	r16, Z+6	; 0x06
    51b8:	17 81       	ldd	r17, Z+7	; 0x07
    51ba:	01 15       	cp	r16, r1
    51bc:	11 05       	cpc	r17, r1
    51be:	99 f0       	breq	.+38     	; 0x51e6 <HID_Device_USBTask+0xf8>
		{
			StatesChanged = (memcmp(ReportINData, HIDInterfaceInfo->Config.PrevReportINBuffer, ReportINSize) != 0);
    51c0:	49 81       	ldd	r20, Y+1	; 0x01
    51c2:	5a 81       	ldd	r21, Y+2	; 0x02
    51c4:	b8 01       	movw	r22, r16
    51c6:	c6 01       	movw	r24, r12
    51c8:	0e 94 f0 30 	call	0x61e0	; 0x61e0 <memcmp>
    51cc:	55 24       	eor	r5, r5
    51ce:	53 94       	inc	r5
    51d0:	89 2b       	or	r24, r25
    51d2:	09 f4       	brne	.+2      	; 0x51d6 <HID_Device_USBTask+0xe8>
    51d4:	51 2c       	mov	r5, r1
			memcpy(HIDInterfaceInfo->Config.PrevReportINBuffer, ReportINData, HIDInterfaceInfo->Config.PrevReportINBufferSize);
    51d6:	f7 01       	movw	r30, r14
    51d8:	40 85       	ldd	r20, Z+8	; 0x08
    51da:	50 e0       	ldi	r21, 0x00	; 0
    51dc:	b6 01       	movw	r22, r12
    51de:	c8 01       	movw	r24, r16
    51e0:	0e 94 fd 30 	call	0x61fa	; 0x61fa <memcpy>
    51e4:	01 c0       	rjmp	.+2      	; 0x51e8 <HID_Device_USBTask+0xfa>

		memset(ReportINData, 0, sizeof(ReportINData));

		bool ForceSend         = CALLBACK_HID_Device_CreateHIDReport(HIDInterfaceInfo, &ReportID, HID_REPORT_ITEM_In,
		                                                             ReportINData, &ReportINSize);
		bool StatesChanged     = false;
    51e6:	51 2c       	mov	r5, r1
		{
			StatesChanged = (memcmp(ReportINData, HIDInterfaceInfo->Config.PrevReportINBuffer, ReportINSize) != 0);
			memcpy(HIDInterfaceInfo->Config.PrevReportINBuffer, ReportINData, HIDInterfaceInfo->Config.PrevReportINBufferSize);
		}

		if (ReportINSize && (ForceSend || StatesChanged || IdlePeriodElapsed))
    51e8:	89 81       	ldd	r24, Y+1	; 0x01
    51ea:	9a 81       	ldd	r25, Y+2	; 0x02
    51ec:	89 2b       	or	r24, r25
    51ee:	f1 f0       	breq	.+60     	; 0x522c <HID_Device_USBTask+0x13e>
    51f0:	61 10       	cpse	r6, r1
    51f2:	04 c0       	rjmp	.+8      	; 0x51fc <HID_Device_USBTask+0x10e>
    51f4:	51 10       	cpse	r5, r1
    51f6:	02 c0       	rjmp	.+4      	; 0x51fc <HID_Device_USBTask+0x10e>
    51f8:	77 20       	and	r7, r7
    51fa:	c1 f0       	breq	.+48     	; 0x522c <HID_Device_USBTask+0x13e>
		{
			HIDInterfaceInfo->State.IdleMSRemaining = HIDInterfaceInfo->State.IdleCount;
    51fc:	f7 01       	movw	r30, r14
    51fe:	84 85       	ldd	r24, Z+12	; 0x0c
    5200:	95 85       	ldd	r25, Z+13	; 0x0d
    5202:	97 87       	std	Z+15, r25	; 0x0f
    5204:	86 87       	std	Z+14, r24	; 0x0e

			Endpoint_SelectEndpoint(HIDInterfaceInfo->Config.ReportINEndpoint.Address);
    5206:	81 81       	ldd	r24, Z+1	; 0x01
			 */
			static inline void Endpoint_SelectEndpoint(const uint8_t Address) ATTR_ALWAYS_INLINE;
			static inline void Endpoint_SelectEndpoint(const uint8_t Address)
			{
				#if !defined(CONTROL_ONLY_DEVICE)
					UENUM = (Address & ENDPOINT_EPNUM_MASK);
    5208:	8f 70       	andi	r24, 0x0F	; 15
    520a:	80 93 e9 00 	sts	0x00E9, r24	; 0x8000e9 <__TEXT_REGION_LENGTH__+0x7e00e9>

			if (ReportID)
    520e:	8b 81       	ldd	r24, Y+3	; 0x03
    5210:	81 11       	cpse	r24, r1
			 *  \param[in] Data  Data to write into the the currently selected endpoint's FIFO buffer.
			 */
			static inline void Endpoint_Write_8(const uint8_t Data) ATTR_ALWAYS_INLINE;
			static inline void Endpoint_Write_8(const uint8_t Data)
			{
				UEDATX = Data;
    5212:	80 93 f1 00 	sts	0x00F1, r24	; 0x8000f1 <__TEXT_REGION_LENGTH__+0x7e00f1>
			  Endpoint_Write_8(ReportID);

			Endpoint_Write_Stream_LE(ReportINData, ReportINSize, NULL);
    5216:	69 81       	ldd	r22, Y+1	; 0x01
    5218:	7a 81       	ldd	r23, Y+2	; 0x02
    521a:	40 e0       	ldi	r20, 0x00	; 0
    521c:	50 e0       	ldi	r21, 0x00	; 0
    521e:	c6 01       	movw	r24, r12
    5220:	eb d1       	rcall	.+982    	; 0x55f8 <Endpoint_Write_Stream_LE>
			 */
			static inline void Endpoint_ClearIN(void) ATTR_ALWAYS_INLINE;
			static inline void Endpoint_ClearIN(void)
			{
				#if !defined(CONTROL_ONLY_DEVICE)
					UEINTX &= ~((1 << TXINI) | (1 << FIFOCON));
    5222:	e8 ee       	ldi	r30, 0xE8	; 232
    5224:	f0 e0       	ldi	r31, 0x00	; 0
    5226:	80 81       	ld	r24, Z
    5228:	8e 77       	andi	r24, 0x7E	; 126
    522a:	80 83       	st	Z, r24
    522c:	80 91 e4 00 	lds	r24, 0x00E4	; 0x8000e4 <__TEXT_REGION_LENGTH__+0x7e00e4>
    5230:	90 91 e5 00 	lds	r25, 0x00E5	; 0x8000e5 <__TEXT_REGION_LENGTH__+0x7e00e5>

			Endpoint_ClearIN();
		}

		HIDInterfaceInfo->State.PrevFrameNum = USB_Device_GetFrameNumber();
    5234:	f7 01       	movw	r30, r14
    5236:	93 87       	std	Z+11, r25	; 0x0b
    5238:	82 87       	std	Z+10, r24	; 0x0a
    523a:	0f b6       	in	r0, 0x3f	; 63
    523c:	f8 94       	cli
    523e:	9e be       	out	0x3e, r9	; 62
    5240:	0f be       	out	0x3f, r0	; 63
    5242:	8d be       	out	0x3d, r8	; 61
	}
}
    5244:	0f b6       	in	r0, 0x3f	; 63
    5246:	f8 94       	cli
    5248:	be be       	out	0x3e, r11	; 62
    524a:	0f be       	out	0x3f, r0	; 63
    524c:	ad be       	out	0x3d, r10	; 61
    524e:	0f 90       	pop	r0
    5250:	0f 90       	pop	r0
    5252:	0f 90       	pop	r0
    5254:	df 91       	pop	r29
    5256:	cf 91       	pop	r28
    5258:	1f 91       	pop	r17
    525a:	0f 91       	pop	r16
    525c:	ff 90       	pop	r15
    525e:	ef 90       	pop	r14
    5260:	df 90       	pop	r13
    5262:	cf 90       	pop	r12
    5264:	bf 90       	pop	r11
    5266:	af 90       	pop	r10
    5268:	9f 90       	pop	r9
    526a:	8f 90       	pop	r8
    526c:	7f 90       	pop	r7
    526e:	6f 90       	pop	r6
    5270:	5f 90       	pop	r5
    5272:	08 95       	ret

00005274 <MS_Device_ReadInCommandBlock>:
		MSInterfaceInfo->State.IsMassStoreReset = false;
	}
}

static bool MS_Device_ReadInCommandBlock(USB_ClassInfo_MS_Device_t* const MSInterfaceInfo)
{
    5274:	0f 93       	push	r16
    5276:	1f 93       	push	r17
    5278:	cf 93       	push	r28
    527a:	df 93       	push	r29
    527c:	00 d0       	rcall	.+0      	; 0x527e <MS_Device_ReadInCommandBlock+0xa>
    527e:	cd b7       	in	r28, 0x3d	; 61
    5280:	de b7       	in	r29, 0x3e	; 62
    5282:	8c 01       	movw	r16, r24
	uint16_t BytesProcessed;

	Endpoint_SelectEndpoint(MSInterfaceInfo->Config.DataOUTEndpoint.Address);
    5284:	dc 01       	movw	r26, r24
    5286:	16 96       	adiw	r26, 0x06	; 6
    5288:	8c 91       	ld	r24, X
			 */
			static inline void Endpoint_SelectEndpoint(const uint8_t Address) ATTR_ALWAYS_INLINE;
			static inline void Endpoint_SelectEndpoint(const uint8_t Address)
			{
				#if !defined(CONTROL_ONLY_DEVICE)
					UENUM = (Address & ENDPOINT_EPNUM_MASK);
    528a:	8f 70       	andi	r24, 0x0F	; 15
    528c:	80 93 e9 00 	sts	0x00E9, r24	; 0x8000e9 <__TEXT_REGION_LENGTH__+0x7e00e9>

	BytesProcessed = 0;
    5290:	1a 82       	std	Y+2, r1	; 0x02
    5292:	19 82       	std	Y+1, r1	; 0x01
	while (Endpoint_Read_Stream_LE(&MSInterfaceInfo->State.CommandBlock,
    5294:	04 c0       	rjmp	.+8      	; 0x529e <MS_Device_ReadInCommandBlock+0x2a>
	                               (sizeof(MS_CommandBlockWrapper_t) - 16), &BytesProcessed) ==
	                               ENDPOINT_RWSTREAM_IncompleteTransfer)
	{
		if (MSInterfaceInfo->State.IsMassStoreReset)
    5296:	f8 01       	movw	r30, r16
    5298:	80 ad       	ldd	r24, Z+56	; 0x38
    529a:	81 11       	cpse	r24, r1
    529c:	52 c0       	rjmp	.+164    	; 0x5342 <MS_Device_ReadInCommandBlock+0xce>
	uint16_t BytesProcessed;

	Endpoint_SelectEndpoint(MSInterfaceInfo->Config.DataOUTEndpoint.Address);

	BytesProcessed = 0;
	while (Endpoint_Read_Stream_LE(&MSInterfaceInfo->State.CommandBlock,
    529e:	ae 01       	movw	r20, r28
    52a0:	4f 5f       	subi	r20, 0xFF	; 255
    52a2:	5f 4f       	sbci	r21, 0xFF	; 255
    52a4:	6f e0       	ldi	r22, 0x0F	; 15
    52a6:	70 e0       	ldi	r23, 0x00	; 0
    52a8:	c8 01       	movw	r24, r16
    52aa:	0c 96       	adiw	r24, 0x0c	; 12
    52ac:	3d d2       	rcall	.+1146   	; 0x5728 <Endpoint_Read_Stream_LE>
    52ae:	85 30       	cpi	r24, 0x05	; 5
    52b0:	91 f3       	breq	.-28     	; 0x5296 <MS_Device_ReadInCommandBlock+0x22>
	{
		if (MSInterfaceInfo->State.IsMassStoreReset)
		  return false;
	}

	if ((MSInterfaceInfo->State.CommandBlock.Signature         != CPU_TO_LE32(MS_CBW_SIGNATURE))     ||
    52b2:	f8 01       	movw	r30, r16
    52b4:	84 85       	ldd	r24, Z+12	; 0x0c
    52b6:	95 85       	ldd	r25, Z+13	; 0x0d
    52b8:	a6 85       	ldd	r26, Z+14	; 0x0e
    52ba:	b7 85       	ldd	r27, Z+15	; 0x0f
    52bc:	85 35       	cpi	r24, 0x55	; 85
    52be:	93 45       	sbci	r25, 0x53	; 83
    52c0:	a2 44       	sbci	r26, 0x42	; 66
    52c2:	b3 44       	sbci	r27, 0x43	; 67
    52c4:	a1 f4       	brne	.+40     	; 0x52ee <MS_Device_ReadInCommandBlock+0x7a>
	    (MSInterfaceInfo->State.CommandBlock.LUN               >= MSInterfaceInfo->Config.TotalLUNs) ||
    52c6:	d8 01       	movw	r26, r16
    52c8:	59 96       	adiw	r26, 0x19	; 25
    52ca:	9c 91       	ld	r25, X
    52cc:	59 97       	sbiw	r26, 0x19	; 25
    52ce:	1b 96       	adiw	r26, 0x0b	; 11
    52d0:	8c 91       	ld	r24, X
    52d2:	1b 97       	sbiw	r26, 0x0b	; 11
	{
		if (MSInterfaceInfo->State.IsMassStoreReset)
		  return false;
	}

	if ((MSInterfaceInfo->State.CommandBlock.Signature         != CPU_TO_LE32(MS_CBW_SIGNATURE))     ||
    52d4:	98 17       	cp	r25, r24
    52d6:	58 f4       	brcc	.+22     	; 0x52ee <MS_Device_ReadInCommandBlock+0x7a>
	    (MSInterfaceInfo->State.CommandBlock.LUN               >= MSInterfaceInfo->Config.TotalLUNs) ||
		(MSInterfaceInfo->State.CommandBlock.Flags              & 0x1F)                              ||
    52d8:	58 96       	adiw	r26, 0x18	; 24
    52da:	8c 91       	ld	r24, X
    52dc:	58 97       	sbiw	r26, 0x18	; 24
		if (MSInterfaceInfo->State.IsMassStoreReset)
		  return false;
	}

	if ((MSInterfaceInfo->State.CommandBlock.Signature         != CPU_TO_LE32(MS_CBW_SIGNATURE))     ||
	    (MSInterfaceInfo->State.CommandBlock.LUN               >= MSInterfaceInfo->Config.TotalLUNs) ||
    52de:	8f 71       	andi	r24, 0x1F	; 31
    52e0:	31 f4       	brne	.+12     	; 0x52ee <MS_Device_ReadInCommandBlock+0x7a>
		(MSInterfaceInfo->State.CommandBlock.Flags              & 0x1F)                              ||
		(MSInterfaceInfo->State.CommandBlock.SCSICommandLength == 0)                                 ||
    52e2:	5a 96       	adiw	r26, 0x1a	; 26
    52e4:	8c 91       	ld	r24, X
		  return false;
	}

	if ((MSInterfaceInfo->State.CommandBlock.Signature         != CPU_TO_LE32(MS_CBW_SIGNATURE))     ||
	    (MSInterfaceInfo->State.CommandBlock.LUN               >= MSInterfaceInfo->Config.TotalLUNs) ||
		(MSInterfaceInfo->State.CommandBlock.Flags              & 0x1F)                              ||
    52e6:	88 23       	and	r24, r24
    52e8:	11 f0       	breq	.+4      	; 0x52ee <MS_Device_ReadInCommandBlock+0x7a>
		(MSInterfaceInfo->State.CommandBlock.SCSICommandLength == 0)                                 ||
    52ea:	81 31       	cpi	r24, 0x11	; 17
    52ec:	80 f0       	brcs	.+32     	; 0x530e <MS_Device_ReadInCommandBlock+0x9a>
			 *  \ingroup Group_EndpointPacketManagement_AVR8
			 */
			static inline void Endpoint_StallTransaction(void) ATTR_ALWAYS_INLINE;
			static inline void Endpoint_StallTransaction(void)
			{
				UECONX |= (1 << STALLRQ);
    52ee:	eb ee       	ldi	r30, 0xEB	; 235
    52f0:	f0 e0       	ldi	r31, 0x00	; 0
    52f2:	80 81       	ld	r24, Z
    52f4:	80 62       	ori	r24, 0x20	; 32
    52f6:	80 83       	st	Z, r24
		(MSInterfaceInfo->State.CommandBlock.SCSICommandLength >  16))
	{
		Endpoint_StallTransaction();
		Endpoint_SelectEndpoint(MSInterfaceInfo->Config.DataINEndpoint.Address);
    52f8:	d8 01       	movw	r26, r16
    52fa:	11 96       	adiw	r26, 0x01	; 1
    52fc:	8c 91       	ld	r24, X
			 */
			static inline void Endpoint_SelectEndpoint(const uint8_t Address) ATTR_ALWAYS_INLINE;
			static inline void Endpoint_SelectEndpoint(const uint8_t Address)
			{
				#if !defined(CONTROL_ONLY_DEVICE)
					UENUM = (Address & ENDPOINT_EPNUM_MASK);
    52fe:	8f 70       	andi	r24, 0x0F	; 15
    5300:	80 93 e9 00 	sts	0x00E9, r24	; 0x8000e9 <__TEXT_REGION_LENGTH__+0x7e00e9>
			 *  \ingroup Group_EndpointPacketManagement_AVR8
			 */
			static inline void Endpoint_StallTransaction(void) ATTR_ALWAYS_INLINE;
			static inline void Endpoint_StallTransaction(void)
			{
				UECONX |= (1 << STALLRQ);
    5304:	80 81       	ld	r24, Z
    5306:	80 62       	ori	r24, 0x20	; 32
    5308:	80 83       	st	Z, r24
		Endpoint_StallTransaction();

		return false;
    530a:	80 e0       	ldi	r24, 0x00	; 0
    530c:	1d c0       	rjmp	.+58     	; 0x5348 <MS_Device_ReadInCommandBlock+0xd4>
	}

	BytesProcessed = 0;
    530e:	1a 82       	std	Y+2, r1	; 0x02
    5310:	19 82       	std	Y+1, r1	; 0x01
	while (Endpoint_Read_Stream_LE(&MSInterfaceInfo->State.CommandBlock.SCSICommandData,
    5312:	04 c0       	rjmp	.+8      	; 0x531c <MS_Device_ReadInCommandBlock+0xa8>
	                                MSInterfaceInfo->State.CommandBlock.SCSICommandLength, &BytesProcessed) ==
	                                ENDPOINT_RWSTREAM_IncompleteTransfer)
	{
		if (MSInterfaceInfo->State.IsMassStoreReset)
    5314:	f8 01       	movw	r30, r16
    5316:	80 ad       	ldd	r24, Z+56	; 0x38
    5318:	81 11       	cpse	r24, r1
    531a:	15 c0       	rjmp	.+42     	; 0x5346 <MS_Device_ReadInCommandBlock+0xd2>
		return false;
	}

	BytesProcessed = 0;
	while (Endpoint_Read_Stream_LE(&MSInterfaceInfo->State.CommandBlock.SCSICommandData,
	                                MSInterfaceInfo->State.CommandBlock.SCSICommandLength, &BytesProcessed) ==
    531c:	d8 01       	movw	r26, r16
    531e:	5a 96       	adiw	r26, 0x1a	; 26
    5320:	6c 91       	ld	r22, X

		return false;
	}

	BytesProcessed = 0;
	while (Endpoint_Read_Stream_LE(&MSInterfaceInfo->State.CommandBlock.SCSICommandData,
    5322:	70 e0       	ldi	r23, 0x00	; 0
    5324:	ae 01       	movw	r20, r28
    5326:	4f 5f       	subi	r20, 0xFF	; 255
    5328:	5f 4f       	sbci	r21, 0xFF	; 255
    532a:	c8 01       	movw	r24, r16
    532c:	4b 96       	adiw	r24, 0x1b	; 27
    532e:	fc d1       	rcall	.+1016   	; 0x5728 <Endpoint_Read_Stream_LE>
    5330:	85 30       	cpi	r24, 0x05	; 5
    5332:	81 f3       	breq	.-32     	; 0x5314 <MS_Device_ReadInCommandBlock+0xa0>
			 */
			static inline void Endpoint_ClearOUT(void) ATTR_ALWAYS_INLINE;
			static inline void Endpoint_ClearOUT(void)
			{
				#if !defined(CONTROL_ONLY_DEVICE)
					UEINTX &= ~((1 << RXOUTI) | (1 << FIFOCON));
    5334:	e8 ee       	ldi	r30, 0xE8	; 232
    5336:	f0 e0       	ldi	r31, 0x00	; 0
    5338:	80 81       	ld	r24, Z
    533a:	8b 77       	andi	r24, 0x7B	; 123
    533c:	80 83       	st	Z, r24
		  return false;
	}

	Endpoint_ClearOUT();

	return true;
    533e:	81 e0       	ldi	r24, 0x01	; 1
    5340:	03 c0       	rjmp	.+6      	; 0x5348 <MS_Device_ReadInCommandBlock+0xd4>
	while (Endpoint_Read_Stream_LE(&MSInterfaceInfo->State.CommandBlock,
	                               (sizeof(MS_CommandBlockWrapper_t) - 16), &BytesProcessed) ==
	                               ENDPOINT_RWSTREAM_IncompleteTransfer)
	{
		if (MSInterfaceInfo->State.IsMassStoreReset)
		  return false;
    5342:	80 e0       	ldi	r24, 0x00	; 0
    5344:	01 c0       	rjmp	.+2      	; 0x5348 <MS_Device_ReadInCommandBlock+0xd4>
	while (Endpoint_Read_Stream_LE(&MSInterfaceInfo->State.CommandBlock.SCSICommandData,
	                                MSInterfaceInfo->State.CommandBlock.SCSICommandLength, &BytesProcessed) ==
	                                ENDPOINT_RWSTREAM_IncompleteTransfer)
	{
		if (MSInterfaceInfo->State.IsMassStoreReset)
		  return false;
    5346:	80 e0       	ldi	r24, 0x00	; 0
	}

	Endpoint_ClearOUT();

	return true;
}
    5348:	0f 90       	pop	r0
    534a:	0f 90       	pop	r0
    534c:	df 91       	pop	r29
    534e:	cf 91       	pop	r28
    5350:	1f 91       	pop	r17
    5352:	0f 91       	pop	r16
    5354:	08 95       	ret

00005356 <MS_Device_ReturnCommandStatus>:

static void MS_Device_ReturnCommandStatus(USB_ClassInfo_MS_Device_t* const MSInterfaceInfo)
{
    5356:	0f 93       	push	r16
    5358:	1f 93       	push	r17
    535a:	cf 93       	push	r28
    535c:	df 93       	push	r29
    535e:	00 d0       	rcall	.+0      	; 0x5360 <MS_Device_ReturnCommandStatus+0xa>
    5360:	cd b7       	in	r28, 0x3d	; 61
    5362:	de b7       	in	r29, 0x3e	; 62
    5364:	fc 01       	movw	r30, r24
	Endpoint_SelectEndpoint(MSInterfaceInfo->Config.DataOUTEndpoint.Address);
    5366:	86 81       	ldd	r24, Z+6	; 0x06
			 */
			static inline void Endpoint_SelectEndpoint(const uint8_t Address) ATTR_ALWAYS_INLINE;
			static inline void Endpoint_SelectEndpoint(const uint8_t Address)
			{
				#if !defined(CONTROL_ONLY_DEVICE)
					UENUM = (Address & ENDPOINT_EPNUM_MASK);
    5368:	8f 70       	andi	r24, 0x0F	; 15
    536a:	80 93 e9 00 	sts	0x00E9, r24	; 0x8000e9 <__TEXT_REGION_LENGTH__+0x7e00e9>
    536e:	03 c0       	rjmp	.+6      	; 0x5376 <MS_Device_ReturnCommandStatus+0x20>
	{
		#if !defined(INTERRUPT_CONTROL_ENDPOINT)
		USB_USBTask();
		#endif

		if (MSInterfaceInfo->State.IsMassStoreReset)
    5370:	80 ad       	ldd	r24, Z+56	; 0x38
    5372:	81 11       	cpse	r24, r1
    5374:	27 c0       	rjmp	.+78     	; 0x53c4 <MS_Device_ReturnCommandStatus+0x6e>
			 *  \return Boolean \c true if the currently selected endpoint is stalled, \c false otherwise.
			 */
			static inline bool Endpoint_IsStalled(void) ATTR_WARN_UNUSED_RESULT ATTR_ALWAYS_INLINE;
			static inline bool Endpoint_IsStalled(void)
			{
				return ((UECONX & (1 << STALLRQ)) ? true : false);
    5376:	80 91 eb 00 	lds	r24, 0x00EB	; 0x8000eb <__TEXT_REGION_LENGTH__+0x7e00eb>

static void MS_Device_ReturnCommandStatus(USB_ClassInfo_MS_Device_t* const MSInterfaceInfo)
{
	Endpoint_SelectEndpoint(MSInterfaceInfo->Config.DataOUTEndpoint.Address);

	while (Endpoint_IsStalled())
    537a:	85 fd       	sbrc	r24, 5
    537c:	f9 cf       	rjmp	.-14     	; 0x5370 <MS_Device_ReturnCommandStatus+0x1a>

		if (MSInterfaceInfo->State.IsMassStoreReset)
		  return;
	}

	Endpoint_SelectEndpoint(MSInterfaceInfo->Config.DataINEndpoint.Address);
    537e:	81 81       	ldd	r24, Z+1	; 0x01
			 */
			static inline void Endpoint_SelectEndpoint(const uint8_t Address) ATTR_ALWAYS_INLINE;
			static inline void Endpoint_SelectEndpoint(const uint8_t Address)
			{
				#if !defined(CONTROL_ONLY_DEVICE)
					UENUM = (Address & ENDPOINT_EPNUM_MASK);
    5380:	8f 70       	andi	r24, 0x0F	; 15
    5382:	80 93 e9 00 	sts	0x00E9, r24	; 0x8000e9 <__TEXT_REGION_LENGTH__+0x7e00e9>
    5386:	03 c0       	rjmp	.+6      	; 0x538e <MS_Device_ReturnCommandStatus+0x38>
	{
		#if !defined(INTERRUPT_CONTROL_ENDPOINT)
		USB_USBTask();
		#endif

		if (MSInterfaceInfo->State.IsMassStoreReset)
    5388:	80 ad       	ldd	r24, Z+56	; 0x38
    538a:	81 11       	cpse	r24, r1
    538c:	1b c0       	rjmp	.+54     	; 0x53c4 <MS_Device_ReturnCommandStatus+0x6e>
			 *  \return Boolean \c true if the currently selected endpoint is stalled, \c false otherwise.
			 */
			static inline bool Endpoint_IsStalled(void) ATTR_WARN_UNUSED_RESULT ATTR_ALWAYS_INLINE;
			static inline bool Endpoint_IsStalled(void)
			{
				return ((UECONX & (1 << STALLRQ)) ? true : false);
    538e:	80 91 eb 00 	lds	r24, 0x00EB	; 0x8000eb <__TEXT_REGION_LENGTH__+0x7e00eb>
		  return;
	}

	Endpoint_SelectEndpoint(MSInterfaceInfo->Config.DataINEndpoint.Address);

	while (Endpoint_IsStalled())
    5392:	85 fd       	sbrc	r24, 5
    5394:	f9 cf       	rjmp	.-14     	; 0x5388 <MS_Device_ReturnCommandStatus+0x32>
    5396:	8f 01       	movw	r16, r30

		if (MSInterfaceInfo->State.IsMassStoreReset)
		  return;
	}

	uint16_t BytesProcessed = 0;
    5398:	1a 82       	std	Y+2, r1	; 0x02
    539a:	19 82       	std	Y+1, r1	; 0x01
	while (Endpoint_Write_Stream_LE(&MSInterfaceInfo->State.CommandStatus,
    539c:	04 c0       	rjmp	.+8      	; 0x53a6 <MS_Device_ReturnCommandStatus+0x50>
	                                sizeof(MS_CommandStatusWrapper_t), &BytesProcessed) ==
	                                ENDPOINT_RWSTREAM_IncompleteTransfer)
	{
		if (MSInterfaceInfo->State.IsMassStoreReset)
    539e:	f8 01       	movw	r30, r16
    53a0:	80 ad       	ldd	r24, Z+56	; 0x38
    53a2:	81 11       	cpse	r24, r1
    53a4:	0f c0       	rjmp	.+30     	; 0x53c4 <MS_Device_ReturnCommandStatus+0x6e>
		if (MSInterfaceInfo->State.IsMassStoreReset)
		  return;
	}

	uint16_t BytesProcessed = 0;
	while (Endpoint_Write_Stream_LE(&MSInterfaceInfo->State.CommandStatus,
    53a6:	ae 01       	movw	r20, r28
    53a8:	4f 5f       	subi	r20, 0xFF	; 255
    53aa:	5f 4f       	sbci	r21, 0xFF	; 255
    53ac:	6d e0       	ldi	r22, 0x0D	; 13
    53ae:	70 e0       	ldi	r23, 0x00	; 0
    53b0:	c8 01       	movw	r24, r16
    53b2:	8b 96       	adiw	r24, 0x2b	; 43
    53b4:	21 d1       	rcall	.+578    	; 0x55f8 <Endpoint_Write_Stream_LE>
    53b6:	85 30       	cpi	r24, 0x05	; 5
    53b8:	91 f3       	breq	.-28     	; 0x539e <MS_Device_ReturnCommandStatus+0x48>
			 */
			static inline void Endpoint_ClearIN(void) ATTR_ALWAYS_INLINE;
			static inline void Endpoint_ClearIN(void)
			{
				#if !defined(CONTROL_ONLY_DEVICE)
					UEINTX &= ~((1 << TXINI) | (1 << FIFOCON));
    53ba:	e8 ee       	ldi	r30, 0xE8	; 232
    53bc:	f0 e0       	ldi	r31, 0x00	; 0
    53be:	80 81       	ld	r24, Z
    53c0:	8e 77       	andi	r24, 0x7E	; 126
    53c2:	80 83       	st	Z, r24
		if (MSInterfaceInfo->State.IsMassStoreReset)
		  return;
	}

	Endpoint_ClearIN();
}
    53c4:	0f 90       	pop	r0
    53c6:	0f 90       	pop	r0
    53c8:	df 91       	pop	r29
    53ca:	cf 91       	pop	r28
    53cc:	1f 91       	pop	r17
    53ce:	0f 91       	pop	r16
    53d0:	08 95       	ret

000053d2 <MS_Device_ProcessControlRequest>:
#define  __INCLUDE_FROM_MS_DRIVER
#define  __INCLUDE_FROM_MASSSTORAGE_DEVICE_C
#include "MassStorageClassDevice.h"

void MS_Device_ProcessControlRequest(USB_ClassInfo_MS_Device_t* const MSInterfaceInfo)
{
    53d2:	cf 93       	push	r28
    53d4:	df 93       	push	r29
    53d6:	fc 01       	movw	r30, r24
			 *  \return Boolean \c true if the selected endpoint has received a SETUP packet, \c false otherwise.
			 */
			static inline bool Endpoint_IsSETUPReceived(void) ATTR_WARN_UNUSED_RESULT ATTR_ALWAYS_INLINE;
			static inline bool Endpoint_IsSETUPReceived(void)
			{
				return ((UEINTX & (1 << RXSTPI)) ? true : false);
    53d8:	90 91 e8 00 	lds	r25, 0x00E8	; 0x8000e8 <__TEXT_REGION_LENGTH__+0x7e00e8>
	if (!(Endpoint_IsSETUPReceived()))
    53dc:	93 ff       	sbrs	r25, 3
    53de:	34 c0       	rjmp	.+104    	; 0x5448 <MS_Device_ProcessControlRequest+0x76>
	  return;

	if (USB_ControlRequest.wIndex != MSInterfaceInfo->Config.InterfaceNumber)
    53e0:	80 91 7d 0c 	lds	r24, 0x0C7D	; 0x800c7d <USB_ControlRequest+0x4>
    53e4:	90 91 7e 0c 	lds	r25, 0x0C7E	; 0x800c7e <USB_ControlRequest+0x5>
    53e8:	20 81       	ld	r18, Z
    53ea:	30 e0       	ldi	r19, 0x00	; 0
    53ec:	82 17       	cp	r24, r18
    53ee:	93 07       	cpc	r25, r19
    53f0:	59 f5       	brne	.+86     	; 0x5448 <MS_Device_ProcessControlRequest+0x76>
    53f2:	ef 01       	movw	r28, r30
	  return;

	switch (USB_ControlRequest.bRequest)
    53f4:	80 91 7a 0c 	lds	r24, 0x0C7A	; 0x800c7a <USB_ControlRequest+0x1>
    53f8:	8e 3f       	cpi	r24, 0xFE	; 254
    53fa:	79 f0       	breq	.+30     	; 0x541a <MS_Device_ProcessControlRequest+0x48>
    53fc:	8f 3f       	cpi	r24, 0xFF	; 255
    53fe:	21 f5       	brne	.+72     	; 0x5448 <MS_Device_ProcessControlRequest+0x76>
	{
		case MS_REQ_MassStorageReset:
			if (USB_ControlRequest.bmRequestType == (REQDIR_HOSTTODEVICE | REQTYPE_CLASS | REQREC_INTERFACE))
    5400:	80 91 79 0c 	lds	r24, 0x0C79	; 0x800c79 <USB_ControlRequest>
    5404:	81 32       	cpi	r24, 0x21	; 33
    5406:	01 f5       	brne	.+64     	; 0x5448 <MS_Device_ProcessControlRequest+0x76>
			 *  \note This is not applicable for non CONTROL type endpoints.
			 */
			static inline void Endpoint_ClearSETUP(void) ATTR_ALWAYS_INLINE;
			static inline void Endpoint_ClearSETUP(void)
			{
				UEINTX &= ~(1 << RXSTPI);
    5408:	e8 ee       	ldi	r30, 0xE8	; 232
    540a:	f0 e0       	ldi	r31, 0x00	; 0
    540c:	80 81       	ld	r24, Z
    540e:	87 7f       	andi	r24, 0xF7	; 247
    5410:	80 83       	st	Z, r24
			{
				Endpoint_ClearSETUP();
				Endpoint_ClearStatusStage();
    5412:	fc d2       	rcall	.+1528   	; 0x5a0c <Endpoint_ClearStatusStage>

				MSInterfaceInfo->State.IsMassStoreReset = true;
    5414:	81 e0       	ldi	r24, 0x01	; 1
    5416:	88 af       	std	Y+56, r24	; 0x38
    5418:	17 c0       	rjmp	.+46     	; 0x5448 <MS_Device_ProcessControlRequest+0x76>
			}

			break;
		case MS_REQ_GetMaxLUN:
			if (USB_ControlRequest.bmRequestType == (REQDIR_DEVICETOHOST | REQTYPE_CLASS | REQREC_INTERFACE))
    541a:	80 91 79 0c 	lds	r24, 0x0C79	; 0x800c79 <USB_ControlRequest>
    541e:	81 3a       	cpi	r24, 0xA1	; 161
    5420:	99 f4       	brne	.+38     	; 0x5448 <MS_Device_ProcessControlRequest+0x76>
    5422:	e8 ee       	ldi	r30, 0xE8	; 232
    5424:	f0 e0       	ldi	r31, 0x00	; 0
    5426:	80 81       	ld	r24, Z
    5428:	87 7f       	andi	r24, 0xF7	; 247
    542a:	80 83       	st	Z, r24
			 *  \return Boolean \c true if the current endpoint is ready for an IN packet, \c false otherwise.
			 */
			static inline bool Endpoint_IsINReady(void) ATTR_WARN_UNUSED_RESULT ATTR_ALWAYS_INLINE;
			static inline bool Endpoint_IsINReady(void)
			{
				return ((UEINTX & (1 << TXINI)) ? true : false);
    542c:	80 91 e8 00 	lds	r24, 0x00E8	; 0x8000e8 <__TEXT_REGION_LENGTH__+0x7e00e8>
			{
				Endpoint_ClearSETUP();
				while (!(Endpoint_IsINReady()));
    5430:	80 ff       	sbrs	r24, 0
    5432:	fc cf       	rjmp	.-8      	; 0x542c <MS_Device_ProcessControlRequest+0x5a>
				Endpoint_Write_8(MSInterfaceInfo->Config.TotalLUNs - 1);
    5434:	8b 85       	ldd	r24, Y+11	; 0x0b
    5436:	81 50       	subi	r24, 0x01	; 1
			 *  \param[in] Data  Data to write into the the currently selected endpoint's FIFO buffer.
			 */
			static inline void Endpoint_Write_8(const uint8_t Data) ATTR_ALWAYS_INLINE;
			static inline void Endpoint_Write_8(const uint8_t Data)
			{
				UEDATX = Data;
    5438:	80 93 f1 00 	sts	0x00F1, r24	; 0x8000f1 <__TEXT_REGION_LENGTH__+0x7e00f1>
			 */
			static inline void Endpoint_ClearIN(void) ATTR_ALWAYS_INLINE;
			static inline void Endpoint_ClearIN(void)
			{
				#if !defined(CONTROL_ONLY_DEVICE)
					UEINTX &= ~((1 << TXINI) | (1 << FIFOCON));
    543c:	e8 ee       	ldi	r30, 0xE8	; 232
    543e:	f0 e0       	ldi	r31, 0x00	; 0
    5440:	80 81       	ld	r24, Z
    5442:	8e 77       	andi	r24, 0x7E	; 126
				Endpoint_ClearIN();
				Endpoint_ClearStatusStage();
    5444:	80 83       	st	Z, r24
    5446:	e2 d2       	rcall	.+1476   	; 0x5a0c <Endpoint_ClearStatusStage>
			}

			break;
	}
}
    5448:	df 91       	pop	r29
    544a:	cf 91       	pop	r28
    544c:	08 95       	ret

0000544e <MS_Device_ConfigureEndpoints>:

bool MS_Device_ConfigureEndpoints(USB_ClassInfo_MS_Device_t* const MSInterfaceInfo)
{
    544e:	cf 93       	push	r28
    5450:	df 93       	push	r29
    5452:	ec 01       	movw	r28, r24
	memset(&MSInterfaceInfo->State, 0x00, sizeof(MSInterfaceInfo->State));
    5454:	fc 01       	movw	r30, r24
    5456:	3c 96       	adiw	r30, 0x0c	; 12
    5458:	8d e2       	ldi	r24, 0x2D	; 45
    545a:	df 01       	movw	r26, r30
    545c:	1d 92       	st	X+, r1
    545e:	8a 95       	dec	r24
    5460:	e9 f7       	brne	.-6      	; 0x545c <MS_Device_ConfigureEndpoints+0xe>

	MSInterfaceInfo->Config.DataINEndpoint.Type  = EP_TYPE_BULK;
    5462:	82 e0       	ldi	r24, 0x02	; 2
    5464:	8c 83       	std	Y+4, r24	; 0x04
	MSInterfaceInfo->Config.DataOUTEndpoint.Type = EP_TYPE_BULK;
    5466:	89 87       	std	Y+9, r24	; 0x09

	if (!(Endpoint_ConfigureEndpointTable(&MSInterfaceInfo->Config.DataINEndpoint, 1)))
    5468:	61 e0       	ldi	r22, 0x01	; 1
    546a:	ce 01       	movw	r24, r28
    546c:	01 96       	adiw	r24, 0x01	; 1
    546e:	88 d2       	rcall	.+1296   	; 0x5980 <Endpoint_ConfigureEndpointTable>
    5470:	88 23       	and	r24, r24
    5472:	21 f0       	breq	.+8      	; 0x547c <MS_Device_ConfigureEndpoints+0x2e>
	  return false;

	if (!(Endpoint_ConfigureEndpointTable(&MSInterfaceInfo->Config.DataOUTEndpoint, 1)))
    5474:	61 e0       	ldi	r22, 0x01	; 1
    5476:	ce 01       	movw	r24, r28
    5478:	06 96       	adiw	r24, 0x06	; 6
    547a:	82 d2       	rcall	.+1284   	; 0x5980 <Endpoint_ConfigureEndpointTable>
	  return false;

	return true;
}
    547c:	df 91       	pop	r29
    547e:	cf 91       	pop	r28
    5480:	08 95       	ret

00005482 <MS_Device_USBTask>:

void MS_Device_USBTask(USB_ClassInfo_MS_Device_t* const MSInterfaceInfo)
{
    5482:	cf 93       	push	r28
    5484:	df 93       	push	r29
    5486:	ec 01       	movw	r28, r24
	if (USB_DeviceState != DEVICE_STATE_Configured)
    5488:	90 91 78 0c 	lds	r25, 0x0C78	; 0x800c78 <USB_DeviceState>
    548c:	94 30       	cpi	r25, 0x04	; 4
    548e:	09 f0       	breq	.+2      	; 0x5492 <MS_Device_USBTask+0x10>
    5490:	72 c0       	rjmp	.+228    	; 0x5576 <MS_Device_USBTask+0xf4>
	  return;

	Endpoint_SelectEndpoint(MSInterfaceInfo->Config.DataOUTEndpoint.Address);
    5492:	8e 81       	ldd	r24, Y+6	; 0x06
			 */
			static inline void Endpoint_SelectEndpoint(const uint8_t Address) ATTR_ALWAYS_INLINE;
			static inline void Endpoint_SelectEndpoint(const uint8_t Address)
			{
				#if !defined(CONTROL_ONLY_DEVICE)
					UENUM = (Address & ENDPOINT_EPNUM_MASK);
    5494:	8f 70       	andi	r24, 0x0F	; 15
    5496:	80 93 e9 00 	sts	0x00E9, r24	; 0x8000e9 <__TEXT_REGION_LENGTH__+0x7e00e9>
			 *  \return Boolean \c true if current endpoint is has received an OUT packet, \c false otherwise.
			 */
			static inline bool Endpoint_IsOUTReceived(void) ATTR_WARN_UNUSED_RESULT ATTR_ALWAYS_INLINE;
			static inline bool Endpoint_IsOUTReceived(void)
			{
				return ((UEINTX & (1 << RXOUTI)) ? true : false);
    549a:	80 91 e8 00 	lds	r24, 0x00E8	; 0x8000e8 <__TEXT_REGION_LENGTH__+0x7e00e8>

	if (Endpoint_IsOUTReceived())
    549e:	82 ff       	sbrs	r24, 2
    54a0:	39 c0       	rjmp	.+114    	; 0x5514 <MS_Device_USBTask+0x92>
	{
		if (MS_Device_ReadInCommandBlock(MSInterfaceInfo))
    54a2:	ce 01       	movw	r24, r28
    54a4:	e7 de       	rcall	.-562    	; 0x5274 <MS_Device_ReadInCommandBlock>
    54a6:	88 23       	and	r24, r24
    54a8:	a9 f1       	breq	.+106    	; 0x5514 <MS_Device_USBTask+0x92>
		{
			if (MSInterfaceInfo->State.CommandBlock.Flags & MS_COMMAND_DIR_DATA_IN)
    54aa:	88 8d       	ldd	r24, Y+24	; 0x18
    54ac:	88 23       	and	r24, r24
    54ae:	24 f4       	brge	.+8      	; 0x54b8 <MS_Device_USBTask+0x36>
			  Endpoint_SelectEndpoint(MSInterfaceInfo->Config.DataINEndpoint.Address);
    54b0:	89 81       	ldd	r24, Y+1	; 0x01
			 */
			static inline void Endpoint_SelectEndpoint(const uint8_t Address) ATTR_ALWAYS_INLINE;
			static inline void Endpoint_SelectEndpoint(const uint8_t Address)
			{
				#if !defined(CONTROL_ONLY_DEVICE)
					UENUM = (Address & ENDPOINT_EPNUM_MASK);
    54b2:	8f 70       	andi	r24, 0x0F	; 15
    54b4:	80 93 e9 00 	sts	0x00E9, r24	; 0x8000e9 <__TEXT_REGION_LENGTH__+0x7e00e9>

			bool SCSICommandResult = CALLBACK_MS_Device_SCSICommandReceived(MSInterfaceInfo);
    54b8:	ce 01       	movw	r24, r28
    54ba:	0e 94 92 19 	call	0x3324	; 0x3324 <CALLBACK_MS_Device_SCSICommandReceived>

			MSInterfaceInfo->State.CommandStatus.Status              = (SCSICommandResult) ? MS_SCSI_COMMAND_Pass : MS_SCSI_COMMAND_Fail;
    54be:	88 23       	and	r24, r24
    54c0:	11 f0       	breq	.+4      	; 0x54c6 <MS_Device_USBTask+0x44>
    54c2:	90 e0       	ldi	r25, 0x00	; 0
    54c4:	01 c0       	rjmp	.+2      	; 0x54c8 <MS_Device_USBTask+0x46>
    54c6:	91 e0       	ldi	r25, 0x01	; 1
    54c8:	9f ab       	std	Y+55, r25	; 0x37
			MSInterfaceInfo->State.CommandStatus.Signature           = CPU_TO_LE32(MS_CSW_SIGNATURE);
    54ca:	45 e5       	ldi	r20, 0x55	; 85
    54cc:	53 e5       	ldi	r21, 0x53	; 83
    54ce:	62 e4       	ldi	r22, 0x42	; 66
    54d0:	73 e5       	ldi	r23, 0x53	; 83
    54d2:	4b a7       	std	Y+43, r20	; 0x2b
    54d4:	5c a7       	std	Y+44, r21	; 0x2c
    54d6:	6d a7       	std	Y+45, r22	; 0x2d
    54d8:	7e a7       	std	Y+46, r23	; 0x2e
			MSInterfaceInfo->State.CommandStatus.Tag                 = MSInterfaceInfo->State.CommandBlock.Tag;
    54da:	48 89       	ldd	r20, Y+16	; 0x10
    54dc:	59 89       	ldd	r21, Y+17	; 0x11
    54de:	6a 89       	ldd	r22, Y+18	; 0x12
    54e0:	7b 89       	ldd	r23, Y+19	; 0x13
    54e2:	4f a7       	std	Y+47, r20	; 0x2f
    54e4:	58 ab       	std	Y+48, r21	; 0x30
    54e6:	69 ab       	std	Y+49, r22	; 0x31
    54e8:	7a ab       	std	Y+50, r23	; 0x32
			MSInterfaceInfo->State.CommandStatus.DataTransferResidue = MSInterfaceInfo->State.CommandBlock.DataTransferLength;
    54ea:	4c 89       	ldd	r20, Y+20	; 0x14
    54ec:	5d 89       	ldd	r21, Y+21	; 0x15
    54ee:	6e 89       	ldd	r22, Y+22	; 0x16
    54f0:	7f 89       	ldd	r23, Y+23	; 0x17
    54f2:	4b ab       	std	Y+51, r20	; 0x33
    54f4:	5c ab       	std	Y+52, r21	; 0x34
    54f6:	6d ab       	std	Y+53, r22	; 0x35
    54f8:	7e ab       	std	Y+54, r23	; 0x36

			if (!(SCSICommandResult) && (le32_to_cpu(MSInterfaceInfo->State.CommandStatus.DataTransferResidue)))
    54fa:	81 11       	cpse	r24, r1
    54fc:	09 c0       	rjmp	.+18     	; 0x5510 <MS_Device_USBTask+0x8e>
    54fe:	45 2b       	or	r20, r21
    5500:	46 2b       	or	r20, r22
    5502:	47 2b       	or	r20, r23
    5504:	29 f0       	breq	.+10     	; 0x5510 <MS_Device_USBTask+0x8e>
			 *  \ingroup Group_EndpointPacketManagement_AVR8
			 */
			static inline void Endpoint_StallTransaction(void) ATTR_ALWAYS_INLINE;
			static inline void Endpoint_StallTransaction(void)
			{
				UECONX |= (1 << STALLRQ);
    5506:	eb ee       	ldi	r30, 0xEB	; 235
    5508:	f0 e0       	ldi	r31, 0x00	; 0
    550a:	80 81       	ld	r24, Z
    550c:	80 62       	ori	r24, 0x20	; 32
    550e:	80 83       	st	Z, r24
			  Endpoint_StallTransaction();

			MS_Device_ReturnCommandStatus(MSInterfaceInfo);
    5510:	ce 01       	movw	r24, r28
    5512:	21 df       	rcall	.-446    	; 0x5356 <MS_Device_ReturnCommandStatus>
		}
	}

	if (MSInterfaceInfo->State.IsMassStoreReset)
    5514:	88 ad       	ldd	r24, Y+56	; 0x38
    5516:	88 23       	and	r24, r24
    5518:	71 f1       	breq	.+92     	; 0x5576 <MS_Device_USBTask+0xf4>
	{
		Endpoint_ResetEndpoint(MSInterfaceInfo->Config.DataOUTEndpoint.Address);
    551a:	2e 81       	ldd	r18, Y+6	; 0x06
			 *  \param[in] Address  Endpoint address whose FIFO buffers are to be reset.
			 */
			static inline void Endpoint_ResetEndpoint(const uint8_t Address) ATTR_ALWAYS_INLINE;
			static inline void Endpoint_ResetEndpoint(const uint8_t Address)
			{
				UERST = (1 << (Address & ENDPOINT_EPNUM_MASK));
    551c:	2f 70       	andi	r18, 0x0F	; 15
    551e:	81 e0       	ldi	r24, 0x01	; 1
    5520:	90 e0       	ldi	r25, 0x00	; 0
    5522:	ac 01       	movw	r20, r24
    5524:	02 c0       	rjmp	.+4      	; 0x552a <MS_Device_USBTask+0xa8>
    5526:	44 0f       	add	r20, r20
    5528:	55 1f       	adc	r21, r21
    552a:	2a 95       	dec	r18
    552c:	e2 f7       	brpl	.-8      	; 0x5526 <MS_Device_USBTask+0xa4>
    552e:	ea ee       	ldi	r30, 0xEA	; 234
    5530:	f0 e0       	ldi	r31, 0x00	; 0
    5532:	40 83       	st	Z, r20
				UERST = 0;
    5534:	10 82       	st	Z, r1
		Endpoint_ResetEndpoint(MSInterfaceInfo->Config.DataINEndpoint.Address);
    5536:	29 81       	ldd	r18, Y+1	; 0x01
			 *  \param[in] Address  Endpoint address whose FIFO buffers are to be reset.
			 */
			static inline void Endpoint_ResetEndpoint(const uint8_t Address) ATTR_ALWAYS_INLINE;
			static inline void Endpoint_ResetEndpoint(const uint8_t Address)
			{
				UERST = (1 << (Address & ENDPOINT_EPNUM_MASK));
    5538:	2f 70       	andi	r18, 0x0F	; 15
    553a:	02 c0       	rjmp	.+4      	; 0x5540 <MS_Device_USBTask+0xbe>
    553c:	88 0f       	add	r24, r24
    553e:	99 1f       	adc	r25, r25
    5540:	2a 95       	dec	r18
    5542:	e2 f7       	brpl	.-8      	; 0x553c <MS_Device_USBTask+0xba>
    5544:	80 83       	st	Z, r24
				UERST = 0;
    5546:	10 82       	st	Z, r1

		Endpoint_SelectEndpoint(MSInterfaceInfo->Config.DataOUTEndpoint.Address);
    5548:	8e 81       	ldd	r24, Y+6	; 0x06
			 */
			static inline void Endpoint_SelectEndpoint(const uint8_t Address) ATTR_ALWAYS_INLINE;
			static inline void Endpoint_SelectEndpoint(const uint8_t Address)
			{
				#if !defined(CONTROL_ONLY_DEVICE)
					UENUM = (Address & ENDPOINT_EPNUM_MASK);
    554a:	8f 70       	andi	r24, 0x0F	; 15
    554c:	a9 ee       	ldi	r26, 0xE9	; 233
    554e:	b0 e0       	ldi	r27, 0x00	; 0
    5550:	8c 93       	st	X, r24
			 *  \ingroup Group_EndpointPacketManagement_AVR8
			 */
			static inline void Endpoint_ClearStall(void) ATTR_ALWAYS_INLINE;
			static inline void Endpoint_ClearStall(void)
			{
				UECONX |= (1 << STALLRQC);
    5552:	eb ee       	ldi	r30, 0xEB	; 235
    5554:	f0 e0       	ldi	r31, 0x00	; 0
    5556:	80 81       	ld	r24, Z
    5558:	80 61       	ori	r24, 0x10	; 16
    555a:	80 83       	st	Z, r24

			/** Resets the data toggle of the currently selected endpoint. */
			static inline void Endpoint_ResetDataToggle(void) ATTR_ALWAYS_INLINE;
			static inline void Endpoint_ResetDataToggle(void)
			{
				UECONX |= (1 << RSTDT);
    555c:	80 81       	ld	r24, Z
    555e:	88 60       	ori	r24, 0x08	; 8
    5560:	80 83       	st	Z, r24
		Endpoint_ClearStall();
		Endpoint_ResetDataToggle();
		Endpoint_SelectEndpoint(MSInterfaceInfo->Config.DataINEndpoint.Address);
    5562:	89 81       	ldd	r24, Y+1	; 0x01
			 */
			static inline void Endpoint_SelectEndpoint(const uint8_t Address) ATTR_ALWAYS_INLINE;
			static inline void Endpoint_SelectEndpoint(const uint8_t Address)
			{
				#if !defined(CONTROL_ONLY_DEVICE)
					UENUM = (Address & ENDPOINT_EPNUM_MASK);
    5564:	8f 70       	andi	r24, 0x0F	; 15
    5566:	8c 93       	st	X, r24
			 *  \ingroup Group_EndpointPacketManagement_AVR8
			 */
			static inline void Endpoint_ClearStall(void) ATTR_ALWAYS_INLINE;
			static inline void Endpoint_ClearStall(void)
			{
				UECONX |= (1 << STALLRQC);
    5568:	80 81       	ld	r24, Z
    556a:	80 61       	ori	r24, 0x10	; 16
    556c:	80 83       	st	Z, r24

			/** Resets the data toggle of the currently selected endpoint. */
			static inline void Endpoint_ResetDataToggle(void) ATTR_ALWAYS_INLINE;
			static inline void Endpoint_ResetDataToggle(void)
			{
				UECONX |= (1 << RSTDT);
    556e:	80 81       	ld	r24, Z
    5570:	88 60       	ori	r24, 0x08	; 8
    5572:	80 83       	st	Z, r24
		Endpoint_ClearStall();
		Endpoint_ResetDataToggle();

		MSInterfaceInfo->State.IsMassStoreReset = false;
    5574:	18 ae       	std	Y+56, r1	; 0x38
	}
}
    5576:	df 91       	pop	r29
    5578:	cf 91       	pop	r28
    557a:	08 95       	ret

0000557c <Endpoint_Null_Stream>:
		else if (Endpoint_IsSETUPReceived())
		  return ENDPOINT_RWCSTREAM_HostAborted;
	}

	return ENDPOINT_RWCSTREAM_NoError;
}
    557c:	ef 92       	push	r14
    557e:	ff 92       	push	r15
    5580:	0f 93       	push	r16
    5582:	1f 93       	push	r17
    5584:	cf 93       	push	r28
    5586:	df 93       	push	r29
    5588:	ec 01       	movw	r28, r24
    558a:	7b 01       	movw	r14, r22
    558c:	60 d2       	rcall	.+1216   	; 0x5a4e <Endpoint_WaitUntilReady>
    558e:	81 11       	cpse	r24, r1
    5590:	2c c0       	rjmp	.+88     	; 0x55ea <Endpoint_Null_Stream+0x6e>
    5592:	e1 14       	cp	r14, r1
    5594:	f1 04       	cpc	r15, r1
    5596:	29 f0       	breq	.+10     	; 0x55a2 <Endpoint_Null_Stream+0x26>
    5598:	f7 01       	movw	r30, r14
    559a:	80 81       	ld	r24, Z
    559c:	91 81       	ldd	r25, Z+1	; 0x01
    559e:	c8 1b       	sub	r28, r24
    55a0:	d9 0b       	sbc	r29, r25
    55a2:	00 e0       	ldi	r16, 0x00	; 0
    55a4:	10 e0       	ldi	r17, 0x00	; 0
    55a6:	1e c0       	rjmp	.+60     	; 0x55e4 <Endpoint_Null_Stream+0x68>
    55a8:	80 91 e8 00 	lds	r24, 0x00E8	; 0x8000e8 <__TEXT_REGION_LENGTH__+0x7e00e8>
    55ac:	85 fd       	sbrc	r24, 5
    55ae:	15 c0       	rjmp	.+42     	; 0x55da <Endpoint_Null_Stream+0x5e>
    55b0:	e8 ee       	ldi	r30, 0xE8	; 232
    55b2:	f0 e0       	ldi	r31, 0x00	; 0
    55b4:	80 81       	ld	r24, Z
    55b6:	8e 77       	andi	r24, 0x7E	; 126
    55b8:	80 83       	st	Z, r24
    55ba:	e1 14       	cp	r14, r1
    55bc:	f1 04       	cpc	r15, r1
    55be:	49 f0       	breq	.+18     	; 0x55d2 <Endpoint_Null_Stream+0x56>
    55c0:	f7 01       	movw	r30, r14
    55c2:	80 81       	ld	r24, Z
    55c4:	91 81       	ldd	r25, Z+1	; 0x01
    55c6:	08 0f       	add	r16, r24
    55c8:	19 1f       	adc	r17, r25
    55ca:	11 83       	std	Z+1, r17	; 0x01
    55cc:	00 83       	st	Z, r16
    55ce:	85 e0       	ldi	r24, 0x05	; 5
    55d0:	0c c0       	rjmp	.+24     	; 0x55ea <Endpoint_Null_Stream+0x6e>
    55d2:	3d d2       	rcall	.+1146   	; 0x5a4e <Endpoint_WaitUntilReady>
    55d4:	88 23       	and	r24, r24
    55d6:	31 f0       	breq	.+12     	; 0x55e4 <Endpoint_Null_Stream+0x68>
    55d8:	08 c0       	rjmp	.+16     	; 0x55ea <Endpoint_Null_Stream+0x6e>
    55da:	10 92 f1 00 	sts	0x00F1, r1	; 0x8000f1 <__TEXT_REGION_LENGTH__+0x7e00f1>
    55de:	21 97       	sbiw	r28, 0x01	; 1
    55e0:	0f 5f       	subi	r16, 0xFF	; 255
    55e2:	1f 4f       	sbci	r17, 0xFF	; 255
    55e4:	20 97       	sbiw	r28, 0x00	; 0
    55e6:	01 f7       	brne	.-64     	; 0x55a8 <Endpoint_Null_Stream+0x2c>
    55e8:	80 e0       	ldi	r24, 0x00	; 0
    55ea:	df 91       	pop	r29
    55ec:	cf 91       	pop	r28
    55ee:	1f 91       	pop	r17
    55f0:	0f 91       	pop	r16
    55f2:	ff 90       	pop	r15
    55f4:	ef 90       	pop	r14
    55f6:	08 95       	ret

000055f8 <Endpoint_Write_Stream_LE>:
    55f8:	cf 92       	push	r12
    55fa:	df 92       	push	r13
    55fc:	ef 92       	push	r14
    55fe:	ff 92       	push	r15
    5600:	0f 93       	push	r16
    5602:	1f 93       	push	r17
    5604:	cf 93       	push	r28
    5606:	df 93       	push	r29
    5608:	8c 01       	movw	r16, r24
    560a:	eb 01       	movw	r28, r22
    560c:	6a 01       	movw	r12, r20
    560e:	1f d2       	rcall	.+1086   	; 0x5a4e <Endpoint_WaitUntilReady>
    5610:	81 11       	cpse	r24, r1
    5612:	32 c0       	rjmp	.+100    	; 0x5678 <Endpoint_Write_Stream_LE+0x80>
    5614:	c1 14       	cp	r12, r1
    5616:	d1 04       	cpc	r13, r1
    5618:	39 f0       	breq	.+14     	; 0x5628 <Endpoint_Write_Stream_LE+0x30>
    561a:	f6 01       	movw	r30, r12
    561c:	80 81       	ld	r24, Z
    561e:	91 81       	ldd	r25, Z+1	; 0x01
    5620:	c8 1b       	sub	r28, r24
    5622:	d9 0b       	sbc	r29, r25
    5624:	08 0f       	add	r16, r24
    5626:	19 1f       	adc	r17, r25
    5628:	e1 2c       	mov	r14, r1
    562a:	f1 2c       	mov	r15, r1
    562c:	22 c0       	rjmp	.+68     	; 0x5672 <Endpoint_Write_Stream_LE+0x7a>
    562e:	80 91 e8 00 	lds	r24, 0x00E8	; 0x8000e8 <__TEXT_REGION_LENGTH__+0x7e00e8>
    5632:	85 fd       	sbrc	r24, 5
    5634:	15 c0       	rjmp	.+42     	; 0x5660 <Endpoint_Write_Stream_LE+0x68>
    5636:	e8 ee       	ldi	r30, 0xE8	; 232
    5638:	f0 e0       	ldi	r31, 0x00	; 0
    563a:	90 81       	ld	r25, Z
    563c:	9e 77       	andi	r25, 0x7E	; 126
    563e:	90 83       	st	Z, r25
    5640:	c1 14       	cp	r12, r1
    5642:	d1 04       	cpc	r13, r1
    5644:	49 f0       	breq	.+18     	; 0x5658 <Endpoint_Write_Stream_LE+0x60>
    5646:	f6 01       	movw	r30, r12
    5648:	80 81       	ld	r24, Z
    564a:	91 81       	ldd	r25, Z+1	; 0x01
    564c:	e8 0e       	add	r14, r24
    564e:	f9 1e       	adc	r15, r25
    5650:	f1 82       	std	Z+1, r15	; 0x01
    5652:	e0 82       	st	Z, r14
    5654:	85 e0       	ldi	r24, 0x05	; 5
    5656:	10 c0       	rjmp	.+32     	; 0x5678 <Endpoint_Write_Stream_LE+0x80>
    5658:	fa d1       	rcall	.+1012   	; 0x5a4e <Endpoint_WaitUntilReady>
    565a:	88 23       	and	r24, r24
    565c:	51 f0       	breq	.+20     	; 0x5672 <Endpoint_Write_Stream_LE+0x7a>
    565e:	0c c0       	rjmp	.+24     	; 0x5678 <Endpoint_Write_Stream_LE+0x80>
    5660:	f8 01       	movw	r30, r16
    5662:	81 91       	ld	r24, Z+
    5664:	8f 01       	movw	r16, r30
    5666:	80 93 f1 00 	sts	0x00F1, r24	; 0x8000f1 <__TEXT_REGION_LENGTH__+0x7e00f1>
    566a:	21 97       	sbiw	r28, 0x01	; 1
    566c:	ff ef       	ldi	r31, 0xFF	; 255
    566e:	ef 1a       	sub	r14, r31
    5670:	ff 0a       	sbc	r15, r31
    5672:	20 97       	sbiw	r28, 0x00	; 0
    5674:	e1 f6       	brne	.-72     	; 0x562e <Endpoint_Write_Stream_LE+0x36>
    5676:	80 e0       	ldi	r24, 0x00	; 0
    5678:	df 91       	pop	r29
    567a:	cf 91       	pop	r28
    567c:	1f 91       	pop	r17
    567e:	0f 91       	pop	r16
    5680:	ff 90       	pop	r15
    5682:	ef 90       	pop	r14
    5684:	df 90       	pop	r13
    5686:	cf 90       	pop	r12
    5688:	08 95       	ret

0000568a <Endpoint_Write_Stream_BE>:
    568a:	cf 92       	push	r12
    568c:	df 92       	push	r13
    568e:	ef 92       	push	r14
    5690:	ff 92       	push	r15
    5692:	0f 93       	push	r16
    5694:	1f 93       	push	r17
    5696:	cf 93       	push	r28
    5698:	df 93       	push	r29
    569a:	eb 01       	movw	r28, r22
    569c:	7a 01       	movw	r14, r20
    569e:	6b 01       	movw	r12, r22
    56a0:	21 e0       	ldi	r18, 0x01	; 1
    56a2:	c2 1a       	sub	r12, r18
    56a4:	d1 08       	sbc	r13, r1
    56a6:	c8 0e       	add	r12, r24
    56a8:	d9 1e       	adc	r13, r25
    56aa:	d1 d1       	rcall	.+930    	; 0x5a4e <Endpoint_WaitUntilReady>
    56ac:	81 11       	cpse	r24, r1
    56ae:	33 c0       	rjmp	.+102    	; 0x5716 <Endpoint_Write_Stream_BE+0x8c>
    56b0:	e1 14       	cp	r14, r1
    56b2:	f1 04       	cpc	r15, r1
    56b4:	39 f0       	breq	.+14     	; 0x56c4 <Endpoint_Write_Stream_BE+0x3a>
    56b6:	f7 01       	movw	r30, r14
    56b8:	80 81       	ld	r24, Z
    56ba:	91 81       	ldd	r25, Z+1	; 0x01
    56bc:	c8 1b       	sub	r28, r24
    56be:	d9 0b       	sbc	r29, r25
    56c0:	c8 1a       	sub	r12, r24
    56c2:	d9 0a       	sbc	r13, r25
    56c4:	00 e0       	ldi	r16, 0x00	; 0
    56c6:	10 e0       	ldi	r17, 0x00	; 0
    56c8:	23 c0       	rjmp	.+70     	; 0x5710 <Endpoint_Write_Stream_BE+0x86>
    56ca:	80 91 e8 00 	lds	r24, 0x00E8	; 0x8000e8 <__TEXT_REGION_LENGTH__+0x7e00e8>
    56ce:	85 fd       	sbrc	r24, 5
    56d0:	15 c0       	rjmp	.+42     	; 0x56fc <Endpoint_Write_Stream_BE+0x72>
    56d2:	e8 ee       	ldi	r30, 0xE8	; 232
    56d4:	f0 e0       	ldi	r31, 0x00	; 0
    56d6:	80 81       	ld	r24, Z
    56d8:	8e 77       	andi	r24, 0x7E	; 126
    56da:	80 83       	st	Z, r24
    56dc:	e1 14       	cp	r14, r1
    56de:	f1 04       	cpc	r15, r1
    56e0:	49 f0       	breq	.+18     	; 0x56f4 <Endpoint_Write_Stream_BE+0x6a>
    56e2:	f7 01       	movw	r30, r14
    56e4:	80 81       	ld	r24, Z
    56e6:	91 81       	ldd	r25, Z+1	; 0x01
    56e8:	08 0f       	add	r16, r24
    56ea:	19 1f       	adc	r17, r25
    56ec:	11 83       	std	Z+1, r17	; 0x01
    56ee:	00 83       	st	Z, r16
    56f0:	85 e0       	ldi	r24, 0x05	; 5
    56f2:	11 c0       	rjmp	.+34     	; 0x5716 <Endpoint_Write_Stream_BE+0x8c>
    56f4:	ac d1       	rcall	.+856    	; 0x5a4e <Endpoint_WaitUntilReady>
    56f6:	88 23       	and	r24, r24
    56f8:	59 f0       	breq	.+22     	; 0x5710 <Endpoint_Write_Stream_BE+0x86>
    56fa:	0d c0       	rjmp	.+26     	; 0x5716 <Endpoint_Write_Stream_BE+0x8c>
    56fc:	f6 01       	movw	r30, r12
    56fe:	80 81       	ld	r24, Z
    5700:	80 93 f1 00 	sts	0x00F1, r24	; 0x8000f1 <__TEXT_REGION_LENGTH__+0x7e00f1>
    5704:	f1 e0       	ldi	r31, 0x01	; 1
    5706:	cf 1a       	sub	r12, r31
    5708:	d1 08       	sbc	r13, r1
    570a:	21 97       	sbiw	r28, 0x01	; 1
    570c:	0f 5f       	subi	r16, 0xFF	; 255
    570e:	1f 4f       	sbci	r17, 0xFF	; 255
    5710:	20 97       	sbiw	r28, 0x00	; 0
    5712:	d9 f6       	brne	.-74     	; 0x56ca <Endpoint_Write_Stream_BE+0x40>
    5714:	80 e0       	ldi	r24, 0x00	; 0
    5716:	df 91       	pop	r29
    5718:	cf 91       	pop	r28
    571a:	1f 91       	pop	r17
    571c:	0f 91       	pop	r16
    571e:	ff 90       	pop	r15
    5720:	ef 90       	pop	r14
    5722:	df 90       	pop	r13
    5724:	cf 90       	pop	r12
    5726:	08 95       	ret

00005728 <Endpoint_Read_Stream_LE>:
    5728:	cf 92       	push	r12
    572a:	df 92       	push	r13
    572c:	ef 92       	push	r14
    572e:	ff 92       	push	r15
    5730:	0f 93       	push	r16
    5732:	1f 93       	push	r17
    5734:	cf 93       	push	r28
    5736:	df 93       	push	r29
    5738:	8c 01       	movw	r16, r24
    573a:	eb 01       	movw	r28, r22
    573c:	6a 01       	movw	r12, r20
    573e:	87 d1       	rcall	.+782    	; 0x5a4e <Endpoint_WaitUntilReady>
    5740:	81 11       	cpse	r24, r1
    5742:	32 c0       	rjmp	.+100    	; 0x57a8 <Endpoint_Read_Stream_LE+0x80>
    5744:	c1 14       	cp	r12, r1
    5746:	d1 04       	cpc	r13, r1
    5748:	39 f0       	breq	.+14     	; 0x5758 <Endpoint_Read_Stream_LE+0x30>
    574a:	f6 01       	movw	r30, r12
    574c:	80 81       	ld	r24, Z
    574e:	91 81       	ldd	r25, Z+1	; 0x01
    5750:	c8 1b       	sub	r28, r24
    5752:	d9 0b       	sbc	r29, r25
    5754:	08 0f       	add	r16, r24
    5756:	19 1f       	adc	r17, r25
    5758:	e1 2c       	mov	r14, r1
    575a:	f1 2c       	mov	r15, r1
    575c:	22 c0       	rjmp	.+68     	; 0x57a2 <Endpoint_Read_Stream_LE+0x7a>
    575e:	80 91 e8 00 	lds	r24, 0x00E8	; 0x8000e8 <__TEXT_REGION_LENGTH__+0x7e00e8>
    5762:	85 fd       	sbrc	r24, 5
    5764:	15 c0       	rjmp	.+42     	; 0x5790 <Endpoint_Read_Stream_LE+0x68>
    5766:	e8 ee       	ldi	r30, 0xE8	; 232
    5768:	f0 e0       	ldi	r31, 0x00	; 0
    576a:	90 81       	ld	r25, Z
    576c:	9b 77       	andi	r25, 0x7B	; 123
    576e:	90 83       	st	Z, r25
    5770:	c1 14       	cp	r12, r1
    5772:	d1 04       	cpc	r13, r1
    5774:	49 f0       	breq	.+18     	; 0x5788 <Endpoint_Read_Stream_LE+0x60>
    5776:	f6 01       	movw	r30, r12
    5778:	80 81       	ld	r24, Z
    577a:	91 81       	ldd	r25, Z+1	; 0x01
    577c:	e8 0e       	add	r14, r24
    577e:	f9 1e       	adc	r15, r25
    5780:	f1 82       	std	Z+1, r15	; 0x01
    5782:	e0 82       	st	Z, r14
    5784:	85 e0       	ldi	r24, 0x05	; 5
    5786:	10 c0       	rjmp	.+32     	; 0x57a8 <Endpoint_Read_Stream_LE+0x80>
    5788:	62 d1       	rcall	.+708    	; 0x5a4e <Endpoint_WaitUntilReady>
    578a:	88 23       	and	r24, r24
    578c:	51 f0       	breq	.+20     	; 0x57a2 <Endpoint_Read_Stream_LE+0x7a>
    578e:	0c c0       	rjmp	.+24     	; 0x57a8 <Endpoint_Read_Stream_LE+0x80>
    5790:	80 91 f1 00 	lds	r24, 0x00F1	; 0x8000f1 <__TEXT_REGION_LENGTH__+0x7e00f1>
    5794:	f8 01       	movw	r30, r16
    5796:	81 93       	st	Z+, r24
    5798:	8f 01       	movw	r16, r30
    579a:	21 97       	sbiw	r28, 0x01	; 1
    579c:	ff ef       	ldi	r31, 0xFF	; 255
    579e:	ef 1a       	sub	r14, r31
    57a0:	ff 0a       	sbc	r15, r31
    57a2:	20 97       	sbiw	r28, 0x00	; 0
    57a4:	e1 f6       	brne	.-72     	; 0x575e <Endpoint_Read_Stream_LE+0x36>
    57a6:	80 e0       	ldi	r24, 0x00	; 0
    57a8:	df 91       	pop	r29
    57aa:	cf 91       	pop	r28
    57ac:	1f 91       	pop	r17
    57ae:	0f 91       	pop	r16
    57b0:	ff 90       	pop	r15
    57b2:	ef 90       	pop	r14
    57b4:	df 90       	pop	r13
    57b6:	cf 90       	pop	r12
    57b8:	08 95       	ret

000057ba <Endpoint_Write_Control_Stream_LE>:
    57ba:	20 91 7f 0c 	lds	r18, 0x0C7F	; 0x800c7f <USB_ControlRequest+0x6>
    57be:	30 91 80 0c 	lds	r19, 0x0C80	; 0x800c80 <USB_ControlRequest+0x7>
    57c2:	26 17       	cp	r18, r22
    57c4:	37 07       	cpc	r19, r23
    57c6:	58 f0       	brcs	.+22     	; 0x57de <Endpoint_Write_Control_Stream_LE+0x24>
    57c8:	61 15       	cp	r22, r1
    57ca:	71 05       	cpc	r23, r1
    57cc:	39 f4       	brne	.+14     	; 0x57dc <Endpoint_Write_Control_Stream_LE+0x22>
    57ce:	e8 ee       	ldi	r30, 0xE8	; 232
    57d0:	f0 e0       	ldi	r31, 0x00	; 0
    57d2:	20 81       	ld	r18, Z
    57d4:	2e 77       	andi	r18, 0x7E	; 126
    57d6:	20 83       	st	Z, r18
    57d8:	9b 01       	movw	r18, r22
    57da:	01 c0       	rjmp	.+2      	; 0x57de <Endpoint_Write_Control_Stream_LE+0x24>
    57dc:	9b 01       	movw	r18, r22
    57de:	e8 2f       	mov	r30, r24
    57e0:	f9 2f       	mov	r31, r25
    57e2:	90 e0       	ldi	r25, 0x00	; 0
    57e4:	30 c0       	rjmp	.+96     	; 0x5846 <Endpoint_Write_Control_Stream_LE+0x8c>
    57e6:	80 91 78 0c 	lds	r24, 0x0C78	; 0x800c78 <USB_DeviceState>
    57ea:	88 23       	and	r24, r24
    57ec:	09 f4       	brne	.+2      	; 0x57f0 <Endpoint_Write_Control_Stream_LE+0x36>
    57ee:	41 c0       	rjmp	.+130    	; 0x5872 <Endpoint_Write_Control_Stream_LE+0xb8>
    57f0:	85 30       	cpi	r24, 0x05	; 5
    57f2:	09 f4       	brne	.+2      	; 0x57f6 <Endpoint_Write_Control_Stream_LE+0x3c>
    57f4:	40 c0       	rjmp	.+128    	; 0x5876 <Endpoint_Write_Control_Stream_LE+0xbc>
    57f6:	80 91 e8 00 	lds	r24, 0x00E8	; 0x8000e8 <__TEXT_REGION_LENGTH__+0x7e00e8>
    57fa:	83 fd       	sbrc	r24, 3
    57fc:	3e c0       	rjmp	.+124    	; 0x587a <Endpoint_Write_Control_Stream_LE+0xc0>
    57fe:	80 91 e8 00 	lds	r24, 0x00E8	; 0x8000e8 <__TEXT_REGION_LENGTH__+0x7e00e8>
    5802:	82 fd       	sbrc	r24, 2
    5804:	30 c0       	rjmp	.+96     	; 0x5866 <Endpoint_Write_Control_Stream_LE+0xac>
    5806:	80 91 e8 00 	lds	r24, 0x00E8	; 0x8000e8 <__TEXT_REGION_LENGTH__+0x7e00e8>
    580a:	80 ff       	sbrs	r24, 0
    580c:	1c c0       	rjmp	.+56     	; 0x5846 <Endpoint_Write_Control_Stream_LE+0x8c>
    580e:	40 91 f2 00 	lds	r20, 0x00F2	; 0x8000f2 <__TEXT_REGION_LENGTH__+0x7e00f2>
    5812:	50 91 f3 00 	lds	r21, 0x00F3	; 0x8000f3 <__TEXT_REGION_LENGTH__+0x7e00f3>
    5816:	07 c0       	rjmp	.+14     	; 0x5826 <Endpoint_Write_Control_Stream_LE+0x6c>
    5818:	81 91       	ld	r24, Z+
    581a:	80 93 f1 00 	sts	0x00F1, r24	; 0x8000f1 <__TEXT_REGION_LENGTH__+0x7e00f1>
    581e:	21 50       	subi	r18, 0x01	; 1
    5820:	31 09       	sbc	r19, r1
    5822:	4f 5f       	subi	r20, 0xFF	; 255
    5824:	5f 4f       	sbci	r21, 0xFF	; 255
    5826:	21 15       	cp	r18, r1
    5828:	31 05       	cpc	r19, r1
    582a:	19 f0       	breq	.+6      	; 0x5832 <Endpoint_Write_Control_Stream_LE+0x78>
    582c:	48 30       	cpi	r20, 0x08	; 8
    582e:	51 05       	cpc	r21, r1
    5830:	98 f3       	brcs	.-26     	; 0x5818 <Endpoint_Write_Control_Stream_LE+0x5e>
    5832:	91 e0       	ldi	r25, 0x01	; 1
    5834:	48 30       	cpi	r20, 0x08	; 8
    5836:	51 05       	cpc	r21, r1
    5838:	09 f0       	breq	.+2      	; 0x583c <Endpoint_Write_Control_Stream_LE+0x82>
    583a:	90 e0       	ldi	r25, 0x00	; 0
    583c:	a8 ee       	ldi	r26, 0xE8	; 232
    583e:	b0 e0       	ldi	r27, 0x00	; 0
    5840:	8c 91       	ld	r24, X
    5842:	8e 77       	andi	r24, 0x7E	; 126
    5844:	8c 93       	st	X, r24
    5846:	21 15       	cp	r18, r1
    5848:	31 05       	cpc	r19, r1
    584a:	69 f6       	brne	.-102    	; 0x57e6 <Endpoint_Write_Control_Stream_LE+0x2c>
    584c:	91 11       	cpse	r25, r1
    584e:	cb cf       	rjmp	.-106    	; 0x57e6 <Endpoint_Write_Control_Stream_LE+0x2c>
    5850:	0a c0       	rjmp	.+20     	; 0x5866 <Endpoint_Write_Control_Stream_LE+0xac>
    5852:	80 91 78 0c 	lds	r24, 0x0C78	; 0x800c78 <USB_DeviceState>
    5856:	88 23       	and	r24, r24
    5858:	91 f0       	breq	.+36     	; 0x587e <Endpoint_Write_Control_Stream_LE+0xc4>
    585a:	85 30       	cpi	r24, 0x05	; 5
    585c:	91 f0       	breq	.+36     	; 0x5882 <Endpoint_Write_Control_Stream_LE+0xc8>
    585e:	80 91 e8 00 	lds	r24, 0x00E8	; 0x8000e8 <__TEXT_REGION_LENGTH__+0x7e00e8>
    5862:	83 fd       	sbrc	r24, 3
    5864:	10 c0       	rjmp	.+32     	; 0x5886 <Endpoint_Write_Control_Stream_LE+0xcc>
    5866:	80 91 e8 00 	lds	r24, 0x00E8	; 0x8000e8 <__TEXT_REGION_LENGTH__+0x7e00e8>
    586a:	82 ff       	sbrs	r24, 2
    586c:	f2 cf       	rjmp	.-28     	; 0x5852 <Endpoint_Write_Control_Stream_LE+0x98>
    586e:	80 e0       	ldi	r24, 0x00	; 0
    5870:	08 95       	ret
    5872:	82 e0       	ldi	r24, 0x02	; 2
    5874:	08 95       	ret
    5876:	83 e0       	ldi	r24, 0x03	; 3
    5878:	08 95       	ret
    587a:	81 e0       	ldi	r24, 0x01	; 1
    587c:	08 95       	ret
    587e:	82 e0       	ldi	r24, 0x02	; 2
    5880:	08 95       	ret
    5882:	83 e0       	ldi	r24, 0x03	; 3
    5884:	08 95       	ret
    5886:	81 e0       	ldi	r24, 0x01	; 1
    5888:	08 95       	ret

0000588a <Endpoint_Read_Control_Stream_LE>:
uint8_t TEMPLATE_FUNC_NAME (void* const Buffer,
                            uint16_t Length)
{
	uint8_t* DataStream = ((uint8_t*)Buffer + TEMPLATE_BUFFER_OFFSET(Length));

	if (!(Length))
    588a:	61 15       	cp	r22, r1
    588c:	71 05       	cpc	r23, r1
    588e:	29 f4       	brne	.+10     	; 0x589a <Endpoint_Read_Control_Stream_LE+0x10>
			 */
			static inline void Endpoint_ClearOUT(void) ATTR_ALWAYS_INLINE;
			static inline void Endpoint_ClearOUT(void)
			{
				#if !defined(CONTROL_ONLY_DEVICE)
					UEINTX &= ~((1 << RXOUTI) | (1 << FIFOCON));
    5890:	e8 ee       	ldi	r30, 0xE8	; 232
    5892:	f0 e0       	ldi	r31, 0x00	; 0
    5894:	20 81       	ld	r18, Z
    5896:	2b 77       	andi	r18, 0x7B	; 123
    5898:	20 83       	st	Z, r18

#if defined(TEMPLATE_FUNC_NAME)

uint8_t TEMPLATE_FUNC_NAME (void* const Buffer,
                            uint16_t Length)
{
    589a:	e8 2f       	mov	r30, r24
    589c:	f9 2f       	mov	r31, r25
    589e:	22 c0       	rjmp	.+68     	; 0x58e4 <Endpoint_Read_Control_Stream_LE+0x5a>
	if (!(Length))
	  Endpoint_ClearOUT();

	while (Length)
	{
		uint8_t USB_DeviceState_LCL = USB_DeviceState;
    58a0:	80 91 78 0c 	lds	r24, 0x0C78	; 0x800c78 <USB_DeviceState>

		if (USB_DeviceState_LCL == DEVICE_STATE_Unattached)
    58a4:	88 23       	and	r24, r24
    58a6:	71 f1       	breq	.+92     	; 0x5904 <Endpoint_Read_Control_Stream_LE+0x7a>
		  return ENDPOINT_RWCSTREAM_DeviceDisconnected;
		else if (USB_DeviceState_LCL == DEVICE_STATE_Suspended)
    58a8:	85 30       	cpi	r24, 0x05	; 5
    58aa:	71 f1       	breq	.+92     	; 0x5908 <Endpoint_Read_Control_Stream_LE+0x7e>
			 *  \return Boolean \c true if the selected endpoint has received a SETUP packet, \c false otherwise.
			 */
			static inline bool Endpoint_IsSETUPReceived(void) ATTR_WARN_UNUSED_RESULT ATTR_ALWAYS_INLINE;
			static inline bool Endpoint_IsSETUPReceived(void)
			{
				return ((UEINTX & (1 << RXSTPI)) ? true : false);
    58ac:	80 91 e8 00 	lds	r24, 0x00E8	; 0x8000e8 <__TEXT_REGION_LENGTH__+0x7e00e8>
		  return ENDPOINT_RWCSTREAM_BusSuspended;
		else if (Endpoint_IsSETUPReceived())
    58b0:	83 fd       	sbrc	r24, 3
    58b2:	2c c0       	rjmp	.+88     	; 0x590c <Endpoint_Read_Control_Stream_LE+0x82>
			 *  \return Boolean \c true if current endpoint is has received an OUT packet, \c false otherwise.
			 */
			static inline bool Endpoint_IsOUTReceived(void) ATTR_WARN_UNUSED_RESULT ATTR_ALWAYS_INLINE;
			static inline bool Endpoint_IsOUTReceived(void)
			{
				return ((UEINTX & (1 << RXOUTI)) ? true : false);
    58b4:	80 91 e8 00 	lds	r24, 0x00E8	; 0x8000e8 <__TEXT_REGION_LENGTH__+0x7e00e8>
		  return ENDPOINT_RWCSTREAM_HostAborted;

		if (Endpoint_IsOUTReceived())
    58b8:	82 ff       	sbrs	r24, 2
    58ba:	14 c0       	rjmp	.+40     	; 0x58e4 <Endpoint_Read_Control_Stream_LE+0x5a>
    58bc:	05 c0       	rjmp	.+10     	; 0x58c8 <Endpoint_Read_Control_Stream_LE+0x3e>
			 *  \return Next byte in the currently selected endpoint's FIFO buffer.
			 */
			static inline uint8_t Endpoint_Read_8(void) ATTR_WARN_UNUSED_RESULT ATTR_ALWAYS_INLINE;
			static inline uint8_t Endpoint_Read_8(void)
			{
				return UEDATX;
    58be:	80 91 f1 00 	lds	r24, 0x00F1	; 0x8000f1 <__TEXT_REGION_LENGTH__+0x7e00f1>
		{
			while (Length && Endpoint_BytesInEndpoint())
			{
				TEMPLATE_TRANSFER_BYTE(DataStream);
    58c2:	81 93       	st	Z+, r24
				TEMPLATE_BUFFER_MOVE(DataStream, 1);
				Length--;
    58c4:	61 50       	subi	r22, 0x01	; 1
    58c6:	71 09       	sbc	r23, r1
		else if (Endpoint_IsSETUPReceived())
		  return ENDPOINT_RWCSTREAM_HostAborted;

		if (Endpoint_IsOUTReceived())
		{
			while (Length && Endpoint_BytesInEndpoint())
    58c8:	61 15       	cp	r22, r1
    58ca:	71 05       	cpc	r23, r1
    58cc:	31 f0       	breq	.+12     	; 0x58da <Endpoint_Read_Control_Stream_LE+0x50>
			 */
			static inline uint16_t Endpoint_BytesInEndpoint(void) ATTR_WARN_UNUSED_RESULT ATTR_ALWAYS_INLINE;
			static inline uint16_t Endpoint_BytesInEndpoint(void)
			{
				#if (defined(USB_SERIES_6_AVR) || defined(USB_SERIES_7_AVR))
					return UEBCX;
    58ce:	80 91 f2 00 	lds	r24, 0x00F2	; 0x8000f2 <__TEXT_REGION_LENGTH__+0x7e00f2>
    58d2:	90 91 f3 00 	lds	r25, 0x00F3	; 0x8000f3 <__TEXT_REGION_LENGTH__+0x7e00f3>
    58d6:	89 2b       	or	r24, r25
    58d8:	91 f7       	brne	.-28     	; 0x58be <Endpoint_Read_Control_Stream_LE+0x34>
			 */
			static inline void Endpoint_ClearOUT(void) ATTR_ALWAYS_INLINE;
			static inline void Endpoint_ClearOUT(void)
			{
				#if !defined(CONTROL_ONLY_DEVICE)
					UEINTX &= ~((1 << RXOUTI) | (1 << FIFOCON));
    58da:	a8 ee       	ldi	r26, 0xE8	; 232
    58dc:	b0 e0       	ldi	r27, 0x00	; 0
    58de:	8c 91       	ld	r24, X
    58e0:	8b 77       	andi	r24, 0x7B	; 123
    58e2:	8c 93       	st	X, r24
	uint8_t* DataStream = ((uint8_t*)Buffer + TEMPLATE_BUFFER_OFFSET(Length));

	if (!(Length))
	  Endpoint_ClearOUT();

	while (Length)
    58e4:	61 15       	cp	r22, r1
    58e6:	71 05       	cpc	r23, r1
    58e8:	d9 f6       	brne	.-74     	; 0x58a0 <Endpoint_Read_Control_Stream_LE+0x16>
    58ea:	06 c0       	rjmp	.+12     	; 0x58f8 <Endpoint_Read_Control_Stream_LE+0x6e>
		}
	}

	while (!(Endpoint_IsINReady()))
	{
		uint8_t USB_DeviceState_LCL = USB_DeviceState;
    58ec:	80 91 78 0c 	lds	r24, 0x0C78	; 0x800c78 <USB_DeviceState>

		if (USB_DeviceState_LCL == DEVICE_STATE_Unattached)
    58f0:	88 23       	and	r24, r24
    58f2:	71 f0       	breq	.+28     	; 0x5910 <Endpoint_Read_Control_Stream_LE+0x86>
		  return ENDPOINT_RWCSTREAM_DeviceDisconnected;
		else if (USB_DeviceState_LCL == DEVICE_STATE_Suspended)
    58f4:	85 30       	cpi	r24, 0x05	; 5
    58f6:	71 f0       	breq	.+28     	; 0x5914 <Endpoint_Read_Control_Stream_LE+0x8a>
			 *  \return Boolean \c true if the current endpoint is ready for an IN packet, \c false otherwise.
			 */
			static inline bool Endpoint_IsINReady(void) ATTR_WARN_UNUSED_RESULT ATTR_ALWAYS_INLINE;
			static inline bool Endpoint_IsINReady(void)
			{
				return ((UEINTX & (1 << TXINI)) ? true : false);
    58f8:	80 91 e8 00 	lds	r24, 0x00E8	; 0x8000e8 <__TEXT_REGION_LENGTH__+0x7e00e8>

			Endpoint_ClearOUT();
		}
	}

	while (!(Endpoint_IsINReady()))
    58fc:	80 ff       	sbrs	r24, 0
    58fe:	f6 cf       	rjmp	.-20     	; 0x58ec <Endpoint_Read_Control_Stream_LE+0x62>
		  return ENDPOINT_RWCSTREAM_DeviceDisconnected;
		else if (USB_DeviceState_LCL == DEVICE_STATE_Suspended)
		  return ENDPOINT_RWCSTREAM_BusSuspended;
	}

	return ENDPOINT_RWCSTREAM_NoError;
    5900:	80 e0       	ldi	r24, 0x00	; 0
    5902:	08 95       	ret
	while (Length)
	{
		uint8_t USB_DeviceState_LCL = USB_DeviceState;

		if (USB_DeviceState_LCL == DEVICE_STATE_Unattached)
		  return ENDPOINT_RWCSTREAM_DeviceDisconnected;
    5904:	82 e0       	ldi	r24, 0x02	; 2
    5906:	08 95       	ret
		else if (USB_DeviceState_LCL == DEVICE_STATE_Suspended)
		  return ENDPOINT_RWCSTREAM_BusSuspended;
    5908:	83 e0       	ldi	r24, 0x03	; 3
    590a:	08 95       	ret
		else if (Endpoint_IsSETUPReceived())
		  return ENDPOINT_RWCSTREAM_HostAborted;
    590c:	81 e0       	ldi	r24, 0x01	; 1
    590e:	08 95       	ret
	while (!(Endpoint_IsINReady()))
	{
		uint8_t USB_DeviceState_LCL = USB_DeviceState;

		if (USB_DeviceState_LCL == DEVICE_STATE_Unattached)
		  return ENDPOINT_RWCSTREAM_DeviceDisconnected;
    5910:	82 e0       	ldi	r24, 0x02	; 2
    5912:	08 95       	ret
		else if (USB_DeviceState_LCL == DEVICE_STATE_Suspended)
		  return ENDPOINT_RWCSTREAM_BusSuspended;
    5914:	83 e0       	ldi	r24, 0x03	; 3
	}

	return ENDPOINT_RWCSTREAM_NoError;
}
    5916:	08 95       	ret

00005918 <Endpoint_ConfigureEndpoint_Prv>:
		UEIENX  = 0;
		UEINTX  = 0;
		UECFG1X = 0;
		Endpoint_DisableEndpoint();
	}
}
    5918:	98 2f       	mov	r25, r24
    591a:	29 c0       	rjmp	.+82     	; 0x596e <Endpoint_ConfigureEndpoint_Prv+0x56>
    591c:	29 2f       	mov	r18, r25
    591e:	2f 70       	andi	r18, 0x0F	; 15
    5920:	20 93 e9 00 	sts	0x00E9, r18	; 0x8000e9 <__TEXT_REGION_LENGTH__+0x7e00e9>
    5924:	98 17       	cp	r25, r24
    5926:	39 f0       	breq	.+14     	; 0x5936 <Endpoint_ConfigureEndpoint_Prv+0x1e>
    5928:	70 91 ec 00 	lds	r23, 0x00EC	; 0x8000ec <__TEXT_REGION_LENGTH__+0x7e00ec>
    592c:	20 91 ed 00 	lds	r18, 0x00ED	; 0x8000ed <__TEXT_REGION_LENGTH__+0x7e00ed>
    5930:	50 91 f0 00 	lds	r21, 0x00F0	; 0x8000f0 <__TEXT_REGION_LENGTH__+0x7e00f0>
    5934:	03 c0       	rjmp	.+6      	; 0x593c <Endpoint_ConfigureEndpoint_Prv+0x24>
    5936:	24 2f       	mov	r18, r20
    5938:	76 2f       	mov	r23, r22
    593a:	50 e0       	ldi	r21, 0x00	; 0
    593c:	21 ff       	sbrs	r18, 1
    593e:	16 c0       	rjmp	.+44     	; 0x596c <Endpoint_ConfigureEndpoint_Prv+0x54>
    5940:	eb ee       	ldi	r30, 0xEB	; 235
    5942:	f0 e0       	ldi	r31, 0x00	; 0
    5944:	30 81       	ld	r19, Z
    5946:	3e 7f       	andi	r19, 0xFE	; 254
    5948:	30 83       	st	Z, r19
    594a:	ad ee       	ldi	r26, 0xED	; 237
    594c:	b0 e0       	ldi	r27, 0x00	; 0
    594e:	3c 91       	ld	r19, X
    5950:	3d 7f       	andi	r19, 0xFD	; 253
    5952:	3c 93       	st	X, r19
    5954:	30 81       	ld	r19, Z
    5956:	31 60       	ori	r19, 0x01	; 1
    5958:	30 83       	st	Z, r19
    595a:	70 93 ec 00 	sts	0x00EC, r23	; 0x8000ec <__TEXT_REGION_LENGTH__+0x7e00ec>
    595e:	2c 93       	st	X, r18
    5960:	50 93 f0 00 	sts	0x00F0, r21	; 0x8000f0 <__TEXT_REGION_LENGTH__+0x7e00f0>
    5964:	20 91 ee 00 	lds	r18, 0x00EE	; 0x8000ee <__TEXT_REGION_LENGTH__+0x7e00ee>
    5968:	22 23       	and	r18, r18
    596a:	44 f4       	brge	.+16     	; 0x597c <Endpoint_ConfigureEndpoint_Prv+0x64>
    596c:	9f 5f       	subi	r25, 0xFF	; 255
    596e:	97 30       	cpi	r25, 0x07	; 7
    5970:	a8 f2       	brcs	.-86     	; 0x591c <Endpoint_ConfigureEndpoint_Prv+0x4>
    5972:	8f 70       	andi	r24, 0x0F	; 15
    5974:	80 93 e9 00 	sts	0x00E9, r24	; 0x8000e9 <__TEXT_REGION_LENGTH__+0x7e00e9>
    5978:	81 e0       	ldi	r24, 0x01	; 1
    597a:	08 95       	ret
    597c:	80 e0       	ldi	r24, 0x00	; 0
    597e:	08 95       	ret

00005980 <Endpoint_ConfigureEndpointTable>:
    5980:	0f 93       	push	r16
    5982:	1f 93       	push	r17
    5984:	cf 93       	push	r28
    5986:	df 93       	push	r29
    5988:	ec 01       	movw	r28, r24
    598a:	06 2f       	mov	r16, r22
    598c:	10 e0       	ldi	r17, 0x00	; 0
    598e:	36 c0       	rjmp	.+108    	; 0x59fc <Endpoint_ConfigureEndpointTable+0x7c>
    5990:	e1 2f       	mov	r30, r17
    5992:	f0 e0       	ldi	r31, 0x00	; 0
    5994:	cf 01       	movw	r24, r30
    5996:	88 0f       	add	r24, r24
    5998:	99 1f       	adc	r25, r25
    599a:	88 0f       	add	r24, r24
    599c:	99 1f       	adc	r25, r25
    599e:	e8 0f       	add	r30, r24
    59a0:	f9 1f       	adc	r31, r25
    59a2:	ec 0f       	add	r30, r28
    59a4:	fd 1f       	adc	r31, r29
    59a6:	50 81       	ld	r21, Z
    59a8:	55 23       	and	r21, r21
    59aa:	39 f1       	breq	.+78     	; 0x59fa <Endpoint_ConfigureEndpointTable+0x7a>
    59ac:	94 81       	ldd	r25, Z+4	; 0x04
    59ae:	a1 81       	ldd	r26, Z+1	; 0x01
    59b0:	b2 81       	ldd	r27, Z+2	; 0x02
    59b2:	63 81       	ldd	r22, Z+3	; 0x03
    59b4:	85 2f       	mov	r24, r21
    59b6:	8f 70       	andi	r24, 0x0F	; 15
    59b8:	87 30       	cpi	r24, 0x07	; 7
    59ba:	e0 f4       	brcc	.+56     	; 0x59f4 <Endpoint_ConfigureEndpointTable+0x74>
    59bc:	92 30       	cpi	r25, 0x02	; 2
    59be:	10 f0       	brcs	.+4      	; 0x59c4 <Endpoint_ConfigureEndpointTable+0x44>
    59c0:	46 e0       	ldi	r20, 0x06	; 6
    59c2:	01 c0       	rjmp	.+2      	; 0x59c6 <Endpoint_ConfigureEndpointTable+0x46>
    59c4:	42 e0       	ldi	r20, 0x02	; 2
    59c6:	28 e0       	ldi	r18, 0x08	; 8
    59c8:	30 e0       	ldi	r19, 0x00	; 0
    59ca:	90 e0       	ldi	r25, 0x00	; 0
    59cc:	03 c0       	rjmp	.+6      	; 0x59d4 <Endpoint_ConfigureEndpointTable+0x54>
    59ce:	9f 5f       	subi	r25, 0xFF	; 255
    59d0:	22 0f       	add	r18, r18
    59d2:	33 1f       	adc	r19, r19
    59d4:	2a 17       	cp	r18, r26
    59d6:	3b 07       	cpc	r19, r27
    59d8:	d0 f3       	brcs	.-12     	; 0x59ce <Endpoint_ConfigureEndpointTable+0x4e>
    59da:	92 95       	swap	r25
    59dc:	90 7f       	andi	r25, 0xF0	; 240
    59de:	20 e4       	ldi	r18, 0x40	; 64
    59e0:	62 9f       	mul	r22, r18
    59e2:	b0 01       	movw	r22, r0
    59e4:	11 24       	eor	r1, r1
    59e6:	55 1f       	adc	r21, r21
    59e8:	55 27       	eor	r21, r21
    59ea:	55 1f       	adc	r21, r21
    59ec:	49 2b       	or	r20, r25
    59ee:	65 2b       	or	r22, r21
    59f0:	93 df       	rcall	.-218    	; 0x5918 <Endpoint_ConfigureEndpoint_Prv>
    59f2:	01 c0       	rjmp	.+2      	; 0x59f6 <Endpoint_ConfigureEndpointTable+0x76>
    59f4:	80 e0       	ldi	r24, 0x00	; 0
    59f6:	88 23       	and	r24, r24
    59f8:	21 f0       	breq	.+8      	; 0x5a02 <Endpoint_ConfigureEndpointTable+0x82>
    59fa:	1f 5f       	subi	r17, 0xFF	; 255
    59fc:	10 17       	cp	r17, r16
    59fe:	40 f2       	brcs	.-112    	; 0x5990 <Endpoint_ConfigureEndpointTable+0x10>
    5a00:	81 e0       	ldi	r24, 0x01	; 1
    5a02:	df 91       	pop	r29
    5a04:	cf 91       	pop	r28
    5a06:	1f 91       	pop	r17
    5a08:	0f 91       	pop	r16
    5a0a:	08 95       	ret

00005a0c <Endpoint_ClearStatusStage>:

void Endpoint_ClearStatusStage(void)
{
	if (USB_ControlRequest.bmRequestType & REQDIR_DEVICETOHOST)
    5a0c:	80 91 79 0c 	lds	r24, 0x0C79	; 0x800c79 <USB_ControlRequest>
    5a10:	88 23       	and	r24, r24
    5a12:	9c f4       	brge	.+38     	; 0x5a3a <Endpoint_ClearStatusStage+0x2e>
    5a14:	04 c0       	rjmp	.+8      	; 0x5a1e <Endpoint_ClearStatusStage+0x12>
	{
		while (!(Endpoint_IsOUTReceived()))
		{
			if (USB_DeviceState == DEVICE_STATE_Unattached)
    5a16:	80 91 78 0c 	lds	r24, 0x0C78	; 0x800c78 <USB_DeviceState>
    5a1a:	88 23       	and	r24, r24
    5a1c:	b9 f0       	breq	.+46     	; 0x5a4c <Endpoint_ClearStatusStage+0x40>
			 *  \return Boolean \c true if current endpoint is has received an OUT packet, \c false otherwise.
			 */
			static inline bool Endpoint_IsOUTReceived(void) ATTR_WARN_UNUSED_RESULT ATTR_ALWAYS_INLINE;
			static inline bool Endpoint_IsOUTReceived(void)
			{
				return ((UEINTX & (1 << RXOUTI)) ? true : false);
    5a1e:	80 91 e8 00 	lds	r24, 0x00E8	; 0x8000e8 <__TEXT_REGION_LENGTH__+0x7e00e8>

void Endpoint_ClearStatusStage(void)
{
	if (USB_ControlRequest.bmRequestType & REQDIR_DEVICETOHOST)
	{
		while (!(Endpoint_IsOUTReceived()))
    5a22:	82 ff       	sbrs	r24, 2
    5a24:	f8 cf       	rjmp	.-16     	; 0x5a16 <Endpoint_ClearStatusStage+0xa>
			 */
			static inline void Endpoint_ClearOUT(void) ATTR_ALWAYS_INLINE;
			static inline void Endpoint_ClearOUT(void)
			{
				#if !defined(CONTROL_ONLY_DEVICE)
					UEINTX &= ~((1 << RXOUTI) | (1 << FIFOCON));
    5a26:	e8 ee       	ldi	r30, 0xE8	; 232
    5a28:	f0 e0       	ldi	r31, 0x00	; 0
    5a2a:	80 81       	ld	r24, Z
    5a2c:	8b 77       	andi	r24, 0x7B	; 123
    5a2e:	80 83       	st	Z, r24
    5a30:	08 95       	ret
	}
	else
	{
		while (!(Endpoint_IsINReady()))
		{
			if (USB_DeviceState == DEVICE_STATE_Unattached)
    5a32:	80 91 78 0c 	lds	r24, 0x0C78	; 0x800c78 <USB_DeviceState>
    5a36:	88 23       	and	r24, r24
    5a38:	49 f0       	breq	.+18     	; 0x5a4c <Endpoint_ClearStatusStage+0x40>
			 *  \return Boolean \c true if the current endpoint is ready for an IN packet, \c false otherwise.
			 */
			static inline bool Endpoint_IsINReady(void) ATTR_WARN_UNUSED_RESULT ATTR_ALWAYS_INLINE;
			static inline bool Endpoint_IsINReady(void)
			{
				return ((UEINTX & (1 << TXINI)) ? true : false);
    5a3a:	80 91 e8 00 	lds	r24, 0x00E8	; 0x8000e8 <__TEXT_REGION_LENGTH__+0x7e00e8>

		Endpoint_ClearOUT();
	}
	else
	{
		while (!(Endpoint_IsINReady()))
    5a3e:	80 ff       	sbrs	r24, 0
    5a40:	f8 cf       	rjmp	.-16     	; 0x5a32 <Endpoint_ClearStatusStage+0x26>
			 */
			static inline void Endpoint_ClearIN(void) ATTR_ALWAYS_INLINE;
			static inline void Endpoint_ClearIN(void)
			{
				#if !defined(CONTROL_ONLY_DEVICE)
					UEINTX &= ~((1 << TXINI) | (1 << FIFOCON));
    5a42:	e8 ee       	ldi	r30, 0xE8	; 232
    5a44:	f0 e0       	ldi	r31, 0x00	; 0
    5a46:	80 81       	ld	r24, Z
    5a48:	8e 77       	andi	r24, 0x7E	; 126
    5a4a:	80 83       	st	Z, r24
    5a4c:	08 95       	ret

00005a4e <Endpoint_WaitUntilReady>:
			 *  \return Current USB frame number from the USB controller.
			 */
			static inline uint16_t USB_Device_GetFrameNumber(void) ATTR_ALWAYS_INLINE ATTR_WARN_UNUSED_RESULT;
			static inline uint16_t USB_Device_GetFrameNumber(void)
			{
				return UDFNUM;
    5a4e:	20 91 e4 00 	lds	r18, 0x00E4	; 0x8000e4 <__TEXT_REGION_LENGTH__+0x7e00e4>
    5a52:	30 91 e5 00 	lds	r19, 0x00E5	; 0x8000e5 <__TEXT_REGION_LENGTH__+0x7e00e5>

#if !defined(CONTROL_ONLY_DEVICE)
uint8_t Endpoint_WaitUntilReady(void)
{
	#if (USB_STREAM_TIMEOUT_MS < 0xFF)
	uint8_t  TimeoutMSRem = USB_STREAM_TIMEOUT_MS;
    5a56:	44 e6       	ldi	r20, 0x64	; 100
    5a58:	02 c0       	rjmp	.+4      	; 0x5a5e <Endpoint_WaitUntilReady+0x10>

		uint16_t CurrentFrameNumber = USB_Device_GetFrameNumber();

		if (CurrentFrameNumber != PreviousFrameNumber)
		{
			PreviousFrameNumber = CurrentFrameNumber;
    5a5a:	9c 01       	movw	r18, r24

			if (!(TimeoutMSRem--))
    5a5c:	45 2f       	mov	r20, r21
			 *  \return The currently selected endpoint's direction, as a \c ENDPOINT_DIR_* mask.
			 */
			static inline uint8_t Endpoint_GetEndpointDirection(void) ATTR_WARN_UNUSED_RESULT ATTR_ALWAYS_INLINE;
			static inline uint8_t Endpoint_GetEndpointDirection(void)
			{
				return (UECFG0X & (1 << EPDIR)) ? ENDPOINT_DIR_IN : ENDPOINT_DIR_OUT;
    5a5e:	80 91 ec 00 	lds	r24, 0x00EC	; 0x8000ec <__TEXT_REGION_LENGTH__+0x7e00ec>
    5a62:	98 2f       	mov	r25, r24
    5a64:	91 70       	andi	r25, 0x01	; 1
    5a66:	80 fd       	sbrc	r24, 0
    5a68:	90 e8       	ldi	r25, 0x80	; 128

	uint16_t PreviousFrameNumber = USB_Device_GetFrameNumber();

	for (;;)
	{
		if (Endpoint_GetEndpointDirection() == ENDPOINT_DIR_IN)
    5a6a:	90 38       	cpi	r25, 0x80	; 128
    5a6c:	29 f4       	brne	.+10     	; 0x5a78 <Endpoint_WaitUntilReady+0x2a>
			 *  \return Boolean \c true if the current endpoint is ready for an IN packet, \c false otherwise.
			 */
			static inline bool Endpoint_IsINReady(void) ATTR_WARN_UNUSED_RESULT ATTR_ALWAYS_INLINE;
			static inline bool Endpoint_IsINReady(void)
			{
				return ((UEINTX & (1 << TXINI)) ? true : false);
    5a6e:	80 91 e8 00 	lds	r24, 0x00E8	; 0x8000e8 <__TEXT_REGION_LENGTH__+0x7e00e8>
		{
			if (Endpoint_IsINReady())
    5a72:	80 ff       	sbrs	r24, 0
    5a74:	05 c0       	rjmp	.+10     	; 0x5a80 <Endpoint_WaitUntilReady+0x32>
    5a76:	1b c0       	rjmp	.+54     	; 0x5aae <Endpoint_WaitUntilReady+0x60>
			 *  \return Boolean \c true if current endpoint is has received an OUT packet, \c false otherwise.
			 */
			static inline bool Endpoint_IsOUTReceived(void) ATTR_WARN_UNUSED_RESULT ATTR_ALWAYS_INLINE;
			static inline bool Endpoint_IsOUTReceived(void)
			{
				return ((UEINTX & (1 << RXOUTI)) ? true : false);
    5a78:	80 91 e8 00 	lds	r24, 0x00E8	; 0x8000e8 <__TEXT_REGION_LENGTH__+0x7e00e8>
			  return ENDPOINT_READYWAIT_NoError;
		}
		else
		{
			if (Endpoint_IsOUTReceived())
    5a7c:	82 fd       	sbrc	r24, 2
    5a7e:	19 c0       	rjmp	.+50     	; 0x5ab2 <Endpoint_WaitUntilReady+0x64>
			  return ENDPOINT_READYWAIT_NoError;
		}

		uint8_t USB_DeviceState_LCL = USB_DeviceState;
    5a80:	80 91 78 0c 	lds	r24, 0x0C78	; 0x800c78 <USB_DeviceState>

		if (USB_DeviceState_LCL == DEVICE_STATE_Unattached)
    5a84:	88 23       	and	r24, r24
    5a86:	b9 f0       	breq	.+46     	; 0x5ab6 <Endpoint_WaitUntilReady+0x68>
		  return ENDPOINT_READYWAIT_DeviceDisconnected;
		else if (USB_DeviceState_LCL == DEVICE_STATE_Suspended)
    5a88:	85 30       	cpi	r24, 0x05	; 5
    5a8a:	b9 f0       	breq	.+46     	; 0x5aba <Endpoint_WaitUntilReady+0x6c>
			 *  \return Boolean \c true if the currently selected endpoint is stalled, \c false otherwise.
			 */
			static inline bool Endpoint_IsStalled(void) ATTR_WARN_UNUSED_RESULT ATTR_ALWAYS_INLINE;
			static inline bool Endpoint_IsStalled(void)
			{
				return ((UECONX & (1 << STALLRQ)) ? true : false);
    5a8c:	80 91 eb 00 	lds	r24, 0x00EB	; 0x8000eb <__TEXT_REGION_LENGTH__+0x7e00eb>
		  return ENDPOINT_READYWAIT_BusSuspended;
		else if (Endpoint_IsStalled())
    5a90:	85 fd       	sbrc	r24, 5
    5a92:	15 c0       	rjmp	.+42     	; 0x5abe <Endpoint_WaitUntilReady+0x70>
    5a94:	80 91 e4 00 	lds	r24, 0x00E4	; 0x8000e4 <__TEXT_REGION_LENGTH__+0x7e00e4>
    5a98:	90 91 e5 00 	lds	r25, 0x00E5	; 0x8000e5 <__TEXT_REGION_LENGTH__+0x7e00e5>
		  return ENDPOINT_READYWAIT_EndpointStalled;

		uint16_t CurrentFrameNumber = USB_Device_GetFrameNumber();

		if (CurrentFrameNumber != PreviousFrameNumber)
    5a9c:	28 17       	cp	r18, r24
    5a9e:	39 07       	cpc	r19, r25
    5aa0:	f1 f2       	breq	.-68     	; 0x5a5e <Endpoint_WaitUntilReady+0x10>
		{
			PreviousFrameNumber = CurrentFrameNumber;

			if (!(TimeoutMSRem--))
    5aa2:	5f ef       	ldi	r21, 0xFF	; 255
    5aa4:	54 0f       	add	r21, r20
    5aa6:	41 11       	cpse	r20, r1
    5aa8:	d8 cf       	rjmp	.-80     	; 0x5a5a <Endpoint_WaitUntilReady+0xc>
			  return ENDPOINT_READYWAIT_Timeout;
    5aaa:	84 e0       	ldi	r24, 0x04	; 4
    5aac:	08 95       	ret
	for (;;)
	{
		if (Endpoint_GetEndpointDirection() == ENDPOINT_DIR_IN)
		{
			if (Endpoint_IsINReady())
			  return ENDPOINT_READYWAIT_NoError;
    5aae:	80 e0       	ldi	r24, 0x00	; 0
    5ab0:	08 95       	ret
		}
		else
		{
			if (Endpoint_IsOUTReceived())
			  return ENDPOINT_READYWAIT_NoError;
    5ab2:	80 e0       	ldi	r24, 0x00	; 0
    5ab4:	08 95       	ret
		}

		uint8_t USB_DeviceState_LCL = USB_DeviceState;

		if (USB_DeviceState_LCL == DEVICE_STATE_Unattached)
		  return ENDPOINT_READYWAIT_DeviceDisconnected;
    5ab6:	82 e0       	ldi	r24, 0x02	; 2
    5ab8:	08 95       	ret
		else if (USB_DeviceState_LCL == DEVICE_STATE_Suspended)
		  return ENDPOINT_READYWAIT_BusSuspended;
    5aba:	83 e0       	ldi	r24, 0x03	; 3
    5abc:	08 95       	ret
		else if (Endpoint_IsStalled())
		  return ENDPOINT_READYWAIT_EndpointStalled;
    5abe:	81 e0       	ldi	r24, 0x01	; 1

			if (!(TimeoutMSRem--))
			  return ENDPOINT_READYWAIT_Timeout;
		}
	}
}
    5ac0:	08 95       	ret

00005ac2 <USB_Init_Device>:

	#if defined(USB_CAN_BE_BOTH)
	USB_CurrentMode = USB_MODE_None;
	#endif

	USB_IsInitialized = false;
    5ac2:	cf 93       	push	r28
    5ac4:	df 93       	push	r29
    5ac6:	10 92 78 0c 	sts	0x0C78, r1	; 0x800c78 <USB_DeviceState>
    5aca:	10 92 74 0c 	sts	0x0C74, r1	; 0x800c74 <USB_Device_ConfigurationNumber>
    5ace:	10 92 76 0c 	sts	0x0C76, r1	; 0x800c76 <USB_Device_RemoteWakeupEnabled>
    5ad2:	10 92 75 0c 	sts	0x0C75, r1	; 0x800c75 <USB_Device_CurrentlySelfPowered>
    5ad6:	c0 ee       	ldi	r28, 0xE0	; 224
    5ad8:	d0 e0       	ldi	r29, 0x00	; 0
    5ada:	88 81       	ld	r24, Y
    5adc:	8b 7f       	andi	r24, 0xFB	; 251
    5ade:	88 83       	st	Y, r24
    5ae0:	e8 ed       	ldi	r30, 0xD8	; 216
    5ae2:	f0 e0       	ldi	r31, 0x00	; 0
    5ae4:	80 81       	ld	r24, Z
    5ae6:	81 60       	ori	r24, 0x01	; 1
    5ae8:	80 83       	st	Z, r24
    5aea:	42 e0       	ldi	r20, 0x02	; 2
    5aec:	60 e0       	ldi	r22, 0x00	; 0
    5aee:	80 e0       	ldi	r24, 0x00	; 0
    5af0:	13 df       	rcall	.-474    	; 0x5918 <Endpoint_ConfigureEndpoint_Prv>
    5af2:	e1 ee       	ldi	r30, 0xE1	; 225
    5af4:	f0 e0       	ldi	r31, 0x00	; 0
    5af6:	80 81       	ld	r24, Z
    5af8:	8e 7f       	andi	r24, 0xFE	; 254
    5afa:	80 83       	st	Z, r24
    5afc:	e2 ee       	ldi	r30, 0xE2	; 226
    5afe:	f0 e0       	ldi	r31, 0x00	; 0
    5b00:	80 81       	ld	r24, Z
    5b02:	81 60       	ori	r24, 0x01	; 1
    5b04:	80 83       	st	Z, r24
    5b06:	80 81       	ld	r24, Z
    5b08:	88 60       	ori	r24, 0x08	; 8
    5b0a:	80 83       	st	Z, r24
    5b0c:	88 81       	ld	r24, Y
    5b0e:	8e 7f       	andi	r24, 0xFE	; 254
    5b10:	88 83       	st	Y, r24
    5b12:	df 91       	pop	r29
    5b14:	cf 91       	pop	r28
    5b16:	08 95       	ret

00005b18 <USB_ResetInterface>:
}

void USB_ResetInterface(void)
{
    5b18:	cf 93       	push	r28
    5b1a:	df 93       	push	r29
	#if defined(USB_CAN_BE_BOTH)
	bool UIDModeSelectEnabled = ((UHWCON & (1 << UIDE)) != 0);
	#endif

	USB_INT_DisableAllInterrupts();
    5b1c:	28 d0       	rcall	.+80     	; 0x5b6e <USB_INT_DisableAllInterrupts>
	USB_INT_ClearAllInterrupts();
    5b1e:	2f d0       	rcall	.+94     	; 0x5b7e <USB_INT_ClearAllInterrupts>
    5b20:	c8 ed       	ldi	r28, 0xD8	; 216
			}

			static inline void USB_Controller_Reset(void) ATTR_ALWAYS_INLINE;
			static inline void USB_Controller_Reset(void)
			{
				USBCON &= ~(1 << USBE);
    5b22:	d0 e0       	ldi	r29, 0x00	; 0
    5b24:	88 81       	ld	r24, Y
    5b26:	8f 77       	andi	r24, 0x7F	; 127
    5b28:	88 83       	st	Y, r24
    5b2a:	88 81       	ld	r24, Y
				USBCON |=  (1 << USBE);
    5b2c:	80 68       	ori	r24, 0x80	; 128
    5b2e:	88 83       	st	Y, r24
    5b30:	88 81       	ld	r24, Y
			}

			static inline void USB_CLK_Unfreeze(void) ATTR_ALWAYS_INLINE;
			static inline void USB_CLK_Unfreeze(void)
			{
				USBCON &= ~(1 << FRZCLK);
    5b32:	8f 7d       	andi	r24, 0xDF	; 223
    5b34:	88 83       	st	Y, r24
    5b36:	e7 ed       	ldi	r30, 0xD7	; 215

	if (USB_CurrentMode == USB_MODE_Device)
	{
		#if defined(USB_CAN_BE_DEVICE)
		#if (defined(USB_SERIES_6_AVR) || defined(USB_SERIES_7_AVR))
		UHWCON |=  (1 << UIMOD);
    5b38:	f0 e0       	ldi	r31, 0x00	; 0
    5b3a:	80 81       	ld	r24, Z
    5b3c:	80 68       	ori	r24, 0x80	; 128
    5b3e:	80 83       	st	Z, r24
			}

			static inline void USB_PLL_Off(void) ATTR_ALWAYS_INLINE;
			static inline void USB_PLL_Off(void)
			{
				PLLCSR = 0;
    5b40:	19 bc       	out	0x29, r1	; 41
			#else
			USB_PLL_Off();
			#endif
		}

		USB_Init_Device();
    5b42:	bf df       	rcall	.-130    	; 0x5ac2 <USB_Init_Device>
    5b44:	88 81       	ld	r24, Y

			#if defined(USB_SERIES_4_AVR) || defined(USB_SERIES_6_AVR) || defined(USB_SERIES_7_AVR)
			static inline void USB_OTGPAD_On(void) ATTR_ALWAYS_INLINE;
			static inline void USB_OTGPAD_On(void)
			{
				USBCON |=  (1 << OTGPADE);
    5b46:	80 61       	ori	r24, 0x10	; 16
    5b48:	88 83       	st	Y, r24
    5b4a:	df 91       	pop	r29
	}

	#if (defined(USB_SERIES_4_AVR) || defined(USB_SERIES_6_AVR) || defined(USB_SERIES_7_AVR))
	USB_OTGPAD_On();
	#endif
}
    5b4c:	cf 91       	pop	r28
    5b4e:	08 95       	ret

00005b50 <USB_Init>:
    5b50:	e8 ed       	ldi	r30, 0xD8	; 216
			}

			static inline void USB_OTGPAD_Off(void) ATTR_ALWAYS_INLINE;
			static inline void USB_OTGPAD_Off(void)
			{
				USBCON &= ~(1 << OTGPADE);
    5b52:	f0 e0       	ldi	r31, 0x00	; 0
    5b54:	80 81       	ld	r24, Z
    5b56:	8f 7e       	andi	r24, 0xEF	; 239
    5b58:	80 83       	st	Z, r24

			static inline void USB_REG_On(void) ATTR_ALWAYS_INLINE;
			static inline void USB_REG_On(void)
			{
			#if defined(USB_SERIES_4_AVR) || defined(USB_SERIES_6_AVR) || defined(USB_SERIES_7_AVR)
				UHWCON |=  (1 << UVREGE);
    5b5a:	e7 ed       	ldi	r30, 0xD7	; 215
    5b5c:	f0 e0       	ldi	r31, 0x00	; 0
    5b5e:	80 81       	ld	r24, Z
    5b60:	81 60       	ori	r24, 0x01	; 1
    5b62:	80 83       	st	Z, r24
		UHWCON &= ~(1 << UIDE);
		USB_CurrentMode = Mode;
	}
	#endif

	USB_IsInitialized = true;
    5b64:	81 e0       	ldi	r24, 0x01	; 1
    5b66:	80 93 77 0c 	sts	0x0C77, r24	; 0x800c77 <USB_IsInitialized>

	USB_ResetInterface();
    5b6a:	d6 cf       	rjmp	.-84     	; 0x5b18 <USB_ResetInterface>
    5b6c:	08 95       	ret

00005b6e <USB_INT_DisableAllInterrupts>:
#include "../USBInterrupt.h"

void USB_INT_DisableAllInterrupts(void)
{
	#if defined(USB_SERIES_6_AVR) || defined(USB_SERIES_7_AVR)
	USBCON &= ~((1 << VBUSTE) | (1 << IDTE));
    5b6e:	e8 ed       	ldi	r30, 0xD8	; 216
    5b70:	f0 e0       	ldi	r31, 0x00	; 0
    5b72:	80 81       	ld	r24, Z
    5b74:	8c 7f       	andi	r24, 0xFC	; 252
    5b76:	80 83       	st	Z, r24
	#if defined(USB_CAN_BE_HOST)
	UHIEN   = 0;
	#endif

	#if defined(USB_CAN_BE_DEVICE)
	UDIEN   = 0;
    5b78:	10 92 e2 00 	sts	0x00E2, r1	; 0x8000e2 <__TEXT_REGION_LENGTH__+0x7e00e2>
    5b7c:	08 95       	ret

00005b7e <USB_INT_ClearAllInterrupts>:
}

void USB_INT_ClearAllInterrupts(void)
{
	#if defined(USB_SERIES_4_AVR) || defined(USB_SERIES_6_AVR) || defined(USB_SERIES_7_AVR)
	USBINT = 0;
    5b7e:	10 92 da 00 	sts	0x00DA, r1	; 0x8000da <__TEXT_REGION_LENGTH__+0x7e00da>
	#if defined(USB_CAN_BE_HOST)
	UHINT  = 0;
	#endif

	#if defined(USB_CAN_BE_DEVICE)
	UDINT  = 0;
    5b82:	10 92 e1 00 	sts	0x00E1, r1	; 0x8000e1 <__TEXT_REGION_LENGTH__+0x7e00e1>
    5b86:	08 95       	ret

00005b88 <__vector_10>:
	#endif
}

ISR(USB_GEN_vect, ISR_BLOCK)
{
    5b88:	1f 92       	push	r1
    5b8a:	0f 92       	push	r0
    5b8c:	0f b6       	in	r0, 0x3f	; 63
    5b8e:	0f 92       	push	r0
    5b90:	11 24       	eor	r1, r1
    5b92:	0b b6       	in	r0, 0x3b	; 59
    5b94:	0f 92       	push	r0
    5b96:	2f 93       	push	r18
    5b98:	3f 93       	push	r19
    5b9a:	4f 93       	push	r20
    5b9c:	5f 93       	push	r21
    5b9e:	6f 93       	push	r22
    5ba0:	7f 93       	push	r23
    5ba2:	8f 93       	push	r24
    5ba4:	9f 93       	push	r25
    5ba6:	af 93       	push	r26
    5ba8:	bf 93       	push	r27
    5baa:	ef 93       	push	r30
    5bac:	ff 93       	push	r31
					case USB_INT_SUSPI:
						return (UDINT  & (1 << SUSPI));
					case USB_INT_EORSTI:
						return (UDINT  & (1 << EORSTI));
					case USB_INT_SOFI:
						return (UDINT  & (1 << SOFI));
    5bae:	80 91 e1 00 	lds	r24, 0x00E1	; 0x8000e1 <__TEXT_REGION_LENGTH__+0x7e00e1>
	#if defined(USB_CAN_BE_DEVICE)
	#if !defined(NO_SOF_EVENTS)
	if (USB_INT_HasOccurred(USB_INT_SOFI) && USB_INT_IsEnabled(USB_INT_SOFI))
    5bb2:	82 ff       	sbrs	r24, 2
    5bb4:	0b c0       	rjmp	.+22     	; 0x5bcc <__vector_10+0x44>
					case USB_INT_SUSPI:
						return (UDIEN  & (1 << SUSPE));
					case USB_INT_EORSTI:
						return (UDIEN  & (1 << EORSTE));
					case USB_INT_SOFI:
						return (UDIEN  & (1 << SOFE));
    5bb6:	80 91 e2 00 	lds	r24, 0x00E2	; 0x8000e2 <__TEXT_REGION_LENGTH__+0x7e00e2>
    5bba:	82 ff       	sbrs	r24, 2
    5bbc:	07 c0       	rjmp	.+14     	; 0x5bcc <__vector_10+0x44>
						break;
					case USB_INT_EORSTI:
						UDINT  &= ~(1 << EORSTI);
						break;
					case USB_INT_SOFI:
						UDINT  &= ~(1 << SOFI);
    5bbe:	e1 ee       	ldi	r30, 0xE1	; 225
    5bc0:	f0 e0       	ldi	r31, 0x00	; 0
    5bc2:	80 81       	ld	r24, Z
    5bc4:	8b 7f       	andi	r24, 0xFB	; 251
    5bc6:	80 83       	st	Z, r24
	{
		USB_INT_Clear(USB_INT_SOFI);

		EVENT_USB_Device_StartOfFrame();
    5bc8:	0e 94 bf 19 	call	0x337e	; 0x337e <EVENT_USB_Device_StartOfFrame>
			{
				switch (Interrupt)
				{
					#if (defined(USB_SERIES_4_AVR) || defined(USB_SERIES_6_AVR) || defined(USB_SERIES_7_AVR))
					case USB_INT_VBUSTI:
						return (USBINT & (1 << VBUSTI));
    5bcc:	80 91 da 00 	lds	r24, 0x00DA	; 0x8000da <__TEXT_REGION_LENGTH__+0x7e00da>
	}
	#endif

	#if defined(USB_SERIES_4_AVR) || defined(USB_SERIES_6_AVR) || defined(USB_SERIES_7_AVR)
	if (USB_INT_HasOccurred(USB_INT_VBUSTI) && USB_INT_IsEnabled(USB_INT_VBUSTI))
    5bd0:	80 ff       	sbrs	r24, 0
    5bd2:	1f c0       	rjmp	.+62     	; 0x5c12 <__vector_10+0x8a>
			{
				switch (Interrupt)
				{
					#if (defined(USB_SERIES_4_AVR) || defined(USB_SERIES_6_AVR) || defined(USB_SERIES_7_AVR))
					case USB_INT_VBUSTI:
						return (USBCON & (1 << VBUSTE));
    5bd4:	80 91 d8 00 	lds	r24, 0x00D8	; 0x8000d8 <__TEXT_REGION_LENGTH__+0x7e00d8>
    5bd8:	80 ff       	sbrs	r24, 0
    5bda:	1b c0       	rjmp	.+54     	; 0x5c12 <__vector_10+0x8a>
			{
				switch (Interrupt)
				{
					#if (defined(USB_SERIES_4_AVR) || defined(USB_SERIES_6_AVR) || defined(USB_SERIES_7_AVR))
					case USB_INT_VBUSTI:
						USBINT &= ~(1 << VBUSTI);
    5bdc:	ea ed       	ldi	r30, 0xDA	; 218
    5bde:	f0 e0       	ldi	r31, 0x00	; 0
    5be0:	80 81       	ld	r24, Z
    5be2:	8e 7f       	andi	r24, 0xFE	; 254
    5be4:	80 83       	st	Z, r24
				 *  \return Boolean \c true if the VBUS line is currently detecting power from a host, \c false otherwise.
				 */
				static inline bool USB_VBUS_GetStatus(void) ATTR_WARN_UNUSED_RESULT ATTR_ALWAYS_INLINE;
				static inline bool USB_VBUS_GetStatus(void)
				{
					return ((USBSTA & (1 << VBUS)) ? true : false);
    5be6:	80 91 d9 00 	lds	r24, 0x00D9	; 0x8000d9 <__TEXT_REGION_LENGTH__+0x7e00d9>
	{
		USB_INT_Clear(USB_INT_VBUSTI);

		if (USB_VBUS_GetStatus())
    5bea:	80 ff       	sbrs	r24, 0
    5bec:	0d c0       	rjmp	.+26     	; 0x5c08 <__vector_10+0x80>

		/* Inline Functions: */
			static inline void USB_PLL_On(void) ATTR_ALWAYS_INLINE;
			static inline void USB_PLL_On(void)
			{
				PLLCSR = USB_PLL_PSC;
    5bee:	84 e1       	ldi	r24, 0x14	; 20
    5bf0:	89 bd       	out	0x29, r24	; 41
				PLLCSR = (USB_PLL_PSC | (1 << PLLE));
    5bf2:	86 e1       	ldi	r24, 0x16	; 22
    5bf4:	89 bd       	out	0x29, r24	; 41
		{
			if (!(USB_Options & USB_OPT_MANUAL_PLL))
			{
				USB_PLL_On();
				while (!(USB_PLL_IsReady()));
    5bf6:	09 b4       	in	r0, 0x29	; 41
    5bf8:	00 fe       	sbrs	r0, 0
    5bfa:	fd cf       	rjmp	.-6      	; 0x5bf6 <__vector_10+0x6e>
			}

			USB_DeviceState = DEVICE_STATE_Powered;
    5bfc:	81 e0       	ldi	r24, 0x01	; 1
    5bfe:	80 93 78 0c 	sts	0x0C78, r24	; 0x800c78 <USB_DeviceState>
			EVENT_USB_Device_Connect();
    5c02:	0e 94 4b 19 	call	0x3296	; 0x3296 <EVENT_USB_Device_Connect>
    5c06:	05 c0       	rjmp	.+10     	; 0x5c12 <__vector_10+0x8a>
			}

			static inline void USB_PLL_Off(void) ATTR_ALWAYS_INLINE;
			static inline void USB_PLL_Off(void)
			{
				PLLCSR = 0;
    5c08:	19 bc       	out	0x29, r1	; 41
		else
		{
			if (!(USB_Options & USB_OPT_MANUAL_PLL))
			  USB_PLL_Off();

			USB_DeviceState = DEVICE_STATE_Unattached;
    5c0a:	10 92 78 0c 	sts	0x0C78, r1	; 0x800c78 <USB_DeviceState>
			EVENT_USB_Device_Disconnect();
    5c0e:	0e 94 58 19 	call	0x32b0	; 0x32b0 <EVENT_USB_Device_Disconnect>
					#endif
					#if defined(USB_CAN_BE_DEVICE)
					case USB_INT_WAKEUPI:
						return (UDINT  & (1 << WAKEUPI));
					case USB_INT_SUSPI:
						return (UDINT  & (1 << SUSPI));
    5c12:	80 91 e1 00 	lds	r24, 0x00E1	; 0x8000e1 <__TEXT_REGION_LENGTH__+0x7e00e1>
		}
	}
	#endif

	if (USB_INT_HasOccurred(USB_INT_SUSPI) && USB_INT_IsEnabled(USB_INT_SUSPI))
    5c16:	80 ff       	sbrs	r24, 0
    5c18:	16 c0       	rjmp	.+44     	; 0x5c46 <__vector_10+0xbe>
					#endif
					#if defined(USB_CAN_BE_DEVICE)
					case USB_INT_WAKEUPI:
						return (UDIEN  & (1 << WAKEUPE));
					case USB_INT_SUSPI:
						return (UDIEN  & (1 << SUSPE));
    5c1a:	80 91 e2 00 	lds	r24, 0x00E2	; 0x8000e2 <__TEXT_REGION_LENGTH__+0x7e00e2>
    5c1e:	80 ff       	sbrs	r24, 0
    5c20:	12 c0       	rjmp	.+36     	; 0x5c46 <__vector_10+0xbe>
					#if defined(USB_CAN_BE_DEVICE)
					case USB_INT_WAKEUPI:
						UDIEN  &= ~(1 << WAKEUPE);
						break;
					case USB_INT_SUSPI:
						UDIEN  &= ~(1 << SUSPE);
    5c22:	e2 ee       	ldi	r30, 0xE2	; 226
    5c24:	f0 e0       	ldi	r31, 0x00	; 0
    5c26:	80 81       	ld	r24, Z
    5c28:	8e 7f       	andi	r24, 0xFE	; 254
    5c2a:	80 83       	st	Z, r24
						USBCON |= (1 << IDTE);
						break;
					#endif
					#if defined(USB_CAN_BE_DEVICE)
					case USB_INT_WAKEUPI:
						UDIEN  |= (1 << WAKEUPE);
    5c2c:	80 81       	ld	r24, Z
    5c2e:	80 61       	ori	r24, 0x10	; 16
    5c30:	80 83       	st	Z, r24
			#endif

			static inline void USB_CLK_Freeze(void) ATTR_ALWAYS_INLINE;
			static inline void USB_CLK_Freeze(void)
			{
				USBCON |=  (1 << FRZCLK);
    5c32:	e8 ed       	ldi	r30, 0xD8	; 216
    5c34:	f0 e0       	ldi	r31, 0x00	; 0
    5c36:	80 81       	ld	r24, Z
    5c38:	80 62       	ori	r24, 0x20	; 32
    5c3a:	80 83       	st	Z, r24
			}

			static inline void USB_PLL_Off(void) ATTR_ALWAYS_INLINE;
			static inline void USB_PLL_Off(void)
			{
				PLLCSR = 0;
    5c3c:	19 bc       	out	0x29, r1	; 41

		#if defined(USB_SERIES_2_AVR) && !defined(NO_LIMITED_CONTROLLER_CONNECT)
		USB_DeviceState = DEVICE_STATE_Unattached;
		EVENT_USB_Device_Disconnect();
		#else
		USB_DeviceState = DEVICE_STATE_Suspended;
    5c3e:	85 e0       	ldi	r24, 0x05	; 5
    5c40:	80 93 78 0c 	sts	0x0C78, r24	; 0x800c78 <USB_DeviceState>
		EVENT_USB_Device_Suspend();
    5c44:	6d d2       	rcall	.+1242   	; 0x6120 <USB_Event_Stub>
					case USB_INT_IDTI:
						return (USBINT & (1 << IDTI));
					#endif
					#if defined(USB_CAN_BE_DEVICE)
					case USB_INT_WAKEUPI:
						return (UDINT  & (1 << WAKEUPI));
    5c46:	80 91 e1 00 	lds	r24, 0x00E1	; 0x8000e1 <__TEXT_REGION_LENGTH__+0x7e00e1>
		#endif
	}

	if (USB_INT_HasOccurred(USB_INT_WAKEUPI) && USB_INT_IsEnabled(USB_INT_WAKEUPI))
    5c4a:	84 ff       	sbrs	r24, 4
    5c4c:	2f c0       	rjmp	.+94     	; 0x5cac <__vector_10+0x124>
					case USB_INT_IDTI:
						return (USBCON & (1 << IDTE));
					#endif
					#if defined(USB_CAN_BE_DEVICE)
					case USB_INT_WAKEUPI:
						return (UDIEN  & (1 << WAKEUPE));
    5c4e:	80 91 e2 00 	lds	r24, 0x00E2	; 0x8000e2 <__TEXT_REGION_LENGTH__+0x7e00e2>
    5c52:	84 ff       	sbrs	r24, 4
    5c54:	2b c0       	rjmp	.+86     	; 0x5cac <__vector_10+0x124>

		/* Inline Functions: */
			static inline void USB_PLL_On(void) ATTR_ALWAYS_INLINE;
			static inline void USB_PLL_On(void)
			{
				PLLCSR = USB_PLL_PSC;
    5c56:	84 e1       	ldi	r24, 0x14	; 20
    5c58:	89 bd       	out	0x29, r24	; 41
				PLLCSR = (USB_PLL_PSC | (1 << PLLE));
    5c5a:	86 e1       	ldi	r24, 0x16	; 22
    5c5c:	89 bd       	out	0x29, r24	; 41
	{
		if (!(USB_Options & USB_OPT_MANUAL_PLL))
		{
			USB_PLL_On();
			while (!(USB_PLL_IsReady()));
    5c5e:	09 b4       	in	r0, 0x29	; 41
    5c60:	00 fe       	sbrs	r0, 0
    5c62:	fd cf       	rjmp	.-6      	; 0x5c5e <__vector_10+0xd6>
			}

			static inline void USB_CLK_Unfreeze(void) ATTR_ALWAYS_INLINE;
			static inline void USB_CLK_Unfreeze(void)
			{
				USBCON &= ~(1 << FRZCLK);
    5c64:	e8 ed       	ldi	r30, 0xD8	; 216
    5c66:	f0 e0       	ldi	r31, 0x00	; 0
    5c68:	80 81       	ld	r24, Z
    5c6a:	8f 7d       	andi	r24, 0xDF	; 223
    5c6c:	80 83       	st	Z, r24
						USBINT &= ~(1 << IDTI);
						break;
					#endif
					#if defined(USB_CAN_BE_DEVICE)
					case USB_INT_WAKEUPI:
						UDINT  &= ~(1 << WAKEUPI);
    5c6e:	e1 ee       	ldi	r30, 0xE1	; 225
    5c70:	f0 e0       	ldi	r31, 0x00	; 0
    5c72:	80 81       	ld	r24, Z
    5c74:	8f 7e       	andi	r24, 0xEF	; 239
    5c76:	80 83       	st	Z, r24
						USBCON &= ~(1 << IDTE);
						break;
					#endif
					#if defined(USB_CAN_BE_DEVICE)
					case USB_INT_WAKEUPI:
						UDIEN  &= ~(1 << WAKEUPE);
    5c78:	e2 ee       	ldi	r30, 0xE2	; 226
    5c7a:	f0 e0       	ldi	r31, 0x00	; 0
    5c7c:	80 81       	ld	r24, Z
    5c7e:	8f 7e       	andi	r24, 0xEF	; 239
    5c80:	80 83       	st	Z, r24
					#if defined(USB_CAN_BE_DEVICE)
					case USB_INT_WAKEUPI:
						UDIEN  |= (1 << WAKEUPE);
						break;
					case USB_INT_SUSPI:
						UDIEN  |= (1 << SUSPE);
    5c82:	80 81       	ld	r24, Z
    5c84:	81 60       	ori	r24, 0x01	; 1
    5c86:	80 83       	st	Z, r24
		USB_INT_Clear(USB_INT_WAKEUPI);

		USB_INT_Disable(USB_INT_WAKEUPI);
		USB_INT_Enable(USB_INT_SUSPI);

		if (USB_Device_ConfigurationNumber)
    5c88:	80 91 74 0c 	lds	r24, 0x0C74	; 0x800c74 <USB_Device_ConfigurationNumber>
    5c8c:	88 23       	and	r24, r24
    5c8e:	21 f0       	breq	.+8      	; 0x5c98 <__vector_10+0x110>
		  USB_DeviceState = DEVICE_STATE_Configured;
    5c90:	84 e0       	ldi	r24, 0x04	; 4
    5c92:	80 93 78 0c 	sts	0x0C78, r24	; 0x800c78 <USB_DeviceState>
    5c96:	09 c0       	rjmp	.+18     	; 0x5caa <__vector_10+0x122>
			}

			static inline bool USB_Device_IsAddressSet(void) ATTR_ALWAYS_INLINE ATTR_WARN_UNUSED_RESULT;
			static inline bool USB_Device_IsAddressSet(void)
			{
				return (UDADDR & (1 << ADDEN));
    5c98:	80 91 e3 00 	lds	r24, 0x00E3	; 0x8000e3 <__TEXT_REGION_LENGTH__+0x7e00e3>
		else
		  USB_DeviceState = (USB_Device_IsAddressSet()) ? DEVICE_STATE_Addressed : DEVICE_STATE_Powered;
    5c9c:	88 23       	and	r24, r24
    5c9e:	14 f4       	brge	.+4      	; 0x5ca4 <__vector_10+0x11c>
    5ca0:	83 e0       	ldi	r24, 0x03	; 3
    5ca2:	01 c0       	rjmp	.+2      	; 0x5ca6 <__vector_10+0x11e>
    5ca4:	81 e0       	ldi	r24, 0x01	; 1
    5ca6:	80 93 78 0c 	sts	0x0C78, r24	; 0x800c78 <USB_DeviceState>

		#if defined(USB_SERIES_2_AVR) && !defined(NO_LIMITED_CONTROLLER_CONNECT)
		EVENT_USB_Device_Connect();
		#else
		EVENT_USB_Device_WakeUp();
    5caa:	3a d2       	rcall	.+1140   	; 0x6120 <USB_Event_Stub>
					case USB_INT_WAKEUPI:
						return (UDINT  & (1 << WAKEUPI));
					case USB_INT_SUSPI:
						return (UDINT  & (1 << SUSPI));
					case USB_INT_EORSTI:
						return (UDINT  & (1 << EORSTI));
    5cac:	80 91 e1 00 	lds	r24, 0x00E1	; 0x8000e1 <__TEXT_REGION_LENGTH__+0x7e00e1>
		#endif
	}

	if (USB_INT_HasOccurred(USB_INT_EORSTI) && USB_INT_IsEnabled(USB_INT_EORSTI))
    5cb0:	83 ff       	sbrs	r24, 3
    5cb2:	23 c0       	rjmp	.+70     	; 0x5cfa <__vector_10+0x172>
					case USB_INT_WAKEUPI:
						return (UDIEN  & (1 << WAKEUPE));
					case USB_INT_SUSPI:
						return (UDIEN  & (1 << SUSPE));
					case USB_INT_EORSTI:
						return (UDIEN  & (1 << EORSTE));
    5cb4:	80 91 e2 00 	lds	r24, 0x00E2	; 0x8000e2 <__TEXT_REGION_LENGTH__+0x7e00e2>
    5cb8:	83 ff       	sbrs	r24, 3
    5cba:	1f c0       	rjmp	.+62     	; 0x5cfa <__vector_10+0x172>
						break;
					case USB_INT_SUSPI:
						UDINT  &= ~(1 << SUSPI);
						break;
					case USB_INT_EORSTI:
						UDINT  &= ~(1 << EORSTI);
    5cbc:	e1 ee       	ldi	r30, 0xE1	; 225
    5cbe:	f0 e0       	ldi	r31, 0x00	; 0
    5cc0:	80 81       	ld	r24, Z
    5cc2:	87 7f       	andi	r24, 0xF7	; 247
    5cc4:	80 83       	st	Z, r24
	{
		USB_INT_Clear(USB_INT_EORSTI);

		USB_DeviceState                = DEVICE_STATE_Default;
    5cc6:	82 e0       	ldi	r24, 0x02	; 2
    5cc8:	80 93 78 0c 	sts	0x0C78, r24	; 0x800c78 <USB_DeviceState>
		USB_Device_ConfigurationNumber = 0;
    5ccc:	10 92 74 0c 	sts	0x0C74, r1	; 0x800c74 <USB_Device_ConfigurationNumber>
					#if defined(USB_CAN_BE_DEVICE)
					case USB_INT_WAKEUPI:
						UDINT  &= ~(1 << WAKEUPI);
						break;
					case USB_INT_SUSPI:
						UDINT  &= ~(1 << SUSPI);
    5cd0:	80 81       	ld	r24, Z
    5cd2:	8e 7f       	andi	r24, 0xFE	; 254
    5cd4:	80 83       	st	Z, r24
					#if defined(USB_CAN_BE_DEVICE)
					case USB_INT_WAKEUPI:
						UDIEN  &= ~(1 << WAKEUPE);
						break;
					case USB_INT_SUSPI:
						UDIEN  &= ~(1 << SUSPE);
    5cd6:	e2 ee       	ldi	r30, 0xE2	; 226
    5cd8:	f0 e0       	ldi	r31, 0x00	; 0
    5cda:	80 81       	ld	r24, Z
    5cdc:	8e 7f       	andi	r24, 0xFE	; 254
    5cde:	80 83       	st	Z, r24
						USBCON |= (1 << IDTE);
						break;
					#endif
					#if defined(USB_CAN_BE_DEVICE)
					case USB_INT_WAKEUPI:
						UDIEN  |= (1 << WAKEUPE);
    5ce0:	80 81       	ld	r24, Z
    5ce2:	80 61       	ori	r24, 0x10	; 16
    5ce4:	80 83       	st	Z, r24
				uint8_t Number = (Address & ENDPOINT_EPNUM_MASK);

				if (Number >= ENDPOINT_TOTAL_ENDPOINTS)
				  return false;

				return Endpoint_ConfigureEndpoint_Prv(Number,
    5ce6:	42 e0       	ldi	r20, 0x02	; 2
    5ce8:	60 e0       	ldi	r22, 0x00	; 0
    5cea:	80 e0       	ldi	r24, 0x00	; 0
    5cec:	15 de       	rcall	.-982    	; 0x5918 <Endpoint_ConfigureEndpoint_Prv>
						break;
					case USB_INT_SOFI:
						UDIEN  |= (1 << SOFE);
						break;
					case USB_INT_RXSTPI:
						UEIENX |= (1 << RXSTPE);
    5cee:	e0 ef       	ldi	r30, 0xF0	; 240
    5cf0:	f0 e0       	ldi	r31, 0x00	; 0
    5cf2:	80 81       	ld	r24, Z
    5cf4:	88 60       	ori	r24, 0x08	; 8

		#if defined(INTERRUPT_CONTROL_ENDPOINT)
		USB_INT_Enable(USB_INT_RXSTPI);
		#endif

		EVENT_USB_Device_Reset();
    5cf6:	80 83       	st	Z, r24
    5cf8:	13 d2       	rcall	.+1062   	; 0x6120 <USB_Event_Stub>
		USB_ResetInterface();

		EVENT_USB_UIDChange();
	}
	#endif
}
    5cfa:	ff 91       	pop	r31
    5cfc:	ef 91       	pop	r30
    5cfe:	bf 91       	pop	r27
    5d00:	af 91       	pop	r26
    5d02:	9f 91       	pop	r25
    5d04:	8f 91       	pop	r24
    5d06:	7f 91       	pop	r23
    5d08:	6f 91       	pop	r22
    5d0a:	5f 91       	pop	r21
    5d0c:	4f 91       	pop	r20
    5d0e:	3f 91       	pop	r19
    5d10:	2f 91       	pop	r18
    5d12:	0f 90       	pop	r0
    5d14:	0b be       	out	0x3b, r0	; 59
    5d16:	0f 90       	pop	r0
    5d18:	0f be       	out	0x3f, r0	; 63
    5d1a:	0f 90       	pop	r0
    5d1c:	1f 90       	pop	r1
    5d1e:	18 95       	reti

00005d20 <__vector_11>:

#if defined(INTERRUPT_CONTROL_ENDPOINT) && defined(USB_CAN_BE_DEVICE)
ISR(USB_COM_vect, ISR_BLOCK)
{
    5d20:	1f 92       	push	r1
    5d22:	0f 92       	push	r0
    5d24:	0f b6       	in	r0, 0x3f	; 63
    5d26:	0f 92       	push	r0
    5d28:	11 24       	eor	r1, r1
    5d2a:	0b b6       	in	r0, 0x3b	; 59
    5d2c:	0f 92       	push	r0
    5d2e:	ef 92       	push	r14
    5d30:	ff 92       	push	r15
    5d32:	1f 93       	push	r17
    5d34:	2f 93       	push	r18
    5d36:	3f 93       	push	r19
    5d38:	4f 93       	push	r20
    5d3a:	5f 93       	push	r21
    5d3c:	6f 93       	push	r22
    5d3e:	7f 93       	push	r23
    5d40:	8f 93       	push	r24
    5d42:	9f 93       	push	r25
    5d44:	af 93       	push	r26
    5d46:	bf 93       	push	r27
    5d48:	cf 93       	push	r28
    5d4a:	df 93       	push	r29
    5d4c:	ef 93       	push	r30
    5d4e:	ff 93       	push	r31
			 */
			static inline uint8_t Endpoint_GetCurrentEndpoint(void) ATTR_WARN_UNUSED_RESULT ATTR_ALWAYS_INLINE;
			static inline uint8_t Endpoint_GetCurrentEndpoint(void)
			{
				#if !defined(CONTROL_ONLY_DEVICE)
					return ((UENUM & ENDPOINT_EPNUM_MASK) | Endpoint_GetEndpointDirection());
    5d50:	c0 91 e9 00 	lds	r28, 0x00E9	; 0x8000e9 <__TEXT_REGION_LENGTH__+0x7e00e9>
    5d54:	cf 70       	andi	r28, 0x0F	; 15
			 *  \return The currently selected endpoint's direction, as a \c ENDPOINT_DIR_* mask.
			 */
			static inline uint8_t Endpoint_GetEndpointDirection(void) ATTR_WARN_UNUSED_RESULT ATTR_ALWAYS_INLINE;
			static inline uint8_t Endpoint_GetEndpointDirection(void)
			{
				return (UECFG0X & (1 << EPDIR)) ? ENDPOINT_DIR_IN : ENDPOINT_DIR_OUT;
    5d56:	80 91 ec 00 	lds	r24, 0x00EC	; 0x8000ec <__TEXT_REGION_LENGTH__+0x7e00ec>
    5d5a:	98 2f       	mov	r25, r24
    5d5c:	91 70       	andi	r25, 0x01	; 1
    5d5e:	80 fd       	sbrc	r24, 0
    5d60:	90 e8       	ldi	r25, 0x80	; 128
			 */
			static inline uint8_t Endpoint_GetCurrentEndpoint(void) ATTR_WARN_UNUSED_RESULT ATTR_ALWAYS_INLINE;
			static inline uint8_t Endpoint_GetCurrentEndpoint(void)
			{
				#if !defined(CONTROL_ONLY_DEVICE)
					return ((UENUM & ENDPOINT_EPNUM_MASK) | Endpoint_GetEndpointDirection());
    5d62:	19 2f       	mov	r17, r25
    5d64:	1c 2b       	or	r17, r28
			 */
			static inline void Endpoint_SelectEndpoint(const uint8_t Address) ATTR_ALWAYS_INLINE;
			static inline void Endpoint_SelectEndpoint(const uint8_t Address)
			{
				#if !defined(CONTROL_ONLY_DEVICE)
					UENUM = (Address & ENDPOINT_EPNUM_MASK);
    5d66:	0f 2e       	mov	r0, r31
    5d68:	f9 ee       	ldi	r31, 0xE9	; 233
    5d6a:	ef 2e       	mov	r14, r31
    5d6c:	f1 2c       	mov	r15, r1
    5d6e:	f0 2d       	mov	r31, r0
    5d70:	f7 01       	movw	r30, r14
    5d72:	10 82       	st	Z, r1
						break;
					case USB_INT_SOFI:
						UDIEN  &= ~(1 << SOFE);
						break;
					case USB_INT_RXSTPI:
						UEIENX &= ~(1 << RXSTPE);
    5d74:	c0 ef       	ldi	r28, 0xF0	; 240
    5d76:	d0 e0       	ldi	r29, 0x00	; 0
    5d78:	88 81       	ld	r24, Y
    5d7a:	87 7f       	andi	r24, 0xF7	; 247
    5d7c:	88 83       	st	Y, r24
			static inline void GlobalInterruptEnable(void)
			{
				GCC_MEMORY_BARRIER();

				#if (ARCH == ARCH_AVR8)
				sei();
    5d7e:	78 94       	sei
	Endpoint_SelectEndpoint(ENDPOINT_CONTROLEP);
	USB_INT_Disable(USB_INT_RXSTPI);

	GlobalInterruptEnable();

	USB_Device_ProcessControlRequest();
    5d80:	7f d1       	rcall	.+766    	; 0x6080 <USB_Device_ProcessControlRequest>
    5d82:	f7 01       	movw	r30, r14
    5d84:	10 82       	st	Z, r1
						break;
					case USB_INT_SOFI:
						UDIEN  |= (1 << SOFE);
						break;
					case USB_INT_RXSTPI:
						UEIENX |= (1 << RXSTPE);
    5d86:	88 81       	ld	r24, Y
    5d88:	88 60       	ori	r24, 0x08	; 8
    5d8a:	88 83       	st	Y, r24
    5d8c:	c1 2f       	mov	r28, r17
    5d8e:	cf 70       	andi	r28, 0x0F	; 15
    5d90:	c0 83       	st	Z, r28

	Endpoint_SelectEndpoint(ENDPOINT_CONTROLEP);
	USB_INT_Enable(USB_INT_RXSTPI);
	Endpoint_SelectEndpoint(PrevSelectedEndpoint);
}
    5d92:	ff 91       	pop	r31
    5d94:	ef 91       	pop	r30
    5d96:	df 91       	pop	r29
    5d98:	cf 91       	pop	r28
    5d9a:	bf 91       	pop	r27
    5d9c:	af 91       	pop	r26
    5d9e:	9f 91       	pop	r25
    5da0:	8f 91       	pop	r24
    5da2:	7f 91       	pop	r23
    5da4:	6f 91       	pop	r22
    5da6:	5f 91       	pop	r21
    5da8:	4f 91       	pop	r20
    5daa:	3f 91       	pop	r19
    5dac:	2f 91       	pop	r18
    5dae:	1f 91       	pop	r17
    5db0:	ff 90       	pop	r15
    5db2:	ef 90       	pop	r14
    5db4:	0f 90       	pop	r0
    5db6:	0b be       	out	0x3b, r0	; 59
    5db8:	0f 90       	pop	r0
    5dba:	0f be       	out	0x3f, r0	; 63
    5dbc:	0f 90       	pop	r0
    5dbe:	1f 90       	pop	r1
    5dc0:	18 95       	reti

00005dc2 <USB_Device_GetStatus>:

static void USB_Device_GetStatus(void)
{
	uint8_t CurrentStatus = 0;

	switch (USB_ControlRequest.bmRequestType)
    5dc2:	80 91 79 0c 	lds	r24, 0x0C79	; 0x800c79 <USB_ControlRequest>
    5dc6:	80 38       	cpi	r24, 0x80	; 128
    5dc8:	19 f0       	breq	.+6      	; 0x5dd0 <USB_Device_GetStatus+0xe>
    5dca:	82 38       	cpi	r24, 0x82	; 130
    5dcc:	71 f0       	breq	.+28     	; 0x5dea <USB_Device_GetStatus+0x28>
    5dce:	08 95       	ret
	{
		case (REQDIR_DEVICETOHOST | REQTYPE_STANDARD | REQREC_DEVICE):
		{
			#if !defined(NO_DEVICE_SELF_POWER)
			if (USB_Device_CurrentlySelfPowered)
    5dd0:	80 91 75 0c 	lds	r24, 0x0C75	; 0x800c75 <USB_Device_CurrentlySelfPowered>
    5dd4:	81 11       	cpse	r24, r1
    5dd6:	02 c0       	rjmp	.+4      	; 0x5ddc <USB_Device_GetStatus+0x1a>
	Endpoint_ClearOUT();
}

static void USB_Device_GetStatus(void)
{
	uint8_t CurrentStatus = 0;
    5dd8:	90 e0       	ldi	r25, 0x00	; 0
    5dda:	01 c0       	rjmp	.+2      	; 0x5dde <USB_Device_GetStatus+0x1c>
	{
		case (REQDIR_DEVICETOHOST | REQTYPE_STANDARD | REQREC_DEVICE):
		{
			#if !defined(NO_DEVICE_SELF_POWER)
			if (USB_Device_CurrentlySelfPowered)
			  CurrentStatus |= FEATURE_SELFPOWERED_ENABLED;
    5ddc:	91 e0       	ldi	r25, 0x01	; 1
			#endif

			#if !defined(NO_DEVICE_REMOTE_WAKEUP)
			if (USB_Device_RemoteWakeupEnabled)
    5dde:	80 91 76 0c 	lds	r24, 0x0C76	; 0x800c76 <USB_Device_RemoteWakeupEnabled>
    5de2:	88 23       	and	r24, r24
    5de4:	81 f0       	breq	.+32     	; 0x5e06 <USB_Device_GetStatus+0x44>
			  CurrentStatus |= FEATURE_REMOTE_WAKEUP_ENABLED;
    5de6:	92 60       	ori	r25, 0x02	; 2
    5de8:	0e c0       	rjmp	.+28     	; 0x5e06 <USB_Device_GetStatus+0x44>
			break;
		}
		case (REQDIR_DEVICETOHOST | REQTYPE_STANDARD | REQREC_ENDPOINT):
		{
			#if !defined(CONTROL_ONLY_DEVICE)
			uint8_t EndpointIndex = ((uint8_t)USB_ControlRequest.wIndex & ENDPOINT_EPNUM_MASK);
    5dea:	80 91 7d 0c 	lds	r24, 0x0C7D	; 0x800c7d <USB_ControlRequest+0x4>
    5dee:	8f 70       	andi	r24, 0x0F	; 15

			if (EndpointIndex >= ENDPOINT_TOTAL_ENDPOINTS)
    5df0:	87 30       	cpi	r24, 0x07	; 7
    5df2:	b0 f4       	brcc	.+44     	; 0x5e20 <USB_Device_GetStatus+0x5e>
			 */
			static inline void Endpoint_SelectEndpoint(const uint8_t Address) ATTR_ALWAYS_INLINE;
			static inline void Endpoint_SelectEndpoint(const uint8_t Address)
			{
				#if !defined(CONTROL_ONLY_DEVICE)
					UENUM = (Address & ENDPOINT_EPNUM_MASK);
    5df4:	e9 ee       	ldi	r30, 0xE9	; 233
    5df6:	f0 e0       	ldi	r31, 0x00	; 0
    5df8:	80 83       	st	Z, r24
			 *  \return Boolean \c true if the currently selected endpoint is stalled, \c false otherwise.
			 */
			static inline bool Endpoint_IsStalled(void) ATTR_WARN_UNUSED_RESULT ATTR_ALWAYS_INLINE;
			static inline bool Endpoint_IsStalled(void)
			{
				return ((UECONX & (1 << STALLRQ)) ? true : false);
    5dfa:	90 91 eb 00 	lds	r25, 0x00EB	; 0x8000eb <__TEXT_REGION_LENGTH__+0x7e00eb>
    5dfe:	95 fb       	bst	r25, 5
    5e00:	99 27       	eor	r25, r25
    5e02:	90 f9       	bld	r25, 0
			 */
			static inline void Endpoint_SelectEndpoint(const uint8_t Address) ATTR_ALWAYS_INLINE;
			static inline void Endpoint_SelectEndpoint(const uint8_t Address)
			{
				#if !defined(CONTROL_ONLY_DEVICE)
					UENUM = (Address & ENDPOINT_EPNUM_MASK);
    5e04:	10 82       	st	Z, r1
			 *  \note This is not applicable for non CONTROL type endpoints.
			 */
			static inline void Endpoint_ClearSETUP(void) ATTR_ALWAYS_INLINE;
			static inline void Endpoint_ClearSETUP(void)
			{
				UEINTX &= ~(1 << RXSTPI);
    5e06:	e8 ee       	ldi	r30, 0xE8	; 232
    5e08:	f0 e0       	ldi	r31, 0x00	; 0
    5e0a:	80 81       	ld	r24, Z
    5e0c:	87 7f       	andi	r24, 0xF7	; 247
    5e0e:	80 83       	st	Z, r24
			 *  \param[in] Data  Data to write to the currently selected endpoint's FIFO buffer.
			 */
			static inline void Endpoint_Write_16_LE(const uint16_t Data) ATTR_ALWAYS_INLINE;
			static inline void Endpoint_Write_16_LE(const uint16_t Data)
			{
				UEDATX = (Data & 0xFF);
    5e10:	a1 ef       	ldi	r26, 0xF1	; 241
    5e12:	b0 e0       	ldi	r27, 0x00	; 0
    5e14:	9c 93       	st	X, r25
				UEDATX = (Data >> 8);
    5e16:	1c 92       	st	X, r1
			 */
			static inline void Endpoint_ClearIN(void) ATTR_ALWAYS_INLINE;
			static inline void Endpoint_ClearIN(void)
			{
				#if !defined(CONTROL_ONLY_DEVICE)
					UEINTX &= ~((1 << TXINI) | (1 << FIFOCON));
    5e18:	80 81       	ld	r24, Z
    5e1a:	8e 77       	andi	r24, 0x7E	; 126
    5e1c:	80 83       	st	Z, r24
	Endpoint_ClearSETUP();

	Endpoint_Write_16_LE(CurrentStatus);
	Endpoint_ClearIN();

	Endpoint_ClearStatusStage();
    5e1e:	f6 cd       	rjmp	.-1044   	; 0x5a0c <Endpoint_ClearStatusStage>
    5e20:	08 95       	ret

00005e22 <USB_Device_ClearSetFeature>:
}

static void USB_Device_ClearSetFeature(void)
{
	switch (USB_ControlRequest.bmRequestType & CONTROL_REQTYPE_RECIPIENT)
    5e22:	80 91 79 0c 	lds	r24, 0x0C79	; 0x800c79 <USB_ControlRequest>
    5e26:	8f 71       	andi	r24, 0x1F	; 31
    5e28:	19 f0       	breq	.+6      	; 0x5e30 <USB_Device_ClearSetFeature+0xe>
    5e2a:	82 30       	cpi	r24, 0x02	; 2
    5e2c:	71 f0       	breq	.+28     	; 0x5e4a <USB_Device_ClearSetFeature+0x28>
    5e2e:	08 95       	ret
	{
		#if !defined(NO_DEVICE_REMOTE_WAKEUP)
		case REQREC_DEVICE:
		{
			if ((uint8_t)USB_ControlRequest.wValue == FEATURE_SEL_DeviceRemoteWakeup)
    5e30:	80 91 7b 0c 	lds	r24, 0x0C7B	; 0x800c7b <USB_ControlRequest+0x2>
    5e34:	81 30       	cpi	r24, 0x01	; 1
    5e36:	09 f0       	breq	.+2      	; 0x5e3a <USB_Device_ClearSetFeature+0x18>
    5e38:	3f c0       	rjmp	.+126    	; 0x5eb8 <USB_Device_ClearSetFeature+0x96>
			  USB_Device_RemoteWakeupEnabled = (USB_ControlRequest.bRequest == REQ_SetFeature);
    5e3a:	90 91 7a 0c 	lds	r25, 0x0C7A	; 0x800c7a <USB_ControlRequest+0x1>
    5e3e:	93 30       	cpi	r25, 0x03	; 3
    5e40:	09 f0       	breq	.+2      	; 0x5e44 <USB_Device_ClearSetFeature+0x22>
    5e42:	80 e0       	ldi	r24, 0x00	; 0
    5e44:	80 93 76 0c 	sts	0x0C76, r24	; 0x800c76 <USB_Device_RemoteWakeupEnabled>
			else
			  return;

			break;
    5e48:	2f c0       	rjmp	.+94     	; 0x5ea8 <USB_Device_ClearSetFeature+0x86>
		}
		#endif
		#if !defined(CONTROL_ONLY_DEVICE)
		case REQREC_ENDPOINT:
		{
			if ((uint8_t)USB_ControlRequest.wValue == FEATURE_SEL_EndpointHalt)
    5e4a:	80 91 7b 0c 	lds	r24, 0x0C7B	; 0x800c7b <USB_ControlRequest+0x2>
    5e4e:	81 11       	cpse	r24, r1
    5e50:	2b c0       	rjmp	.+86     	; 0x5ea8 <USB_Device_ClearSetFeature+0x86>
			{
				uint8_t EndpointIndex = ((uint8_t)USB_ControlRequest.wIndex & ENDPOINT_EPNUM_MASK);
    5e52:	80 91 7d 0c 	lds	r24, 0x0C7D	; 0x800c7d <USB_ControlRequest+0x4>
    5e56:	8f 70       	andi	r24, 0x0F	; 15

				if (EndpointIndex == ENDPOINT_CONTROLEP || EndpointIndex >= ENDPOINT_TOTAL_ENDPOINTS)
    5e58:	9f ef       	ldi	r25, 0xFF	; 255
    5e5a:	98 0f       	add	r25, r24
    5e5c:	96 30       	cpi	r25, 0x06	; 6
    5e5e:	60 f5       	brcc	.+88     	; 0x5eb8 <USB_Device_ClearSetFeature+0x96>
			 */
			static inline void Endpoint_SelectEndpoint(const uint8_t Address) ATTR_ALWAYS_INLINE;
			static inline void Endpoint_SelectEndpoint(const uint8_t Address)
			{
				#if !defined(CONTROL_ONLY_DEVICE)
					UENUM = (Address & ENDPOINT_EPNUM_MASK);
    5e60:	80 93 e9 00 	sts	0x00E9, r24	; 0x8000e9 <__TEXT_REGION_LENGTH__+0x7e00e9>
			 * \return Boolean \c true if the currently selected endpoint is enabled, \c false otherwise.
			 */
			static inline bool Endpoint_IsEnabled(void) ATTR_WARN_UNUSED_RESULT ATTR_ALWAYS_INLINE;
			static inline bool Endpoint_IsEnabled(void)
			{
				return ((UECONX & (1 << EPEN)) ? true : false);
    5e64:	90 91 eb 00 	lds	r25, 0x00EB	; 0x8000eb <__TEXT_REGION_LENGTH__+0x7e00eb>
				  return;

				Endpoint_SelectEndpoint(EndpointIndex);

				if (Endpoint_IsEnabled())
    5e68:	90 ff       	sbrs	r25, 0
    5e6a:	1e c0       	rjmp	.+60     	; 0x5ea8 <USB_Device_ClearSetFeature+0x86>
				{
					if (USB_ControlRequest.bRequest == REQ_SetFeature)
    5e6c:	90 91 7a 0c 	lds	r25, 0x0C7A	; 0x800c7a <USB_ControlRequest+0x1>
    5e70:	93 30       	cpi	r25, 0x03	; 3
    5e72:	31 f4       	brne	.+12     	; 0x5e80 <USB_Device_ClearSetFeature+0x5e>
			 *  \ingroup Group_EndpointPacketManagement_AVR8
			 */
			static inline void Endpoint_StallTransaction(void) ATTR_ALWAYS_INLINE;
			static inline void Endpoint_StallTransaction(void)
			{
				UECONX |= (1 << STALLRQ);
    5e74:	eb ee       	ldi	r30, 0xEB	; 235
    5e76:	f0 e0       	ldi	r31, 0x00	; 0
    5e78:	80 81       	ld	r24, Z
    5e7a:	80 62       	ori	r24, 0x20	; 32
    5e7c:	80 83       	st	Z, r24
    5e7e:	14 c0       	rjmp	.+40     	; 0x5ea8 <USB_Device_ClearSetFeature+0x86>
			 *  \ingroup Group_EndpointPacketManagement_AVR8
			 */
			static inline void Endpoint_ClearStall(void) ATTR_ALWAYS_INLINE;
			static inline void Endpoint_ClearStall(void)
			{
				UECONX |= (1 << STALLRQC);
    5e80:	eb ee       	ldi	r30, 0xEB	; 235
    5e82:	f0 e0       	ldi	r31, 0x00	; 0
    5e84:	90 81       	ld	r25, Z
    5e86:	90 61       	ori	r25, 0x10	; 16
    5e88:	90 83       	st	Z, r25
			 *  \param[in] Address  Endpoint address whose FIFO buffers are to be reset.
			 */
			static inline void Endpoint_ResetEndpoint(const uint8_t Address) ATTR_ALWAYS_INLINE;
			static inline void Endpoint_ResetEndpoint(const uint8_t Address)
			{
				UERST = (1 << (Address & ENDPOINT_EPNUM_MASK));
    5e8a:	21 e0       	ldi	r18, 0x01	; 1
    5e8c:	30 e0       	ldi	r19, 0x00	; 0
    5e8e:	a9 01       	movw	r20, r18
    5e90:	02 c0       	rjmp	.+4      	; 0x5e96 <USB_Device_ClearSetFeature+0x74>
    5e92:	44 0f       	add	r20, r20
    5e94:	55 1f       	adc	r21, r21
    5e96:	8a 95       	dec	r24
    5e98:	e2 f7       	brpl	.-8      	; 0x5e92 <USB_Device_ClearSetFeature+0x70>
    5e9a:	aa ee       	ldi	r26, 0xEA	; 234
    5e9c:	b0 e0       	ldi	r27, 0x00	; 0
    5e9e:	4c 93       	st	X, r20
				UERST = 0;
    5ea0:	1c 92       	st	X, r1

			/** Resets the data toggle of the currently selected endpoint. */
			static inline void Endpoint_ResetDataToggle(void) ATTR_ALWAYS_INLINE;
			static inline void Endpoint_ResetDataToggle(void)
			{
				UECONX |= (1 << RSTDT);
    5ea2:	80 81       	ld	r24, Z
    5ea4:	88 60       	ori	r24, 0x08	; 8
    5ea6:	80 83       	st	Z, r24
			 */
			static inline void Endpoint_SelectEndpoint(const uint8_t Address) ATTR_ALWAYS_INLINE;
			static inline void Endpoint_SelectEndpoint(const uint8_t Address)
			{
				#if !defined(CONTROL_ONLY_DEVICE)
					UENUM = (Address & ENDPOINT_EPNUM_MASK);
    5ea8:	10 92 e9 00 	sts	0x00E9, r1	; 0x8000e9 <__TEXT_REGION_LENGTH__+0x7e00e9>
			 *  \note This is not applicable for non CONTROL type endpoints.
			 */
			static inline void Endpoint_ClearSETUP(void) ATTR_ALWAYS_INLINE;
			static inline void Endpoint_ClearSETUP(void)
			{
				UEINTX &= ~(1 << RXSTPI);
    5eac:	e8 ee       	ldi	r30, 0xE8	; 232
    5eae:	f0 e0       	ldi	r31, 0x00	; 0
    5eb0:	80 81       	ld	r24, Z
    5eb2:	87 7f       	andi	r24, 0xF7	; 247
    5eb4:	80 83       	st	Z, r24

	Endpoint_SelectEndpoint(ENDPOINT_CONTROLEP);

	Endpoint_ClearSETUP();

	Endpoint_ClearStatusStage();
    5eb6:	aa cd       	rjmp	.-1196   	; 0x5a0c <Endpoint_ClearStatusStage>
    5eb8:	08 95       	ret

00005eba <USB_Device_SetAddress>:
		Endpoint_StallTransaction();
	}
}

static void USB_Device_SetAddress(void)
{
    5eba:	cf 93       	push	r28
	uint8_t DeviceAddress = (USB_ControlRequest.wValue & 0x7F);
    5ebc:	c0 91 7b 0c 	lds	r28, 0x0C7B	; 0x800c7b <USB_ControlRequest+0x2>
    5ec0:	cf 77       	andi	r28, 0x7F	; 127
			#endif

			static inline void USB_Device_SetDeviceAddress(const uint8_t Address) ATTR_ALWAYS_INLINE;
			static inline void USB_Device_SetDeviceAddress(const uint8_t Address)
			{
				UDADDR = (UDADDR & (1 << ADDEN)) | (Address & 0x7F);
    5ec2:	e3 ee       	ldi	r30, 0xE3	; 227
    5ec4:	f0 e0       	ldi	r31, 0x00	; 0
    5ec6:	80 81       	ld	r24, Z
    5ec8:	80 78       	andi	r24, 0x80	; 128
    5eca:	8c 2b       	or	r24, r28
    5ecc:	80 83       	st	Z, r24
    5ece:	e8 ee       	ldi	r30, 0xE8	; 232
    5ed0:	f0 e0       	ldi	r31, 0x00	; 0
    5ed2:	80 81       	ld	r24, Z
    5ed4:	87 7f       	andi	r24, 0xF7	; 247
    5ed6:	80 83       	st	Z, r24

	USB_Device_SetDeviceAddress(DeviceAddress);

	Endpoint_ClearSETUP();

	Endpoint_ClearStatusStage();
    5ed8:	99 dd       	rcall	.-1230   	; 0x5a0c <Endpoint_ClearStatusStage>
			 *  \return Boolean \c true if the current endpoint is ready for an IN packet, \c false otherwise.
			 */
			static inline bool Endpoint_IsINReady(void) ATTR_WARN_UNUSED_RESULT ATTR_ALWAYS_INLINE;
			static inline bool Endpoint_IsINReady(void)
			{
				return ((UEINTX & (1 << TXINI)) ? true : false);
    5eda:	80 91 e8 00 	lds	r24, 0x00E8	; 0x8000e8 <__TEXT_REGION_LENGTH__+0x7e00e8>

	while (!(Endpoint_IsINReady()));
    5ede:	80 ff       	sbrs	r24, 0
    5ee0:	fc cf       	rjmp	.-8      	; 0x5eda <USB_Device_SetAddress+0x20>
			static inline void USB_Device_EnableDeviceAddress(const uint8_t Address) ATTR_ALWAYS_INLINE;
			static inline void USB_Device_EnableDeviceAddress(const uint8_t Address)
			{
				(void)Address;

				UDADDR |= (1 << ADDEN);
    5ee2:	e3 ee       	ldi	r30, 0xE3	; 227
    5ee4:	f0 e0       	ldi	r31, 0x00	; 0
    5ee6:	80 81       	ld	r24, Z
    5ee8:	80 68       	ori	r24, 0x80	; 128
    5eea:	80 83       	st	Z, r24

	USB_Device_EnableDeviceAddress(DeviceAddress);

	USB_DeviceState = (DeviceAddress) ? DEVICE_STATE_Addressed : DEVICE_STATE_Default;
    5eec:	cc 23       	and	r28, r28
    5eee:	11 f0       	breq	.+4      	; 0x5ef4 <USB_Device_SetAddress+0x3a>
    5ef0:	83 e0       	ldi	r24, 0x03	; 3
    5ef2:	01 c0       	rjmp	.+2      	; 0x5ef6 <USB_Device_SetAddress+0x3c>
    5ef4:	82 e0       	ldi	r24, 0x02	; 2
    5ef6:	80 93 78 0c 	sts	0x0C78, r24	; 0x800c78 <USB_DeviceState>
}
    5efa:	cf 91       	pop	r28
    5efc:	08 95       	ret

00005efe <USB_Device_GetConfiguration>:
			 *  \note This is not applicable for non CONTROL type endpoints.
			 */
			static inline void Endpoint_ClearSETUP(void) ATTR_ALWAYS_INLINE;
			static inline void Endpoint_ClearSETUP(void)
			{
				UEINTX &= ~(1 << RXSTPI);
    5efe:	e8 ee       	ldi	r30, 0xE8	; 232
    5f00:	f0 e0       	ldi	r31, 0x00	; 0
    5f02:	80 81       	ld	r24, Z
    5f04:	87 7f       	andi	r24, 0xF7	; 247
    5f06:	80 83       	st	Z, r24

static void USB_Device_GetConfiguration(void)
{
	Endpoint_ClearSETUP();

	Endpoint_Write_8(USB_Device_ConfigurationNumber);
    5f08:	80 91 74 0c 	lds	r24, 0x0C74	; 0x800c74 <USB_Device_ConfigurationNumber>
			 *  \param[in] Data  Data to write into the the currently selected endpoint's FIFO buffer.
			 */
			static inline void Endpoint_Write_8(const uint8_t Data) ATTR_ALWAYS_INLINE;
			static inline void Endpoint_Write_8(const uint8_t Data)
			{
				UEDATX = Data;
    5f0c:	80 93 f1 00 	sts	0x00F1, r24	; 0x8000f1 <__TEXT_REGION_LENGTH__+0x7e00f1>
			 */
			static inline void Endpoint_ClearIN(void) ATTR_ALWAYS_INLINE;
			static inline void Endpoint_ClearIN(void)
			{
				#if !defined(CONTROL_ONLY_DEVICE)
					UEINTX &= ~((1 << TXINI) | (1 << FIFOCON));
    5f10:	80 81       	ld	r24, Z
    5f12:	8e 77       	andi	r24, 0x7E	; 126
    5f14:	80 83       	st	Z, r24
	Endpoint_ClearIN();

	Endpoint_ClearStatusStage();
    5f16:	7a cd       	rjmp	.-1292   	; 0x5a0c <Endpoint_ClearStatusStage>
    5f18:	08 95       	ret

00005f1a <USB_Device_GetInternalSerialDescriptor>:

extern void(*LUFA_DREG_HOOK_INTERNAL_SERIAL)(uint16_t* serial_str, size_t nr_elements);

#if !defined(NO_INTERNAL_SERIAL) && (USE_INTERNAL_SERIAL != NO_DESCRIPTOR)
static void USB_Device_GetInternalSerialDescriptor(void)
{
    5f1a:	0f 93       	push	r16
    5f1c:	1f 93       	push	r17
    5f1e:	cf 93       	push	r28
    5f20:	df 93       	push	r29
    5f22:	cd b7       	in	r28, 0x3d	; 61
    5f24:	de b7       	in	r29, 0x3e	; 62
    5f26:	aa 97       	sbiw	r28, 0x2a	; 42
    5f28:	0f b6       	in	r0, 0x3f	; 63
    5f2a:	f8 94       	cli
    5f2c:	de bf       	out	0x3e, r29	; 62
    5f2e:	0f be       	out	0x3f, r0	; 63
    5f30:	cd bf       	out	0x3d, r28	; 61
    {
        USB_Descriptor_Header_t Header;
        uint16_t                UnicodeString[INTERNAL_SERIAL_LENGTH_BITS / 4];
    } SignatureDescriptor;

    SignatureDescriptor.Header.Type = DTYPE_String;
    5f32:	83 e0       	ldi	r24, 0x03	; 3
    5f34:	8a 83       	std	Y+2, r24	; 0x02
    SignatureDescriptor.Header.Size = USB_STRING_LEN(INTERNAL_SERIAL_LENGTH_BITS / 4);
    5f36:	8a e2       	ldi	r24, 0x2A	; 42
    5f38:	89 83       	std	Y+1, r24	; 0x01
			static inline uint_reg_t GetGlobalInterruptMask(void)
			{
				GCC_MEMORY_BARRIER();

				#if (ARCH == ARCH_AVR8)
				return SREG;
    5f3a:	3f b7       	in	r19, 0x3f	; 63
			static inline void GlobalInterruptDisable(void)
			{
				GCC_MEMORY_BARRIER();

				#if (ARCH == ARCH_AVR8)
				cli();
    5f3c:	f8 94       	cli
				uint_reg_t CurrentGlobalInt = GetGlobalInterruptMask();
				GlobalInterruptDisable();

				uint8_t SigReadAddress = INTERNAL_SERIAL_START_ADDRESS;

				for (uint8_t SerialCharNum = 0; SerialCharNum < (INTERNAL_SERIAL_LENGTH_BITS / 4); SerialCharNum++)
    5f3e:	90 e0       	ldi	r25, 0x00	; 0
			static inline void USB_Device_GetSerialString(uint16_t* const UnicodeString)
			{
				uint_reg_t CurrentGlobalInt = GetGlobalInterruptMask();
				GlobalInterruptDisable();

				uint8_t SigReadAddress = INTERNAL_SERIAL_START_ADDRESS;
    5f40:	2e e0       	ldi	r18, 0x0E	; 14
    5f42:	20 c0       	rjmp	.+64     	; 0x5f84 <USB_Device_GetInternalSerialDescriptor+0x6a>

				for (uint8_t SerialCharNum = 0; SerialCharNum < (INTERNAL_SERIAL_LENGTH_BITS / 4); SerialCharNum++)
				{
					uint8_t SerialByte = boot_signature_byte_get(SigReadAddress);
    5f44:	e2 2f       	mov	r30, r18
    5f46:	f0 e0       	ldi	r31, 0x00	; 0
    5f48:	81 e2       	ldi	r24, 0x21	; 33
    5f4a:	80 93 57 00 	sts	0x0057, r24	; 0x800057 <__TEXT_REGION_LENGTH__+0x7e0057>
    5f4e:	e4 91       	lpm	r30, Z

					if (SerialCharNum & 0x01)
    5f50:	90 ff       	sbrs	r25, 0
    5f52:	03 c0       	rjmp	.+6      	; 0x5f5a <USB_Device_GetInternalSerialDescriptor+0x40>
					{
						SerialByte >>= 4;
    5f54:	e2 95       	swap	r30
    5f56:	ef 70       	andi	r30, 0x0F	; 15
						SigReadAddress++;
    5f58:	2f 5f       	subi	r18, 0xFF	; 255
					}

					SerialByte &= 0x0F;
    5f5a:	ef 70       	andi	r30, 0x0F	; 15

					UnicodeString[SerialCharNum] = cpu_to_le16((SerialByte >= 10) ?
    5f5c:	a9 2f       	mov	r26, r25
    5f5e:	b0 e0       	ldi	r27, 0x00	; 0
    5f60:	aa 0f       	add	r26, r26
    5f62:	bb 1f       	adc	r27, r27
    5f64:	43 e0       	ldi	r20, 0x03	; 3
    5f66:	50 e0       	ldi	r21, 0x00	; 0
    5f68:	4c 0f       	add	r20, r28
    5f6a:	5d 1f       	adc	r21, r29
    5f6c:	a4 0f       	add	r26, r20
    5f6e:	b5 1f       	adc	r27, r21
    5f70:	ea 30       	cpi	r30, 0x0A	; 10
    5f72:	18 f0       	brcs	.+6      	; 0x5f7a <USB_Device_GetInternalSerialDescriptor+0x60>
    5f74:	f0 e0       	ldi	r31, 0x00	; 0
    5f76:	f7 96       	adiw	r30, 0x37	; 55
    5f78:	02 c0       	rjmp	.+4      	; 0x5f7e <USB_Device_GetInternalSerialDescriptor+0x64>
    5f7a:	f0 e0       	ldi	r31, 0x00	; 0
    5f7c:	f0 96       	adiw	r30, 0x30	; 48
    5f7e:	ed 93       	st	X+, r30
    5f80:	fc 93       	st	X, r31
				uint_reg_t CurrentGlobalInt = GetGlobalInterruptMask();
				GlobalInterruptDisable();

				uint8_t SigReadAddress = INTERNAL_SERIAL_START_ADDRESS;

				for (uint8_t SerialCharNum = 0; SerialCharNum < (INTERNAL_SERIAL_LENGTH_BITS / 4); SerialCharNum++)
    5f82:	9f 5f       	subi	r25, 0xFF	; 255
    5f84:	94 31       	cpi	r25, 0x14	; 20
    5f86:	f0 f2       	brcs	.-68     	; 0x5f44 <USB_Device_GetInternalSerialDescriptor+0x2a>
			static inline void SetGlobalInterruptMask(const uint_reg_t GlobalIntState)
			{
				GCC_MEMORY_BARRIER();

				#if (ARCH == ARCH_AVR8)
				SREG = GlobalIntState;
    5f88:	3f bf       	out	0x3f, r19	; 63

    USB_Device_GetSerialString(SignatureDescriptor.UnicodeString);

    if (NULL != LUFA_DREG_HOOK_INTERNAL_SERIAL)
    5f8a:	e0 91 2d 01 	lds	r30, 0x012D	; 0x80012d <LUFA_DREG_HOOK_INTERNAL_SERIAL>
    5f8e:	f0 91 2e 01 	lds	r31, 0x012E	; 0x80012e <LUFA_DREG_HOOK_INTERNAL_SERIAL+0x1>
    5f92:	30 97       	sbiw	r30, 0x00	; 0
    5f94:	29 f0       	breq	.+10     	; 0x5fa0 <USB_Device_GetInternalSerialDescriptor+0x86>
    {
        LUFA_DREG_HOOK_INTERNAL_SERIAL(SignatureDescriptor.UnicodeString, INTERNAL_SERIAL_LENGTH_BITS / 4);
    5f96:	64 e1       	ldi	r22, 0x14	; 20
    5f98:	70 e0       	ldi	r23, 0x00	; 0
    5f9a:	ce 01       	movw	r24, r28
    5f9c:	03 96       	adiw	r24, 0x03	; 3
    5f9e:	09 95       	icall
			 *  \note This is not applicable for non CONTROL type endpoints.
			 */
			static inline void Endpoint_ClearSETUP(void) ATTR_ALWAYS_INLINE;
			static inline void Endpoint_ClearSETUP(void)
			{
				UEINTX &= ~(1 << RXSTPI);
    5fa0:	08 ee       	ldi	r16, 0xE8	; 232
    5fa2:	10 e0       	ldi	r17, 0x00	; 0
    5fa4:	f8 01       	movw	r30, r16
    5fa6:	80 81       	ld	r24, Z
    5fa8:	87 7f       	andi	r24, 0xF7	; 247
    5faa:	80 83       	st	Z, r24
    }
    
    Endpoint_ClearSETUP();

    Endpoint_Write_Control_Stream_LE(&SignatureDescriptor, sizeof(SignatureDescriptor));
    5fac:	6a e2       	ldi	r22, 0x2A	; 42
    5fae:	70 e0       	ldi	r23, 0x00	; 0
    5fb0:	ce 01       	movw	r24, r28
    5fb2:	01 96       	adiw	r24, 0x01	; 1
    5fb4:	02 dc       	rcall	.-2044   	; 0x57ba <Endpoint_Write_Control_Stream_LE>
			 */
			static inline void Endpoint_ClearOUT(void) ATTR_ALWAYS_INLINE;
			static inline void Endpoint_ClearOUT(void)
			{
				#if !defined(CONTROL_ONLY_DEVICE)
					UEINTX &= ~((1 << RXOUTI) | (1 << FIFOCON));
    5fb6:	f8 01       	movw	r30, r16
    5fb8:	80 81       	ld	r24, Z
    5fba:	8b 77       	andi	r24, 0x7B	; 123
    5fbc:	80 83       	st	Z, r24
    Endpoint_ClearOUT();
}
    5fbe:	aa 96       	adiw	r28, 0x2a	; 42
    5fc0:	0f b6       	in	r0, 0x3f	; 63
    5fc2:	f8 94       	cli
    5fc4:	de bf       	out	0x3e, r29	; 62
    5fc6:	0f be       	out	0x3f, r0	; 63
    5fc8:	cd bf       	out	0x3d, r28	; 61
    5fca:	df 91       	pop	r29
    5fcc:	cf 91       	pop	r28
    5fce:	1f 91       	pop	r17
    5fd0:	0f 91       	pop	r16
    5fd2:	08 95       	ret

00005fd4 <USB_Device_GetDescriptor>:
#endif

static void USB_Device_GetDescriptor(void)
{
    5fd4:	0f 93       	push	r16
    5fd6:	1f 93       	push	r17
    5fd8:	cf 93       	push	r28
    5fda:	df 93       	push	r29
    5fdc:	00 d0       	rcall	.+0      	; 0x5fde <USB_Device_GetDescriptor+0xa>
    5fde:	cd b7       	in	r28, 0x3d	; 61
    5fe0:	de b7       	in	r29, 0x3e	; 62
	    !(defined(USE_FLASH_DESCRIPTORS) || defined(USE_EEPROM_DESCRIPTORS) || defined(USE_RAM_DESCRIPTORS))
	uint8_t DescriptorAddressSpace;
	#endif

	#if !defined(NO_INTERNAL_SERIAL) && (USE_INTERNAL_SERIAL != NO_DESCRIPTOR)
	if (USB_ControlRequest.wValue == ((DTYPE_String << 8) | USE_INTERNAL_SERIAL))
    5fe2:	80 91 7b 0c 	lds	r24, 0x0C7B	; 0x800c7b <USB_ControlRequest+0x2>
    5fe6:	90 91 7c 0c 	lds	r25, 0x0C7C	; 0x800c7c <USB_ControlRequest+0x3>
    5fea:	8c 3d       	cpi	r24, 0xDC	; 220
    5fec:	23 e0       	ldi	r18, 0x03	; 3
    5fee:	92 07       	cpc	r25, r18
    5ff0:	11 f4       	brne	.+4      	; 0x5ff6 <USB_Device_GetDescriptor+0x22>
	{
		USB_Device_GetInternalSerialDescriptor();
    5ff2:	93 df       	rcall	.-218    	; 0x5f1a <USB_Device_GetInternalSerialDescriptor>
		return;
    5ff4:	19 c0       	rjmp	.+50     	; 0x6028 <USB_Device_GetDescriptor+0x54>
	}
	#endif

	if ((DescriptorSize = CALLBACK_USB_GetDescriptor(USB_ControlRequest.wValue, USB_ControlRequest.wIndex,
    5ff6:	60 91 7d 0c 	lds	r22, 0x0C7D	; 0x800c7d <USB_ControlRequest+0x4>
    5ffa:	70 91 7e 0c 	lds	r23, 0x0C7E	; 0x800c7e <USB_ControlRequest+0x5>
    5ffe:	ae 01       	movw	r20, r28
    6000:	4f 5f       	subi	r20, 0xFF	; 255
    6002:	5f 4f       	sbci	r21, 0xFF	; 255
    6004:	0e 94 76 02 	call	0x4ec	; 0x4ec <CALLBACK_USB_GetDescriptor>
    6008:	00 97       	sbiw	r24, 0x00	; 0
    600a:	71 f0       	breq	.+28     	; 0x6028 <USB_Device_GetDescriptor+0x54>
			 *  \note This is not applicable for non CONTROL type endpoints.
			 */
			static inline void Endpoint_ClearSETUP(void) ATTR_ALWAYS_INLINE;
			static inline void Endpoint_ClearSETUP(void)
			{
				UEINTX &= ~(1 << RXSTPI);
    600c:	08 ee       	ldi	r16, 0xE8	; 232
    600e:	10 e0       	ldi	r17, 0x00	; 0
    6010:	f8 01       	movw	r30, r16
    6012:	20 81       	ld	r18, Z
    6014:	27 7f       	andi	r18, 0xF7	; 247
    6016:	20 83       	st	Z, r18
	}

	Endpoint_ClearSETUP();

	#if defined(USE_RAM_DESCRIPTORS) || !defined(ARCH_HAS_MULTI_ADDRESS_SPACE)
	Endpoint_Write_Control_Stream_LE(DescriptorPointer, DescriptorSize);
    6018:	bc 01       	movw	r22, r24
    601a:	89 81       	ldd	r24, Y+1	; 0x01
    601c:	9a 81       	ldd	r25, Y+2	; 0x02
    601e:	cd db       	rcall	.-2150   	; 0x57ba <Endpoint_Write_Control_Stream_LE>
			 */
			static inline void Endpoint_ClearOUT(void) ATTR_ALWAYS_INLINE;
			static inline void Endpoint_ClearOUT(void)
			{
				#if !defined(CONTROL_ONLY_DEVICE)
					UEINTX &= ~((1 << RXOUTI) | (1 << FIFOCON));
    6020:	f8 01       	movw	r30, r16
    6022:	80 81       	ld	r24, Z
    6024:	8b 77       	andi	r24, 0x7B	; 123
    6026:	80 83       	st	Z, r24
	else
	  Endpoint_Write_Control_Stream_LE(DescriptorPointer, DescriptorSize);
	#endif

	Endpoint_ClearOUT();
}
    6028:	0f 90       	pop	r0
    602a:	0f 90       	pop	r0
    602c:	df 91       	pop	r29
    602e:	cf 91       	pop	r28
    6030:	1f 91       	pop	r17
    6032:	0f 91       	pop	r16
    6034:	08 95       	ret

00006036 <USB_Device_SetConfiguration>:
}

static void USB_Device_SetConfiguration(void)
{
	#if defined(FIXED_NUM_CONFIGURATIONS)
	if ((uint8_t)USB_ControlRequest.wValue > FIXED_NUM_CONFIGURATIONS)
    6036:	80 91 7b 0c 	lds	r24, 0x0C7B	; 0x800c7b <USB_ControlRequest+0x2>
    603a:	90 91 7c 0c 	lds	r25, 0x0C7C	; 0x800c7c <USB_ControlRequest+0x3>
    603e:	99 27       	eor	r25, r25
    6040:	02 97       	sbiw	r24, 0x02	; 2
    6042:	ec f4       	brge	.+58     	; 0x607e <USB_Device_SetConfiguration+0x48>
			 *  \note This is not applicable for non CONTROL type endpoints.
			 */
			static inline void Endpoint_ClearSETUP(void) ATTR_ALWAYS_INLINE;
			static inline void Endpoint_ClearSETUP(void)
			{
				UEINTX &= ~(1 << RXSTPI);
    6044:	e8 ee       	ldi	r30, 0xE8	; 232
    6046:	f0 e0       	ldi	r31, 0x00	; 0
    6048:	80 81       	ld	r24, Z
    604a:	87 7f       	andi	r24, 0xF7	; 247
    604c:	80 83       	st	Z, r24
	#endif
	#endif

	Endpoint_ClearSETUP();

	USB_Device_ConfigurationNumber = (uint8_t)USB_ControlRequest.wValue;
    604e:	80 91 7b 0c 	lds	r24, 0x0C7B	; 0x800c7b <USB_ControlRequest+0x2>
    6052:	80 93 74 0c 	sts	0x0C74, r24	; 0x800c74 <USB_Device_ConfigurationNumber>

	Endpoint_ClearStatusStage();
    6056:	da dc       	rcall	.-1612   	; 0x5a0c <Endpoint_ClearStatusStage>

	if (USB_Device_ConfigurationNumber)
    6058:	80 91 74 0c 	lds	r24, 0x0C74	; 0x800c74 <USB_Device_ConfigurationNumber>
    605c:	88 23       	and	r24, r24
    605e:	21 f0       	breq	.+8      	; 0x6068 <USB_Device_SetConfiguration+0x32>
	  USB_DeviceState = DEVICE_STATE_Configured;
    6060:	84 e0       	ldi	r24, 0x04	; 4
    6062:	80 93 78 0c 	sts	0x0C78, r24	; 0x800c78 <USB_DeviceState>
    6066:	09 c0       	rjmp	.+18     	; 0x607a <USB_Device_SetConfiguration+0x44>
			}

			static inline bool USB_Device_IsAddressSet(void) ATTR_ALWAYS_INLINE ATTR_WARN_UNUSED_RESULT;
			static inline bool USB_Device_IsAddressSet(void)
			{
				return (UDADDR & (1 << ADDEN));
    6068:	80 91 e3 00 	lds	r24, 0x00E3	; 0x8000e3 <__TEXT_REGION_LENGTH__+0x7e00e3>
	else
	  USB_DeviceState = (USB_Device_IsAddressSet()) ? DEVICE_STATE_Configured : DEVICE_STATE_Powered;
    606c:	88 23       	and	r24, r24
    606e:	14 f4       	brge	.+4      	; 0x6074 <USB_Device_SetConfiguration+0x3e>
    6070:	84 e0       	ldi	r24, 0x04	; 4
    6072:	01 c0       	rjmp	.+2      	; 0x6076 <USB_Device_SetConfiguration+0x40>
    6074:	81 e0       	ldi	r24, 0x01	; 1
    6076:	80 93 78 0c 	sts	0x0C78, r24	; 0x800c78 <USB_DeviceState>

	EVENT_USB_Device_ConfigurationChanged();
    607a:	0c 94 65 19 	jmp	0x32ca	; 0x32ca <EVENT_USB_Device_ConfigurationChanged>
    607e:	08 95       	ret

00006080 <USB_Device_ProcessControlRequest>:
	USB_ControlRequest.wIndex        = Endpoint_Read_16_LE();
	USB_ControlRequest.wLength       = Endpoint_Read_16_LE();
	#else
	uint8_t* RequestHeader = (uint8_t*)&USB_ControlRequest;

	for (uint8_t RequestHeaderByte = 0; RequestHeaderByte < sizeof(USB_Request_Header_t); RequestHeaderByte++)
    6080:	80 e0       	ldi	r24, 0x00	; 0
	USB_ControlRequest.bRequest      = Endpoint_Read_8();
	USB_ControlRequest.wValue        = Endpoint_Read_16_LE();
	USB_ControlRequest.wIndex        = Endpoint_Read_16_LE();
	USB_ControlRequest.wLength       = Endpoint_Read_16_LE();
	#else
	uint8_t* RequestHeader = (uint8_t*)&USB_ControlRequest;
    6082:	e9 e7       	ldi	r30, 0x79	; 121
    6084:	fc e0       	ldi	r31, 0x0C	; 12

	for (uint8_t RequestHeaderByte = 0; RequestHeaderByte < sizeof(USB_Request_Header_t); RequestHeaderByte++)
    6086:	05 c0       	rjmp	.+10     	; 0x6092 <USB_Device_ProcessControlRequest+0x12>
			 *  \return Next byte in the currently selected endpoint's FIFO buffer.
			 */
			static inline uint8_t Endpoint_Read_8(void) ATTR_WARN_UNUSED_RESULT ATTR_ALWAYS_INLINE;
			static inline uint8_t Endpoint_Read_8(void)
			{
				return UEDATX;
    6088:	90 91 f1 00 	lds	r25, 0x00F1	; 0x8000f1 <__TEXT_REGION_LENGTH__+0x7e00f1>
	  *(RequestHeader++) = Endpoint_Read_8();
    608c:	90 83       	st	Z, r25
	USB_ControlRequest.wIndex        = Endpoint_Read_16_LE();
	USB_ControlRequest.wLength       = Endpoint_Read_16_LE();
	#else
	uint8_t* RequestHeader = (uint8_t*)&USB_ControlRequest;

	for (uint8_t RequestHeaderByte = 0; RequestHeaderByte < sizeof(USB_Request_Header_t); RequestHeaderByte++)
    608e:	8f 5f       	subi	r24, 0xFF	; 255
	  *(RequestHeader++) = Endpoint_Read_8();
    6090:	31 96       	adiw	r30, 0x01	; 1
	USB_ControlRequest.wIndex        = Endpoint_Read_16_LE();
	USB_ControlRequest.wLength       = Endpoint_Read_16_LE();
	#else
	uint8_t* RequestHeader = (uint8_t*)&USB_ControlRequest;

	for (uint8_t RequestHeaderByte = 0; RequestHeaderByte < sizeof(USB_Request_Header_t); RequestHeaderByte++)
    6092:	88 30       	cpi	r24, 0x08	; 8
    6094:	c8 f3       	brcs	.-14     	; 0x6088 <USB_Device_ProcessControlRequest+0x8>
	  *(RequestHeader++) = Endpoint_Read_8();
	#endif

	EVENT_USB_Device_ControlRequest();
    6096:	0e 94 89 19 	call	0x3312	; 0x3312 <EVENT_USB_Device_ControlRequest>
			 *  \return Boolean \c true if the selected endpoint has received a SETUP packet, \c false otherwise.
			 */
			static inline bool Endpoint_IsSETUPReceived(void) ATTR_WARN_UNUSED_RESULT ATTR_ALWAYS_INLINE;
			static inline bool Endpoint_IsSETUPReceived(void)
			{
				return ((UEINTX & (1 << RXSTPI)) ? true : false);
    609a:	80 91 e8 00 	lds	r24, 0x00E8	; 0x8000e8 <__TEXT_REGION_LENGTH__+0x7e00e8>

	if (Endpoint_IsSETUPReceived())
    609e:	83 ff       	sbrs	r24, 3
    60a0:	30 c0       	rjmp	.+96     	; 0x6102 <USB_Device_ProcessControlRequest+0x82>
	{
		uint8_t bmRequestType = USB_ControlRequest.bmRequestType;
    60a2:	e9 e7       	ldi	r30, 0x79	; 121
    60a4:	fc e0       	ldi	r31, 0x0C	; 12
    60a6:	90 81       	ld	r25, Z

		switch (USB_ControlRequest.bRequest)
    60a8:	81 81       	ldd	r24, Z+1	; 0x01
    60aa:	85 30       	cpi	r24, 0x05	; 5
    60ac:	d1 f0       	breq	.+52     	; 0x60e2 <USB_Device_ProcessControlRequest+0x62>
    60ae:	30 f4       	brcc	.+12     	; 0x60bc <USB_Device_ProcessControlRequest+0x3c>
    60b0:	81 30       	cpi	r24, 0x01	; 1
    60b2:	89 f0       	breq	.+34     	; 0x60d6 <USB_Device_ProcessControlRequest+0x56>
    60b4:	50 f0       	brcs	.+20     	; 0x60ca <USB_Device_ProcessControlRequest+0x4a>
    60b6:	83 30       	cpi	r24, 0x03	; 3
    60b8:	71 f0       	breq	.+28     	; 0x60d6 <USB_Device_ProcessControlRequest+0x56>
    60ba:	23 c0       	rjmp	.+70     	; 0x6102 <USB_Device_ProcessControlRequest+0x82>
    60bc:	88 30       	cpi	r24, 0x08	; 8
    60be:	d1 f0       	breq	.+52     	; 0x60f4 <USB_Device_ProcessControlRequest+0x74>
    60c0:	89 30       	cpi	r24, 0x09	; 9
    60c2:	e1 f0       	breq	.+56     	; 0x60fc <USB_Device_ProcessControlRequest+0x7c>
    60c4:	86 30       	cpi	r24, 0x06	; 6
    60c6:	e9 f4       	brne	.+58     	; 0x6102 <USB_Device_ProcessControlRequest+0x82>
    60c8:	10 c0       	rjmp	.+32     	; 0x60ea <USB_Device_ProcessControlRequest+0x6a>
		{
			case REQ_GetStatus:
				if ((bmRequestType == (REQDIR_DEVICETOHOST | REQTYPE_STANDARD | REQREC_DEVICE)) ||
    60ca:	90 38       	cpi	r25, 0x80	; 128
    60cc:	11 f0       	breq	.+4      	; 0x60d2 <USB_Device_ProcessControlRequest+0x52>
    60ce:	92 38       	cpi	r25, 0x82	; 130
    60d0:	c1 f4       	brne	.+48     	; 0x6102 <USB_Device_ProcessControlRequest+0x82>
					(bmRequestType == (REQDIR_DEVICETOHOST | REQTYPE_STANDARD | REQREC_ENDPOINT)))
				{
					USB_Device_GetStatus();
    60d2:	77 de       	rcall	.-786    	; 0x5dc2 <USB_Device_GetStatus>
    60d4:	16 c0       	rjmp	.+44     	; 0x6102 <USB_Device_ProcessControlRequest+0x82>
				}

				break;
			case REQ_ClearFeature:
			case REQ_SetFeature:
				if ((bmRequestType == (REQDIR_HOSTTODEVICE | REQTYPE_STANDARD | REQREC_DEVICE)) ||
    60d6:	99 23       	and	r25, r25
    60d8:	11 f0       	breq	.+4      	; 0x60de <USB_Device_ProcessControlRequest+0x5e>
    60da:	92 30       	cpi	r25, 0x02	; 2
					(bmRequestType == (REQDIR_HOSTTODEVICE | REQTYPE_STANDARD | REQREC_ENDPOINT)))
				{
					USB_Device_ClearSetFeature();
    60dc:	91 f4       	brne	.+36     	; 0x6102 <USB_Device_ProcessControlRequest+0x82>
    60de:	a1 de       	rcall	.-702    	; 0x5e22 <USB_Device_ClearSetFeature>
    60e0:	10 c0       	rjmp	.+32     	; 0x6102 <USB_Device_ProcessControlRequest+0x82>
				}

				break;
			case REQ_SetAddress:
				if (bmRequestType == (REQDIR_HOSTTODEVICE | REQTYPE_STANDARD | REQREC_DEVICE))
    60e2:	91 11       	cpse	r25, r1
				  USB_Device_SetAddress();
    60e4:	0e c0       	rjmp	.+28     	; 0x6102 <USB_Device_ProcessControlRequest+0x82>
    60e6:	e9 de       	rcall	.-558    	; 0x5eba <USB_Device_SetAddress>
    60e8:	0c c0       	rjmp	.+24     	; 0x6102 <USB_Device_ProcessControlRequest+0x82>

				break;
			case REQ_GetDescriptor:
				if ((bmRequestType == (REQDIR_DEVICETOHOST | REQTYPE_STANDARD | REQREC_DEVICE)) ||
    60ea:	90 58       	subi	r25, 0x80	; 128
    60ec:	92 30       	cpi	r25, 0x02	; 2
					(bmRequestType == (REQDIR_DEVICETOHOST | REQTYPE_STANDARD | REQREC_INTERFACE)))
				{
					USB_Device_GetDescriptor();
    60ee:	48 f4       	brcc	.+18     	; 0x6102 <USB_Device_ProcessControlRequest+0x82>
    60f0:	71 df       	rcall	.-286    	; 0x5fd4 <USB_Device_GetDescriptor>
				}

				break;
			case REQ_GetConfiguration:
				if (bmRequestType == (REQDIR_DEVICETOHOST | REQTYPE_STANDARD | REQREC_DEVICE))
    60f2:	07 c0       	rjmp	.+14     	; 0x6102 <USB_Device_ProcessControlRequest+0x82>
    60f4:	90 38       	cpi	r25, 0x80	; 128
				  USB_Device_GetConfiguration();
    60f6:	29 f4       	brne	.+10     	; 0x6102 <USB_Device_ProcessControlRequest+0x82>
    60f8:	02 df       	rcall	.-508    	; 0x5efe <USB_Device_GetConfiguration>

				break;
			case REQ_SetConfiguration:
				if (bmRequestType == (REQDIR_HOSTTODEVICE | REQTYPE_STANDARD | REQREC_DEVICE))
    60fa:	03 c0       	rjmp	.+6      	; 0x6102 <USB_Device_ProcessControlRequest+0x82>
    60fc:	91 11       	cpse	r25, r1
				  USB_Device_SetConfiguration();
    60fe:	01 c0       	rjmp	.+2      	; 0x6102 <USB_Device_ProcessControlRequest+0x82>
    6100:	9a df       	rcall	.-204    	; 0x6036 <USB_Device_SetConfiguration>
    6102:	80 91 e8 00 	lds	r24, 0x00E8	; 0x8000e8 <__TEXT_REGION_LENGTH__+0x7e00e8>
			default:
				break;
		}
	}

	if (Endpoint_IsSETUPReceived())
    6106:	83 ff       	sbrs	r24, 3
    6108:	0a c0       	rjmp	.+20     	; 0x611e <USB_Device_ProcessControlRequest+0x9e>
			 *  \note This is not applicable for non CONTROL type endpoints.
			 */
			static inline void Endpoint_ClearSETUP(void) ATTR_ALWAYS_INLINE;
			static inline void Endpoint_ClearSETUP(void)
			{
				UEINTX &= ~(1 << RXSTPI);
    610a:	e8 ee       	ldi	r30, 0xE8	; 232
    610c:	f0 e0       	ldi	r31, 0x00	; 0
    610e:	80 81       	ld	r24, Z
    6110:	87 7f       	andi	r24, 0xF7	; 247
    6112:	80 83       	st	Z, r24
			 *  \ingroup Group_EndpointPacketManagement_AVR8
			 */
			static inline void Endpoint_StallTransaction(void) ATTR_ALWAYS_INLINE;
			static inline void Endpoint_StallTransaction(void)
			{
				UECONX |= (1 << STALLRQ);
    6114:	eb ee       	ldi	r30, 0xEB	; 235
    6116:	f0 e0       	ldi	r31, 0x00	; 0
    6118:	80 81       	ld	r24, Z
    611a:	80 62       	ori	r24, 0x20	; 32
    611c:	80 83       	st	Z, r24
    611e:	08 95       	ret

00006120 <USB_Event_Stub>:
#define  __INCLUDE_FROM_EVENTS_C
#define  __INCLUDE_FROM_USB_DRIVER
#include "Events.h"

void USB_Event_Stub(void)
{
    6120:	08 95       	ret

00006122 <USB_DeviceTask>:
	#endif
}

#if defined(USB_CAN_BE_DEVICE)
static void USB_DeviceTask(void)
{
    6122:	cf 93       	push	r28
	if (USB_DeviceState == DEVICE_STATE_Unattached)
    6124:	80 91 78 0c 	lds	r24, 0x0C78	; 0x800c78 <USB_DeviceState>
    6128:	88 23       	and	r24, r24
    612a:	99 f0       	breq	.+38     	; 0x6152 <USB_DeviceTask+0x30>
			 */
			static inline uint8_t Endpoint_GetCurrentEndpoint(void) ATTR_WARN_UNUSED_RESULT ATTR_ALWAYS_INLINE;
			static inline uint8_t Endpoint_GetCurrentEndpoint(void)
			{
				#if !defined(CONTROL_ONLY_DEVICE)
					return ((UENUM & ENDPOINT_EPNUM_MASK) | Endpoint_GetEndpointDirection());
    612c:	c0 91 e9 00 	lds	r28, 0x00E9	; 0x8000e9 <__TEXT_REGION_LENGTH__+0x7e00e9>
    6130:	cf 70       	andi	r28, 0x0F	; 15
			 *  \return The currently selected endpoint's direction, as a \c ENDPOINT_DIR_* mask.
			 */
			static inline uint8_t Endpoint_GetEndpointDirection(void) ATTR_WARN_UNUSED_RESULT ATTR_ALWAYS_INLINE;
			static inline uint8_t Endpoint_GetEndpointDirection(void)
			{
				return (UECFG0X & (1 << EPDIR)) ? ENDPOINT_DIR_IN : ENDPOINT_DIR_OUT;
    6132:	80 91 ec 00 	lds	r24, 0x00EC	; 0x8000ec <__TEXT_REGION_LENGTH__+0x7e00ec>
    6136:	98 2f       	mov	r25, r24
    6138:	91 70       	andi	r25, 0x01	; 1
    613a:	80 fd       	sbrc	r24, 0
    613c:	90 e8       	ldi	r25, 0x80	; 128
			 */
			static inline uint8_t Endpoint_GetCurrentEndpoint(void) ATTR_WARN_UNUSED_RESULT ATTR_ALWAYS_INLINE;
			static inline uint8_t Endpoint_GetCurrentEndpoint(void)
			{
				#if !defined(CONTROL_ONLY_DEVICE)
					return ((UENUM & ENDPOINT_EPNUM_MASK) | Endpoint_GetEndpointDirection());
    613e:	c9 2b       	or	r28, r25
			 */
			static inline void Endpoint_SelectEndpoint(const uint8_t Address) ATTR_ALWAYS_INLINE;
			static inline void Endpoint_SelectEndpoint(const uint8_t Address)
			{
				#if !defined(CONTROL_ONLY_DEVICE)
					UENUM = (Address & ENDPOINT_EPNUM_MASK);
    6140:	10 92 e9 00 	sts	0x00E9, r1	; 0x8000e9 <__TEXT_REGION_LENGTH__+0x7e00e9>
			 *  \return Boolean \c true if the selected endpoint has received a SETUP packet, \c false otherwise.
			 */
			static inline bool Endpoint_IsSETUPReceived(void) ATTR_WARN_UNUSED_RESULT ATTR_ALWAYS_INLINE;
			static inline bool Endpoint_IsSETUPReceived(void)
			{
				return ((UEINTX & (1 << RXSTPI)) ? true : false);
    6144:	80 91 e8 00 	lds	r24, 0x00E8	; 0x8000e8 <__TEXT_REGION_LENGTH__+0x7e00e8>

	uint8_t PrevEndpoint = Endpoint_GetCurrentEndpoint();

	Endpoint_SelectEndpoint(ENDPOINT_CONTROLEP);

	if (Endpoint_IsSETUPReceived())
    6148:	83 fd       	sbrc	r24, 3
	  USB_Device_ProcessControlRequest();
    614a:	9a df       	rcall	.-204    	; 0x6080 <USB_Device_ProcessControlRequest>
			 */
			static inline void Endpoint_SelectEndpoint(const uint8_t Address) ATTR_ALWAYS_INLINE;
			static inline void Endpoint_SelectEndpoint(const uint8_t Address)
			{
				#if !defined(CONTROL_ONLY_DEVICE)
					UENUM = (Address & ENDPOINT_EPNUM_MASK);
    614c:	cf 70       	andi	r28, 0x0F	; 15
    614e:	c0 93 e9 00 	sts	0x00E9, r28	; 0x8000e9 <__TEXT_REGION_LENGTH__+0x7e00e9>

	Endpoint_SelectEndpoint(PrevEndpoint);
}
    6152:	cf 91       	pop	r28
    6154:	08 95       	ret

00006156 <USB_USBTask>:
		else if (USB_CurrentMode == USB_MODE_Host)
		  USB_HostTask();
	#elif defined(USB_CAN_BE_HOST)
		USB_HostTask();
	#elif defined(USB_CAN_BE_DEVICE)
		USB_DeviceTask();
    6156:	e5 cf       	rjmp	.-54     	; 0x6122 <USB_DeviceTask>
    6158:	08 95       	ret

0000615a <__udivmodsi4>:
    615a:	a1 e2       	ldi	r26, 0x21	; 33
    615c:	1a 2e       	mov	r1, r26
    615e:	aa 1b       	sub	r26, r26
    6160:	bb 1b       	sub	r27, r27
    6162:	fd 01       	movw	r30, r26
    6164:	0d c0       	rjmp	.+26     	; 0x6180 <__udivmodsi4_ep>

00006166 <__udivmodsi4_loop>:
    6166:	aa 1f       	adc	r26, r26
    6168:	bb 1f       	adc	r27, r27
    616a:	ee 1f       	adc	r30, r30
    616c:	ff 1f       	adc	r31, r31
    616e:	a2 17       	cp	r26, r18
    6170:	b3 07       	cpc	r27, r19
    6172:	e4 07       	cpc	r30, r20
    6174:	f5 07       	cpc	r31, r21
    6176:	20 f0       	brcs	.+8      	; 0x6180 <__udivmodsi4_ep>
    6178:	a2 1b       	sub	r26, r18
    617a:	b3 0b       	sbc	r27, r19
    617c:	e4 0b       	sbc	r30, r20
    617e:	f5 0b       	sbc	r31, r21

00006180 <__udivmodsi4_ep>:
    6180:	66 1f       	adc	r22, r22
    6182:	77 1f       	adc	r23, r23
    6184:	88 1f       	adc	r24, r24
    6186:	99 1f       	adc	r25, r25
    6188:	1a 94       	dec	r1
    618a:	69 f7       	brne	.-38     	; 0x6166 <__udivmodsi4_loop>
    618c:	60 95       	com	r22
    618e:	70 95       	com	r23
    6190:	80 95       	com	r24
    6192:	90 95       	com	r25
    6194:	9b 01       	movw	r18, r22
    6196:	ac 01       	movw	r20, r24
    6198:	bd 01       	movw	r22, r26
    619a:	cf 01       	movw	r24, r30
    619c:	08 95       	ret

0000619e <__umulhisi3>:
    619e:	a2 9f       	mul	r26, r18
    61a0:	b0 01       	movw	r22, r0
    61a2:	b3 9f       	mul	r27, r19
    61a4:	c0 01       	movw	r24, r0
    61a6:	a3 9f       	mul	r26, r19
    61a8:	70 0d       	add	r23, r0
    61aa:	81 1d       	adc	r24, r1
    61ac:	11 24       	eor	r1, r1
    61ae:	91 1d       	adc	r25, r1
    61b0:	b2 9f       	mul	r27, r18
    61b2:	70 0d       	add	r23, r0
    61b4:	81 1d       	adc	r24, r1
    61b6:	11 24       	eor	r1, r1
    61b8:	91 1d       	adc	r25, r1
    61ba:	08 95       	ret

000061bc <__muluhisi3>:
    61bc:	f0 df       	rcall	.-32     	; 0x619e <__umulhisi3>
    61be:	a5 9f       	mul	r26, r21
    61c0:	90 0d       	add	r25, r0
    61c2:	b4 9f       	mul	r27, r20
    61c4:	90 0d       	add	r25, r0
    61c6:	a4 9f       	mul	r26, r20
    61c8:	80 0d       	add	r24, r0
    61ca:	91 1d       	adc	r25, r1
    61cc:	11 24       	eor	r1, r1
    61ce:	08 95       	ret

000061d0 <isgraph>:
    61d0:	80 32       	cpi	r24, 0x20	; 32
    61d2:	09 f0       	breq	.+2      	; 0x61d6 <isprint+0x2>

000061d4 <isprint>:
    61d4:	91 11       	cpse	r25, r1
    61d6:	c1 c2       	rjmp	.+1410   	; 0x675a <__ctype_isfalse>
    61d8:	80 52       	subi	r24, 0x20	; 32
    61da:	8f 55       	subi	r24, 0x5F	; 95
    61dc:	e0 f7       	brcc	.-8      	; 0x61d6 <isprint+0x2>
    61de:	08 95       	ret

000061e0 <memcmp>:
    61e0:	fb 01       	movw	r30, r22
    61e2:	dc 01       	movw	r26, r24
    61e4:	04 c0       	rjmp	.+8      	; 0x61ee <memcmp+0xe>
    61e6:	8d 91       	ld	r24, X+
    61e8:	01 90       	ld	r0, Z+
    61ea:	80 19       	sub	r24, r0
    61ec:	21 f4       	brne	.+8      	; 0x61f6 <memcmp+0x16>
    61ee:	41 50       	subi	r20, 0x01	; 1
    61f0:	50 40       	sbci	r21, 0x00	; 0
    61f2:	c8 f7       	brcc	.-14     	; 0x61e6 <memcmp+0x6>
    61f4:	88 1b       	sub	r24, r24
    61f6:	99 0b       	sbc	r25, r25
    61f8:	08 95       	ret

000061fa <memcpy>:
    61fa:	fb 01       	movw	r30, r22
    61fc:	dc 01       	movw	r26, r24
    61fe:	02 c0       	rjmp	.+4      	; 0x6204 <memcpy+0xa>
    6200:	01 90       	ld	r0, Z+
    6202:	0d 92       	st	X+, r0
    6204:	41 50       	subi	r20, 0x01	; 1
    6206:	50 40       	sbci	r21, 0x00	; 0
    6208:	d8 f7       	brcc	.-10     	; 0x6200 <memcpy+0x6>
    620a:	08 95       	ret

0000620c <memset>:
    620c:	dc 01       	movw	r26, r24
    620e:	01 c0       	rjmp	.+2      	; 0x6212 <memset+0x6>
    6210:	6d 93       	st	X+, r22
    6212:	41 50       	subi	r20, 0x01	; 1
    6214:	50 40       	sbci	r21, 0x00	; 0
    6216:	e0 f7       	brcc	.-8      	; 0x6210 <memset+0x4>
    6218:	08 95       	ret

0000621a <strchr>:
    621a:	fc 01       	movw	r30, r24
    621c:	81 91       	ld	r24, Z+
    621e:	86 17       	cp	r24, r22
    6220:	21 f0       	breq	.+8      	; 0x622a <strchr+0x10>
    6222:	88 23       	and	r24, r24
    6224:	d9 f7       	brne	.-10     	; 0x621c <strchr+0x2>
    6226:	99 27       	eor	r25, r25
    6228:	08 95       	ret
    622a:	31 97       	sbiw	r30, 0x01	; 1
    622c:	cf 01       	movw	r24, r30
    622e:	08 95       	ret

00006230 <printf>:
    6230:	cf 93       	push	r28
    6232:	df 93       	push	r29
    6234:	cd b7       	in	r28, 0x3d	; 61
    6236:	de b7       	in	r29, 0x3e	; 62
    6238:	ae 01       	movw	r20, r28
    623a:	4b 5f       	subi	r20, 0xFB	; 251
    623c:	5f 4f       	sbci	r21, 0xFF	; 255
    623e:	fa 01       	movw	r30, r20
    6240:	61 91       	ld	r22, Z+
    6242:	71 91       	ld	r23, Z+
    6244:	af 01       	movw	r20, r30
    6246:	80 91 83 0c 	lds	r24, 0x0C83	; 0x800c83 <__iob+0x2>
    624a:	90 91 84 0c 	lds	r25, 0x0C84	; 0x800c84 <__iob+0x3>
    624e:	88 d0       	rcall	.+272    	; 0x6360 <vfprintf>
    6250:	df 91       	pop	r29
    6252:	cf 91       	pop	r28
    6254:	08 95       	ret

00006256 <printf_P>:
    6256:	0f 93       	push	r16
    6258:	1f 93       	push	r17
    625a:	cf 93       	push	r28
    625c:	df 93       	push	r29
    625e:	cd b7       	in	r28, 0x3d	; 61
    6260:	de b7       	in	r29, 0x3e	; 62
    6262:	ae 01       	movw	r20, r28
    6264:	49 5f       	subi	r20, 0xF9	; 249
    6266:	5f 4f       	sbci	r21, 0xFF	; 255
    6268:	da 01       	movw	r26, r20
    626a:	6d 91       	ld	r22, X+
    626c:	7d 91       	ld	r23, X+
    626e:	ad 01       	movw	r20, r26
    6270:	01 e8       	ldi	r16, 0x81	; 129
    6272:	1c e0       	ldi	r17, 0x0C	; 12
    6274:	f8 01       	movw	r30, r16
    6276:	82 81       	ldd	r24, Z+2	; 0x02
    6278:	93 81       	ldd	r25, Z+3	; 0x03
    627a:	dc 01       	movw	r26, r24
    627c:	13 96       	adiw	r26, 0x03	; 3
    627e:	2c 91       	ld	r18, X
    6280:	13 97       	sbiw	r26, 0x03	; 3
    6282:	28 60       	ori	r18, 0x08	; 8
    6284:	13 96       	adiw	r26, 0x03	; 3
    6286:	2c 93       	st	X, r18
    6288:	6b d0       	rcall	.+214    	; 0x6360 <vfprintf>
    628a:	d8 01       	movw	r26, r16
    628c:	12 96       	adiw	r26, 0x02	; 2
    628e:	ed 91       	ld	r30, X+
    6290:	fc 91       	ld	r31, X
    6292:	13 97       	sbiw	r26, 0x03	; 3
    6294:	23 81       	ldd	r18, Z+3	; 0x03
    6296:	27 7f       	andi	r18, 0xF7	; 247
    6298:	23 83       	std	Z+3, r18	; 0x03
    629a:	df 91       	pop	r29
    629c:	cf 91       	pop	r28
    629e:	1f 91       	pop	r17
    62a0:	0f 91       	pop	r16
    62a2:	08 95       	ret

000062a4 <puts>:
    62a4:	0f 93       	push	r16
    62a6:	1f 93       	push	r17
    62a8:	cf 93       	push	r28
    62aa:	df 93       	push	r29
    62ac:	e0 91 83 0c 	lds	r30, 0x0C83	; 0x800c83 <__iob+0x2>
    62b0:	f0 91 84 0c 	lds	r31, 0x0C84	; 0x800c84 <__iob+0x3>
    62b4:	23 81       	ldd	r18, Z+3	; 0x03
    62b6:	21 ff       	sbrs	r18, 1
    62b8:	1b c0       	rjmp	.+54     	; 0x62f0 <puts+0x4c>
    62ba:	8c 01       	movw	r16, r24
    62bc:	d0 e0       	ldi	r29, 0x00	; 0
    62be:	c0 e0       	ldi	r28, 0x00	; 0
    62c0:	f8 01       	movw	r30, r16
    62c2:	81 91       	ld	r24, Z+
    62c4:	8f 01       	movw	r16, r30
    62c6:	60 91 83 0c 	lds	r22, 0x0C83	; 0x800c83 <__iob+0x2>
    62ca:	70 91 84 0c 	lds	r23, 0x0C84	; 0x800c84 <__iob+0x3>
    62ce:	db 01       	movw	r26, r22
    62d0:	18 96       	adiw	r26, 0x08	; 8
    62d2:	ed 91       	ld	r30, X+
    62d4:	fc 91       	ld	r31, X
    62d6:	19 97       	sbiw	r26, 0x09	; 9
    62d8:	88 23       	and	r24, r24
    62da:	31 f0       	breq	.+12     	; 0x62e8 <puts+0x44>
    62dc:	09 95       	icall
    62de:	89 2b       	or	r24, r25
    62e0:	79 f3       	breq	.-34     	; 0x62c0 <puts+0x1c>
    62e2:	df ef       	ldi	r29, 0xFF	; 255
    62e4:	cf ef       	ldi	r28, 0xFF	; 255
    62e6:	ec cf       	rjmp	.-40     	; 0x62c0 <puts+0x1c>
    62e8:	8a e0       	ldi	r24, 0x0A	; 10
    62ea:	09 95       	icall
    62ec:	89 2b       	or	r24, r25
    62ee:	19 f0       	breq	.+6      	; 0x62f6 <puts+0x52>
    62f0:	8f ef       	ldi	r24, 0xFF	; 255
    62f2:	9f ef       	ldi	r25, 0xFF	; 255
    62f4:	02 c0       	rjmp	.+4      	; 0x62fa <puts+0x56>
    62f6:	8d 2f       	mov	r24, r29
    62f8:	9c 2f       	mov	r25, r28
    62fa:	df 91       	pop	r29
    62fc:	cf 91       	pop	r28
    62fe:	1f 91       	pop	r17
    6300:	0f 91       	pop	r16
    6302:	08 95       	ret

00006304 <sprintf>:
    6304:	0f 93       	push	r16
    6306:	1f 93       	push	r17
    6308:	cf 93       	push	r28
    630a:	df 93       	push	r29
    630c:	cd b7       	in	r28, 0x3d	; 61
    630e:	de b7       	in	r29, 0x3e	; 62
    6310:	2e 97       	sbiw	r28, 0x0e	; 14
    6312:	0f b6       	in	r0, 0x3f	; 63
    6314:	f8 94       	cli
    6316:	de bf       	out	0x3e, r29	; 62
    6318:	0f be       	out	0x3f, r0	; 63
    631a:	cd bf       	out	0x3d, r28	; 61
    631c:	0d 89       	ldd	r16, Y+21	; 0x15
    631e:	1e 89       	ldd	r17, Y+22	; 0x16
    6320:	86 e0       	ldi	r24, 0x06	; 6
    6322:	8c 83       	std	Y+4, r24	; 0x04
    6324:	1a 83       	std	Y+2, r17	; 0x02
    6326:	09 83       	std	Y+1, r16	; 0x01
    6328:	8f ef       	ldi	r24, 0xFF	; 255
    632a:	9f e7       	ldi	r25, 0x7F	; 127
    632c:	9e 83       	std	Y+6, r25	; 0x06
    632e:	8d 83       	std	Y+5, r24	; 0x05
    6330:	ae 01       	movw	r20, r28
    6332:	47 5e       	subi	r20, 0xE7	; 231
    6334:	5f 4f       	sbci	r21, 0xFF	; 255
    6336:	6f 89       	ldd	r22, Y+23	; 0x17
    6338:	78 8d       	ldd	r23, Y+24	; 0x18
    633a:	ce 01       	movw	r24, r28
    633c:	01 96       	adiw	r24, 0x01	; 1
    633e:	10 d0       	rcall	.+32     	; 0x6360 <vfprintf>
    6340:	ef 81       	ldd	r30, Y+7	; 0x07
    6342:	f8 85       	ldd	r31, Y+8	; 0x08
    6344:	e0 0f       	add	r30, r16
    6346:	f1 1f       	adc	r31, r17
    6348:	10 82       	st	Z, r1
    634a:	2e 96       	adiw	r28, 0x0e	; 14
    634c:	0f b6       	in	r0, 0x3f	; 63
    634e:	f8 94       	cli
    6350:	de bf       	out	0x3e, r29	; 62
    6352:	0f be       	out	0x3f, r0	; 63
    6354:	cd bf       	out	0x3d, r28	; 61
    6356:	df 91       	pop	r29
    6358:	cf 91       	pop	r28
    635a:	1f 91       	pop	r17
    635c:	0f 91       	pop	r16
    635e:	08 95       	ret

00006360 <vfprintf>:
    6360:	2f 92       	push	r2
    6362:	3f 92       	push	r3
    6364:	4f 92       	push	r4
    6366:	5f 92       	push	r5
    6368:	6f 92       	push	r6
    636a:	7f 92       	push	r7
    636c:	8f 92       	push	r8
    636e:	9f 92       	push	r9
    6370:	af 92       	push	r10
    6372:	bf 92       	push	r11
    6374:	cf 92       	push	r12
    6376:	df 92       	push	r13
    6378:	ef 92       	push	r14
    637a:	ff 92       	push	r15
    637c:	0f 93       	push	r16
    637e:	1f 93       	push	r17
    6380:	cf 93       	push	r28
    6382:	df 93       	push	r29
    6384:	cd b7       	in	r28, 0x3d	; 61
    6386:	de b7       	in	r29, 0x3e	; 62
    6388:	2b 97       	sbiw	r28, 0x0b	; 11
    638a:	0f b6       	in	r0, 0x3f	; 63
    638c:	f8 94       	cli
    638e:	de bf       	out	0x3e, r29	; 62
    6390:	0f be       	out	0x3f, r0	; 63
    6392:	cd bf       	out	0x3d, r28	; 61
    6394:	6c 01       	movw	r12, r24
    6396:	7b 01       	movw	r14, r22
    6398:	8a 01       	movw	r16, r20
    639a:	fc 01       	movw	r30, r24
    639c:	17 82       	std	Z+7, r1	; 0x07
    639e:	16 82       	std	Z+6, r1	; 0x06
    63a0:	83 81       	ldd	r24, Z+3	; 0x03
    63a2:	81 ff       	sbrs	r24, 1
    63a4:	bf c1       	rjmp	.+894    	; 0x6724 <vfprintf+0x3c4>
    63a6:	ce 01       	movw	r24, r28
    63a8:	01 96       	adiw	r24, 0x01	; 1
    63aa:	3c 01       	movw	r6, r24
    63ac:	f6 01       	movw	r30, r12
    63ae:	93 81       	ldd	r25, Z+3	; 0x03
    63b0:	f7 01       	movw	r30, r14
    63b2:	93 fd       	sbrc	r25, 3
    63b4:	85 91       	lpm	r24, Z+
    63b6:	93 ff       	sbrs	r25, 3
    63b8:	81 91       	ld	r24, Z+
    63ba:	7f 01       	movw	r14, r30
    63bc:	88 23       	and	r24, r24
    63be:	09 f4       	brne	.+2      	; 0x63c2 <vfprintf+0x62>
    63c0:	ad c1       	rjmp	.+858    	; 0x671c <vfprintf+0x3bc>
    63c2:	85 32       	cpi	r24, 0x25	; 37
    63c4:	39 f4       	brne	.+14     	; 0x63d4 <vfprintf+0x74>
    63c6:	93 fd       	sbrc	r25, 3
    63c8:	85 91       	lpm	r24, Z+
    63ca:	93 ff       	sbrs	r25, 3
    63cc:	81 91       	ld	r24, Z+
    63ce:	7f 01       	movw	r14, r30
    63d0:	85 32       	cpi	r24, 0x25	; 37
    63d2:	21 f4       	brne	.+8      	; 0x63dc <vfprintf+0x7c>
    63d4:	b6 01       	movw	r22, r12
    63d6:	90 e0       	ldi	r25, 0x00	; 0
    63d8:	d9 d1       	rcall	.+946    	; 0x678c <fputc>
    63da:	e8 cf       	rjmp	.-48     	; 0x63ac <vfprintf+0x4c>
    63dc:	91 2c       	mov	r9, r1
    63de:	21 2c       	mov	r2, r1
    63e0:	31 2c       	mov	r3, r1
    63e2:	ff e1       	ldi	r31, 0x1F	; 31
    63e4:	f3 15       	cp	r31, r3
    63e6:	d8 f0       	brcs	.+54     	; 0x641e <vfprintf+0xbe>
    63e8:	8b 32       	cpi	r24, 0x2B	; 43
    63ea:	79 f0       	breq	.+30     	; 0x640a <vfprintf+0xaa>
    63ec:	38 f4       	brcc	.+14     	; 0x63fc <vfprintf+0x9c>
    63ee:	80 32       	cpi	r24, 0x20	; 32
    63f0:	79 f0       	breq	.+30     	; 0x6410 <vfprintf+0xb0>
    63f2:	83 32       	cpi	r24, 0x23	; 35
    63f4:	a1 f4       	brne	.+40     	; 0x641e <vfprintf+0xbe>
    63f6:	23 2d       	mov	r18, r3
    63f8:	20 61       	ori	r18, 0x10	; 16
    63fa:	1d c0       	rjmp	.+58     	; 0x6436 <vfprintf+0xd6>
    63fc:	8d 32       	cpi	r24, 0x2D	; 45
    63fe:	61 f0       	breq	.+24     	; 0x6418 <vfprintf+0xb8>
    6400:	80 33       	cpi	r24, 0x30	; 48
    6402:	69 f4       	brne	.+26     	; 0x641e <vfprintf+0xbe>
    6404:	23 2d       	mov	r18, r3
    6406:	21 60       	ori	r18, 0x01	; 1
    6408:	16 c0       	rjmp	.+44     	; 0x6436 <vfprintf+0xd6>
    640a:	83 2d       	mov	r24, r3
    640c:	82 60       	ori	r24, 0x02	; 2
    640e:	38 2e       	mov	r3, r24
    6410:	e3 2d       	mov	r30, r3
    6412:	e4 60       	ori	r30, 0x04	; 4
    6414:	3e 2e       	mov	r3, r30
    6416:	2a c0       	rjmp	.+84     	; 0x646c <vfprintf+0x10c>
    6418:	f3 2d       	mov	r31, r3
    641a:	f8 60       	ori	r31, 0x08	; 8
    641c:	1d c0       	rjmp	.+58     	; 0x6458 <vfprintf+0xf8>
    641e:	37 fc       	sbrc	r3, 7
    6420:	2d c0       	rjmp	.+90     	; 0x647c <vfprintf+0x11c>
    6422:	20 ed       	ldi	r18, 0xD0	; 208
    6424:	28 0f       	add	r18, r24
    6426:	2a 30       	cpi	r18, 0x0A	; 10
    6428:	40 f0       	brcs	.+16     	; 0x643a <vfprintf+0xda>
    642a:	8e 32       	cpi	r24, 0x2E	; 46
    642c:	b9 f4       	brne	.+46     	; 0x645c <vfprintf+0xfc>
    642e:	36 fc       	sbrc	r3, 6
    6430:	75 c1       	rjmp	.+746    	; 0x671c <vfprintf+0x3bc>
    6432:	23 2d       	mov	r18, r3
    6434:	20 64       	ori	r18, 0x40	; 64
    6436:	32 2e       	mov	r3, r18
    6438:	19 c0       	rjmp	.+50     	; 0x646c <vfprintf+0x10c>
    643a:	36 fe       	sbrs	r3, 6
    643c:	06 c0       	rjmp	.+12     	; 0x644a <vfprintf+0xea>
    643e:	8a e0       	ldi	r24, 0x0A	; 10
    6440:	98 9e       	mul	r9, r24
    6442:	20 0d       	add	r18, r0
    6444:	11 24       	eor	r1, r1
    6446:	92 2e       	mov	r9, r18
    6448:	11 c0       	rjmp	.+34     	; 0x646c <vfprintf+0x10c>
    644a:	ea e0       	ldi	r30, 0x0A	; 10
    644c:	2e 9e       	mul	r2, r30
    644e:	20 0d       	add	r18, r0
    6450:	11 24       	eor	r1, r1
    6452:	22 2e       	mov	r2, r18
    6454:	f3 2d       	mov	r31, r3
    6456:	f0 62       	ori	r31, 0x20	; 32
    6458:	3f 2e       	mov	r3, r31
    645a:	08 c0       	rjmp	.+16     	; 0x646c <vfprintf+0x10c>
    645c:	8c 36       	cpi	r24, 0x6C	; 108
    645e:	21 f4       	brne	.+8      	; 0x6468 <vfprintf+0x108>
    6460:	83 2d       	mov	r24, r3
    6462:	80 68       	ori	r24, 0x80	; 128
    6464:	38 2e       	mov	r3, r24
    6466:	02 c0       	rjmp	.+4      	; 0x646c <vfprintf+0x10c>
    6468:	88 36       	cpi	r24, 0x68	; 104
    646a:	41 f4       	brne	.+16     	; 0x647c <vfprintf+0x11c>
    646c:	f7 01       	movw	r30, r14
    646e:	93 fd       	sbrc	r25, 3
    6470:	85 91       	lpm	r24, Z+
    6472:	93 ff       	sbrs	r25, 3
    6474:	81 91       	ld	r24, Z+
    6476:	7f 01       	movw	r14, r30
    6478:	81 11       	cpse	r24, r1
    647a:	b3 cf       	rjmp	.-154    	; 0x63e2 <vfprintf+0x82>
    647c:	98 2f       	mov	r25, r24
    647e:	9f 7d       	andi	r25, 0xDF	; 223
    6480:	95 54       	subi	r25, 0x45	; 69
    6482:	93 30       	cpi	r25, 0x03	; 3
    6484:	28 f4       	brcc	.+10     	; 0x6490 <vfprintf+0x130>
    6486:	0c 5f       	subi	r16, 0xFC	; 252
    6488:	1f 4f       	sbci	r17, 0xFF	; 255
    648a:	9f e3       	ldi	r25, 0x3F	; 63
    648c:	99 83       	std	Y+1, r25	; 0x01
    648e:	0d c0       	rjmp	.+26     	; 0x64aa <vfprintf+0x14a>
    6490:	83 36       	cpi	r24, 0x63	; 99
    6492:	31 f0       	breq	.+12     	; 0x64a0 <vfprintf+0x140>
    6494:	83 37       	cpi	r24, 0x73	; 115
    6496:	71 f0       	breq	.+28     	; 0x64b4 <vfprintf+0x154>
    6498:	83 35       	cpi	r24, 0x53	; 83
    649a:	09 f0       	breq	.+2      	; 0x649e <vfprintf+0x13e>
    649c:	55 c0       	rjmp	.+170    	; 0x6548 <vfprintf+0x1e8>
    649e:	20 c0       	rjmp	.+64     	; 0x64e0 <vfprintf+0x180>
    64a0:	f8 01       	movw	r30, r16
    64a2:	80 81       	ld	r24, Z
    64a4:	89 83       	std	Y+1, r24	; 0x01
    64a6:	0e 5f       	subi	r16, 0xFE	; 254
    64a8:	1f 4f       	sbci	r17, 0xFF	; 255
    64aa:	88 24       	eor	r8, r8
    64ac:	83 94       	inc	r8
    64ae:	91 2c       	mov	r9, r1
    64b0:	53 01       	movw	r10, r6
    64b2:	12 c0       	rjmp	.+36     	; 0x64d8 <vfprintf+0x178>
    64b4:	28 01       	movw	r4, r16
    64b6:	f2 e0       	ldi	r31, 0x02	; 2
    64b8:	4f 0e       	add	r4, r31
    64ba:	51 1c       	adc	r5, r1
    64bc:	f8 01       	movw	r30, r16
    64be:	a0 80       	ld	r10, Z
    64c0:	b1 80       	ldd	r11, Z+1	; 0x01
    64c2:	36 fe       	sbrs	r3, 6
    64c4:	03 c0       	rjmp	.+6      	; 0x64cc <vfprintf+0x16c>
    64c6:	69 2d       	mov	r22, r9
    64c8:	70 e0       	ldi	r23, 0x00	; 0
    64ca:	02 c0       	rjmp	.+4      	; 0x64d0 <vfprintf+0x170>
    64cc:	6f ef       	ldi	r22, 0xFF	; 255
    64ce:	7f ef       	ldi	r23, 0xFF	; 255
    64d0:	c5 01       	movw	r24, r10
    64d2:	51 d1       	rcall	.+674    	; 0x6776 <strnlen>
    64d4:	4c 01       	movw	r8, r24
    64d6:	82 01       	movw	r16, r4
    64d8:	f3 2d       	mov	r31, r3
    64da:	ff 77       	andi	r31, 0x7F	; 127
    64dc:	3f 2e       	mov	r3, r31
    64de:	15 c0       	rjmp	.+42     	; 0x650a <vfprintf+0x1aa>
    64e0:	28 01       	movw	r4, r16
    64e2:	22 e0       	ldi	r18, 0x02	; 2
    64e4:	42 0e       	add	r4, r18
    64e6:	51 1c       	adc	r5, r1
    64e8:	f8 01       	movw	r30, r16
    64ea:	a0 80       	ld	r10, Z
    64ec:	b1 80       	ldd	r11, Z+1	; 0x01
    64ee:	36 fe       	sbrs	r3, 6
    64f0:	03 c0       	rjmp	.+6      	; 0x64f8 <vfprintf+0x198>
    64f2:	69 2d       	mov	r22, r9
    64f4:	70 e0       	ldi	r23, 0x00	; 0
    64f6:	02 c0       	rjmp	.+4      	; 0x64fc <vfprintf+0x19c>
    64f8:	6f ef       	ldi	r22, 0xFF	; 255
    64fa:	7f ef       	ldi	r23, 0xFF	; 255
    64fc:	c5 01       	movw	r24, r10
    64fe:	30 d1       	rcall	.+608    	; 0x6760 <strnlen_P>
    6500:	4c 01       	movw	r8, r24
    6502:	f3 2d       	mov	r31, r3
    6504:	f0 68       	ori	r31, 0x80	; 128
    6506:	3f 2e       	mov	r3, r31
    6508:	82 01       	movw	r16, r4
    650a:	33 fc       	sbrc	r3, 3
    650c:	19 c0       	rjmp	.+50     	; 0x6540 <vfprintf+0x1e0>
    650e:	82 2d       	mov	r24, r2
    6510:	90 e0       	ldi	r25, 0x00	; 0
    6512:	88 16       	cp	r8, r24
    6514:	99 06       	cpc	r9, r25
    6516:	a0 f4       	brcc	.+40     	; 0x6540 <vfprintf+0x1e0>
    6518:	b6 01       	movw	r22, r12
    651a:	80 e2       	ldi	r24, 0x20	; 32
    651c:	90 e0       	ldi	r25, 0x00	; 0
    651e:	36 d1       	rcall	.+620    	; 0x678c <fputc>
    6520:	2a 94       	dec	r2
    6522:	f5 cf       	rjmp	.-22     	; 0x650e <vfprintf+0x1ae>
    6524:	f5 01       	movw	r30, r10
    6526:	37 fc       	sbrc	r3, 7
    6528:	85 91       	lpm	r24, Z+
    652a:	37 fe       	sbrs	r3, 7
    652c:	81 91       	ld	r24, Z+
    652e:	5f 01       	movw	r10, r30
    6530:	b6 01       	movw	r22, r12
    6532:	90 e0       	ldi	r25, 0x00	; 0
    6534:	2b d1       	rcall	.+598    	; 0x678c <fputc>
    6536:	21 10       	cpse	r2, r1
    6538:	2a 94       	dec	r2
    653a:	21 e0       	ldi	r18, 0x01	; 1
    653c:	82 1a       	sub	r8, r18
    653e:	91 08       	sbc	r9, r1
    6540:	81 14       	cp	r8, r1
    6542:	91 04       	cpc	r9, r1
    6544:	79 f7       	brne	.-34     	; 0x6524 <vfprintf+0x1c4>
    6546:	e1 c0       	rjmp	.+450    	; 0x670a <vfprintf+0x3aa>
    6548:	84 36       	cpi	r24, 0x64	; 100
    654a:	11 f0       	breq	.+4      	; 0x6550 <vfprintf+0x1f0>
    654c:	89 36       	cpi	r24, 0x69	; 105
    654e:	39 f5       	brne	.+78     	; 0x659e <vfprintf+0x23e>
    6550:	f8 01       	movw	r30, r16
    6552:	37 fe       	sbrs	r3, 7
    6554:	07 c0       	rjmp	.+14     	; 0x6564 <vfprintf+0x204>
    6556:	60 81       	ld	r22, Z
    6558:	71 81       	ldd	r23, Z+1	; 0x01
    655a:	82 81       	ldd	r24, Z+2	; 0x02
    655c:	93 81       	ldd	r25, Z+3	; 0x03
    655e:	0c 5f       	subi	r16, 0xFC	; 252
    6560:	1f 4f       	sbci	r17, 0xFF	; 255
    6562:	08 c0       	rjmp	.+16     	; 0x6574 <vfprintf+0x214>
    6564:	60 81       	ld	r22, Z
    6566:	71 81       	ldd	r23, Z+1	; 0x01
    6568:	07 2e       	mov	r0, r23
    656a:	00 0c       	add	r0, r0
    656c:	88 0b       	sbc	r24, r24
    656e:	99 0b       	sbc	r25, r25
    6570:	0e 5f       	subi	r16, 0xFE	; 254
    6572:	1f 4f       	sbci	r17, 0xFF	; 255
    6574:	f3 2d       	mov	r31, r3
    6576:	ff 76       	andi	r31, 0x6F	; 111
    6578:	3f 2e       	mov	r3, r31
    657a:	97 ff       	sbrs	r25, 7
    657c:	09 c0       	rjmp	.+18     	; 0x6590 <vfprintf+0x230>
    657e:	90 95       	com	r25
    6580:	80 95       	com	r24
    6582:	70 95       	com	r23
    6584:	61 95       	neg	r22
    6586:	7f 4f       	sbci	r23, 0xFF	; 255
    6588:	8f 4f       	sbci	r24, 0xFF	; 255
    658a:	9f 4f       	sbci	r25, 0xFF	; 255
    658c:	f0 68       	ori	r31, 0x80	; 128
    658e:	3f 2e       	mov	r3, r31
    6590:	2a e0       	ldi	r18, 0x0A	; 10
    6592:	30 e0       	ldi	r19, 0x00	; 0
    6594:	a3 01       	movw	r20, r6
    6596:	36 d1       	rcall	.+620    	; 0x6804 <__ultoa_invert>
    6598:	88 2e       	mov	r8, r24
    659a:	86 18       	sub	r8, r6
    659c:	44 c0       	rjmp	.+136    	; 0x6626 <vfprintf+0x2c6>
    659e:	85 37       	cpi	r24, 0x75	; 117
    65a0:	31 f4       	brne	.+12     	; 0x65ae <vfprintf+0x24e>
    65a2:	23 2d       	mov	r18, r3
    65a4:	2f 7e       	andi	r18, 0xEF	; 239
    65a6:	b2 2e       	mov	r11, r18
    65a8:	2a e0       	ldi	r18, 0x0A	; 10
    65aa:	30 e0       	ldi	r19, 0x00	; 0
    65ac:	25 c0       	rjmp	.+74     	; 0x65f8 <vfprintf+0x298>
    65ae:	93 2d       	mov	r25, r3
    65b0:	99 7f       	andi	r25, 0xF9	; 249
    65b2:	b9 2e       	mov	r11, r25
    65b4:	8f 36       	cpi	r24, 0x6F	; 111
    65b6:	c1 f0       	breq	.+48     	; 0x65e8 <vfprintf+0x288>
    65b8:	18 f4       	brcc	.+6      	; 0x65c0 <vfprintf+0x260>
    65ba:	88 35       	cpi	r24, 0x58	; 88
    65bc:	79 f0       	breq	.+30     	; 0x65dc <vfprintf+0x27c>
    65be:	ae c0       	rjmp	.+348    	; 0x671c <vfprintf+0x3bc>
    65c0:	80 37       	cpi	r24, 0x70	; 112
    65c2:	19 f0       	breq	.+6      	; 0x65ca <vfprintf+0x26a>
    65c4:	88 37       	cpi	r24, 0x78	; 120
    65c6:	21 f0       	breq	.+8      	; 0x65d0 <vfprintf+0x270>
    65c8:	a9 c0       	rjmp	.+338    	; 0x671c <vfprintf+0x3bc>
    65ca:	e9 2f       	mov	r30, r25
    65cc:	e0 61       	ori	r30, 0x10	; 16
    65ce:	be 2e       	mov	r11, r30
    65d0:	b4 fe       	sbrs	r11, 4
    65d2:	0d c0       	rjmp	.+26     	; 0x65ee <vfprintf+0x28e>
    65d4:	fb 2d       	mov	r31, r11
    65d6:	f4 60       	ori	r31, 0x04	; 4
    65d8:	bf 2e       	mov	r11, r31
    65da:	09 c0       	rjmp	.+18     	; 0x65ee <vfprintf+0x28e>
    65dc:	34 fe       	sbrs	r3, 4
    65de:	0a c0       	rjmp	.+20     	; 0x65f4 <vfprintf+0x294>
    65e0:	29 2f       	mov	r18, r25
    65e2:	26 60       	ori	r18, 0x06	; 6
    65e4:	b2 2e       	mov	r11, r18
    65e6:	06 c0       	rjmp	.+12     	; 0x65f4 <vfprintf+0x294>
    65e8:	28 e0       	ldi	r18, 0x08	; 8
    65ea:	30 e0       	ldi	r19, 0x00	; 0
    65ec:	05 c0       	rjmp	.+10     	; 0x65f8 <vfprintf+0x298>
    65ee:	20 e1       	ldi	r18, 0x10	; 16
    65f0:	30 e0       	ldi	r19, 0x00	; 0
    65f2:	02 c0       	rjmp	.+4      	; 0x65f8 <vfprintf+0x298>
    65f4:	20 e1       	ldi	r18, 0x10	; 16
    65f6:	32 e0       	ldi	r19, 0x02	; 2
    65f8:	f8 01       	movw	r30, r16
    65fa:	b7 fe       	sbrs	r11, 7
    65fc:	07 c0       	rjmp	.+14     	; 0x660c <vfprintf+0x2ac>
    65fe:	60 81       	ld	r22, Z
    6600:	71 81       	ldd	r23, Z+1	; 0x01
    6602:	82 81       	ldd	r24, Z+2	; 0x02
    6604:	93 81       	ldd	r25, Z+3	; 0x03
    6606:	0c 5f       	subi	r16, 0xFC	; 252
    6608:	1f 4f       	sbci	r17, 0xFF	; 255
    660a:	06 c0       	rjmp	.+12     	; 0x6618 <vfprintf+0x2b8>
    660c:	60 81       	ld	r22, Z
    660e:	71 81       	ldd	r23, Z+1	; 0x01
    6610:	80 e0       	ldi	r24, 0x00	; 0
    6612:	90 e0       	ldi	r25, 0x00	; 0
    6614:	0e 5f       	subi	r16, 0xFE	; 254
    6616:	1f 4f       	sbci	r17, 0xFF	; 255
    6618:	a3 01       	movw	r20, r6
    661a:	f4 d0       	rcall	.+488    	; 0x6804 <__ultoa_invert>
    661c:	88 2e       	mov	r8, r24
    661e:	86 18       	sub	r8, r6
    6620:	fb 2d       	mov	r31, r11
    6622:	ff 77       	andi	r31, 0x7F	; 127
    6624:	3f 2e       	mov	r3, r31
    6626:	36 fe       	sbrs	r3, 6
    6628:	0d c0       	rjmp	.+26     	; 0x6644 <vfprintf+0x2e4>
    662a:	23 2d       	mov	r18, r3
    662c:	2e 7f       	andi	r18, 0xFE	; 254
    662e:	a2 2e       	mov	r10, r18
    6630:	89 14       	cp	r8, r9
    6632:	58 f4       	brcc	.+22     	; 0x664a <vfprintf+0x2ea>
    6634:	34 fe       	sbrs	r3, 4
    6636:	0b c0       	rjmp	.+22     	; 0x664e <vfprintf+0x2ee>
    6638:	32 fc       	sbrc	r3, 2
    663a:	09 c0       	rjmp	.+18     	; 0x664e <vfprintf+0x2ee>
    663c:	83 2d       	mov	r24, r3
    663e:	8e 7e       	andi	r24, 0xEE	; 238
    6640:	a8 2e       	mov	r10, r24
    6642:	05 c0       	rjmp	.+10     	; 0x664e <vfprintf+0x2ee>
    6644:	b8 2c       	mov	r11, r8
    6646:	a3 2c       	mov	r10, r3
    6648:	03 c0       	rjmp	.+6      	; 0x6650 <vfprintf+0x2f0>
    664a:	b8 2c       	mov	r11, r8
    664c:	01 c0       	rjmp	.+2      	; 0x6650 <vfprintf+0x2f0>
    664e:	b9 2c       	mov	r11, r9
    6650:	a4 fe       	sbrs	r10, 4
    6652:	0f c0       	rjmp	.+30     	; 0x6672 <vfprintf+0x312>
    6654:	fe 01       	movw	r30, r28
    6656:	e8 0d       	add	r30, r8
    6658:	f1 1d       	adc	r31, r1
    665a:	80 81       	ld	r24, Z
    665c:	80 33       	cpi	r24, 0x30	; 48
    665e:	21 f4       	brne	.+8      	; 0x6668 <vfprintf+0x308>
    6660:	9a 2d       	mov	r25, r10
    6662:	99 7e       	andi	r25, 0xE9	; 233
    6664:	a9 2e       	mov	r10, r25
    6666:	09 c0       	rjmp	.+18     	; 0x667a <vfprintf+0x31a>
    6668:	a2 fe       	sbrs	r10, 2
    666a:	06 c0       	rjmp	.+12     	; 0x6678 <vfprintf+0x318>
    666c:	b3 94       	inc	r11
    666e:	b3 94       	inc	r11
    6670:	04 c0       	rjmp	.+8      	; 0x667a <vfprintf+0x31a>
    6672:	8a 2d       	mov	r24, r10
    6674:	86 78       	andi	r24, 0x86	; 134
    6676:	09 f0       	breq	.+2      	; 0x667a <vfprintf+0x31a>
    6678:	b3 94       	inc	r11
    667a:	a3 fc       	sbrc	r10, 3
    667c:	10 c0       	rjmp	.+32     	; 0x669e <vfprintf+0x33e>
    667e:	a0 fe       	sbrs	r10, 0
    6680:	06 c0       	rjmp	.+12     	; 0x668e <vfprintf+0x32e>
    6682:	b2 14       	cp	r11, r2
    6684:	80 f4       	brcc	.+32     	; 0x66a6 <vfprintf+0x346>
    6686:	28 0c       	add	r2, r8
    6688:	92 2c       	mov	r9, r2
    668a:	9b 18       	sub	r9, r11
    668c:	0d c0       	rjmp	.+26     	; 0x66a8 <vfprintf+0x348>
    668e:	b2 14       	cp	r11, r2
    6690:	58 f4       	brcc	.+22     	; 0x66a8 <vfprintf+0x348>
    6692:	b6 01       	movw	r22, r12
    6694:	80 e2       	ldi	r24, 0x20	; 32
    6696:	90 e0       	ldi	r25, 0x00	; 0
    6698:	79 d0       	rcall	.+242    	; 0x678c <fputc>
    669a:	b3 94       	inc	r11
    669c:	f8 cf       	rjmp	.-16     	; 0x668e <vfprintf+0x32e>
    669e:	b2 14       	cp	r11, r2
    66a0:	18 f4       	brcc	.+6      	; 0x66a8 <vfprintf+0x348>
    66a2:	2b 18       	sub	r2, r11
    66a4:	02 c0       	rjmp	.+4      	; 0x66aa <vfprintf+0x34a>
    66a6:	98 2c       	mov	r9, r8
    66a8:	21 2c       	mov	r2, r1
    66aa:	a4 fe       	sbrs	r10, 4
    66ac:	0f c0       	rjmp	.+30     	; 0x66cc <vfprintf+0x36c>
    66ae:	b6 01       	movw	r22, r12
    66b0:	80 e3       	ldi	r24, 0x30	; 48
    66b2:	90 e0       	ldi	r25, 0x00	; 0
    66b4:	6b d0       	rcall	.+214    	; 0x678c <fputc>
    66b6:	a2 fe       	sbrs	r10, 2
    66b8:	16 c0       	rjmp	.+44     	; 0x66e6 <vfprintf+0x386>
    66ba:	a1 fc       	sbrc	r10, 1
    66bc:	03 c0       	rjmp	.+6      	; 0x66c4 <vfprintf+0x364>
    66be:	88 e7       	ldi	r24, 0x78	; 120
    66c0:	90 e0       	ldi	r25, 0x00	; 0
    66c2:	02 c0       	rjmp	.+4      	; 0x66c8 <vfprintf+0x368>
    66c4:	88 e5       	ldi	r24, 0x58	; 88
    66c6:	90 e0       	ldi	r25, 0x00	; 0
    66c8:	b6 01       	movw	r22, r12
    66ca:	0c c0       	rjmp	.+24     	; 0x66e4 <vfprintf+0x384>
    66cc:	8a 2d       	mov	r24, r10
    66ce:	86 78       	andi	r24, 0x86	; 134
    66d0:	51 f0       	breq	.+20     	; 0x66e6 <vfprintf+0x386>
    66d2:	a1 fe       	sbrs	r10, 1
    66d4:	02 c0       	rjmp	.+4      	; 0x66da <vfprintf+0x37a>
    66d6:	8b e2       	ldi	r24, 0x2B	; 43
    66d8:	01 c0       	rjmp	.+2      	; 0x66dc <vfprintf+0x37c>
    66da:	80 e2       	ldi	r24, 0x20	; 32
    66dc:	a7 fc       	sbrc	r10, 7
    66de:	8d e2       	ldi	r24, 0x2D	; 45
    66e0:	b6 01       	movw	r22, r12
    66e2:	90 e0       	ldi	r25, 0x00	; 0
    66e4:	53 d0       	rcall	.+166    	; 0x678c <fputc>
    66e6:	89 14       	cp	r8, r9
    66e8:	30 f4       	brcc	.+12     	; 0x66f6 <vfprintf+0x396>
    66ea:	b6 01       	movw	r22, r12
    66ec:	80 e3       	ldi	r24, 0x30	; 48
    66ee:	90 e0       	ldi	r25, 0x00	; 0
    66f0:	4d d0       	rcall	.+154    	; 0x678c <fputc>
    66f2:	9a 94       	dec	r9
    66f4:	f8 cf       	rjmp	.-16     	; 0x66e6 <vfprintf+0x386>
    66f6:	8a 94       	dec	r8
    66f8:	f3 01       	movw	r30, r6
    66fa:	e8 0d       	add	r30, r8
    66fc:	f1 1d       	adc	r31, r1
    66fe:	80 81       	ld	r24, Z
    6700:	b6 01       	movw	r22, r12
    6702:	90 e0       	ldi	r25, 0x00	; 0
    6704:	43 d0       	rcall	.+134    	; 0x678c <fputc>
    6706:	81 10       	cpse	r8, r1
    6708:	f6 cf       	rjmp	.-20     	; 0x66f6 <vfprintf+0x396>
    670a:	22 20       	and	r2, r2
    670c:	09 f4       	brne	.+2      	; 0x6710 <vfprintf+0x3b0>
    670e:	4e ce       	rjmp	.-868    	; 0x63ac <vfprintf+0x4c>
    6710:	b6 01       	movw	r22, r12
    6712:	80 e2       	ldi	r24, 0x20	; 32
    6714:	90 e0       	ldi	r25, 0x00	; 0
    6716:	3a d0       	rcall	.+116    	; 0x678c <fputc>
    6718:	2a 94       	dec	r2
    671a:	f7 cf       	rjmp	.-18     	; 0x670a <vfprintf+0x3aa>
    671c:	f6 01       	movw	r30, r12
    671e:	86 81       	ldd	r24, Z+6	; 0x06
    6720:	97 81       	ldd	r25, Z+7	; 0x07
    6722:	02 c0       	rjmp	.+4      	; 0x6728 <vfprintf+0x3c8>
    6724:	8f ef       	ldi	r24, 0xFF	; 255
    6726:	9f ef       	ldi	r25, 0xFF	; 255
    6728:	2b 96       	adiw	r28, 0x0b	; 11
    672a:	0f b6       	in	r0, 0x3f	; 63
    672c:	f8 94       	cli
    672e:	de bf       	out	0x3e, r29	; 62
    6730:	0f be       	out	0x3f, r0	; 63
    6732:	cd bf       	out	0x3d, r28	; 61
    6734:	df 91       	pop	r29
    6736:	cf 91       	pop	r28
    6738:	1f 91       	pop	r17
    673a:	0f 91       	pop	r16
    673c:	ff 90       	pop	r15
    673e:	ef 90       	pop	r14
    6740:	df 90       	pop	r13
    6742:	cf 90       	pop	r12
    6744:	bf 90       	pop	r11
    6746:	af 90       	pop	r10
    6748:	9f 90       	pop	r9
    674a:	8f 90       	pop	r8
    674c:	7f 90       	pop	r7
    674e:	6f 90       	pop	r6
    6750:	5f 90       	pop	r5
    6752:	4f 90       	pop	r4
    6754:	3f 90       	pop	r3
    6756:	2f 90       	pop	r2
    6758:	08 95       	ret

0000675a <__ctype_isfalse>:
    675a:	99 27       	eor	r25, r25
    675c:	88 27       	eor	r24, r24

0000675e <__ctype_istrue>:
    675e:	08 95       	ret

00006760 <strnlen_P>:
    6760:	fc 01       	movw	r30, r24
    6762:	05 90       	lpm	r0, Z+
    6764:	61 50       	subi	r22, 0x01	; 1
    6766:	70 40       	sbci	r23, 0x00	; 0
    6768:	01 10       	cpse	r0, r1
    676a:	d8 f7       	brcc	.-10     	; 0x6762 <strnlen_P+0x2>
    676c:	80 95       	com	r24
    676e:	90 95       	com	r25
    6770:	8e 0f       	add	r24, r30
    6772:	9f 1f       	adc	r25, r31
    6774:	08 95       	ret

00006776 <strnlen>:
    6776:	fc 01       	movw	r30, r24
    6778:	61 50       	subi	r22, 0x01	; 1
    677a:	70 40       	sbci	r23, 0x00	; 0
    677c:	01 90       	ld	r0, Z+
    677e:	01 10       	cpse	r0, r1
    6780:	d8 f7       	brcc	.-10     	; 0x6778 <strnlen+0x2>
    6782:	80 95       	com	r24
    6784:	90 95       	com	r25
    6786:	8e 0f       	add	r24, r30
    6788:	9f 1f       	adc	r25, r31
    678a:	08 95       	ret

0000678c <fputc>:
    678c:	0f 93       	push	r16
    678e:	1f 93       	push	r17
    6790:	cf 93       	push	r28
    6792:	df 93       	push	r29
    6794:	fb 01       	movw	r30, r22
    6796:	23 81       	ldd	r18, Z+3	; 0x03
    6798:	21 fd       	sbrc	r18, 1
    679a:	03 c0       	rjmp	.+6      	; 0x67a2 <fputc+0x16>
    679c:	8f ef       	ldi	r24, 0xFF	; 255
    679e:	9f ef       	ldi	r25, 0xFF	; 255
    67a0:	2c c0       	rjmp	.+88     	; 0x67fa <fputc+0x6e>
    67a2:	22 ff       	sbrs	r18, 2
    67a4:	16 c0       	rjmp	.+44     	; 0x67d2 <fputc+0x46>
    67a6:	46 81       	ldd	r20, Z+6	; 0x06
    67a8:	57 81       	ldd	r21, Z+7	; 0x07
    67aa:	24 81       	ldd	r18, Z+4	; 0x04
    67ac:	35 81       	ldd	r19, Z+5	; 0x05
    67ae:	42 17       	cp	r20, r18
    67b0:	53 07       	cpc	r21, r19
    67b2:	44 f4       	brge	.+16     	; 0x67c4 <fputc+0x38>
    67b4:	a0 81       	ld	r26, Z
    67b6:	b1 81       	ldd	r27, Z+1	; 0x01
    67b8:	9d 01       	movw	r18, r26
    67ba:	2f 5f       	subi	r18, 0xFF	; 255
    67bc:	3f 4f       	sbci	r19, 0xFF	; 255
    67be:	31 83       	std	Z+1, r19	; 0x01
    67c0:	20 83       	st	Z, r18
    67c2:	8c 93       	st	X, r24
    67c4:	26 81       	ldd	r18, Z+6	; 0x06
    67c6:	37 81       	ldd	r19, Z+7	; 0x07
    67c8:	2f 5f       	subi	r18, 0xFF	; 255
    67ca:	3f 4f       	sbci	r19, 0xFF	; 255
    67cc:	37 83       	std	Z+7, r19	; 0x07
    67ce:	26 83       	std	Z+6, r18	; 0x06
    67d0:	14 c0       	rjmp	.+40     	; 0x67fa <fputc+0x6e>
    67d2:	8b 01       	movw	r16, r22
    67d4:	ec 01       	movw	r28, r24
    67d6:	fb 01       	movw	r30, r22
    67d8:	00 84       	ldd	r0, Z+8	; 0x08
    67da:	f1 85       	ldd	r31, Z+9	; 0x09
    67dc:	e0 2d       	mov	r30, r0
    67de:	09 95       	icall
    67e0:	89 2b       	or	r24, r25
    67e2:	e1 f6       	brne	.-72     	; 0x679c <fputc+0x10>
    67e4:	d8 01       	movw	r26, r16
    67e6:	16 96       	adiw	r26, 0x06	; 6
    67e8:	8d 91       	ld	r24, X+
    67ea:	9c 91       	ld	r25, X
    67ec:	17 97       	sbiw	r26, 0x07	; 7
    67ee:	01 96       	adiw	r24, 0x01	; 1
    67f0:	17 96       	adiw	r26, 0x07	; 7
    67f2:	9c 93       	st	X, r25
    67f4:	8e 93       	st	-X, r24
    67f6:	16 97       	sbiw	r26, 0x06	; 6
    67f8:	ce 01       	movw	r24, r28
    67fa:	df 91       	pop	r29
    67fc:	cf 91       	pop	r28
    67fe:	1f 91       	pop	r17
    6800:	0f 91       	pop	r16
    6802:	08 95       	ret

00006804 <__ultoa_invert>:
    6804:	fa 01       	movw	r30, r20
    6806:	aa 27       	eor	r26, r26
    6808:	28 30       	cpi	r18, 0x08	; 8
    680a:	51 f1       	breq	.+84     	; 0x6860 <__ultoa_invert+0x5c>
    680c:	20 31       	cpi	r18, 0x10	; 16
    680e:	81 f1       	breq	.+96     	; 0x6870 <__ultoa_invert+0x6c>
    6810:	e8 94       	clt
    6812:	6f 93       	push	r22
    6814:	6e 7f       	andi	r22, 0xFE	; 254
    6816:	6e 5f       	subi	r22, 0xFE	; 254
    6818:	7f 4f       	sbci	r23, 0xFF	; 255
    681a:	8f 4f       	sbci	r24, 0xFF	; 255
    681c:	9f 4f       	sbci	r25, 0xFF	; 255
    681e:	af 4f       	sbci	r26, 0xFF	; 255
    6820:	b1 e0       	ldi	r27, 0x01	; 1
    6822:	3e d0       	rcall	.+124    	; 0x68a0 <__ultoa_invert+0x9c>
    6824:	b4 e0       	ldi	r27, 0x04	; 4
    6826:	3c d0       	rcall	.+120    	; 0x68a0 <__ultoa_invert+0x9c>
    6828:	67 0f       	add	r22, r23
    682a:	78 1f       	adc	r23, r24
    682c:	89 1f       	adc	r24, r25
    682e:	9a 1f       	adc	r25, r26
    6830:	a1 1d       	adc	r26, r1
    6832:	68 0f       	add	r22, r24
    6834:	79 1f       	adc	r23, r25
    6836:	8a 1f       	adc	r24, r26
    6838:	91 1d       	adc	r25, r1
    683a:	a1 1d       	adc	r26, r1
    683c:	6a 0f       	add	r22, r26
    683e:	71 1d       	adc	r23, r1
    6840:	81 1d       	adc	r24, r1
    6842:	91 1d       	adc	r25, r1
    6844:	a1 1d       	adc	r26, r1
    6846:	20 d0       	rcall	.+64     	; 0x6888 <__ultoa_invert+0x84>
    6848:	09 f4       	brne	.+2      	; 0x684c <__ultoa_invert+0x48>
    684a:	68 94       	set
    684c:	3f 91       	pop	r19
    684e:	2a e0       	ldi	r18, 0x0A	; 10
    6850:	26 9f       	mul	r18, r22
    6852:	11 24       	eor	r1, r1
    6854:	30 19       	sub	r19, r0
    6856:	30 5d       	subi	r19, 0xD0	; 208
    6858:	31 93       	st	Z+, r19
    685a:	de f6       	brtc	.-74     	; 0x6812 <__ultoa_invert+0xe>
    685c:	cf 01       	movw	r24, r30
    685e:	08 95       	ret
    6860:	46 2f       	mov	r20, r22
    6862:	47 70       	andi	r20, 0x07	; 7
    6864:	40 5d       	subi	r20, 0xD0	; 208
    6866:	41 93       	st	Z+, r20
    6868:	b3 e0       	ldi	r27, 0x03	; 3
    686a:	0f d0       	rcall	.+30     	; 0x688a <__ultoa_invert+0x86>
    686c:	c9 f7       	brne	.-14     	; 0x6860 <__ultoa_invert+0x5c>
    686e:	f6 cf       	rjmp	.-20     	; 0x685c <__ultoa_invert+0x58>
    6870:	46 2f       	mov	r20, r22
    6872:	4f 70       	andi	r20, 0x0F	; 15
    6874:	40 5d       	subi	r20, 0xD0	; 208
    6876:	4a 33       	cpi	r20, 0x3A	; 58
    6878:	18 f0       	brcs	.+6      	; 0x6880 <__ultoa_invert+0x7c>
    687a:	49 5d       	subi	r20, 0xD9	; 217
    687c:	31 fd       	sbrc	r19, 1
    687e:	40 52       	subi	r20, 0x20	; 32
    6880:	41 93       	st	Z+, r20
    6882:	02 d0       	rcall	.+4      	; 0x6888 <__ultoa_invert+0x84>
    6884:	a9 f7       	brne	.-22     	; 0x6870 <__ultoa_invert+0x6c>
    6886:	ea cf       	rjmp	.-44     	; 0x685c <__ultoa_invert+0x58>
    6888:	b4 e0       	ldi	r27, 0x04	; 4
    688a:	a6 95       	lsr	r26
    688c:	97 95       	ror	r25
    688e:	87 95       	ror	r24
    6890:	77 95       	ror	r23
    6892:	67 95       	ror	r22
    6894:	ba 95       	dec	r27
    6896:	c9 f7       	brne	.-14     	; 0x688a <__ultoa_invert+0x86>
    6898:	00 97       	sbiw	r24, 0x00	; 0
    689a:	61 05       	cpc	r22, r1
    689c:	71 05       	cpc	r23, r1
    689e:	08 95       	ret
    68a0:	9b 01       	movw	r18, r22
    68a2:	ac 01       	movw	r20, r24
    68a4:	0a 2e       	mov	r0, r26
    68a6:	06 94       	lsr	r0
    68a8:	57 95       	ror	r21
    68aa:	47 95       	ror	r20
    68ac:	37 95       	ror	r19
    68ae:	27 95       	ror	r18
    68b0:	ba 95       	dec	r27
    68b2:	c9 f7       	brne	.-14     	; 0x68a6 <__ultoa_invert+0xa2>
    68b4:	62 0f       	add	r22, r18
    68b6:	73 1f       	adc	r23, r19
    68b8:	84 1f       	adc	r24, r20
    68ba:	95 1f       	adc	r25, r21
    68bc:	a0 1d       	adc	r26, r0
    68be:	08 95       	ret

000068c0 <eeprom_read_byte>:
    68c0:	f9 99       	sbic	0x1f, 1	; 31
    68c2:	fe cf       	rjmp	.-4      	; 0x68c0 <eeprom_read_byte>
    68c4:	92 bd       	out	0x22, r25	; 34
    68c6:	81 bd       	out	0x21, r24	; 33
    68c8:	f8 9a       	sbi	0x1f, 0	; 31
    68ca:	99 27       	eor	r25, r25
    68cc:	80 b5       	in	r24, 0x20	; 32
    68ce:	08 95       	ret

000068d0 <eeprom_write_byte>:
    68d0:	26 2f       	mov	r18, r22

000068d2 <eeprom_write_r18>:
    68d2:	f9 99       	sbic	0x1f, 1	; 31
    68d4:	fe cf       	rjmp	.-4      	; 0x68d2 <eeprom_write_r18>
    68d6:	1f ba       	out	0x1f, r1	; 31
    68d8:	92 bd       	out	0x22, r25	; 34
    68da:	81 bd       	out	0x21, r24	; 33
    68dc:	20 bd       	out	0x20, r18	; 32
    68de:	0f b6       	in	r0, 0x3f	; 63
    68e0:	f8 94       	cli
    68e2:	fa 9a       	sbi	0x1f, 2	; 31
    68e4:	f9 9a       	sbi	0x1f, 1	; 31
    68e6:	0f be       	out	0x3f, r0	; 63
    68e8:	01 96       	adiw	r24, 0x01	; 1
    68ea:	08 95       	ret

000068ec <_exit>:
    68ec:	f8 94       	cli

000068ee <__stop_program>:
    68ee:	ff cf       	rjmp	.-2      	; 0x68ee <__stop_program>
