
at90ethernet.elf:     file format elf32-avr

Sections:
Idx Name          Size      VMA       LMA       File off  Algn
  0 .data         0000007e  00800100  000028d6  0000296a  2**0
                  CONTENTS, ALLOC, LOAD, DATA
  1 .text         000028d6  00000000  00000000  00000094  2**1
                  CONTENTS, ALLOC, LOAD, READONLY, CODE
  2 .bss          000012e5  0080017e  0080017e  000029e8  2**0
                  ALLOC
  3 .comment      00000030  00000000  00000000  000029e8  2**0
                  CONTENTS, READONLY
  4 .note.gnu.avr.deviceinfo 00000040  00000000  00000000  00002a18  2**2
                  CONTENTS, READONLY
  5 .debug_info   00000b70  00000000  00000000  00002a58  2**0
                  CONTENTS, READONLY, DEBUGGING
  6 .debug_abbrev 00000ad2  00000000  00000000  000035c8  2**0
                  CONTENTS, READONLY, DEBUGGING
  7 .debug_line   0000017c  00000000  00000000  0000409a  2**0
                  CONTENTS, READONLY, DEBUGGING
  8 .debug_str    000003f7  00000000  00000000  00004216  2**0
                  CONTENTS, READONLY, DEBUGGING

Disassembly of section .text:

00000000 <__vectors>:
       0:	10 c2       	rjmp	.+1056   	; 0x422 <__ctors_end>
       2:	00 00       	nop
       4:	2d c2       	rjmp	.+1114   	; 0x460 <__bad_interrupt>
       6:	00 00       	nop
       8:	2b c2       	rjmp	.+1110   	; 0x460 <__bad_interrupt>
       a:	00 00       	nop
       c:	29 c2       	rjmp	.+1106   	; 0x460 <__bad_interrupt>
       e:	00 00       	nop
      10:	27 c2       	rjmp	.+1102   	; 0x460 <__bad_interrupt>
      12:	00 00       	nop
      14:	25 c2       	rjmp	.+1098   	; 0x460 <__bad_interrupt>
      16:	00 00       	nop
      18:	23 c2       	rjmp	.+1094   	; 0x460 <__bad_interrupt>
      1a:	00 00       	nop
      1c:	21 c2       	rjmp	.+1090   	; 0x460 <__bad_interrupt>
      1e:	00 00       	nop
      20:	1f c2       	rjmp	.+1086   	; 0x460 <__bad_interrupt>
      22:	00 00       	nop
      24:	1d c2       	rjmp	.+1082   	; 0x460 <__bad_interrupt>
      26:	00 00       	nop
      28:	0c 94 c4 11 	jmp	0x2388	; 0x2388 <__vector_10>
      2c:	19 c2       	rjmp	.+1074   	; 0x460 <__bad_interrupt>
      2e:	00 00       	nop
      30:	17 c2       	rjmp	.+1070   	; 0x460 <__bad_interrupt>
      32:	00 00       	nop
      34:	15 c2       	rjmp	.+1066   	; 0x460 <__bad_interrupt>
      36:	00 00       	nop
      38:	13 c2       	rjmp	.+1062   	; 0x460 <__bad_interrupt>
      3a:	00 00       	nop
      3c:	11 c2       	rjmp	.+1058   	; 0x460 <__bad_interrupt>
      3e:	00 00       	nop
      40:	0f c2       	rjmp	.+1054   	; 0x460 <__bad_interrupt>
      42:	00 00       	nop
      44:	0d c2       	rjmp	.+1050   	; 0x460 <__bad_interrupt>
      46:	00 00       	nop
      48:	0b c2       	rjmp	.+1046   	; 0x460 <__bad_interrupt>
      4a:	00 00       	nop
      4c:	09 c2       	rjmp	.+1042   	; 0x460 <__bad_interrupt>
      4e:	00 00       	nop
      50:	07 c2       	rjmp	.+1038   	; 0x460 <__bad_interrupt>
      52:	00 00       	nop
      54:	05 c2       	rjmp	.+1034   	; 0x460 <__bad_interrupt>
      56:	00 00       	nop
      58:	03 c2       	rjmp	.+1030   	; 0x460 <__bad_interrupt>
      5a:	00 00       	nop
      5c:	01 c2       	rjmp	.+1026   	; 0x460 <__bad_interrupt>
      5e:	00 00       	nop
      60:	ff c1       	rjmp	.+1022   	; 0x460 <__bad_interrupt>
      62:	00 00       	nop
      64:	fd c1       	rjmp	.+1018   	; 0x460 <__bad_interrupt>
      66:	00 00       	nop
      68:	fb c1       	rjmp	.+1014   	; 0x460 <__bad_interrupt>
      6a:	00 00       	nop
      6c:	f9 c1       	rjmp	.+1010   	; 0x460 <__bad_interrupt>
      6e:	00 00       	nop
      70:	f7 c1       	rjmp	.+1006   	; 0x460 <__bad_interrupt>
      72:	00 00       	nop
      74:	f5 c1       	rjmp	.+1002   	; 0x460 <__bad_interrupt>
      76:	00 00       	nop
      78:	f3 c1       	rjmp	.+998    	; 0x460 <__bad_interrupt>
      7a:	00 00       	nop
      7c:	f1 c1       	rjmp	.+994    	; 0x460 <__bad_interrupt>
      7e:	00 00       	nop
      80:	ef c1       	rjmp	.+990    	; 0x460 <__bad_interrupt>
      82:	00 00       	nop
      84:	ed c1       	rjmp	.+986    	; 0x460 <__bad_interrupt>
      86:	00 00       	nop
      88:	eb c1       	rjmp	.+982    	; 0x460 <__bad_interrupt>
      8a:	00 00       	nop
      8c:	e9 c1       	rjmp	.+978    	; 0x460 <__bad_interrupt>
      8e:	00 00       	nop
      90:	e7 c1       	rjmp	.+974    	; 0x460 <__bad_interrupt>
      92:	00 00       	nop
      94:	e5 c1       	rjmp	.+970    	; 0x460 <__bad_interrupt>
	...

00000098 <ProductString>:
      98:	28 03 4c 00 55 00 46 00 41 00 20 00 52 00 4e 00     (.L.U.F.A. .R.N.
      a8:	44 00 49 00 53 00 20 00 43 00 44 00 43 00 20 00     D.I.S. .C.D.C. .
      b8:	44 00 65 00 6d 00 6f 00 00 00                       D.e.m.o...

000000c2 <ManufacturerString>:
      c2:	18 03 44 00 65 00 61 00 6e 00 20 00 43 00 61 00     ..D.e.a.n. .C.a.
      d2:	6d 00 65 00 72 00 61 00 00 00                       m.e.r.a...

000000dc <LanguageString>:
      dc:	04 03 09 04                                         ....

000000e0 <ConfigurationDescriptor>:
      e0:	09 02 3e 00 02 01 00 c0 32 09 04 00 00 01 02 02     ..>.....2.......
      f0:	ff 00 05 24 00 10 01 04 24 02 00 05 24 06 00 01     ...$....$...$...
     100:	07 05 83 03 08 00 ff 09 04 01 00 02 0a 00 00 00     ................
     110:	07 05 02 02 40 00 05 07 05 81 02 40 00 05           ....@......@..

0000011e <DeviceDescriptor>:
     11e:	12 01 10 01 02 00 00 08 69 69 50 55 01 00 01 02     ........iiPU....
     12e:	00 01                                               ..

00000130 <HTTPPage>:
     130:	3c 68 74 6d 6c 3e 09 3c 68 65 61 64 3e 09 09 3c     <html>.<head>..<
     140:	74 69 74 6c 65 3e 09 09 09 4c 55 46 41 20 57 65     title>...LUFA We
     150:	62 73 65 72 76 65 72 20 44 65 6d 6f 09 09 3c 2f     bserver Demo..</
     160:	74 69 74 6c 65 3e 09 3c 2f 68 65 61 64 3e 09 3c     title>.</head>.<
     170:	62 6f 64 79 3e 09 09 3c 68 31 3e 48 65 6c 6c 6f     body>..<h1>Hello
     180:	20 66 72 6f 6d 20 79 6f 75 72 20 55 53 42 20 41      from your USB A
     190:	56 52 21 3c 2f 68 31 3e 09 09 3c 70 3e 09 09 09     VR!</h1>..<p>...
     1a0:	48 65 6c 6c 6f 21 20 57 65 6c 63 6f 6d 65 20 74     Hello! Welcome t
     1b0:	6f 20 74 68 65 20 4c 55 46 41 20 52 4e 44 49 53     o the LUFA RNDIS
     1c0:	20 44 65 6d 6f 20 57 65 62 73 65 72 76 65 72 20      Demo Webserver 
     1d0:	74 65 73 74 20 70 61 67 65 2c 20 72 75 6e 6e 69     test page, runni
     1e0:	6e 67 20 6f 6e 20 79 6f 75 72 20 55 53 42 20 41     ng on your USB A
     1f0:	56 52 20 76 69 61 20 74 68 65 20 4c 55 46 41 20     VR via the LUFA 
     200:	6c 69 62 72 61 72 79 2e 20 54 68 69 73 20 64 65     library. This de
     210:	6d 6f 6e 73 74 72 61 74 65 73 20 74 68 65 20 48     monstrates the H
     220:	54 54 50 20 77 65 62 73 65 72 76 65 72 2c 20 54     TTP webserver, T
     230:	43 50 2f 49 50 20 73 74 61 63 6b 20 61 6e 64 20     CP/IP stack and 
     240:	52 4e 44 49 53 20 64 65 6d 6f 20 61 6c 6c 20 72     RNDIS demo all r
     250:	75 6e 6e 69 6e 67 20 61 74 6f 70 20 74 68 65 20     unning atop the 
     260:	4c 55 46 41 20 55 53 42 20 73 74 61 63 6b 2e 09     LUFA USB stack..
     270:	09 09 3c 62 72 20 2f 3e 3c 62 72 20 2f 3e 09 09     ..<br /><br />..
     280:	09 3c 73 6d 61 6c 6c 3e 50 72 6f 6a 65 63 74 20     .<small>Project 
     290:	49 6e 66 6f 72 6d 61 74 69 6f 6e 3a 20 3c 61 20     Information: <a 
     2a0:	68 72 65 66 3d 22 68 74 74 70 3a 2f 2f 77 77 77     href="http://www
     2b0:	2e 6c 75 66 61 2d 6c 69 62 2e 6f 72 67 22 3e 68     .lufa-lib.org">h
     2c0:	74 74 70 3a 2f 2f 77 77 77 2e 6c 75 66 61 2d 6c     ttp://www.lufa-l
     2d0:	69 62 2e 6f 72 67 3c 2f 61 3e 2e 3c 2f 73 6d 61     ib.org</a>.</sma
     2e0:	6c 6c 3e 09 09 09 3c 68 72 20 2f 3e 09 09 09 3c     ll>...<hr />...<
     2f0:	69 3e 4c 55 46 41 20 56 65 72 73 69 6f 6e 3a 20     i>LUFA Version: 
     300:	3c 2f 69 3e 31 37 30 34 31 38 09 09 3c 2f 70 3e     </i>170418..</p>
     310:	09 3c 2f 62 6f 64 79 3e 3c 2f 68 74 6d 6c 3e 00     .</body></html>.

00000320 <HTTP404Header>:
     320:	48 54 54 50 2f 31 2e 31 20 34 30 34 20 4e 6f 74     HTTP/1.1 404 Not
     330:	20 46 6f 75 6e 64 0d 0a 53 65 72 76 65 72 3a 20      Found..Server: 
     340:	4c 55 46 41 20 52 4e 44 49 53 0d 0a 43 6f 6e 6e     LUFA RNDIS..Conn
     350:	65 63 74 69 6f 6e 3a 20 63 6c 6f 73 65 0d 0a 0d     ection: close...
     360:	0a 00                                               ..

00000362 <HTTP200Header>:
     362:	48 54 54 50 2f 31 2e 31 20 32 30 30 20 4f 4b 0d     HTTP/1.1 200 OK.
     372:	0a 53 65 72 76 65 72 3a 20 4c 55 46 41 20 52 4e     .Server: LUFA RN
     382:	44 49 53 0d 0a 43 6f 6e 74 65 6e 74 2d 74 79 70     DIS..Content-typ
     392:	65 3a 20 74 65 78 74 2f 68 74 6d 6c 0d 0a 43 6f     e: text/html..Co
     3a2:	6e 6e 65 63 74 69 6f 6e 3a 20 63 6c 6f 73 65 0d     nnection: close.
     3b2:	0a 0d 0a 00                                         ....

000003b6 <AdapterSupportedOIDList>:
     3b6:	01 01 01 00 02 02 01 00 02 01 01 00 03 01 01 00     ................
     3c6:	04 01 01 00 06 01 01 00 11 01 01 00 07 01 01 00     ................
     3d6:	0a 01 01 00 0b 01 01 00 0c 01 01 00 0d 01 01 00     ................
     3e6:	0e 01 01 00 11 01 01 00 14 01 01 00 01 01 02 00     ................
     3f6:	02 01 02 00 03 01 02 00 04 01 02 00 05 01 02 00     ................
     406:	01 01 01 01 02 01 01 01 03 01 01 01 04 01 01 01     ................
     416:	01 01 02 01 02 01 02 01 03 01 02 01                 ............

00000422 <__ctors_end>:
     422:	11 24       	eor	r1, r1
     424:	1f be       	out	0x3f, r1	; 63
     426:	cf ef       	ldi	r28, 0xFF	; 255
     428:	d0 e2       	ldi	r29, 0x20	; 32
     42a:	de bf       	out	0x3e, r29	; 62
     42c:	cd bf       	out	0x3d, r28	; 61

0000042e <__do_copy_data>:
     42e:	11 e0       	ldi	r17, 0x01	; 1
     430:	a0 e0       	ldi	r26, 0x00	; 0
     432:	b1 e0       	ldi	r27, 0x01	; 1
     434:	e6 ed       	ldi	r30, 0xD6	; 214
     436:	f8 e2       	ldi	r31, 0x28	; 40
     438:	00 e0       	ldi	r16, 0x00	; 0
     43a:	0b bf       	out	0x3b, r16	; 59
     43c:	02 c0       	rjmp	.+4      	; 0x442 <__do_copy_data+0x14>
     43e:	07 90       	elpm	r0, Z+
     440:	0d 92       	st	X+, r0
     442:	ae 37       	cpi	r26, 0x7E	; 126
     444:	b1 07       	cpc	r27, r17
     446:	d9 f7       	brne	.-10     	; 0x43e <__do_copy_data+0x10>

00000448 <__do_clear_bss>:
     448:	24 e1       	ldi	r18, 0x14	; 20
     44a:	ae e7       	ldi	r26, 0x7E	; 126
     44c:	b1 e0       	ldi	r27, 0x01	; 1
     44e:	01 c0       	rjmp	.+2      	; 0x452 <.do_clear_bss_start>

00000450 <.do_clear_bss_loop>:
     450:	1d 92       	st	X+, r1

00000452 <.do_clear_bss_start>:
     452:	a3 36       	cpi	r26, 0x63	; 99
     454:	b2 07       	cpc	r27, r18
     456:	e1 f7       	brne	.-8      	; 0x450 <.do_clear_bss_loop>
     458:	0e 94 e1 0a 	call	0x15c2	; 0x15c2 <main>
     45c:	0c 94 69 14 	jmp	0x28d2	; 0x28d2 <_exit>

00000460 <__bad_interrupt>:
     460:	cf cd       	rjmp	.-1122   	; 0x0 <__vectors>

00000462 <CALLBACK_USB_GetDescriptor>:
     462:	29 2f       	mov	r18, r25
     464:	33 27       	eor	r19, r19
     466:	22 30       	cpi	r18, 0x02	; 2
     468:	31 05       	cpc	r19, r1
     46a:	59 f0       	breq	.+22     	; 0x482 <CALLBACK_USB_GetDescriptor+0x20>
     46c:	23 30       	cpi	r18, 0x03	; 3
     46e:	31 05       	cpc	r19, r1
     470:	69 f0       	breq	.+26     	; 0x48c <CALLBACK_USB_GetDescriptor+0x2a>
     472:	21 30       	cpi	r18, 0x01	; 1
     474:	31 05       	cpc	r19, r1
     476:	e9 f4       	brne	.+58     	; 0x4b2 <CALLBACK_USB_GetDescriptor+0x50>
     478:	82 e1       	ldi	r24, 0x12	; 18
     47a:	90 e0       	ldi	r25, 0x00	; 0
     47c:	2e e1       	ldi	r18, 0x1E	; 30
     47e:	31 e0       	ldi	r19, 0x01	; 1
     480:	1c c0       	rjmp	.+56     	; 0x4ba <CALLBACK_USB_GetDescriptor+0x58>
     482:	8e e3       	ldi	r24, 0x3E	; 62
     484:	90 e0       	ldi	r25, 0x00	; 0
     486:	20 ee       	ldi	r18, 0xE0	; 224
     488:	30 e0       	ldi	r19, 0x00	; 0
     48a:	17 c0       	rjmp	.+46     	; 0x4ba <CALLBACK_USB_GetDescriptor+0x58>
     48c:	99 27       	eor	r25, r25
     48e:	81 30       	cpi	r24, 0x01	; 1
     490:	91 05       	cpc	r25, r1
     492:	49 f0       	breq	.+18     	; 0x4a6 <CALLBACK_USB_GetDescriptor+0x44>
     494:	28 f0       	brcs	.+10     	; 0x4a0 <CALLBACK_USB_GetDescriptor+0x3e>
     496:	02 97       	sbiw	r24, 0x02	; 2
     498:	61 f4       	brne	.+24     	; 0x4b2 <CALLBACK_USB_GetDescriptor+0x50>
     49a:	e8 e9       	ldi	r30, 0x98	; 152
     49c:	f0 e0       	ldi	r31, 0x00	; 0
     49e:	05 c0       	rjmp	.+10     	; 0x4aa <CALLBACK_USB_GetDescriptor+0x48>
     4a0:	ec ed       	ldi	r30, 0xDC	; 220
     4a2:	f0 e0       	ldi	r31, 0x00	; 0
     4a4:	02 c0       	rjmp	.+4      	; 0x4aa <CALLBACK_USB_GetDescriptor+0x48>
     4a6:	e2 ec       	ldi	r30, 0xC2	; 194
     4a8:	f0 e0       	ldi	r31, 0x00	; 0
     4aa:	84 91       	lpm	r24, Z
     4ac:	90 e0       	ldi	r25, 0x00	; 0
     4ae:	9f 01       	movw	r18, r30
     4b0:	04 c0       	rjmp	.+8      	; 0x4ba <CALLBACK_USB_GetDescriptor+0x58>
     4b2:	80 e0       	ldi	r24, 0x00	; 0
     4b4:	90 e0       	ldi	r25, 0x00	; 0
     4b6:	20 e0       	ldi	r18, 0x00	; 0
     4b8:	30 e0       	ldi	r19, 0x00	; 0
     4ba:	fa 01       	movw	r30, r20
     4bc:	31 83       	std	Z+1, r19	; 0x01
     4be:	20 83       	st	Z, r18
     4c0:	08 95       	ret

000004c2 <ARP_ProcessARPPacket>:
     4c2:	0f 93       	push	r16
     4c4:	1f 93       	push	r17
     4c6:	cf 93       	push	r28
     4c8:	df 93       	push	r29
     4ca:	ec 01       	movw	r28, r24
     4cc:	8b 01       	movw	r16, r22
     4ce:	9b d2       	rcall	.+1334   	; 0xa06 <DecodeARPHeader>
     4d0:	8b 81       	ldd	r24, Y+3	; 0x03
     4d2:	9a 81       	ldd	r25, Y+2	; 0x02
     4d4:	81 15       	cp	r24, r1
     4d6:	98 40       	sbci	r25, 0x08	; 8
     4d8:	19 f0       	breq	.+6      	; 0x4e0 <ARP_ProcessARPPacket+0x1e>
     4da:	80 e0       	ldi	r24, 0x00	; 0
     4dc:	90 e0       	ldi	r25, 0x00	; 0
     4de:	53 c0       	rjmp	.+166    	; 0x586 <ARP_ProcessARPPacket+0xc4>
     4e0:	8f 81       	ldd	r24, Y+7	; 0x07
     4e2:	9e 81       	ldd	r25, Y+6	; 0x06
     4e4:	01 97       	sbiw	r24, 0x01	; 1
     4e6:	c9 f7       	brne	.-14     	; 0x4da <ARP_ProcessARPPacket+0x18>
     4e8:	44 e0       	ldi	r20, 0x04	; 4
     4ea:	50 e0       	ldi	r21, 0x00	; 0
     4ec:	6e e3       	ldi	r22, 0x3E	; 62
     4ee:	71 e0       	ldi	r23, 0x01	; 1
     4f0:	ce 01       	movw	r24, r28
     4f2:	48 96       	adiw	r24, 0x18	; 24
     4f4:	0e 94 34 14 	call	0x2868	; 0x2868 <memcmp>
     4f8:	89 2b       	or	r24, r25
     4fa:	51 f0       	breq	.+20     	; 0x510 <ARP_ProcessARPPacket+0x4e>
     4fc:	46 e0       	ldi	r20, 0x06	; 6
     4fe:	50 e0       	ldi	r21, 0x00	; 0
     500:	62 e4       	ldi	r22, 0x42	; 66
     502:	71 e0       	ldi	r23, 0x01	; 1
     504:	ce 01       	movw	r24, r28
     506:	42 96       	adiw	r24, 0x12	; 18
     508:	0e 94 34 14 	call	0x2868	; 0x2868 <memcmp>
     50c:	89 2b       	or	r24, r25
     50e:	29 f7       	brne	.-54     	; 0x4da <ARP_ProcessARPPacket+0x18>
     510:	88 81       	ld	r24, Y
     512:	99 81       	ldd	r25, Y+1	; 0x01
     514:	f8 01       	movw	r30, r16
     516:	91 83       	std	Z+1, r25	; 0x01
     518:	80 83       	st	Z, r24
     51a:	8a 81       	ldd	r24, Y+2	; 0x02
     51c:	9b 81       	ldd	r25, Y+3	; 0x03
     51e:	93 83       	std	Z+3, r25	; 0x03
     520:	82 83       	std	Z+2, r24	; 0x02
     522:	8c 81       	ldd	r24, Y+4	; 0x04
     524:	84 83       	std	Z+4, r24	; 0x04
     526:	8d 81       	ldd	r24, Y+5	; 0x05
     528:	85 83       	std	Z+5, r24	; 0x05
     52a:	80 e0       	ldi	r24, 0x00	; 0
     52c:	92 e0       	ldi	r25, 0x02	; 2
     52e:	97 83       	std	Z+7, r25	; 0x07
     530:	86 83       	std	Z+6, r24	; 0x06
     532:	86 e0       	ldi	r24, 0x06	; 6
     534:	fe 01       	movw	r30, r28
     536:	38 96       	adiw	r30, 0x08	; 8
     538:	d8 01       	movw	r26, r16
     53a:	52 96       	adiw	r26, 0x12	; 18
     53c:	01 90       	ld	r0, Z+
     53e:	0d 92       	st	X+, r0
     540:	8a 95       	dec	r24
     542:	e1 f7       	brne	.-8      	; 0x53c <ARP_ProcessARPPacket+0x7a>
     544:	8e 85       	ldd	r24, Y+14	; 0x0e
     546:	9f 85       	ldd	r25, Y+15	; 0x0f
     548:	a8 89       	ldd	r26, Y+16	; 0x10
     54a:	b9 89       	ldd	r27, Y+17	; 0x11
     54c:	f8 01       	movw	r30, r16
     54e:	80 8f       	std	Z+24, r24	; 0x18
     550:	91 8f       	std	Z+25, r25	; 0x19
     552:	a2 8f       	std	Z+26, r26	; 0x1a
     554:	b3 8f       	std	Z+27, r27	; 0x1b
     556:	86 e0       	ldi	r24, 0x06	; 6
     558:	e2 e4       	ldi	r30, 0x42	; 66
     55a:	f1 e0       	ldi	r31, 0x01	; 1
     55c:	d8 01       	movw	r26, r16
     55e:	18 96       	adiw	r26, 0x08	; 8
     560:	01 90       	ld	r0, Z+
     562:	0d 92       	st	X+, r0
     564:	8a 95       	dec	r24
     566:	e1 f7       	brne	.-8      	; 0x560 <ARP_ProcessARPPacket+0x9e>
     568:	80 91 3e 01 	lds	r24, 0x013E	; 0x80013e <ServerIPAddress>
     56c:	90 91 3f 01 	lds	r25, 0x013F	; 0x80013f <ServerIPAddress+0x1>
     570:	a0 91 40 01 	lds	r26, 0x0140	; 0x800140 <ServerIPAddress+0x2>
     574:	b0 91 41 01 	lds	r27, 0x0141	; 0x800141 <ServerIPAddress+0x3>
     578:	f8 01       	movw	r30, r16
     57a:	86 87       	std	Z+14, r24	; 0x0e
     57c:	97 87       	std	Z+15, r25	; 0x0f
     57e:	a0 8b       	std	Z+16, r26	; 0x10
     580:	b1 8b       	std	Z+17, r27	; 0x11
     582:	8c e1       	ldi	r24, 0x1C	; 28
     584:	90 e0       	ldi	r25, 0x00	; 0
     586:	df 91       	pop	r29
     588:	cf 91       	pop	r28
     58a:	1f 91       	pop	r17
     58c:	0f 91       	pop	r16
     58e:	08 95       	ret

00000590 <DHCP_ProcessDHCPPacket>:
     590:	8f 92       	push	r8
     592:	9f 92       	push	r9
     594:	af 92       	push	r10
     596:	bf 92       	push	r11
     598:	cf 92       	push	r12
     59a:	df 92       	push	r13
     59c:	ef 92       	push	r14
     59e:	ff 92       	push	r15
     5a0:	0f 93       	push	r16
     5a2:	1f 93       	push	r17
     5a4:	cf 93       	push	r28
     5a6:	df 93       	push	r29
     5a8:	6c 01       	movw	r12, r24
     5aa:	8b 01       	movw	r16, r22
     5ac:	ea 01       	movw	r28, r20
     5ae:	7b 01       	movw	r14, r22
     5b0:	80 ef       	ldi	r24, 0xF0	; 240
     5b2:	e8 0e       	add	r14, r24
     5b4:	f1 1c       	adc	r15, r1
     5b6:	cb 01       	movw	r24, r22
     5b8:	2b d2       	rcall	.+1110   	; 0xa10 <DecodeDHCPHeader>
     5ba:	80 ef       	ldi	r24, 0xF0	; 240
     5bc:	fe 01       	movw	r30, r28
     5be:	11 92       	st	Z+, r1
     5c0:	8a 95       	dec	r24
     5c2:	e9 f7       	brne	.-6      	; 0x5be <DHCP_ProcessDHCPPacket+0x2e>
     5c4:	f8 01       	movw	r30, r16
     5c6:	81 81       	ldd	r24, Z+1	; 0x01
     5c8:	89 83       	std	Y+1, r24	; 0x01
     5ca:	82 e0       	ldi	r24, 0x02	; 2
     5cc:	88 83       	st	Y, r24
     5ce:	82 81       	ldd	r24, Z+2	; 0x02
     5d0:	8a 83       	std	Y+2, r24	; 0x02
     5d2:	1b 82       	std	Y+3, r1	; 0x03
     5d4:	84 81       	ldd	r24, Z+4	; 0x04
     5d6:	95 81       	ldd	r25, Z+5	; 0x05
     5d8:	a6 81       	ldd	r26, Z+6	; 0x06
     5da:	b7 81       	ldd	r27, Z+7	; 0x07
     5dc:	8c 83       	std	Y+4, r24	; 0x04
     5de:	9d 83       	std	Y+5, r25	; 0x05
     5e0:	ae 83       	std	Y+6, r26	; 0x06
     5e2:	bf 83       	std	Y+7, r27	; 0x07
     5e4:	19 86       	std	Y+9, r1	; 0x09
     5e6:	18 86       	std	Y+8, r1	; 0x08
     5e8:	82 85       	ldd	r24, Z+10	; 0x0a
     5ea:	93 85       	ldd	r25, Z+11	; 0x0b
     5ec:	9b 87       	std	Y+11, r25	; 0x0b
     5ee:	8a 87       	std	Y+10, r24	; 0x0a
     5f0:	80 90 30 01 	lds	r8, 0x0130	; 0x800130 <ClientIPAddress>
     5f4:	90 90 31 01 	lds	r9, 0x0131	; 0x800131 <ClientIPAddress+0x1>
     5f8:	a0 90 32 01 	lds	r10, 0x0132	; 0x800132 <ClientIPAddress+0x2>
     5fc:	b0 90 33 01 	lds	r11, 0x0133	; 0x800133 <ClientIPAddress+0x3>
     600:	88 8a       	std	Y+16, r8	; 0x10
     602:	99 8a       	std	Y+17, r9	; 0x11
     604:	aa 8a       	std	Y+18, r10	; 0x12
     606:	bb 8a       	std	Y+19, r11	; 0x13
     608:	b8 01       	movw	r22, r16
     60a:	64 5e       	subi	r22, 0xE4	; 228
     60c:	7f 4f       	sbci	r23, 0xFF	; 255
     60e:	46 e0       	ldi	r20, 0x06	; 6
     610:	50 e0       	ldi	r21, 0x00	; 0
     612:	ce 01       	movw	r24, r28
     614:	4c 96       	adiw	r24, 0x1c	; 28
     616:	0e 94 4a 14 	call	0x2894	; 0x2894 <memmove>
     61a:	fe 01       	movw	r30, r28
     61c:	e4 51       	subi	r30, 0x14	; 20
     61e:	ff 4f       	sbci	r31, 0xFF	; 255
     620:	83 e6       	ldi	r24, 0x63	; 99
     622:	92 e8       	ldi	r25, 0x82	; 130
     624:	a3 e5       	ldi	r26, 0x53	; 83
     626:	b3 e6       	ldi	r27, 0x63	; 99
     628:	80 83       	st	Z, r24
     62a:	91 83       	std	Z+1, r25	; 0x01
     62c:	a2 83       	std	Z+2, r26	; 0x02
     62e:	b3 83       	std	Z+3, r27	; 0x03
     630:	f6 01       	movw	r30, r12
     632:	84 86       	std	Z+12, r8	; 0x0c
     634:	95 86       	std	Z+13, r9	; 0x0d
     636:	a6 86       	std	Z+14, r10	; 0x0e
     638:	b7 86       	std	Z+15, r11	; 0x0f
     63a:	80 91 3e 01 	lds	r24, 0x013E	; 0x80013e <ServerIPAddress>
     63e:	90 91 3f 01 	lds	r25, 0x013F	; 0x80013f <ServerIPAddress+0x1>
     642:	a0 91 40 01 	lds	r26, 0x0140	; 0x800140 <ServerIPAddress+0x2>
     646:	b0 91 41 01 	lds	r27, 0x0141	; 0x800141 <ServerIPAddress+0x3>
     64a:	80 8b       	std	Z+16, r24	; 0x10
     64c:	91 8b       	std	Z+17, r25	; 0x11
     64e:	a2 8b       	std	Z+18, r26	; 0x12
     650:	b3 8b       	std	Z+19, r27	; 0x13
     652:	f7 01       	movw	r30, r14
     654:	80 81       	ld	r24, Z
     656:	8f 3f       	cpi	r24, 0xFF	; 255
     658:	09 f4       	brne	.+2      	; 0x65c <DHCP_ProcessDHCPPacket+0xcc>
     65a:	5c c0       	rjmp	.+184    	; 0x714 <DHCP_ProcessDHCPPacket+0x184>
     65c:	85 33       	cpi	r24, 0x35	; 53
     65e:	09 f0       	breq	.+2      	; 0x662 <DHCP_ProcessDHCPPacket+0xd2>
     660:	4d c0       	rjmp	.+154    	; 0x6fc <DHCP_ProcessDHCPPacket+0x16c>
     662:	f7 01       	movw	r30, r14
     664:	92 81       	ldd	r25, Z+2	; 0x02
     666:	9d 7f       	andi	r25, 0xFD	; 253
     668:	91 30       	cpi	r25, 0x01	; 1
     66a:	09 f0       	breq	.+2      	; 0x66e <DHCP_ProcessDHCPPacket+0xde>
     66c:	49 c0       	rjmp	.+146    	; 0x700 <DHCP_ProcessDHCPPacket+0x170>
     66e:	fe 01       	movw	r30, r28
     670:	e0 51       	subi	r30, 0x10	; 16
     672:	ff 4f       	sbci	r31, 0xFF	; 255
     674:	80 83       	st	Z, r24
     676:	31 96       	adiw	r30, 0x01	; 1
     678:	90 83       	st	Z, r25
     67a:	f7 01       	movw	r30, r14
     67c:	82 81       	ldd	r24, Z+2	; 0x02
     67e:	81 30       	cpi	r24, 0x01	; 1
     680:	11 f0       	breq	.+4      	; 0x686 <DHCP_ProcessDHCPPacket+0xf6>
     682:	85 e0       	ldi	r24, 0x05	; 5
     684:	01 c0       	rjmp	.+2      	; 0x688 <DHCP_ProcessDHCPPacket+0xf8>
     686:	82 e0       	ldi	r24, 0x02	; 2
     688:	fe 01       	movw	r30, r28
     68a:	ee 50       	subi	r30, 0x0E	; 14
     68c:	ff 4f       	sbci	r31, 0xFF	; 255
     68e:	80 83       	st	Z, r24
     690:	31 96       	adiw	r30, 0x01	; 1
     692:	21 e0       	ldi	r18, 0x01	; 1
     694:	20 83       	st	Z, r18
     696:	31 96       	adiw	r30, 0x01	; 1
     698:	94 e0       	ldi	r25, 0x04	; 4
     69a:	90 83       	st	Z, r25
     69c:	31 96       	adiw	r30, 0x01	; 1
     69e:	8f ef       	ldi	r24, 0xFF	; 255
     6a0:	80 83       	st	Z, r24
     6a2:	31 96       	adiw	r30, 0x01	; 1
     6a4:	80 83       	st	Z, r24
     6a6:	31 96       	adiw	r30, 0x01	; 1
     6a8:	80 83       	st	Z, r24
     6aa:	31 96       	adiw	r30, 0x01	; 1
     6ac:	10 82       	st	Z, r1
     6ae:	31 96       	adiw	r30, 0x01	; 1
     6b0:	33 e3       	ldi	r19, 0x33	; 51
     6b2:	30 83       	st	Z, r19
     6b4:	31 96       	adiw	r30, 0x01	; 1
     6b6:	90 83       	st	Z, r25
     6b8:	31 96       	adiw	r30, 0x01	; 1
     6ba:	10 82       	st	Z, r1
     6bc:	31 96       	adiw	r30, 0x01	; 1
     6be:	20 83       	st	Z, r18
     6c0:	31 96       	adiw	r30, 0x01	; 1
     6c2:	21 e5       	ldi	r18, 0x51	; 81
     6c4:	20 83       	st	Z, r18
     6c6:	31 96       	adiw	r30, 0x01	; 1
     6c8:	20 e8       	ldi	r18, 0x80	; 128
     6ca:	20 83       	st	Z, r18
     6cc:	31 96       	adiw	r30, 0x01	; 1
     6ce:	26 e3       	ldi	r18, 0x36	; 54
     6d0:	20 83       	st	Z, r18
     6d2:	31 96       	adiw	r30, 0x01	; 1
     6d4:	90 83       	st	Z, r25
     6d6:	31 96       	adiw	r30, 0x01	; 1
     6d8:	40 91 3e 01 	lds	r20, 0x013E	; 0x80013e <ServerIPAddress>
     6dc:	50 91 3f 01 	lds	r21, 0x013F	; 0x80013f <ServerIPAddress+0x1>
     6e0:	60 91 40 01 	lds	r22, 0x0140	; 0x800140 <ServerIPAddress+0x2>
     6e4:	70 91 41 01 	lds	r23, 0x0141	; 0x800141 <ServerIPAddress+0x3>
     6e8:	40 83       	st	Z, r20
     6ea:	51 83       	std	Z+1, r21	; 0x01
     6ec:	62 83       	std	Z+2, r22	; 0x02
     6ee:	73 83       	std	Z+3, r23	; 0x03
     6f0:	cb 5f       	subi	r28, 0xFB	; 251
     6f2:	de 4f       	sbci	r29, 0xFE	; 254
     6f4:	88 83       	st	Y, r24
     6f6:	86 e0       	ldi	r24, 0x06	; 6
     6f8:	91 e0       	ldi	r25, 0x01	; 1
     6fa:	0e c0       	rjmp	.+28     	; 0x718 <DHCP_ProcessDHCPPacket+0x188>
     6fc:	88 23       	and	r24, r24
     6fe:	29 f0       	breq	.+10     	; 0x70a <DHCP_ProcessDHCPPacket+0x17a>
     700:	f7 01       	movw	r30, r14
     702:	81 81       	ldd	r24, Z+1	; 0x01
     704:	90 e0       	ldi	r25, 0x00	; 0
     706:	02 96       	adiw	r24, 0x02	; 2
     708:	02 c0       	rjmp	.+4      	; 0x70e <DHCP_ProcessDHCPPacket+0x17e>
     70a:	81 e0       	ldi	r24, 0x01	; 1
     70c:	90 e0       	ldi	r25, 0x00	; 0
     70e:	e8 0e       	add	r14, r24
     710:	f9 1e       	adc	r15, r25
     712:	9f cf       	rjmp	.-194    	; 0x652 <DHCP_ProcessDHCPPacket+0xc2>
     714:	80 e0       	ldi	r24, 0x00	; 0
     716:	90 e0       	ldi	r25, 0x00	; 0
     718:	df 91       	pop	r29
     71a:	cf 91       	pop	r28
     71c:	1f 91       	pop	r17
     71e:	0f 91       	pop	r16
     720:	ff 90       	pop	r15
     722:	ef 90       	pop	r14
     724:	df 90       	pop	r13
     726:	cf 90       	pop	r12
     728:	bf 90       	pop	r11
     72a:	af 90       	pop	r10
     72c:	9f 90       	pop	r9
     72e:	8f 90       	pop	r8
     730:	08 95       	ret

00000732 <Ethernet_ProcessPacket>:
     732:	ef 92       	push	r14
     734:	ff 92       	push	r15
     736:	0f 93       	push	r16
     738:	1f 93       	push	r17
     73a:	cf 93       	push	r28
     73c:	df 93       	push	r29
     73e:	ec 01       	movw	r28, r24
     740:	8b 01       	movw	r16, r22
     742:	60 d1       	rcall	.+704    	; 0xa04 <DecodeEthernetFrameHeader>
     744:	46 e0       	ldi	r20, 0x06	; 6
     746:	50 e0       	ldi	r21, 0x00	; 0
     748:	62 e4       	ldi	r22, 0x42	; 66
     74a:	71 e0       	ldi	r23, 0x01	; 1
     74c:	ce 01       	movw	r24, r28
     74e:	0e 94 34 14 	call	0x2868	; 0x2868 <memcmp>
     752:	9e 01       	movw	r18, r28
     754:	24 52       	subi	r18, 0x24	; 36
     756:	3a 4f       	sbci	r19, 0xFA	; 250
     758:	79 01       	movw	r14, r18
     75a:	89 2b       	or	r24, r25
     75c:	51 f0       	breq	.+20     	; 0x772 <Ethernet_ProcessPacket+0x40>
     75e:	46 e0       	ldi	r20, 0x06	; 6
     760:	50 e0       	ldi	r21, 0x00	; 0
     762:	68 e3       	ldi	r22, 0x38	; 56
     764:	71 e0       	ldi	r23, 0x01	; 1
     766:	ce 01       	movw	r24, r28
     768:	0e 94 34 14 	call	0x2868	; 0x2868 <memcmp>
     76c:	89 2b       	or	r24, r25
     76e:	09 f0       	breq	.+2      	; 0x772 <Ethernet_ProcessPacket+0x40>
     770:	3f c0       	rjmp	.+126    	; 0x7f0 <Ethernet_ProcessPacket+0xbe>
     772:	f7 01       	movw	r30, r14
     774:	81 81       	ldd	r24, Z+1	; 0x01
     776:	90 81       	ld	r25, Z
     778:	81 30       	cpi	r24, 0x01	; 1
     77a:	96 40       	sbci	r25, 0x06	; 6
     77c:	c8 f1       	brcs	.+114    	; 0x7f0 <Ethernet_ProcessPacket+0xbe>
     77e:	8d 85       	ldd	r24, Y+13	; 0x0d
     780:	9c 85       	ldd	r25, Y+12	; 0x0c
     782:	81 15       	cp	r24, r1
     784:	28 e0       	ldi	r18, 0x08	; 8
     786:	92 07       	cpc	r25, r18
     788:	51 f0       	breq	.+20     	; 0x79e <Ethernet_ProcessPacket+0x6c>
     78a:	86 30       	cpi	r24, 0x06	; 6
     78c:	98 40       	sbci	r25, 0x08	; 8
     78e:	81 f5       	brne	.+96     	; 0x7f0 <Ethernet_ProcessPacket+0xbe>
     790:	b8 01       	movw	r22, r16
     792:	62 5f       	subi	r22, 0xF2	; 242
     794:	7f 4f       	sbci	r23, 0xFF	; 255
     796:	ce 01       	movw	r24, r28
     798:	0e 96       	adiw	r24, 0x0e	; 14
     79a:	93 de       	rcall	.-730    	; 0x4c2 <ARP_ProcessARPPacket>
     79c:	08 c0       	rjmp	.+16     	; 0x7ae <Ethernet_ProcessPacket+0x7c>
     79e:	a8 01       	movw	r20, r16
     7a0:	42 5f       	subi	r20, 0xF2	; 242
     7a2:	5f 4f       	sbci	r21, 0xFF	; 255
     7a4:	be 01       	movw	r22, r28
     7a6:	62 5f       	subi	r22, 0xF2	; 242
     7a8:	7f 4f       	sbci	r23, 0xFF	; 255
     7aa:	ce 01       	movw	r24, r28
     7ac:	a0 d0       	rcall	.+320    	; 0x8ee <IP_ProcessIPPacket>
     7ae:	18 16       	cp	r1, r24
     7b0:	19 06       	cpc	r1, r25
     7b2:	e4 f4       	brge	.+56     	; 0x7ec <Ethernet_ProcessPacket+0xba>
     7b4:	26 e0       	ldi	r18, 0x06	; 6
     7b6:	e2 e4       	ldi	r30, 0x42	; 66
     7b8:	f1 e0       	ldi	r31, 0x01	; 1
     7ba:	d8 01       	movw	r26, r16
     7bc:	16 96       	adiw	r26, 0x06	; 6
     7be:	01 90       	ld	r0, Z+
     7c0:	0d 92       	st	X+, r0
     7c2:	2a 95       	dec	r18
     7c4:	e1 f7       	brne	.-8      	; 0x7be <Ethernet_ProcessPacket+0x8c>
     7c6:	26 e0       	ldi	r18, 0x06	; 6
     7c8:	fe 01       	movw	r30, r28
     7ca:	36 96       	adiw	r30, 0x06	; 6
     7cc:	d8 01       	movw	r26, r16
     7ce:	01 90       	ld	r0, Z+
     7d0:	0d 92       	st	X+, r0
     7d2:	2a 95       	dec	r18
     7d4:	e1 f7       	brne	.-8      	; 0x7ce <Ethernet_ProcessPacket+0x9c>
     7d6:	2c 85       	ldd	r18, Y+12	; 0x0c
     7d8:	3d 85       	ldd	r19, Y+13	; 0x0d
     7da:	f8 01       	movw	r30, r16
     7dc:	35 87       	std	Z+13, r19	; 0x0d
     7de:	24 87       	std	Z+12, r18	; 0x0c
     7e0:	e4 52       	subi	r30, 0x24	; 36
     7e2:	fa 4f       	sbci	r31, 0xFA	; 250
     7e4:	0e 96       	adiw	r24, 0x0e	; 14
     7e6:	91 83       	std	Z+1, r25	; 0x01
     7e8:	80 83       	st	Z, r24
     7ea:	02 c0       	rjmp	.+4      	; 0x7f0 <Ethernet_ProcessPacket+0xbe>
     7ec:	01 96       	adiw	r24, 0x01	; 1
     7ee:	19 f0       	breq	.+6      	; 0x7f6 <Ethernet_ProcessPacket+0xc4>
     7f0:	f7 01       	movw	r30, r14
     7f2:	11 82       	std	Z+1, r1	; 0x01
     7f4:	10 82       	st	Z, r1
     7f6:	df 91       	pop	r29
     7f8:	cf 91       	pop	r28
     7fa:	1f 91       	pop	r17
     7fc:	0f 91       	pop	r16
     7fe:	ff 90       	pop	r15
     800:	ef 90       	pop	r14
     802:	08 95       	ret

00000804 <Ethernet_Checksum16>:
     804:	cf 93       	push	r28
     806:	df 93       	push	r29
     808:	9b 01       	movw	r18, r22
     80a:	36 95       	lsr	r19
     80c:	27 95       	ror	r18
     80e:	e0 e0       	ldi	r30, 0x00	; 0
     810:	f0 e0       	ldi	r31, 0x00	; 0
     812:	40 e0       	ldi	r20, 0x00	; 0
     814:	50 e0       	ldi	r21, 0x00	; 0
     816:	ba 01       	movw	r22, r20
     818:	e2 17       	cp	r30, r18
     81a:	f3 07       	cpc	r31, r19
     81c:	51 f0       	breq	.+20     	; 0x832 <Ethernet_Checksum16+0x2e>
     81e:	ec 01       	movw	r28, r24
     820:	a9 91       	ld	r26, Y+
     822:	b9 91       	ld	r27, Y+
     824:	ce 01       	movw	r24, r28
     826:	4a 0f       	add	r20, r26
     828:	5b 1f       	adc	r21, r27
     82a:	61 1d       	adc	r22, r1
     82c:	71 1d       	adc	r23, r1
     82e:	31 96       	adiw	r30, 0x01	; 1
     830:	f3 cf       	rjmp	.-26     	; 0x818 <Ethernet_Checksum16+0x14>
     832:	db 01       	movw	r26, r22
     834:	ca 01       	movw	r24, r20
     836:	88 27       	eor	r24, r24
     838:	99 27       	eor	r25, r25
     83a:	89 2b       	or	r24, r25
     83c:	8a 2b       	or	r24, r26
     83e:	8b 2b       	or	r24, r27
     840:	61 f0       	breq	.+24     	; 0x85a <Ethernet_Checksum16+0x56>
     842:	db 01       	movw	r26, r22
     844:	ca 01       	movw	r24, r20
     846:	aa 27       	eor	r26, r26
     848:	bb 27       	eor	r27, r27
     84a:	ab 01       	movw	r20, r22
     84c:	66 27       	eor	r22, r22
     84e:	77 27       	eor	r23, r23
     850:	48 0f       	add	r20, r24
     852:	59 1f       	adc	r21, r25
     854:	6a 1f       	adc	r22, r26
     856:	7b 1f       	adc	r23, r27
     858:	ec cf       	rjmp	.-40     	; 0x832 <Ethernet_Checksum16+0x2e>
     85a:	ca 01       	movw	r24, r20
     85c:	80 95       	com	r24
     85e:	90 95       	com	r25
     860:	df 91       	pop	r29
     862:	cf 91       	pop	r28
     864:	08 95       	ret

00000866 <ICMP_ProcessICMPPacket>:
     866:	ef 92       	push	r14
     868:	ff 92       	push	r15
     86a:	0f 93       	push	r16
     86c:	1f 93       	push	r17
     86e:	cf 93       	push	r28
     870:	df 93       	push	r29
     872:	ec 01       	movw	r28, r24
     874:	7b 01       	movw	r14, r22
     876:	8a 01       	movw	r16, r20
     878:	cb 01       	movw	r24, r22
     87a:	c7 d0       	rcall	.+398    	; 0xa0a <DecodeICMPHeader>
     87c:	f7 01       	movw	r30, r14
     87e:	80 81       	ld	r24, Z
     880:	88 30       	cpi	r24, 0x08	; 8
     882:	61 f5       	brne	.+88     	; 0x8dc <ICMP_ProcessICMPPacket+0x76>
     884:	f8 01       	movw	r30, r16
     886:	10 82       	st	Z, r1
     888:	11 82       	std	Z+1, r1	; 0x01
     88a:	13 82       	std	Z+3, r1	; 0x03
     88c:	12 82       	std	Z+2, r1	; 0x02
     88e:	f7 01       	movw	r30, r14
     890:	84 81       	ldd	r24, Z+4	; 0x04
     892:	95 81       	ldd	r25, Z+5	; 0x05
     894:	f8 01       	movw	r30, r16
     896:	95 83       	std	Z+5, r25	; 0x05
     898:	84 83       	std	Z+4, r24	; 0x04
     89a:	f7 01       	movw	r30, r14
     89c:	86 81       	ldd	r24, Z+6	; 0x06
     89e:	97 81       	ldd	r25, Z+7	; 0x07
     8a0:	f8 01       	movw	r30, r16
     8a2:	97 83       	std	Z+7, r25	; 0x07
     8a4:	86 83       	std	Z+6, r24	; 0x06
     8a6:	fe 01       	movw	r30, r28
     8a8:	e4 52       	subi	r30, 0x24	; 36
     8aa:	fa 4f       	sbci	r31, 0xFA	; 250
     8ac:	80 81       	ld	r24, Z
     8ae:	91 81       	ldd	r25, Z+1	; 0x01
     8b0:	c8 0f       	add	r28, r24
     8b2:	d9 1f       	adc	r29, r25
     8b4:	ce 19       	sub	r28, r14
     8b6:	df 09       	sbc	r29, r15
     8b8:	ae 01       	movw	r20, r28
     8ba:	48 50       	subi	r20, 0x08	; 8
     8bc:	51 09       	sbc	r21, r1
     8be:	b7 01       	movw	r22, r14
     8c0:	68 5f       	subi	r22, 0xF8	; 248
     8c2:	7f 4f       	sbci	r23, 0xFF	; 255
     8c4:	c8 01       	movw	r24, r16
     8c6:	08 96       	adiw	r24, 0x08	; 8
     8c8:	0e 94 4a 14 	call	0x2894	; 0x2894 <memmove>
     8cc:	be 01       	movw	r22, r28
     8ce:	c8 01       	movw	r24, r16
     8d0:	99 df       	rcall	.-206    	; 0x804 <Ethernet_Checksum16>
     8d2:	f8 01       	movw	r30, r16
     8d4:	93 83       	std	Z+3, r25	; 0x03
     8d6:	82 83       	std	Z+2, r24	; 0x02
     8d8:	ce 01       	movw	r24, r28
     8da:	02 c0       	rjmp	.+4      	; 0x8e0 <ICMP_ProcessICMPPacket+0x7a>
     8dc:	80 e0       	ldi	r24, 0x00	; 0
     8de:	90 e0       	ldi	r25, 0x00	; 0
     8e0:	df 91       	pop	r29
     8e2:	cf 91       	pop	r28
     8e4:	1f 91       	pop	r17
     8e6:	0f 91       	pop	r16
     8e8:	ff 90       	pop	r15
     8ea:	ef 90       	pop	r14
     8ec:	08 95       	ret

000008ee <IP_ProcessIPPacket>:
     8ee:	af 92       	push	r10
     8f0:	bf 92       	push	r11
     8f2:	cf 92       	push	r12
     8f4:	df 92       	push	r13
     8f6:	ef 92       	push	r14
     8f8:	ff 92       	push	r15
     8fa:	0f 93       	push	r16
     8fc:	1f 93       	push	r17
     8fe:	cf 93       	push	r28
     900:	df 93       	push	r29
     902:	6c 01       	movw	r12, r24
     904:	7b 01       	movw	r14, r22
     906:	ea 01       	movw	r28, r20
     908:	cb 01       	movw	r24, r22
     90a:	7e d0       	rcall	.+252    	; 0xa08 <DecodeIPHeader>
     90c:	f7 01       	movw	r30, r14
     90e:	00 81       	ld	r16, Z
     910:	0f 70       	andi	r16, 0x0F	; 15
     912:	f4 e0       	ldi	r31, 0x04	; 4
     914:	0f 9f       	mul	r16, r31
     916:	80 01       	movw	r16, r0
     918:	11 24       	eor	r1, r1
     91a:	57 01       	movw	r10, r14
     91c:	80 e1       	ldi	r24, 0x10	; 16
     91e:	a8 0e       	add	r10, r24
     920:	b1 1c       	adc	r11, r1
     922:	44 e0       	ldi	r20, 0x04	; 4
     924:	50 e0       	ldi	r21, 0x00	; 0
     926:	6e e3       	ldi	r22, 0x3E	; 62
     928:	71 e0       	ldi	r23, 0x01	; 1
     92a:	c5 01       	movw	r24, r10
     92c:	0e 94 34 14 	call	0x2868	; 0x2868 <memcmp>
     930:	89 2b       	or	r24, r25
     932:	51 f0       	breq	.+20     	; 0x948 <IP_ProcessIPPacket+0x5a>
     934:	44 e0       	ldi	r20, 0x04	; 4
     936:	50 e0       	ldi	r21, 0x00	; 0
     938:	64 e3       	ldi	r22, 0x34	; 52
     93a:	71 e0       	ldi	r23, 0x01	; 1
     93c:	c5 01       	movw	r24, r10
     93e:	0e 94 34 14 	call	0x2868	; 0x2868 <memcmp>
     942:	89 2b       	or	r24, r25
     944:	09 f0       	breq	.+2      	; 0x948 <IP_ProcessIPPacket+0x5a>
     946:	51 c0       	rjmp	.+162    	; 0x9ea <IP_ProcessIPPacket+0xfc>
     948:	f7 01       	movw	r30, r14
     94a:	81 85       	ldd	r24, Z+9	; 0x09
     94c:	86 30       	cpi	r24, 0x06	; 6
     94e:	71 f0       	breq	.+28     	; 0x96c <IP_ProcessIPPacket+0x7e>
     950:	81 31       	cpi	r24, 0x11	; 17
     952:	a9 f0       	breq	.+42     	; 0x97e <IP_ProcessIPPacket+0x90>
     954:	81 30       	cpi	r24, 0x01	; 1
     956:	09 f0       	breq	.+2      	; 0x95a <IP_ProcessIPPacket+0x6c>
     958:	48 c0       	rjmp	.+144    	; 0x9ea <IP_ProcessIPPacket+0xfc>
     95a:	b7 01       	movw	r22, r14
     95c:	60 0f       	add	r22, r16
     95e:	71 1f       	adc	r23, r17
     960:	ae 01       	movw	r20, r28
     962:	4c 5e       	subi	r20, 0xEC	; 236
     964:	5f 4f       	sbci	r21, 0xFF	; 255
     966:	c6 01       	movw	r24, r12
     968:	7e df       	rcall	.-260    	; 0x866 <ICMP_ProcessICMPPacket>
     96a:	11 c0       	rjmp	.+34     	; 0x98e <IP_ProcessIPPacket+0xa0>
     96c:	b7 01       	movw	r22, r14
     96e:	60 0f       	add	r22, r16
     970:	71 1f       	adc	r23, r17
     972:	ae 01       	movw	r20, r28
     974:	4c 5e       	subi	r20, 0xEC	; 236
     976:	5f 4f       	sbci	r21, 0xFF	; 255
     978:	c7 01       	movw	r24, r14
     97a:	e1 d2       	rcall	.+1474   	; 0xf3e <TCP_ProcessTCPPacket>
     97c:	08 c0       	rjmp	.+16     	; 0x98e <IP_ProcessIPPacket+0xa0>
     97e:	b7 01       	movw	r22, r14
     980:	60 0f       	add	r22, r16
     982:	71 1f       	adc	r23, r17
     984:	ae 01       	movw	r20, r28
     986:	4c 5e       	subi	r20, 0xEC	; 236
     988:	5f 4f       	sbci	r21, 0xFF	; 255
     98a:	c7 01       	movw	r24, r14
     98c:	d3 d4       	rcall	.+2470   	; 0x1334 <UDP_ProcessUDPPacket>
     98e:	18 16       	cp	r1, r24
     990:	19 06       	cpc	r1, r25
     992:	6c f5       	brge	.+90     	; 0x9ee <IP_ProcessIPPacket+0x100>
     994:	8c 01       	movw	r16, r24
     996:	0c 5e       	subi	r16, 0xEC	; 236
     998:	1f 4f       	sbci	r17, 0xFF	; 255
     99a:	1a 83       	std	Y+2, r17	; 0x02
     99c:	0b 83       	std	Y+3, r16	; 0x03
     99e:	19 82       	std	Y+1, r1	; 0x01
     9a0:	85 e4       	ldi	r24, 0x45	; 69
     9a2:	88 83       	st	Y, r24
     9a4:	1e 82       	std	Y+6, r1	; 0x06
     9a6:	1f 82       	std	Y+7, r1	; 0x07
     9a8:	1d 82       	std	Y+5, r1	; 0x05
     9aa:	1c 82       	std	Y+4, r1	; 0x04
     9ac:	1b 86       	std	Y+11, r1	; 0x0b
     9ae:	1a 86       	std	Y+10, r1	; 0x0a
     9b0:	f7 01       	movw	r30, r14
     9b2:	81 85       	ldd	r24, Z+9	; 0x09
     9b4:	89 87       	std	Y+9, r24	; 0x09
     9b6:	80 e8       	ldi	r24, 0x80	; 128
     9b8:	88 87       	std	Y+8, r24	; 0x08
     9ba:	80 89       	ldd	r24, Z+16	; 0x10
     9bc:	91 89       	ldd	r25, Z+17	; 0x11
     9be:	a2 89       	ldd	r26, Z+18	; 0x12
     9c0:	b3 89       	ldd	r27, Z+19	; 0x13
     9c2:	8c 87       	std	Y+12, r24	; 0x0c
     9c4:	9d 87       	std	Y+13, r25	; 0x0d
     9c6:	ae 87       	std	Y+14, r26	; 0x0e
     9c8:	bf 87       	std	Y+15, r27	; 0x0f
     9ca:	84 85       	ldd	r24, Z+12	; 0x0c
     9cc:	95 85       	ldd	r25, Z+13	; 0x0d
     9ce:	a6 85       	ldd	r26, Z+14	; 0x0e
     9d0:	b7 85       	ldd	r27, Z+15	; 0x0f
     9d2:	88 8b       	std	Y+16, r24	; 0x10
     9d4:	99 8b       	std	Y+17, r25	; 0x11
     9d6:	aa 8b       	std	Y+18, r26	; 0x12
     9d8:	bb 8b       	std	Y+19, r27	; 0x13
     9da:	64 e1       	ldi	r22, 0x14	; 20
     9dc:	70 e0       	ldi	r23, 0x00	; 0
     9de:	ce 01       	movw	r24, r28
     9e0:	11 df       	rcall	.-478    	; 0x804 <Ethernet_Checksum16>
     9e2:	9b 87       	std	Y+11, r25	; 0x0b
     9e4:	8a 87       	std	Y+10, r24	; 0x0a
     9e6:	c8 01       	movw	r24, r16
     9e8:	02 c0       	rjmp	.+4      	; 0x9ee <IP_ProcessIPPacket+0x100>
     9ea:	80 e0       	ldi	r24, 0x00	; 0
     9ec:	90 e0       	ldi	r25, 0x00	; 0
     9ee:	df 91       	pop	r29
     9f0:	cf 91       	pop	r28
     9f2:	1f 91       	pop	r17
     9f4:	0f 91       	pop	r16
     9f6:	ff 90       	pop	r15
     9f8:	ef 90       	pop	r14
     9fa:	df 90       	pop	r13
     9fc:	cf 90       	pop	r12
     9fe:	bf 90       	pop	r11
     a00:	af 90       	pop	r10
     a02:	08 95       	ret

00000a04 <DecodeEthernetFrameHeader>:
     a04:	08 95       	ret

00000a06 <DecodeARPHeader>:
     a06:	08 95       	ret

00000a08 <DecodeIPHeader>:
     a08:	08 95       	ret

00000a0a <DecodeICMPHeader>:
     a0a:	08 95       	ret

00000a0c <DecodeTCPHeader>:
     a0c:	08 95       	ret

00000a0e <DecodeUDPHeader>:
     a0e:	08 95       	ret

00000a10 <DecodeDHCPHeader>:
     a10:	08 95       	ret

00000a12 <TCP_Checksum16>:
     a12:	ef 92       	push	r14
     a14:	ff 92       	push	r15
     a16:	0f 93       	push	r16
     a18:	1f 93       	push	r17
     a1a:	cf 93       	push	r28
     a1c:	df 93       	push	r29
     a1e:	eb 01       	movw	r28, r22
     a20:	a8 81       	ld	r26, Y
     a22:	b9 81       	ldd	r27, Y+1	; 0x01
     a24:	ea 80       	ldd	r14, Y+2	; 0x02
     a26:	fb 80       	ldd	r15, Y+3	; 0x03
     a28:	fa 01       	movw	r30, r20
     a2a:	00 81       	ld	r16, Z
     a2c:	11 81       	ldd	r17, Z+1	; 0x01
     a2e:	c2 81       	ldd	r28, Z+2	; 0x02
     a30:	d3 81       	ldd	r29, Z+3	; 0x03
     a32:	43 2f       	mov	r20, r19
     a34:	52 2f       	mov	r21, r18
     a36:	60 e0       	ldi	r22, 0x00	; 0
     a38:	70 e0       	ldi	r23, 0x00	; 0
     a3a:	5a 5f       	subi	r21, 0xFA	; 250
     a3c:	6f 4f       	sbci	r22, 0xFF	; 255
     a3e:	7f 4f       	sbci	r23, 0xFF	; 255
     a40:	40 0f       	add	r20, r16
     a42:	51 1f       	adc	r21, r17
     a44:	61 1d       	adc	r22, r1
     a46:	71 1d       	adc	r23, r1
     a48:	4c 0f       	add	r20, r28
     a4a:	5d 1f       	adc	r21, r29
     a4c:	61 1d       	adc	r22, r1
     a4e:	71 1d       	adc	r23, r1
     a50:	4a 0f       	add	r20, r26
     a52:	5b 1f       	adc	r21, r27
     a54:	61 1d       	adc	r22, r1
     a56:	71 1d       	adc	r23, r1
     a58:	4e 0d       	add	r20, r14
     a5a:	5f 1d       	adc	r21, r15
     a5c:	61 1d       	adc	r22, r1
     a5e:	71 1d       	adc	r23, r1
     a60:	e9 01       	movw	r28, r18
     a62:	d6 95       	lsr	r29
     a64:	c7 95       	ror	r28
     a66:	dc 01       	movw	r26, r24
     a68:	e0 e0       	ldi	r30, 0x00	; 0
     a6a:	f0 e0       	ldi	r31, 0x00	; 0
     a6c:	ec 17       	cp	r30, r28
     a6e:	fd 07       	cpc	r31, r29
     a70:	41 f0       	breq	.+16     	; 0xa82 <TCP_Checksum16+0x70>
     a72:	0d 91       	ld	r16, X+
     a74:	1d 91       	ld	r17, X+
     a76:	40 0f       	add	r20, r16
     a78:	51 1f       	adc	r21, r17
     a7a:	61 1d       	adc	r22, r1
     a7c:	71 1d       	adc	r23, r1
     a7e:	31 96       	adiw	r30, 0x01	; 1
     a80:	f5 cf       	rjmp	.-22     	; 0xa6c <TCP_Checksum16+0x5a>
     a82:	20 ff       	sbrs	r18, 0
     a84:	09 c0       	rjmp	.+18     	; 0xa98 <TCP_Checksum16+0x86>
     a86:	ee 0f       	add	r30, r30
     a88:	ff 1f       	adc	r31, r31
     a8a:	e8 0f       	add	r30, r24
     a8c:	f9 1f       	adc	r31, r25
     a8e:	80 81       	ld	r24, Z
     a90:	48 0f       	add	r20, r24
     a92:	51 1d       	adc	r21, r1
     a94:	61 1d       	adc	r22, r1
     a96:	71 1d       	adc	r23, r1
     a98:	db 01       	movw	r26, r22
     a9a:	ca 01       	movw	r24, r20
     a9c:	88 27       	eor	r24, r24
     a9e:	99 27       	eor	r25, r25
     aa0:	89 2b       	or	r24, r25
     aa2:	8a 2b       	or	r24, r26
     aa4:	8b 2b       	or	r24, r27
     aa6:	61 f0       	breq	.+24     	; 0xac0 <TCP_Checksum16+0xae>
     aa8:	db 01       	movw	r26, r22
     aaa:	ca 01       	movw	r24, r20
     aac:	aa 27       	eor	r26, r26
     aae:	bb 27       	eor	r27, r27
     ab0:	ab 01       	movw	r20, r22
     ab2:	66 27       	eor	r22, r22
     ab4:	77 27       	eor	r23, r23
     ab6:	48 0f       	add	r20, r24
     ab8:	59 1f       	adc	r21, r25
     aba:	6a 1f       	adc	r22, r26
     abc:	7b 1f       	adc	r23, r27
     abe:	ec cf       	rjmp	.-40     	; 0xa98 <TCP_Checksum16+0x86>
     ac0:	ca 01       	movw	r24, r20
     ac2:	80 95       	com	r24
     ac4:	90 95       	com	r25
     ac6:	df 91       	pop	r29
     ac8:	cf 91       	pop	r28
     aca:	1f 91       	pop	r17
     acc:	0f 91       	pop	r16
     ace:	ff 90       	pop	r15
     ad0:	ef 90       	pop	r14
     ad2:	08 95       	ret

00000ad4 <TCP_TCPTask>:
     ad4:	af 92       	push	r10
     ad6:	bf 92       	push	r11
     ad8:	cf 92       	push	r12
     ada:	df 92       	push	r13
     adc:	ef 92       	push	r14
     ade:	ff 92       	push	r15
     ae0:	0f 93       	push	r16
     ae2:	1f 93       	push	r17
     ae4:	cf 93       	push	r28
     ae6:	df 93       	push	r29
     ae8:	eb 01       	movw	r28, r22
     aea:	0b ef       	ldi	r16, 0xFB	; 251
     aec:	1d e0       	ldi	r17, 0x0D	; 13
     aee:	9d e3       	ldi	r25, 0x3D	; 61
     af0:	e9 2e       	mov	r14, r25
     af2:	94 e1       	ldi	r25, 0x14	; 20
     af4:	f9 2e       	mov	r15, r25
     af6:	20 91 3d 14 	lds	r18, 0x143D	; 0x80143d <PortStateTable>
     afa:	30 91 3e 14 	lds	r19, 0x143E	; 0x80143e <PortStateTable+0x1>
     afe:	d8 01       	movw	r26, r16
     b00:	8d 91       	ld	r24, X+
     b02:	9c 91       	ld	r25, X
     b04:	28 17       	cp	r18, r24
     b06:	39 07       	cpc	r19, r25
     b08:	69 f4       	brne	.+26     	; 0xb24 <TCP_TCPTask+0x50>
     b0a:	80 91 3f 14 	lds	r24, 0x143F	; 0x80143f <PortStateTable+0x2>
     b0e:	81 30       	cpi	r24, 0x01	; 1
     b10:	49 f4       	brne	.+18     	; 0xb24 <TCP_TCPTask+0x50>
     b12:	e0 91 40 14 	lds	r30, 0x1440	; 0x801440 <PortStateTable+0x3>
     b16:	f0 91 41 14 	lds	r31, 0x1441	; 0x801441 <PortStateTable+0x4>
     b1a:	b8 01       	movw	r22, r16
     b1c:	60 5f       	subi	r22, 0xF0	; 240
     b1e:	7f 4f       	sbci	r23, 0xFF	; 255
     b20:	c8 01       	movw	r24, r16
     b22:	09 95       	icall
     b24:	0a 5e       	subi	r16, 0xEA	; 234
     b26:	1d 4f       	sbci	r17, 0xFD	; 253
     b28:	e0 16       	cp	r14, r16
     b2a:	f1 06       	cpc	r15, r17
     b2c:	21 f7       	brne	.-56     	; 0xaf6 <TCP_TCPTask+0x22>
     b2e:	5e 01       	movw	r10, r28
     b30:	b4 e2       	ldi	r27, 0x24	; 36
     b32:	ab 1a       	sub	r10, r27
     b34:	ba ef       	ldi	r27, 0xFA	; 250
     b36:	bb 0a       	sbc	r11, r27
     b38:	f5 01       	movw	r30, r10
     b3a:	80 81       	ld	r24, Z
     b3c:	91 81       	ldd	r25, Z+1	; 0x01
     b3e:	89 2b       	or	r24, r25
     b40:	09 f0       	breq	.+2      	; 0xb44 <TCP_TCPTask+0x70>
     b42:	c0 c0       	rjmp	.+384    	; 0xcc4 <TCP_TCPTask+0x1f0>
     b44:	ed e0       	ldi	r30, 0x0D	; 13
     b46:	f0 e1       	ldi	r31, 0x10	; 16
     b48:	80 e0       	ldi	r24, 0x00	; 0
     b4a:	90 e0       	ldi	r25, 0x00	; 0
     b4c:	20 81       	ld	r18, Z
     b4e:	22 23       	and	r18, r18
     b50:	09 f4       	brne	.+2      	; 0xb54 <TCP_TCPTask+0x80>
     b52:	b1 c0       	rjmp	.+354    	; 0xcb6 <TCP_TCPTask+0x1e2>
     b54:	21 81       	ldd	r18, Z+1	; 0x01
     b56:	22 23       	and	r18, r18
     b58:	09 f4       	brne	.+2      	; 0xb5c <TCP_TCPTask+0x88>
     b5a:	ad c0       	rjmp	.+346    	; 0xcb6 <TCP_TCPTask+0x1e2>
     b5c:	26 e1       	ldi	r18, 0x16	; 22
     b5e:	32 e0       	ldi	r19, 0x02	; 2
     b60:	82 9f       	mul	r24, r18
     b62:	60 01       	movw	r12, r0
     b64:	83 9f       	mul	r24, r19
     b66:	d0 0c       	add	r13, r0
     b68:	92 9f       	mul	r25, r18
     b6a:	d0 0c       	add	r13, r0
     b6c:	11 24       	eor	r1, r1
     b6e:	86 01       	movw	r16, r12
     b70:	05 50       	subi	r16, 0x05	; 5
     b72:	12 4f       	sbci	r17, 0xF2	; 242
     b74:	d8 01       	movw	r26, r16
     b76:	50 96       	adiw	r26, 0x10	; 16
     b78:	ed 90       	ld	r14, X+
     b7a:	fc 90       	ld	r15, X
     b7c:	51 97       	sbiw	r26, 0x11	; 17
     b7e:	8d 91       	ld	r24, X+
     b80:	9c 91       	ld	r25, X
     b82:	11 97       	sbiw	r26, 0x01	; 1
     b84:	9b a3       	std	Y+35, r25	; 0x23
     b86:	8a a3       	std	Y+34, r24	; 0x22
     b88:	12 96       	adiw	r26, 0x02	; 2
     b8a:	8d 91       	ld	r24, X+
     b8c:	9c 91       	ld	r25, X
     b8e:	13 97       	sbiw	r26, 0x03	; 3
     b90:	9d a3       	std	Y+37, r25	; 0x25
     b92:	8c a3       	std	Y+36, r24	; 0x24
     b94:	f8 01       	movw	r30, r16
     b96:	3c 96       	adiw	r30, 0x0c	; 12
     b98:	1c 96       	adiw	r26, 0x0c	; 12
     b9a:	8c 91       	ld	r24, X
     b9c:	1c 97       	sbiw	r26, 0x0c	; 12
     b9e:	91 81       	ldd	r25, Z+1	; 0x01
     ba0:	22 81       	ldd	r18, Z+2	; 0x02
     ba2:	33 81       	ldd	r19, Z+3	; 0x03
     ba4:	3e a3       	std	Y+38, r19	; 0x26
     ba6:	2f a3       	std	Y+39, r18	; 0x27
     ba8:	98 a7       	std	Y+40, r25	; 0x28
     baa:	89 a7       	std	Y+41, r24	; 0x29
     bac:	34 97       	sbiw	r30, 0x04	; 4
     bae:	18 96       	adiw	r26, 0x08	; 8
     bb0:	8c 91       	ld	r24, X
     bb2:	91 81       	ldd	r25, Z+1	; 0x01
     bb4:	22 81       	ldd	r18, Z+2	; 0x02
     bb6:	33 81       	ldd	r19, Z+3	; 0x03
     bb8:	3a a7       	std	Y+42, r19	; 0x2a
     bba:	2b a7       	std	Y+43, r18	; 0x2b
     bbc:	9c a7       	std	Y+44, r25	; 0x2c
     bbe:	8d a7       	std	Y+45, r24	; 0x2d
     bc0:	82 e0       	ldi	r24, 0x02	; 2
     bc2:	90 e0       	ldi	r25, 0x00	; 0
     bc4:	99 ab       	std	Y+49, r25	; 0x31
     bc6:	88 ab       	std	Y+48, r24	; 0x30
     bc8:	80 e1       	ldi	r24, 0x10	; 16
     bca:	8f a7       	std	Y+47, r24	; 0x2f
     bcc:	1d aa       	std	Y+53, r1	; 0x35
     bce:	1c aa       	std	Y+52, r1	; 0x34
     bd0:	1b aa       	std	Y+51, r1	; 0x33
     bd2:	1a aa       	std	Y+50, r1	; 0x32
     bd4:	80 e5       	ldi	r24, 0x50	; 80
     bd6:	8e a7       	std	Y+46, r24	; 0x2e
     bd8:	b6 01       	movw	r22, r12
     bda:	63 5f       	subi	r22, 0xF3	; 243
     bdc:	71 4f       	sbci	r23, 0xF1	; 241
     bde:	a7 01       	movw	r20, r14
     be0:	ce 01       	movw	r24, r28
     be2:	c6 96       	adiw	r24, 0x36	; 54
     be4:	0e 94 41 14 	call	0x2882	; 0x2882 <memcpy>
     be8:	f8 01       	movw	r30, r16
     bea:	84 85       	ldd	r24, Z+12	; 0x0c
     bec:	95 85       	ldd	r25, Z+13	; 0x0d
     bee:	a6 85       	ldd	r26, Z+14	; 0x0e
     bf0:	b7 85       	ldd	r27, Z+15	; 0x0f
     bf2:	8e 0d       	add	r24, r14
     bf4:	9f 1d       	adc	r25, r15
     bf6:	a1 1d       	adc	r26, r1
     bf8:	b1 1d       	adc	r27, r1
     bfa:	84 87       	std	Z+12, r24	; 0x0c
     bfc:	95 87       	std	Z+13, r25	; 0x0d
     bfe:	a6 87       	std	Z+14, r26	; 0x0e
     c00:	b7 87       	std	Z+15, r27	; 0x0f
     c02:	97 01       	movw	r18, r14
     c04:	2c 5e       	subi	r18, 0xEC	; 236
     c06:	3f 4f       	sbci	r19, 0xFF	; 255
     c08:	a6 01       	movw	r20, r12
     c0a:	41 50       	subi	r20, 0x01	; 1
     c0c:	52 4f       	sbci	r21, 0xF2	; 242
     c0e:	6e e3       	ldi	r22, 0x3E	; 62
     c10:	71 e0       	ldi	r23, 0x01	; 1
     c12:	ce 01       	movw	r24, r28
     c14:	82 96       	adiw	r24, 0x22	; 34
     c16:	fd de       	rcall	.-518    	; 0xa12 <TCP_Checksum16>
     c18:	9b ab       	std	Y+51, r25	; 0x33
     c1a:	8a ab       	std	Y+50, r24	; 0x32
     c1c:	c7 01       	movw	r24, r14
     c1e:	88 96       	adiw	r24, 0x28	; 40
     c20:	98 8b       	std	Y+16, r25	; 0x10
     c22:	89 8b       	std	Y+17, r24	; 0x11
     c24:	1f 86       	std	Y+15, r1	; 0x0f
     c26:	85 e4       	ldi	r24, 0x45	; 69
     c28:	8e 87       	std	Y+14, r24	; 0x0e
     c2a:	1c 8a       	std	Y+20, r1	; 0x14
     c2c:	1d 8a       	std	Y+21, r1	; 0x15
     c2e:	1b 8a       	std	Y+19, r1	; 0x13
     c30:	1a 8a       	std	Y+18, r1	; 0x12
     c32:	19 8e       	std	Y+25, r1	; 0x19
     c34:	18 8e       	std	Y+24, r1	; 0x18
     c36:	86 e0       	ldi	r24, 0x06	; 6
     c38:	d8 2e       	mov	r13, r24
     c3a:	df 8a       	std	Y+23, r13	; 0x17
     c3c:	80 e8       	ldi	r24, 0x80	; 128
     c3e:	8e 8b       	std	Y+22, r24	; 0x16
     c40:	80 91 3e 01 	lds	r24, 0x013E	; 0x80013e <ServerIPAddress>
     c44:	90 91 3f 01 	lds	r25, 0x013F	; 0x80013f <ServerIPAddress+0x1>
     c48:	a0 91 40 01 	lds	r26, 0x0140	; 0x800140 <ServerIPAddress+0x2>
     c4c:	b0 91 41 01 	lds	r27, 0x0141	; 0x800141 <ServerIPAddress+0x3>
     c50:	8a 8f       	std	Y+26, r24	; 0x1a
     c52:	9b 8f       	std	Y+27, r25	; 0x1b
     c54:	ac 8f       	std	Y+28, r26	; 0x1c
     c56:	bd 8f       	std	Y+29, r27	; 0x1d
     c58:	f8 01       	movw	r30, r16
     c5a:	84 81       	ldd	r24, Z+4	; 0x04
     c5c:	95 81       	ldd	r25, Z+5	; 0x05
     c5e:	a6 81       	ldd	r26, Z+6	; 0x06
     c60:	b7 81       	ldd	r27, Z+7	; 0x07
     c62:	8e 8f       	std	Y+30, r24	; 0x1e
     c64:	9f 8f       	std	Y+31, r25	; 0x1f
     c66:	a8 a3       	std	Y+32, r26	; 0x20
     c68:	b9 a3       	std	Y+33, r27	; 0x21
     c6a:	64 e1       	ldi	r22, 0x14	; 20
     c6c:	70 e0       	ldi	r23, 0x00	; 0
     c6e:	ce 01       	movw	r24, r28
     c70:	0e 96       	adiw	r24, 0x0e	; 14
     c72:	c8 dd       	rcall	.-1136   	; 0x804 <Ethernet_Checksum16>
     c74:	99 8f       	std	Y+25, r25	; 0x19
     c76:	88 8f       	std	Y+24, r24	; 0x18
     c78:	e2 e4       	ldi	r30, 0x42	; 66
     c7a:	f1 e0       	ldi	r31, 0x01	; 1
     c7c:	de 01       	movw	r26, r28
     c7e:	16 96       	adiw	r26, 0x06	; 6
     c80:	8d 2d       	mov	r24, r13
     c82:	01 90       	ld	r0, Z+
     c84:	0d 92       	st	X+, r0
     c86:	8a 95       	dec	r24
     c88:	e1 f7       	brne	.-8      	; 0xc82 <TCP_TCPTask+0x1ae>
     c8a:	e2 e2       	ldi	r30, 0x22	; 34
     c8c:	f1 e0       	ldi	r31, 0x01	; 1
     c8e:	de 01       	movw	r26, r28
     c90:	01 90       	ld	r0, Z+
     c92:	0d 92       	st	X+, r0
     c94:	da 94       	dec	r13
     c96:	e1 f7       	brne	.-8      	; 0xc90 <TCP_TCPTask+0x1bc>
     c98:	88 e0       	ldi	r24, 0x08	; 8
     c9a:	90 e0       	ldi	r25, 0x00	; 0
     c9c:	9d 87       	std	Y+13, r25	; 0x0d
     c9e:	8c 87       	std	Y+12, r24	; 0x0c
     ca0:	f6 e3       	ldi	r31, 0x36	; 54
     ca2:	ef 0e       	add	r14, r31
     ca4:	f1 1c       	adc	r15, r1
     ca6:	d5 01       	movw	r26, r10
     ca8:	ed 92       	st	X+, r14
     caa:	fc 92       	st	X, r15
     cac:	f8 01       	movw	r30, r16
     cae:	ed 5e       	subi	r30, 0xED	; 237
     cb0:	fd 4f       	sbci	r31, 0xFD	; 253
     cb2:	10 82       	st	Z, r1
     cb4:	07 c0       	rjmp	.+14     	; 0xcc4 <TCP_TCPTask+0x1f0>
     cb6:	01 96       	adiw	r24, 0x01	; 1
     cb8:	ea 5e       	subi	r30, 0xEA	; 234
     cba:	fd 4f       	sbci	r31, 0xFD	; 253
     cbc:	83 30       	cpi	r24, 0x03	; 3
     cbe:	91 05       	cpc	r25, r1
     cc0:	09 f0       	breq	.+2      	; 0xcc4 <TCP_TCPTask+0x1f0>
     cc2:	44 cf       	rjmp	.-376    	; 0xb4c <TCP_TCPTask+0x78>
     cc4:	df 91       	pop	r29
     cc6:	cf 91       	pop	r28
     cc8:	1f 91       	pop	r17
     cca:	0f 91       	pop	r16
     ccc:	ff 90       	pop	r15
     cce:	ef 90       	pop	r14
     cd0:	df 90       	pop	r13
     cd2:	cf 90       	pop	r12
     cd4:	bf 90       	pop	r11
     cd6:	af 90       	pop	r10
     cd8:	08 95       	ret

00000cda <TCP_Init>:
     cda:	10 92 3f 14 	sts	0x143F, r1	; 0x80143f <PortStateTable+0x2>
     cde:	8a e0       	ldi	r24, 0x0A	; 10
     ce0:	80 93 10 10 	sts	0x1010, r24	; 0x801010 <ConnectionStateTable+0x215>
     ce4:	80 93 26 12 	sts	0x1226, r24	; 0x801226 <ConnectionStateTable+0x42b>
     ce8:	80 93 3c 14 	sts	0x143C, r24	; 0x80143c <ConnectionStateTable+0x641>
     cec:	08 95       	ret

00000cee <TCP_SetPortState>:
     cee:	20 91 3d 14 	lds	r18, 0x143D	; 0x80143d <PortStateTable>
     cf2:	30 91 3e 14 	lds	r19, 0x143E	; 0x80143e <PortStateTable+0x1>
     cf6:	28 17       	cp	r18, r24
     cf8:	39 07       	cpc	r19, r25
     cfa:	51 f0       	breq	.+20     	; 0xd10 <TCP_SetPortState+0x22>
     cfc:	61 30       	cpi	r22, 0x01	; 1
     cfe:	71 f4       	brne	.+28     	; 0xd1c <TCP_SetPortState+0x2e>
     d00:	20 91 3f 14 	lds	r18, 0x143F	; 0x80143f <PortStateTable+0x2>
     d04:	21 11       	cpse	r18, r1
     d06:	0c c0       	rjmp	.+24     	; 0xd20 <TCP_SetPortState+0x32>
     d08:	90 93 3e 14 	sts	0x143E, r25	; 0x80143e <PortStateTable+0x1>
     d0c:	80 93 3d 14 	sts	0x143D, r24	; 0x80143d <PortStateTable>
     d10:	60 93 3f 14 	sts	0x143F, r22	; 0x80143f <PortStateTable+0x2>
     d14:	50 93 41 14 	sts	0x1441, r21	; 0x801441 <PortStateTable+0x4>
     d18:	40 93 40 14 	sts	0x1440, r20	; 0x801440 <PortStateTable+0x3>
     d1c:	81 e0       	ldi	r24, 0x01	; 1
     d1e:	08 95       	ret
     d20:	80 e0       	ldi	r24, 0x00	; 0
     d22:	08 95       	ret

00000d24 <TCP_GetPortState>:
     d24:	20 91 3d 14 	lds	r18, 0x143D	; 0x80143d <PortStateTable>
     d28:	30 91 3e 14 	lds	r19, 0x143E	; 0x80143e <PortStateTable+0x1>
     d2c:	28 17       	cp	r18, r24
     d2e:	39 07       	cpc	r19, r25
     d30:	19 f4       	brne	.+6      	; 0xd38 <TCP_GetPortState+0x14>
     d32:	80 91 3f 14 	lds	r24, 0x143F	; 0x80143f <PortStateTable+0x2>
     d36:	08 95       	ret
     d38:	80 e0       	ldi	r24, 0x00	; 0
     d3a:	08 95       	ret

00000d3c <TCP_SetConnectionState>:
     d3c:	9f 92       	push	r9
     d3e:	af 92       	push	r10
     d40:	bf 92       	push	r11
     d42:	cf 92       	push	r12
     d44:	df 92       	push	r13
     d46:	ef 92       	push	r14
     d48:	ff 92       	push	r15
     d4a:	0f 93       	push	r16
     d4c:	1f 93       	push	r17
     d4e:	cf 93       	push	r28
     d50:	df 93       	push	r29
     d52:	6c 01       	movw	r12, r24
     d54:	7b 01       	movw	r14, r22
     d56:	8a 01       	movw	r16, r20
     d58:	92 2e       	mov	r9, r18
     d5a:	cb ef       	ldi	r28, 0xFB	; 251
     d5c:	dd e0       	ldi	r29, 0x0D	; 13
     d5e:	a1 2c       	mov	r10, r1
     d60:	b1 2c       	mov	r11, r1
     d62:	88 81       	ld	r24, Y
     d64:	99 81       	ldd	r25, Y+1	; 0x01
     d66:	8c 15       	cp	r24, r12
     d68:	9d 05       	cpc	r25, r13
     d6a:	d1 f4       	brne	.+52     	; 0xda0 <TCP_SetConnectionState+0x64>
     d6c:	44 e0       	ldi	r20, 0x04	; 4
     d6e:	50 e0       	ldi	r21, 0x00	; 0
     d70:	b7 01       	movw	r22, r14
     d72:	ce 01       	movw	r24, r28
     d74:	04 96       	adiw	r24, 0x04	; 4
     d76:	0e 94 34 14 	call	0x2868	; 0x2868 <memcmp>
     d7a:	89 2b       	or	r24, r25
     d7c:	89 f4       	brne	.+34     	; 0xda0 <TCP_SetConnectionState+0x64>
     d7e:	8a 81       	ldd	r24, Y+2	; 0x02
     d80:	9b 81       	ldd	r25, Y+3	; 0x03
     d82:	80 17       	cp	r24, r16
     d84:	91 07       	cpc	r25, r17
     d86:	61 f4       	brne	.+24     	; 0xda0 <TCP_SetConnectionState+0x64>
     d88:	86 e1       	ldi	r24, 0x16	; 22
     d8a:	92 e0       	ldi	r25, 0x02	; 2
     d8c:	a8 9e       	mul	r10, r24
     d8e:	f0 01       	movw	r30, r0
     d90:	a9 9e       	mul	r10, r25
     d92:	f0 0d       	add	r31, r0
     d94:	b8 9e       	mul	r11, r24
     d96:	f0 0d       	add	r31, r0
     d98:	11 24       	eor	r1, r1
     d9a:	e0 5f       	subi	r30, 0xF0	; 240
     d9c:	ff 4e       	sbci	r31, 0xEF	; 239
     d9e:	37 c0       	rjmp	.+110    	; 0xe0e <TCP_SetConnectionState+0xd2>
     da0:	8f ef       	ldi	r24, 0xFF	; 255
     da2:	a8 1a       	sub	r10, r24
     da4:	b8 0a       	sbc	r11, r24
     da6:	ca 5e       	subi	r28, 0xEA	; 234
     da8:	dd 4f       	sbci	r29, 0xFD	; 253
     daa:	83 e0       	ldi	r24, 0x03	; 3
     dac:	a8 16       	cp	r10, r24
     dae:	b1 04       	cpc	r11, r1
     db0:	c1 f6       	brne	.-80     	; 0xd62 <TCP_SetConnectionState+0x26>
     db2:	80 91 10 10 	lds	r24, 0x1010	; 0x801010 <ConnectionStateTable+0x215>
     db6:	8a 30       	cpi	r24, 0x0A	; 10
     db8:	59 f0       	breq	.+22     	; 0xdd0 <TCP_SetConnectionState+0x94>
     dba:	80 91 26 12 	lds	r24, 0x1226	; 0x801226 <ConnectionStateTable+0x42b>
     dbe:	8a 30       	cpi	r24, 0x0A	; 10
     dc0:	51 f0       	breq	.+20     	; 0xdd6 <TCP_SetConnectionState+0x9a>
     dc2:	80 91 3c 14 	lds	r24, 0x143C	; 0x80143c <ConnectionStateTable+0x641>
     dc6:	8a 30       	cpi	r24, 0x0A	; 10
     dc8:	29 f5       	brne	.+74     	; 0xe14 <TCP_SetConnectionState+0xd8>
     dca:	82 e0       	ldi	r24, 0x02	; 2
     dcc:	90 e0       	ldi	r25, 0x00	; 0
     dce:	05 c0       	rjmp	.+10     	; 0xdda <TCP_SetConnectionState+0x9e>
     dd0:	80 e0       	ldi	r24, 0x00	; 0
     dd2:	90 e0       	ldi	r25, 0x00	; 0
     dd4:	02 c0       	rjmp	.+4      	; 0xdda <TCP_SetConnectionState+0x9e>
     dd6:	81 e0       	ldi	r24, 0x01	; 1
     dd8:	90 e0       	ldi	r25, 0x00	; 0
     dda:	26 e1       	ldi	r18, 0x16	; 22
     ddc:	32 e0       	ldi	r19, 0x02	; 2
     dde:	82 9f       	mul	r24, r18
     de0:	f0 01       	movw	r30, r0
     de2:	83 9f       	mul	r24, r19
     de4:	f0 0d       	add	r31, r0
     de6:	92 9f       	mul	r25, r18
     de8:	f0 0d       	add	r31, r0
     dea:	11 24       	eor	r1, r1
     dec:	e5 50       	subi	r30, 0x05	; 5
     dee:	f2 4f       	sbci	r31, 0xF2	; 242
     df0:	d1 82       	std	Z+1, r13	; 0x01
     df2:	c0 82       	st	Z, r12
     df4:	e7 01       	movw	r28, r14
     df6:	88 81       	ld	r24, Y
     df8:	99 81       	ldd	r25, Y+1	; 0x01
     dfa:	aa 81       	ldd	r26, Y+2	; 0x02
     dfc:	bb 81       	ldd	r27, Y+3	; 0x03
     dfe:	84 83       	std	Z+4, r24	; 0x04
     e00:	95 83       	std	Z+5, r25	; 0x05
     e02:	a6 83       	std	Z+6, r26	; 0x06
     e04:	b7 83       	std	Z+7, r27	; 0x07
     e06:	13 83       	std	Z+3, r17	; 0x03
     e08:	02 83       	std	Z+2, r16	; 0x02
     e0a:	eb 5e       	subi	r30, 0xEB	; 235
     e0c:	fd 4f       	sbci	r31, 0xFD	; 253
     e0e:	90 82       	st	Z, r9
     e10:	81 e0       	ldi	r24, 0x01	; 1
     e12:	01 c0       	rjmp	.+2      	; 0xe16 <TCP_SetConnectionState+0xda>
     e14:	80 e0       	ldi	r24, 0x00	; 0
     e16:	df 91       	pop	r29
     e18:	cf 91       	pop	r28
     e1a:	1f 91       	pop	r17
     e1c:	0f 91       	pop	r16
     e1e:	ff 90       	pop	r15
     e20:	ef 90       	pop	r14
     e22:	df 90       	pop	r13
     e24:	cf 90       	pop	r12
     e26:	bf 90       	pop	r11
     e28:	af 90       	pop	r10
     e2a:	9f 90       	pop	r9
     e2c:	08 95       	ret

00000e2e <TCP_GetConnectionState>:
     e2e:	af 92       	push	r10
     e30:	bf 92       	push	r11
     e32:	cf 92       	push	r12
     e34:	df 92       	push	r13
     e36:	ef 92       	push	r14
     e38:	ff 92       	push	r15
     e3a:	0f 93       	push	r16
     e3c:	1f 93       	push	r17
     e3e:	cf 93       	push	r28
     e40:	df 93       	push	r29
     e42:	7c 01       	movw	r14, r24
     e44:	6b 01       	movw	r12, r22
     e46:	5a 01       	movw	r10, r20
     e48:	cb ef       	ldi	r28, 0xFB	; 251
     e4a:	dd e0       	ldi	r29, 0x0D	; 13
     e4c:	00 e0       	ldi	r16, 0x00	; 0
     e4e:	10 e0       	ldi	r17, 0x00	; 0
     e50:	88 81       	ld	r24, Y
     e52:	99 81       	ldd	r25, Y+1	; 0x01
     e54:	8e 15       	cp	r24, r14
     e56:	9f 05       	cpc	r25, r15
     e58:	d9 f4       	brne	.+54     	; 0xe90 <TCP_GetConnectionState+0x62>
     e5a:	44 e0       	ldi	r20, 0x04	; 4
     e5c:	50 e0       	ldi	r21, 0x00	; 0
     e5e:	b6 01       	movw	r22, r12
     e60:	ce 01       	movw	r24, r28
     e62:	04 96       	adiw	r24, 0x04	; 4
     e64:	0e 94 34 14 	call	0x2868	; 0x2868 <memcmp>
     e68:	89 2b       	or	r24, r25
     e6a:	91 f4       	brne	.+36     	; 0xe90 <TCP_GetConnectionState+0x62>
     e6c:	8a 81       	ldd	r24, Y+2	; 0x02
     e6e:	9b 81       	ldd	r25, Y+3	; 0x03
     e70:	8a 15       	cp	r24, r10
     e72:	9b 05       	cpc	r25, r11
     e74:	69 f4       	brne	.+26     	; 0xe90 <TCP_GetConnectionState+0x62>
     e76:	86 e1       	ldi	r24, 0x16	; 22
     e78:	92 e0       	ldi	r25, 0x02	; 2
     e7a:	08 9f       	mul	r16, r24
     e7c:	f0 01       	movw	r30, r0
     e7e:	09 9f       	mul	r16, r25
     e80:	f0 0d       	add	r31, r0
     e82:	18 9f       	mul	r17, r24
     e84:	f0 0d       	add	r31, r0
     e86:	11 24       	eor	r1, r1
     e88:	e0 5f       	subi	r30, 0xF0	; 240
     e8a:	ff 4e       	sbci	r31, 0xEF	; 239
     e8c:	80 81       	ld	r24, Z
     e8e:	08 c0       	rjmp	.+16     	; 0xea0 <TCP_GetConnectionState+0x72>
     e90:	0f 5f       	subi	r16, 0xFF	; 255
     e92:	1f 4f       	sbci	r17, 0xFF	; 255
     e94:	ca 5e       	subi	r28, 0xEA	; 234
     e96:	dd 4f       	sbci	r29, 0xFD	; 253
     e98:	03 30       	cpi	r16, 0x03	; 3
     e9a:	11 05       	cpc	r17, r1
     e9c:	c9 f6       	brne	.-78     	; 0xe50 <TCP_GetConnectionState+0x22>
     e9e:	8a e0       	ldi	r24, 0x0A	; 10
     ea0:	df 91       	pop	r29
     ea2:	cf 91       	pop	r28
     ea4:	1f 91       	pop	r17
     ea6:	0f 91       	pop	r16
     ea8:	ff 90       	pop	r15
     eaa:	ef 90       	pop	r14
     eac:	df 90       	pop	r13
     eae:	cf 90       	pop	r12
     eb0:	bf 90       	pop	r11
     eb2:	af 90       	pop	r10
     eb4:	08 95       	ret

00000eb6 <TCP_GetConnectionInfo>:
     eb6:	af 92       	push	r10
     eb8:	bf 92       	push	r11
     eba:	cf 92       	push	r12
     ebc:	df 92       	push	r13
     ebe:	ef 92       	push	r14
     ec0:	ff 92       	push	r15
     ec2:	0f 93       	push	r16
     ec4:	1f 93       	push	r17
     ec6:	cf 93       	push	r28
     ec8:	df 93       	push	r29
     eca:	7c 01       	movw	r14, r24
     ecc:	6b 01       	movw	r12, r22
     ece:	5a 01       	movw	r10, r20
     ed0:	cb ef       	ldi	r28, 0xFB	; 251
     ed2:	dd e0       	ldi	r29, 0x0D	; 13
     ed4:	00 e0       	ldi	r16, 0x00	; 0
     ed6:	10 e0       	ldi	r17, 0x00	; 0
     ed8:	88 81       	ld	r24, Y
     eda:	99 81       	ldd	r25, Y+1	; 0x01
     edc:	8e 15       	cp	r24, r14
     ede:	9f 05       	cpc	r25, r15
     ee0:	d1 f4       	brne	.+52     	; 0xf16 <TCP_GetConnectionInfo+0x60>
     ee2:	44 e0       	ldi	r20, 0x04	; 4
     ee4:	50 e0       	ldi	r21, 0x00	; 0
     ee6:	b6 01       	movw	r22, r12
     ee8:	ce 01       	movw	r24, r28
     eea:	04 96       	adiw	r24, 0x04	; 4
     eec:	0e 94 34 14 	call	0x2868	; 0x2868 <memcmp>
     ef0:	89 2b       	or	r24, r25
     ef2:	89 f4       	brne	.+34     	; 0xf16 <TCP_GetConnectionInfo+0x60>
     ef4:	8a 81       	ldd	r24, Y+2	; 0x02
     ef6:	9b 81       	ldd	r25, Y+3	; 0x03
     ef8:	8a 15       	cp	r24, r10
     efa:	9b 05       	cpc	r25, r11
     efc:	61 f4       	brne	.+24     	; 0xf16 <TCP_GetConnectionInfo+0x60>
     efe:	26 e1       	ldi	r18, 0x16	; 22
     f00:	32 e0       	ldi	r19, 0x02	; 2
     f02:	02 9f       	mul	r16, r18
     f04:	c0 01       	movw	r24, r0
     f06:	03 9f       	mul	r16, r19
     f08:	90 0d       	add	r25, r0
     f0a:	12 9f       	mul	r17, r18
     f0c:	90 0d       	add	r25, r0
     f0e:	11 24       	eor	r1, r1
     f10:	8d 5f       	subi	r24, 0xFD	; 253
     f12:	91 4f       	sbci	r25, 0xF1	; 241
     f14:	09 c0       	rjmp	.+18     	; 0xf28 <TCP_GetConnectionInfo+0x72>
     f16:	0f 5f       	subi	r16, 0xFF	; 255
     f18:	1f 4f       	sbci	r17, 0xFF	; 255
     f1a:	ca 5e       	subi	r28, 0xEA	; 234
     f1c:	dd 4f       	sbci	r29, 0xFD	; 253
     f1e:	03 30       	cpi	r16, 0x03	; 3
     f20:	11 05       	cpc	r17, r1
     f22:	d1 f6       	brne	.-76     	; 0xed8 <TCP_GetConnectionInfo+0x22>
     f24:	80 e0       	ldi	r24, 0x00	; 0
     f26:	90 e0       	ldi	r25, 0x00	; 0
     f28:	df 91       	pop	r29
     f2a:	cf 91       	pop	r28
     f2c:	1f 91       	pop	r17
     f2e:	0f 91       	pop	r16
     f30:	ff 90       	pop	r15
     f32:	ef 90       	pop	r14
     f34:	df 90       	pop	r13
     f36:	cf 90       	pop	r12
     f38:	bf 90       	pop	r11
     f3a:	af 90       	pop	r10
     f3c:	08 95       	ret

00000f3e <TCP_ProcessTCPPacket>:
     f3e:	6f 92       	push	r6
     f40:	7f 92       	push	r7
     f42:	8f 92       	push	r8
     f44:	9f 92       	push	r9
     f46:	af 92       	push	r10
     f48:	bf 92       	push	r11
     f4a:	cf 92       	push	r12
     f4c:	df 92       	push	r13
     f4e:	ef 92       	push	r14
     f50:	ff 92       	push	r15
     f52:	0f 93       	push	r16
     f54:	1f 93       	push	r17
     f56:	cf 93       	push	r28
     f58:	df 93       	push	r29
     f5a:	4c 01       	movw	r8, r24
     f5c:	eb 01       	movw	r28, r22
     f5e:	8a 01       	movw	r16, r20
     f60:	cb 01       	movw	r24, r22
     f62:	54 dd       	rcall	.-1368   	; 0xa0c <DecodeTCPHeader>
     f64:	ca 80       	ldd	r12, Y+2	; 0x02
     f66:	db 80       	ldd	r13, Y+3	; 0x03
     f68:	c6 01       	movw	r24, r12
     f6a:	dc de       	rcall	.-584    	; 0xd24 <TCP_GetPortState>
     f6c:	94 01       	movw	r18, r8
     f6e:	24 5f       	subi	r18, 0xF4	; 244
     f70:	3f 4f       	sbci	r19, 0xFF	; 255
     f72:	79 01       	movw	r14, r18
     f74:	81 30       	cpi	r24, 0x01	; 1
     f76:	c1 f4       	brne	.+48     	; 0xfa8 <TCP_ProcessTCPPacket+0x6a>
     f78:	8d 85       	ldd	r24, Y+13	; 0x0d
     f7a:	81 ff       	sbrs	r24, 1
     f7c:	06 c0       	rjmp	.+12     	; 0xf8a <TCP_ProcessTCPPacket+0x4c>
     f7e:	48 81       	ld	r20, Y
     f80:	59 81       	ldd	r21, Y+1	; 0x01
     f82:	20 e0       	ldi	r18, 0x00	; 0
     f84:	b7 01       	movw	r22, r14
     f86:	c6 01       	movw	r24, r12
     f88:	d9 de       	rcall	.-590    	; 0xd3c <TCP_SetConnectionState>
     f8a:	7d 84       	ldd	r7, Y+13	; 0x0d
     f8c:	ca 80       	ldd	r12, Y+2	; 0x02
     f8e:	db 80       	ldd	r13, Y+3	; 0x03
     f90:	a8 80       	ld	r10, Y
     f92:	b9 80       	ldd	r11, Y+1	; 0x01
     f94:	72 fe       	sbrs	r7, 2
     f96:	0a c0       	rjmp	.+20     	; 0xfac <TCP_ProcessTCPPacket+0x6e>
     f98:	2a e0       	ldi	r18, 0x0A	; 10
     f9a:	a5 01       	movw	r20, r10
     f9c:	b7 01       	movw	r22, r14
     f9e:	c6 01       	movw	r24, r12
     fa0:	cd de       	rcall	.-614    	; 0xd3c <TCP_SetConnectionState>
     fa2:	88 23       	and	r24, r24
     fa4:	09 f4       	brne	.+2      	; 0xfa8 <TCP_ProcessTCPPacket+0x6a>
     fa6:	4c c1       	rjmp	.+664    	; 0x1240 <__EEPROM_REGION_LENGTH__+0x240>
     fa8:	84 e1       	ldi	r24, 0x14	; 20
     faa:	53 c0       	rjmp	.+166    	; 0x1052 <__EEPROM_REGION_LENGTH__+0x52>
     fac:	a5 01       	movw	r20, r10
     fae:	b7 01       	movw	r22, r14
     fb0:	c6 01       	movw	r24, r12
     fb2:	3d df       	rcall	.-390    	; 0xe2e <TCP_GetConnectionState>
     fb4:	84 30       	cpi	r24, 0x04	; 4
     fb6:	09 f4       	brne	.+2      	; 0xfba <TCP_ProcessTCPPacket+0x7c>
     fb8:	05 c1       	rjmp	.+522    	; 0x11c4 <__EEPROM_REGION_LENGTH__+0x1c4>
     fba:	40 f4       	brcc	.+16     	; 0xfcc <TCP_ProcessTCPPacket+0x8e>
     fbc:	82 30       	cpi	r24, 0x02	; 2
     fbe:	09 f4       	brne	.+2      	; 0xfc2 <TCP_ProcessTCPPacket+0x84>
     fc0:	4c c0       	rjmp	.+152    	; 0x105a <__EEPROM_REGION_LENGTH__+0x5a>
     fc2:	08 f0       	brcs	.+2      	; 0xfc6 <TCP_ProcessTCPPacket+0x88>
     fc4:	66 c0       	rjmp	.+204    	; 0x1092 <__EEPROM_REGION_LENGTH__+0x92>
     fc6:	88 23       	and	r24, r24
     fc8:	c9 f0       	breq	.+50     	; 0xffc <TCP_ProcessTCPPacket+0xbe>
     fca:	3a c1       	rjmp	.+628    	; 0x1240 <__EEPROM_REGION_LENGTH__+0x240>
     fcc:	86 30       	cpi	r24, 0x06	; 6
     fce:	09 f4       	brne	.+2      	; 0xfd2 <TCP_ProcessTCPPacket+0x94>
     fd0:	2b c1       	rjmp	.+598    	; 0x1228 <__EEPROM_REGION_LENGTH__+0x228>
     fd2:	08 f4       	brcc	.+2      	; 0xfd6 <TCP_ProcessTCPPacket+0x98>
     fd4:	ff c0       	rjmp	.+510    	; 0x11d4 <__EEPROM_REGION_LENGTH__+0x1d4>
     fd6:	87 30       	cpi	r24, 0x07	; 7
     fd8:	09 f0       	breq	.+2      	; 0xfdc <TCP_ProcessTCPPacket+0x9e>
     fda:	32 c1       	rjmp	.+612    	; 0x1240 <__EEPROM_REGION_LENGTH__+0x240>
     fdc:	a5 01       	movw	r20, r10
     fde:	b7 01       	movw	r22, r14
     fe0:	c6 01       	movw	r24, r12
     fe2:	69 df       	rcall	.-302    	; 0xeb6 <TCP_GetConnectionInfo>
     fe4:	21 e1       	ldi	r18, 0x11	; 17
     fe6:	d8 01       	movw	r26, r16
     fe8:	1d 96       	adiw	r26, 0x0d	; 13
     fea:	2c 93       	st	X, r18
     fec:	84 5f       	subi	r24, 0xF4	; 244
     fee:	9d 4f       	sbci	r25, 0xFD	; 253
     ff0:	fc 01       	movw	r30, r24
     ff2:	10 82       	st	Z, r1
     ff4:	48 81       	ld	r20, Y
     ff6:	59 81       	ldd	r21, Y+1	; 0x01
     ff8:	24 e0       	ldi	r18, 0x04	; 4
     ffa:	11 c1       	rjmp	.+546    	; 0x121e <__EEPROM_REGION_LENGTH__+0x21e>
     ffc:	b2 e0       	ldi	r27, 0x02	; 2
     ffe:	7b 12       	cpse	r7, r27
    1000:	1f c1       	rjmp	.+574    	; 0x1240 <__EEPROM_REGION_LENGTH__+0x240>
    1002:	22 e0       	ldi	r18, 0x02	; 2
    1004:	a5 01       	movw	r20, r10
    1006:	b7 01       	movw	r22, r14
    1008:	c6 01       	movw	r24, r12
    100a:	98 de       	rcall	.-720    	; 0xd3c <TCP_SetConnectionState>
    100c:	88 23       	and	r24, r24
    100e:	01 f1       	breq	.+64     	; 0x1050 <__EEPROM_REGION_LENGTH__+0x50>
    1010:	82 e1       	ldi	r24, 0x12	; 18
    1012:	f8 01       	movw	r30, r16
    1014:	85 87       	std	Z+13, r24	; 0x0d
    1016:	48 81       	ld	r20, Y
    1018:	59 81       	ldd	r21, Y+1	; 0x01
    101a:	b7 01       	movw	r22, r14
    101c:	8a 81       	ldd	r24, Y+2	; 0x02
    101e:	9b 81       	ldd	r25, Y+3	; 0x03
    1020:	4a df       	rcall	.-364    	; 0xeb6 <TCP_GetConnectionInfo>
    1022:	4f 81       	ldd	r20, Y+7	; 0x07
    1024:	5e 81       	ldd	r21, Y+6	; 0x06
    1026:	6d 81       	ldd	r22, Y+5	; 0x05
    1028:	7c 81       	ldd	r23, Y+4	; 0x04
    102a:	4f 5f       	subi	r20, 0xFF	; 255
    102c:	5f 4f       	sbci	r21, 0xFF	; 255
    102e:	6f 4f       	sbci	r22, 0xFF	; 255
    1030:	7f 4f       	sbci	r23, 0xFF	; 255
    1032:	dc 01       	movw	r26, r24
    1034:	4d 93       	st	X+, r20
    1036:	5d 93       	st	X+, r21
    1038:	6d 93       	st	X+, r22
    103a:	7c 93       	st	X, r23
    103c:	13 97       	sbiw	r26, 0x03	; 3
    103e:	fc 01       	movw	r30, r24
    1040:	14 82       	std	Z+4, r1	; 0x04
    1042:	15 82       	std	Z+5, r1	; 0x05
    1044:	16 82       	std	Z+6, r1	; 0x06
    1046:	17 82       	std	Z+7, r1	; 0x07
    1048:	e4 5f       	subi	r30, 0xF4	; 244
    104a:	fd 4f       	sbci	r31, 0xFD	; 253
    104c:	10 82       	st	Z, r1
    104e:	fb c0       	rjmp	.+502    	; 0x1246 <__EEPROM_REGION_LENGTH__+0x246>
    1050:	84 e0       	ldi	r24, 0x04	; 4
    1052:	d8 01       	movw	r26, r16
    1054:	1d 96       	adiw	r26, 0x0d	; 13
    1056:	8c 93       	st	X, r24
    1058:	f6 c0       	rjmp	.+492    	; 0x1246 <__EEPROM_REGION_LENGTH__+0x246>
    105a:	b0 e1       	ldi	r27, 0x10	; 16
    105c:	7b 12       	cpse	r7, r27
    105e:	f0 c0       	rjmp	.+480    	; 0x1240 <__EEPROM_REGION_LENGTH__+0x240>
    1060:	23 e0       	ldi	r18, 0x03	; 3
    1062:	a5 01       	movw	r20, r10
    1064:	b7 01       	movw	r22, r14
    1066:	c6 01       	movw	r24, r12
    1068:	69 de       	rcall	.-814    	; 0xd3c <TCP_SetConnectionState>
    106a:	48 81       	ld	r20, Y
    106c:	59 81       	ldd	r21, Y+1	; 0x01
    106e:	b7 01       	movw	r22, r14
    1070:	8a 81       	ldd	r24, Y+2	; 0x02
    1072:	9b 81       	ldd	r25, Y+3	; 0x03
    1074:	20 df       	rcall	.-448    	; 0xeb6 <TCP_GetConnectionInfo>
    1076:	fc 01       	movw	r30, r24
    1078:	44 81       	ldd	r20, Z+4	; 0x04
    107a:	55 81       	ldd	r21, Z+5	; 0x05
    107c:	66 81       	ldd	r22, Z+6	; 0x06
    107e:	77 81       	ldd	r23, Z+7	; 0x07
    1080:	4f 5f       	subi	r20, 0xFF	; 255
    1082:	5f 4f       	sbci	r21, 0xFF	; 255
    1084:	6f 4f       	sbci	r22, 0xFF	; 255
    1086:	7f 4f       	sbci	r23, 0xFF	; 255
    1088:	44 83       	std	Z+4, r20	; 0x04
    108a:	55 83       	std	Z+5, r21	; 0x05
    108c:	66 83       	std	Z+6, r22	; 0x06
    108e:	77 83       	std	Z+7, r23	; 0x07
    1090:	d7 c0       	rjmp	.+430    	; 0x1240 <__EEPROM_REGION_LENGTH__+0x240>
    1092:	b1 e1       	ldi	r27, 0x11	; 17
    1094:	7b 12       	cpse	r7, r27
    1096:	27 c0       	rjmp	.+78     	; 0x10e6 <__EEPROM_REGION_LENGTH__+0xe6>
    1098:	f8 01       	movw	r30, r16
    109a:	75 86       	std	Z+13, r7	; 0x0d
    109c:	48 81       	ld	r20, Y
    109e:	59 81       	ldd	r21, Y+1	; 0x01
    10a0:	26 e0       	ldi	r18, 0x06	; 6
    10a2:	b7 01       	movw	r22, r14
    10a4:	8a 81       	ldd	r24, Y+2	; 0x02
    10a6:	9b 81       	ldd	r25, Y+3	; 0x03
    10a8:	49 de       	rcall	.-878    	; 0xd3c <TCP_SetConnectionState>
    10aa:	48 81       	ld	r20, Y
    10ac:	59 81       	ldd	r21, Y+1	; 0x01
    10ae:	b7 01       	movw	r22, r14
    10b0:	8a 81       	ldd	r24, Y+2	; 0x02
    10b2:	9b 81       	ldd	r25, Y+3	; 0x03
    10b4:	00 df       	rcall	.-512    	; 0xeb6 <TCP_GetConnectionInfo>
    10b6:	fc 01       	movw	r30, r24
    10b8:	80 81       	ld	r24, Z
    10ba:	91 81       	ldd	r25, Z+1	; 0x01
    10bc:	a2 81       	ldd	r26, Z+2	; 0x02
    10be:	b3 81       	ldd	r27, Z+3	; 0x03
    10c0:	01 96       	adiw	r24, 0x01	; 1
    10c2:	a1 1d       	adc	r26, r1
    10c4:	b1 1d       	adc	r27, r1
    10c6:	80 83       	st	Z, r24
    10c8:	91 83       	std	Z+1, r25	; 0x01
    10ca:	a2 83       	std	Z+2, r26	; 0x02
    10cc:	b3 83       	std	Z+3, r27	; 0x03
    10ce:	84 81       	ldd	r24, Z+4	; 0x04
    10d0:	95 81       	ldd	r25, Z+5	; 0x05
    10d2:	a6 81       	ldd	r26, Z+6	; 0x06
    10d4:	b7 81       	ldd	r27, Z+7	; 0x07
    10d6:	01 96       	adiw	r24, 0x01	; 1
    10d8:	a1 1d       	adc	r26, r1
    10da:	b1 1d       	adc	r27, r1
    10dc:	84 83       	std	Z+4, r24	; 0x04
    10de:	95 83       	std	Z+5, r25	; 0x05
    10e0:	a6 83       	std	Z+6, r26	; 0x06
    10e2:	b7 83       	std	Z+7, r27	; 0x07
    10e4:	b0 c0       	rjmp	.+352    	; 0x1246 <__EEPROM_REGION_LENGTH__+0x246>
    10e6:	87 2d       	mov	r24, r7
    10e8:	87 7f       	andi	r24, 0xF7	; 247
    10ea:	80 31       	cpi	r24, 0x10	; 16
    10ec:	09 f0       	breq	.+2      	; 0x10f0 <__EEPROM_REGION_LENGTH__+0xf0>
    10ee:	a8 c0       	rjmp	.+336    	; 0x1240 <__EEPROM_REGION_LENGTH__+0x240>
    10f0:	a5 01       	movw	r20, r10
    10f2:	b7 01       	movw	r22, r14
    10f4:	c6 01       	movw	r24, r12
    10f6:	df de       	rcall	.-578    	; 0xeb6 <TCP_GetConnectionInfo>
    10f8:	6c 01       	movw	r12, r24
    10fa:	3c 01       	movw	r6, r24
    10fc:	f4 ef       	ldi	r31, 0xF4	; 244
    10fe:	6f 1a       	sub	r6, r31
    1100:	fd ef       	ldi	r31, 0xFD	; 253
    1102:	7f 0a       	sbc	r7, r31
    1104:	d3 01       	movw	r26, r6
    1106:	8c 91       	ld	r24, X
    1108:	f6 01       	movw	r30, r12
    110a:	e6 5f       	subi	r30, 0xF6	; 246
    110c:	fd 4f       	sbci	r31, 0xFD	; 253
    110e:	81 11       	cpse	r24, r1
    1110:	0d c0       	rjmp	.+26     	; 0x112c <__EEPROM_REGION_LENGTH__+0x12c>
    1112:	11 97       	sbiw	r26, 0x01	; 1
    1114:	8c 91       	ld	r24, X
    1116:	81 11       	cpse	r24, r1
    1118:	09 c0       	rjmp	.+18     	; 0x112c <__EEPROM_REGION_LENGTH__+0x12c>
    111a:	10 82       	st	Z, r1
    111c:	81 e0       	ldi	r24, 0x01	; 1
    111e:	d3 01       	movw	r26, r6
    1120:	8c 93       	st	X, r24
    1122:	d6 01       	movw	r26, r12
    1124:	19 96       	adiw	r26, 0x09	; 9
    1126:	1c 92       	st	X, r1
    1128:	1e 92       	st	-X, r1
    112a:	18 97       	sbiw	r26, 0x08	; 8
    112c:	80 81       	ld	r24, Z
    112e:	81 11       	cpse	r24, r1
    1130:	84 c0       	rjmp	.+264    	; 0x123a <__EEPROM_REGION_LENGTH__+0x23a>
    1132:	f6 01       	movw	r30, r12
    1134:	80 85       	ldd	r24, Z+8	; 0x08
    1136:	91 85       	ldd	r25, Z+9	; 0x09
    1138:	81 15       	cp	r24, r1
    113a:	f2 e0       	ldi	r31, 0x02	; 2
    113c:	9f 07       	cpc	r25, r31
    113e:	09 f4       	brne	.+2      	; 0x1142 <__EEPROM_REGION_LENGTH__+0x142>
    1140:	7c c0       	rjmp	.+248    	; 0x123a <__EEPROM_REGION_LENGTH__+0x23a>
    1142:	d4 01       	movw	r26, r8
    1144:	2c 91       	ld	r18, X
    1146:	2f 70       	andi	r18, 0x0F	; 15
    1148:	6c 85       	ldd	r22, Y+12	; 0x0c
    114a:	62 95       	swap	r22
    114c:	6f 70       	andi	r22, 0x0F	; 15
    114e:	b4 e0       	ldi	r27, 0x04	; 4
    1150:	6b 9f       	mul	r22, r27
    1152:	b0 01       	movw	r22, r0
    1154:	11 24       	eor	r1, r1
    1156:	f4 01       	movw	r30, r8
    1158:	a3 80       	ldd	r10, Z+3	; 0x03
    115a:	b2 80       	ldd	r11, Z+2	; 0x02
    115c:	f4 e0       	ldi	r31, 0x04	; 4
    115e:	2f 9f       	mul	r18, r31
    1160:	a0 18       	sub	r10, r0
    1162:	b1 08       	sbc	r11, r1
    1164:	11 24       	eor	r1, r1
    1166:	a6 1a       	sub	r10, r22
    1168:	b7 0a       	sbc	r11, r23
    116a:	0a 96       	adiw	r24, 0x0a	; 10
    116c:	6c 0f       	add	r22, r28
    116e:	7d 1f       	adc	r23, r29
    1170:	a5 01       	movw	r20, r10
    1172:	8c 0d       	add	r24, r12
    1174:	9d 1d       	adc	r25, r13
    1176:	0e 94 41 14 	call	0x2882	; 0x2882 <memcpy>
    117a:	f6 01       	movw	r30, r12
    117c:	80 81       	ld	r24, Z
    117e:	91 81       	ldd	r25, Z+1	; 0x01
    1180:	a2 81       	ldd	r26, Z+2	; 0x02
    1182:	b3 81       	ldd	r27, Z+3	; 0x03
    1184:	8a 0d       	add	r24, r10
    1186:	9b 1d       	adc	r25, r11
    1188:	a1 1d       	adc	r26, r1
    118a:	b1 1d       	adc	r27, r1
    118c:	80 83       	st	Z, r24
    118e:	91 83       	std	Z+1, r25	; 0x01
    1190:	a2 83       	std	Z+2, r26	; 0x02
    1192:	b3 83       	std	Z+3, r27	; 0x03
    1194:	80 85       	ldd	r24, Z+8	; 0x08
    1196:	91 85       	ldd	r25, Z+9	; 0x09
    1198:	a8 0e       	add	r10, r24
    119a:	b9 1e       	adc	r11, r25
    119c:	b1 86       	std	Z+9, r11	; 0x09
    119e:	a0 86       	std	Z+8, r10	; 0x08
    11a0:	a1 14       	cp	r10, r1
    11a2:	f2 e0       	ldi	r31, 0x02	; 2
    11a4:	bf 06       	cpc	r11, r31
    11a6:	19 f0       	breq	.+6      	; 0x11ae <__EEPROM_REGION_LENGTH__+0x1ae>
    11a8:	8d 85       	ldd	r24, Y+13	; 0x0d
    11aa:	83 ff       	sbrs	r24, 3
    11ac:	49 c0       	rjmp	.+146    	; 0x1240 <__EEPROM_REGION_LENGTH__+0x240>
    11ae:	d3 01       	movw	r26, r6
    11b0:	1c 92       	st	X, r1
    11b2:	f6 01       	movw	r30, r12
    11b4:	e5 5f       	subi	r30, 0xF5	; 245
    11b6:	fd 4f       	sbci	r31, 0xFD	; 253
    11b8:	81 e0       	ldi	r24, 0x01	; 1
    11ba:	80 83       	st	Z, r24
    11bc:	80 e1       	ldi	r24, 0x10	; 16
    11be:	f8 01       	movw	r30, r16
    11c0:	85 87       	std	Z+13, r24	; 0x0d
    11c2:	41 c0       	rjmp	.+130    	; 0x1246 <__EEPROM_REGION_LENGTH__+0x246>
    11c4:	f1 e1       	ldi	r31, 0x11	; 17
    11c6:	7f 16       	cp	r7, r31
    11c8:	41 f0       	breq	.+16     	; 0x11da <__EEPROM_REGION_LENGTH__+0x1da>
    11ca:	b0 e1       	ldi	r27, 0x10	; 16
    11cc:	7b 12       	cpse	r7, r27
    11ce:	38 c0       	rjmp	.+112    	; 0x1240 <__EEPROM_REGION_LENGTH__+0x240>
    11d0:	25 e0       	ldi	r18, 0x05	; 5
    11d2:	2e c0       	rjmp	.+92     	; 0x1230 <__EEPROM_REGION_LENGTH__+0x230>
    11d4:	e1 e1       	ldi	r30, 0x11	; 17
    11d6:	7e 12       	cpse	r7, r30
    11d8:	33 c0       	rjmp	.+102    	; 0x1240 <__EEPROM_REGION_LENGTH__+0x240>
    11da:	a5 01       	movw	r20, r10
    11dc:	b7 01       	movw	r22, r14
    11de:	c6 01       	movw	r24, r12
    11e0:	6a de       	rcall	.-812    	; 0xeb6 <TCP_GetConnectionInfo>
    11e2:	fc 01       	movw	r30, r24
    11e4:	80 e1       	ldi	r24, 0x10	; 16
    11e6:	d8 01       	movw	r26, r16
    11e8:	1d 96       	adiw	r26, 0x0d	; 13
    11ea:	8c 93       	st	X, r24
    11ec:	80 81       	ld	r24, Z
    11ee:	91 81       	ldd	r25, Z+1	; 0x01
    11f0:	a2 81       	ldd	r26, Z+2	; 0x02
    11f2:	b3 81       	ldd	r27, Z+3	; 0x03
    11f4:	01 96       	adiw	r24, 0x01	; 1
    11f6:	a1 1d       	adc	r26, r1
    11f8:	b1 1d       	adc	r27, r1
    11fa:	80 83       	st	Z, r24
    11fc:	91 83       	std	Z+1, r25	; 0x01
    11fe:	a2 83       	std	Z+2, r26	; 0x02
    1200:	b3 83       	std	Z+3, r27	; 0x03
    1202:	84 81       	ldd	r24, Z+4	; 0x04
    1204:	95 81       	ldd	r25, Z+5	; 0x05
    1206:	a6 81       	ldd	r26, Z+6	; 0x06
    1208:	b7 81       	ldd	r27, Z+7	; 0x07
    120a:	01 96       	adiw	r24, 0x01	; 1
    120c:	a1 1d       	adc	r26, r1
    120e:	b1 1d       	adc	r27, r1
    1210:	84 83       	std	Z+4, r24	; 0x04
    1212:	95 83       	std	Z+5, r25	; 0x05
    1214:	a6 83       	std	Z+6, r26	; 0x06
    1216:	b7 83       	std	Z+7, r27	; 0x07
    1218:	48 81       	ld	r20, Y
    121a:	59 81       	ldd	r21, Y+1	; 0x01
    121c:	2a e0       	ldi	r18, 0x0A	; 10
    121e:	b7 01       	movw	r22, r14
    1220:	8a 81       	ldd	r24, Y+2	; 0x02
    1222:	9b 81       	ldd	r25, Y+3	; 0x03
    1224:	8b dd       	rcall	.-1258   	; 0xd3c <TCP_SetConnectionState>
    1226:	0f c0       	rjmp	.+30     	; 0x1246 <__EEPROM_REGION_LENGTH__+0x246>
    1228:	b0 e1       	ldi	r27, 0x10	; 16
    122a:	7b 12       	cpse	r7, r27
    122c:	09 c0       	rjmp	.+18     	; 0x1240 <__EEPROM_REGION_LENGTH__+0x240>
    122e:	2a e0       	ldi	r18, 0x0A	; 10
    1230:	a5 01       	movw	r20, r10
    1232:	b7 01       	movw	r22, r14
    1234:	c6 01       	movw	r24, r12
    1236:	82 dd       	rcall	.-1276   	; 0xd3c <TCP_SetConnectionState>
    1238:	03 c0       	rjmp	.+6      	; 0x1240 <__EEPROM_REGION_LENGTH__+0x240>
    123a:	8f ef       	ldi	r24, 0xFF	; 255
    123c:	9f ef       	ldi	r25, 0xFF	; 255
    123e:	6b c0       	rjmp	.+214    	; 0x1316 <__EEPROM_REGION_LENGTH__+0x316>
    1240:	80 e0       	ldi	r24, 0x00	; 0
    1242:	90 e0       	ldi	r25, 0x00	; 0
    1244:	68 c0       	rjmp	.+208    	; 0x1316 <__EEPROM_REGION_LENGTH__+0x316>
    1246:	ca 80       	ldd	r12, Y+2	; 0x02
    1248:	db 80       	ldd	r13, Y+3	; 0x03
    124a:	48 81       	ld	r20, Y
    124c:	59 81       	ldd	r21, Y+1	; 0x01
    124e:	b7 01       	movw	r22, r14
    1250:	c6 01       	movw	r24, r12
    1252:	31 de       	rcall	.-926    	; 0xeb6 <TCP_GetConnectionInfo>
    1254:	fc 01       	movw	r30, r24
    1256:	d8 01       	movw	r26, r16
    1258:	11 96       	adiw	r26, 0x01	; 1
    125a:	dc 92       	st	X, r13
    125c:	ce 92       	st	-X, r12
    125e:	88 81       	ld	r24, Y
    1260:	99 81       	ldd	r25, Y+1	; 0x01
    1262:	13 96       	adiw	r26, 0x03	; 3
    1264:	9c 93       	st	X, r25
    1266:	8e 93       	st	-X, r24
    1268:	12 97       	sbiw	r26, 0x02	; 2
    126a:	84 81       	ldd	r24, Z+4	; 0x04
    126c:	95 81       	ldd	r25, Z+5	; 0x05
    126e:	26 81       	ldd	r18, Z+6	; 0x06
    1270:	37 81       	ldd	r19, Z+7	; 0x07
    1272:	14 96       	adiw	r26, 0x04	; 4
    1274:	3c 93       	st	X, r19
    1276:	14 97       	sbiw	r26, 0x04	; 4
    1278:	15 96       	adiw	r26, 0x05	; 5
    127a:	2c 93       	st	X, r18
    127c:	15 97       	sbiw	r26, 0x05	; 5
    127e:	16 96       	adiw	r26, 0x06	; 6
    1280:	9c 93       	st	X, r25
    1282:	16 97       	sbiw	r26, 0x06	; 6
    1284:	17 96       	adiw	r26, 0x07	; 7
    1286:	8c 93       	st	X, r24
    1288:	17 97       	sbiw	r26, 0x07	; 7
    128a:	80 81       	ld	r24, Z
    128c:	91 81       	ldd	r25, Z+1	; 0x01
    128e:	22 81       	ldd	r18, Z+2	; 0x02
    1290:	33 81       	ldd	r19, Z+3	; 0x03
    1292:	18 96       	adiw	r26, 0x08	; 8
    1294:	3c 93       	st	X, r19
    1296:	18 97       	sbiw	r26, 0x08	; 8
    1298:	19 96       	adiw	r26, 0x09	; 9
    129a:	2c 93       	st	X, r18
    129c:	19 97       	sbiw	r26, 0x09	; 9
    129e:	1a 96       	adiw	r26, 0x0a	; 10
    12a0:	9c 93       	st	X, r25
    12a2:	1a 97       	sbiw	r26, 0x0a	; 10
    12a4:	1b 96       	adiw	r26, 0x0b	; 11
    12a6:	8c 93       	st	X, r24
    12a8:	1b 97       	sbiw	r26, 0x0b	; 11
    12aa:	1c 96       	adiw	r26, 0x0c	; 12
    12ac:	8c 91       	ld	r24, X
    12ae:	1c 97       	sbiw	r26, 0x0c	; 12
    12b0:	8f 70       	andi	r24, 0x0F	; 15
    12b2:	80 65       	ori	r24, 0x50	; 80
    12b4:	1c 96       	adiw	r26, 0x0c	; 12
    12b6:	8c 93       	st	X, r24
    12b8:	df 01       	movw	r26, r30
    12ba:	a4 5f       	subi	r26, 0xF4	; 244
    12bc:	bd 4f       	sbci	r27, 0xFD	; 253
    12be:	8c 91       	ld	r24, X
    12c0:	81 11       	cpse	r24, r1
    12c2:	06 c0       	rjmp	.+12     	; 0x12d0 <__EEPROM_REGION_LENGTH__+0x2d0>
    12c4:	82 e0       	ldi	r24, 0x02	; 2
    12c6:	90 e0       	ldi	r25, 0x00	; 0
    12c8:	f8 01       	movw	r30, r16
    12ca:	97 87       	std	Z+15, r25	; 0x0f
    12cc:	86 87       	std	Z+14, r24	; 0x0e
    12ce:	0c c0       	rjmp	.+24     	; 0x12e8 <__EEPROM_REGION_LENGTH__+0x2e8>
    12d0:	20 85       	ldd	r18, Z+8	; 0x08
    12d2:	31 85       	ldd	r19, Z+9	; 0x09
    12d4:	80 e0       	ldi	r24, 0x00	; 0
    12d6:	92 e0       	ldi	r25, 0x02	; 2
    12d8:	82 1b       	sub	r24, r18
    12da:	93 0b       	sbc	r25, r19
    12dc:	d8 01       	movw	r26, r16
    12de:	1e 96       	adiw	r26, 0x0e	; 14
    12e0:	9c 93       	st	X, r25
    12e2:	1e 97       	sbiw	r26, 0x0e	; 14
    12e4:	1f 96       	adiw	r26, 0x0f	; 15
    12e6:	8c 93       	st	X, r24
    12e8:	f8 01       	movw	r30, r16
    12ea:	13 8a       	std	Z+19, r1	; 0x13
    12ec:	12 8a       	std	Z+18, r1	; 0x12
    12ee:	11 8a       	std	Z+17, r1	; 0x11
    12f0:	10 8a       	std	Z+16, r1	; 0x10
    12f2:	84 85       	ldd	r24, Z+12	; 0x0c
    12f4:	80 7f       	andi	r24, 0xF0	; 240
    12f6:	84 87       	std	Z+12, r24	; 0x0c
    12f8:	b4 01       	movw	r22, r8
    12fa:	60 5f       	subi	r22, 0xF0	; 240
    12fc:	7f 4f       	sbci	r23, 0xFF	; 255
    12fe:	24 e1       	ldi	r18, 0x14	; 20
    1300:	30 e0       	ldi	r19, 0x00	; 0
    1302:	a7 01       	movw	r20, r14
    1304:	c8 01       	movw	r24, r16
    1306:	85 db       	rcall	.-2294   	; 0xa12 <TCP_Checksum16>
    1308:	d8 01       	movw	r26, r16
    130a:	51 96       	adiw	r26, 0x11	; 17
    130c:	9c 93       	st	X, r25
    130e:	8e 93       	st	-X, r24
    1310:	50 97       	sbiw	r26, 0x10	; 16
    1312:	84 e1       	ldi	r24, 0x14	; 20
    1314:	90 e0       	ldi	r25, 0x00	; 0
    1316:	df 91       	pop	r29
    1318:	cf 91       	pop	r28
    131a:	1f 91       	pop	r17
    131c:	0f 91       	pop	r16
    131e:	ff 90       	pop	r15
    1320:	ef 90       	pop	r14
    1322:	df 90       	pop	r13
    1324:	cf 90       	pop	r12
    1326:	bf 90       	pop	r11
    1328:	af 90       	pop	r10
    132a:	9f 90       	pop	r9
    132c:	8f 90       	pop	r8
    132e:	7f 90       	pop	r7
    1330:	6f 90       	pop	r6
    1332:	08 95       	ret

00001334 <UDP_ProcessUDPPacket>:
    1334:	ef 92       	push	r14
    1336:	ff 92       	push	r15
    1338:	0f 93       	push	r16
    133a:	1f 93       	push	r17
    133c:	cf 93       	push	r28
    133e:	df 93       	push	r29
    1340:	7c 01       	movw	r14, r24
    1342:	8b 01       	movw	r16, r22
    1344:	ea 01       	movw	r28, r20
    1346:	cb 01       	movw	r24, r22
    1348:	62 db       	rcall	.-2364   	; 0xa0e <DecodeUDPHeader>
    134a:	f8 01       	movw	r30, r16
    134c:	83 81       	ldd	r24, Z+3	; 0x03
    134e:	92 81       	ldd	r25, Z+2	; 0x02
    1350:	83 34       	cpi	r24, 0x43	; 67
    1352:	91 05       	cpc	r25, r1
    1354:	e9 f4       	brne	.+58     	; 0x1390 <UDP_ProcessUDPPacket+0x5c>
    1356:	ae 01       	movw	r20, r28
    1358:	48 5f       	subi	r20, 0xF8	; 248
    135a:	5f 4f       	sbci	r21, 0xFF	; 255
    135c:	b8 01       	movw	r22, r16
    135e:	68 5f       	subi	r22, 0xF8	; 248
    1360:	7f 4f       	sbci	r23, 0xFF	; 255
    1362:	c7 01       	movw	r24, r14
    1364:	15 d9       	rcall	.-3542   	; 0x590 <DHCP_ProcessDHCPPacket>
    1366:	18 16       	cp	r1, r24
    1368:	19 06       	cpc	r1, r25
    136a:	94 f4       	brge	.+36     	; 0x1390 <UDP_ProcessUDPPacket+0x5c>
    136c:	f8 01       	movw	r30, r16
    136e:	22 81       	ldd	r18, Z+2	; 0x02
    1370:	33 81       	ldd	r19, Z+3	; 0x03
    1372:	39 83       	std	Y+1, r19	; 0x01
    1374:	28 83       	st	Y, r18
    1376:	20 81       	ld	r18, Z
    1378:	31 81       	ldd	r19, Z+1	; 0x01
    137a:	3b 83       	std	Y+3, r19	; 0x03
    137c:	2a 83       	std	Y+2, r18	; 0x02
    137e:	1f 82       	std	Y+7, r1	; 0x07
    1380:	1e 82       	std	Y+6, r1	; 0x06
    1382:	9c 01       	movw	r18, r24
    1384:	28 5f       	subi	r18, 0xF8	; 248
    1386:	3f 4f       	sbci	r19, 0xFF	; 255
    1388:	3c 83       	std	Y+4, r19	; 0x04
    138a:	2d 83       	std	Y+5, r18	; 0x05
    138c:	c9 01       	movw	r24, r18
    138e:	02 c0       	rjmp	.+4      	; 0x1394 <UDP_ProcessUDPPacket+0x60>
    1390:	80 e0       	ldi	r24, 0x00	; 0
    1392:	90 e0       	ldi	r25, 0x00	; 0
    1394:	df 91       	pop	r29
    1396:	cf 91       	pop	r28
    1398:	1f 91       	pop	r17
    139a:	0f 91       	pop	r16
    139c:	ff 90       	pop	r15
    139e:	ef 90       	pop	r14
    13a0:	08 95       	ret

000013a2 <IsHTTPCommand>:
    13a2:	fb 01       	movw	r30, r22
    13a4:	01 90       	ld	r0, Z+
    13a6:	00 20       	and	r0, r0
    13a8:	e9 f7       	brne	.-6      	; 0x13a4 <IsHTTPCommand+0x2>
    13aa:	31 97       	sbiw	r30, 0x01	; 1
    13ac:	af 01       	movw	r20, r30
    13ae:	46 1b       	sub	r20, r22
    13b0:	57 0b       	sbc	r21, r23
    13b2:	0e 94 5b 14 	call	0x28b6	; 0x28b6 <strncmp>
    13b6:	21 e0       	ldi	r18, 0x01	; 1
    13b8:	89 2b       	or	r24, r25
    13ba:	09 f0       	breq	.+2      	; 0x13be <IsHTTPCommand+0x1c>
    13bc:	20 e0       	ldi	r18, 0x00	; 0
    13be:	82 2f       	mov	r24, r18
    13c0:	08 95       	ret

000013c2 <Webserver_ApplicationCallback>:
    13c2:	4f 92       	push	r4
    13c4:	5f 92       	push	r5
    13c6:	6f 92       	push	r6
    13c8:	7f 92       	push	r7
    13ca:	8f 92       	push	r8
    13cc:	9f 92       	push	r9
    13ce:	af 92       	push	r10
    13d0:	bf 92       	push	r11
    13d2:	cf 92       	push	r12
    13d4:	df 92       	push	r13
    13d6:	ef 92       	push	r14
    13d8:	ff 92       	push	r15
    13da:	0f 93       	push	r16
    13dc:	1f 93       	push	r17
    13de:	cf 93       	push	r28
    13e0:	df 93       	push	r29
    13e2:	7c 01       	movw	r14, r24
    13e4:	8b 01       	movw	r16, r22
    13e6:	eb 01       	movw	r28, r22
    13e8:	22 96       	adiw	r28, 0x02	; 2
    13ea:	6b 01       	movw	r12, r22
    13ec:	2d ef       	ldi	r18, 0xFD	; 253
    13ee:	c2 1a       	sub	r12, r18
    13f0:	d2 0a       	sbc	r13, r18
    13f2:	d6 01       	movw	r26, r12
    13f4:	8c 91       	ld	r24, X
    13f6:	88 23       	and	r24, r24
    13f8:	09 f4       	brne	.+2      	; 0x13fc <Webserver_ApplicationCallback+0x3a>
    13fa:	60 c0       	rjmp	.+192    	; 0x14bc <Webserver_ApplicationCallback+0xfa>
    13fc:	5b 01       	movw	r10, r22
    13fe:	b2 e0       	ldi	r27, 0x02	; 2
    1400:	ab 0e       	add	r10, r27
    1402:	bb 1e       	adc	r11, r27
    1404:	f5 01       	movw	r30, r10
    1406:	80 81       	ld	r24, Z
    1408:	81 11       	cpse	r24, r1
    140a:	99 c0       	rjmp	.+306    	; 0x153e <Webserver_ApplicationCallback+0x17c>
    140c:	68 e4       	ldi	r22, 0x48	; 72
    140e:	71 e0       	ldi	r23, 0x01	; 1
    1410:	ce 01       	movw	r24, r28
    1412:	c7 df       	rcall	.-114    	; 0x13a2 <IsHTTPCommand>
    1414:	88 23       	and	r24, r24
    1416:	f1 f0       	breq	.+60     	; 0x1454 <Webserver_ApplicationCallback+0x92>
    1418:	6c e4       	ldi	r22, 0x4C	; 76
    141a:	71 e0       	ldi	r23, 0x01	; 1
    141c:	ce 01       	movw	r24, r28
    141e:	c1 df       	rcall	.-126    	; 0x13a2 <IsHTTPCommand>
    1420:	88 23       	and	r24, r24
    1422:	39 f1       	breq	.+78     	; 0x1472 <Webserver_ApplicationCallback+0xb0>
    1424:	10 92 7e 01 	sts	0x017E, r1	; 0x80017e <__data_end>
    1428:	62 e6       	ldi	r22, 0x62	; 98
    142a:	73 e0       	ldi	r23, 0x03	; 3
    142c:	ce 01       	movw	r24, r28
    142e:	0e 94 15 14 	call	0x282a	; 0x282a <strcpy_P>
    1432:	81 e0       	ldi	r24, 0x01	; 1
    1434:	d5 01       	movw	r26, r10
    1436:	8c 93       	st	X, r24
    1438:	fe 01       	movw	r30, r28
    143a:	01 90       	ld	r0, Z+
    143c:	00 20       	and	r0, r0
    143e:	e9 f7       	brne	.-6      	; 0x143a <Webserver_ApplicationCallback+0x78>
    1440:	31 97       	sbiw	r30, 0x01	; 1
    1442:	ec 1b       	sub	r30, r28
    1444:	fd 0b       	sbc	r31, r29
    1446:	d8 01       	movw	r26, r16
    1448:	ed 93       	st	X+, r30
    144a:	fc 93       	st	X, r31
    144c:	f6 01       	movw	r30, r12
    144e:	80 83       	st	Z, r24
    1450:	31 96       	adiw	r30, 0x01	; 1
    1452:	74 c0       	rjmp	.+232    	; 0x153c <Webserver_ApplicationCallback+0x17a>
    1454:	63 e5       	ldi	r22, 0x53	; 83
    1456:	71 e0       	ldi	r23, 0x01	; 1
    1458:	ce 01       	movw	r24, r28
    145a:	a3 df       	rcall	.-186    	; 0x13a2 <IsHTTPCommand>
    145c:	88 23       	and	r24, r24
    145e:	f1 f0       	breq	.+60     	; 0x149c <Webserver_ApplicationCallback+0xda>
    1460:	68 e5       	ldi	r22, 0x58	; 88
    1462:	71 e0       	ldi	r23, 0x01	; 1
    1464:	ce 01       	movw	r24, r28
    1466:	9d df       	rcall	.-198    	; 0x13a2 <IsHTTPCommand>
    1468:	88 23       	and	r24, r24
    146a:	19 f0       	breq	.+6      	; 0x1472 <Webserver_ApplicationCallback+0xb0>
    146c:	62 e6       	ldi	r22, 0x62	; 98
    146e:	73 e0       	ldi	r23, 0x03	; 3
    1470:	02 c0       	rjmp	.+4      	; 0x1476 <Webserver_ApplicationCallback+0xb4>
    1472:	60 e2       	ldi	r22, 0x20	; 32
    1474:	73 e0       	ldi	r23, 0x03	; 3
    1476:	ce 01       	movw	r24, r28
    1478:	0e 94 15 14 	call	0x282a	; 0x282a <strcpy_P>
    147c:	81 e0       	ldi	r24, 0x01	; 1
    147e:	d5 01       	movw	r26, r10
    1480:	8c 93       	st	X, r24
    1482:	fe 01       	movw	r30, r28
    1484:	01 90       	ld	r0, Z+
    1486:	00 20       	and	r0, r0
    1488:	e9 f7       	brne	.-6      	; 0x1484 <Webserver_ApplicationCallback+0xc2>
    148a:	31 97       	sbiw	r30, 0x01	; 1
    148c:	ec 1b       	sub	r30, r28
    148e:	fd 0b       	sbc	r31, r29
    1490:	d8 01       	movw	r26, r16
    1492:	ed 93       	st	X+, r30
    1494:	fc 93       	st	X, r31
    1496:	f6 01       	movw	r30, r12
    1498:	80 83       	st	Z, r24
    149a:	4c c0       	rjmp	.+152    	; 0x1534 <Webserver_ApplicationCallback+0x172>
    149c:	60 e6       	ldi	r22, 0x60	; 96
    149e:	71 e0       	ldi	r23, 0x01	; 1
    14a0:	ce 01       	movw	r24, r28
    14a2:	7f df       	rcall	.-258    	; 0x13a2 <IsHTTPCommand>
    14a4:	88 23       	and	r24, r24
    14a6:	21 f0       	breq	.+8      	; 0x14b0 <Webserver_ApplicationCallback+0xee>
    14a8:	81 e0       	ldi	r24, 0x01	; 1
    14aa:	d5 01       	movw	r26, r10
    14ac:	8c 93       	st	X, r24
    14ae:	f3 cf       	rjmp	.-26     	; 0x1496 <Webserver_ApplicationCallback+0xd4>
    14b0:	d6 01       	movw	r26, r12
    14b2:	1c 92       	st	X, r1
    14b4:	f8 01       	movw	r30, r16
    14b6:	11 82       	std	Z+1, r1	; 0x01
    14b8:	10 82       	st	Z, r1
    14ba:	41 c0       	rjmp	.+130    	; 0x153e <Webserver_ApplicationCallback+0x17c>
    14bc:	2b 01       	movw	r4, r22
    14be:	fc ef       	ldi	r31, 0xFC	; 252
    14c0:	4f 1a       	sub	r4, r31
    14c2:	fd ef       	ldi	r31, 0xFD	; 253
    14c4:	5f 0a       	sbc	r5, r31
    14c6:	d2 01       	movw	r26, r4
    14c8:	8c 91       	ld	r24, X
    14ca:	88 23       	and	r24, r24
    14cc:	c1 f1       	breq	.+112    	; 0x153e <Webserver_ApplicationCallback+0x17c>
    14ce:	3b 01       	movw	r6, r22
    14d0:	b2 e0       	ldi	r27, 0x02	; 2
    14d2:	6b 0e       	add	r6, r27
    14d4:	7b 1e       	adc	r7, r27
    14d6:	f3 01       	movw	r30, r6
    14d8:	80 81       	ld	r24, Z
    14da:	88 23       	and	r24, r24
    14dc:	81 f1       	breq	.+96     	; 0x153e <Webserver_ApplicationCallback+0x17c>
    14de:	a0 90 7e 01 	lds	r10, 0x017E	; 0x80017e <__data_end>
    14e2:	f0 e8       	ldi	r31, 0x80	; 128
    14e4:	af 9e       	mul	r10, r31
    14e6:	c0 01       	movw	r24, r0
    14e8:	11 24       	eor	r1, r1
    14ea:	9c 01       	movw	r18, r24
    14ec:	20 5d       	subi	r18, 0xD0	; 208
    14ee:	3e 4f       	sbci	r19, 0xFE	; 254
    14f0:	59 01       	movw	r10, r18
    14f2:	c9 01       	movw	r24, r18
    14f4:	0e 94 1c 14 	call	0x2838	; 0x2838 <__strlen_P>
    14f8:	4c 01       	movw	r8, r24
    14fa:	81 38       	cpi	r24, 0x81	; 129
    14fc:	91 05       	cpc	r25, r1
    14fe:	18 f0       	brcs	.+6      	; 0x1506 <Webserver_ApplicationCallback+0x144>
    1500:	80 e8       	ldi	r24, 0x80	; 128
    1502:	88 2e       	mov	r8, r24
    1504:	91 2c       	mov	r9, r1
    1506:	a4 01       	movw	r20, r8
    1508:	b5 01       	movw	r22, r10
    150a:	ce 01       	movw	r24, r28
    150c:	0e 94 25 14 	call	0x284a	; 0x284a <strncpy_P>
    1510:	81 e0       	ldi	r24, 0x01	; 1
    1512:	d3 01       	movw	r26, r6
    1514:	8c 93       	st	X, r24
    1516:	f8 01       	movw	r30, r16
    1518:	91 82       	std	Z+1, r9	; 0x01
    151a:	80 82       	st	Z, r8
    151c:	d6 01       	movw	r26, r12
    151e:	8c 93       	st	X, r24
    1520:	80 91 7e 01 	lds	r24, 0x017E	; 0x80017e <__data_end>
    1524:	91 e0       	ldi	r25, 0x01	; 1
    1526:	98 0f       	add	r25, r24
    1528:	90 93 7e 01 	sts	0x017E, r25	; 0x80017e <__data_end>
    152c:	83 30       	cpi	r24, 0x03	; 3
    152e:	39 f4       	brne	.+14     	; 0x153e <Webserver_ApplicationCallback+0x17c>
    1530:	f2 01       	movw	r30, r4
    1532:	10 82       	st	Z, r1
    1534:	f7 01       	movw	r30, r14
    1536:	eb 5e       	subi	r30, 0xEB	; 235
    1538:	fd 4f       	sbci	r31, 0xFD	; 253
    153a:	87 e0       	ldi	r24, 0x07	; 7
    153c:	80 83       	st	Z, r24
    153e:	df 91       	pop	r29
    1540:	cf 91       	pop	r28
    1542:	1f 91       	pop	r17
    1544:	0f 91       	pop	r16
    1546:	ff 90       	pop	r15
    1548:	ef 90       	pop	r14
    154a:	df 90       	pop	r13
    154c:	cf 90       	pop	r12
    154e:	bf 90       	pop	r11
    1550:	af 90       	pop	r10
    1552:	9f 90       	pop	r9
    1554:	8f 90       	pop	r8
    1556:	7f 90       	pop	r7
    1558:	6f 90       	pop	r6
    155a:	5f 90       	pop	r5
    155c:	4f 90       	pop	r4
    155e:	08 95       	ret

00001560 <Webserver_Init>:
    1560:	41 ee       	ldi	r20, 0xE1	; 225
    1562:	59 e0       	ldi	r21, 0x09	; 9
    1564:	61 e0       	ldi	r22, 0x01	; 1
    1566:	80 e0       	ldi	r24, 0x00	; 0
    1568:	90 e5       	ldi	r25, 0x50	; 80
    156a:	c1 cb       	rjmp	.-2174   	; 0xcee <TCP_SetPortState>

0000156c <SetupHardware>:
    156c:	84 b7       	in	r24, 0x34	; 52
    156e:	87 7f       	andi	r24, 0xF7	; 247
    1570:	84 bf       	out	0x34, r24	; 52
    1572:	0f b6       	in	r0, 0x3f	; 63
    1574:	f8 94       	cli
    1576:	a8 95       	wdr
    1578:	80 91 60 00 	lds	r24, 0x0060	; 0x800060 <__TEXT_REGION_LENGTH__+0x7e0060>
    157c:	88 61       	ori	r24, 0x18	; 24
    157e:	80 93 60 00 	sts	0x0060, r24	; 0x800060 <__TEXT_REGION_LENGTH__+0x7e0060>
    1582:	10 92 60 00 	sts	0x0060, r1	; 0x800060 <__TEXT_REGION_LENGTH__+0x7e0060>
    1586:	0f be       	out	0x3f, r0	; 63
    1588:	90 e0       	ldi	r25, 0x00	; 0
    158a:	80 e8       	ldi	r24, 0x80	; 128
    158c:	0f b6       	in	r0, 0x3f	; 63
    158e:	f8 94       	cli
    1590:	80 93 61 00 	sts	0x0061, r24	; 0x800061 <__TEXT_REGION_LENGTH__+0x7e0061>
    1594:	90 93 61 00 	sts	0x0061, r25	; 0x800061 <__TEXT_REGION_LENGTH__+0x7e0061>
    1598:	0f be       	out	0x3f, r0	; 63
    159a:	87 e6       	ldi	r24, 0x67	; 103
    159c:	90 e0       	ldi	r25, 0x00	; 0
    159e:	90 93 cd 00 	sts	0x00CD, r25	; 0x8000cd <__TEXT_REGION_LENGTH__+0x7e00cd>
    15a2:	80 93 cc 00 	sts	0x00CC, r24	; 0x8000cc <__TEXT_REGION_LENGTH__+0x7e00cc>
    15a6:	86 e0       	ldi	r24, 0x06	; 6
    15a8:	80 93 ca 00 	sts	0x00CA, r24	; 0x8000ca <__TEXT_REGION_LENGTH__+0x7e00ca>
    15ac:	10 92 c8 00 	sts	0x00C8, r1	; 0x8000c8 <__TEXT_REGION_LENGTH__+0x7e00c8>
    15b0:	88 e1       	ldi	r24, 0x18	; 24
    15b2:	80 93 c9 00 	sts	0x00C9, r24	; 0x8000c9 <__TEXT_REGION_LENGTH__+0x7e00c9>
    15b6:	53 9a       	sbi	0x0a, 3	; 10
    15b8:	5a 9a       	sbi	0x0b, 2	; 11
    15ba:	cb d6       	rcall	.+3478   	; 0x2352 <USB_Init>
    15bc:	80 e0       	ldi	r24, 0x00	; 0
    15be:	90 e0       	ldi	r25, 0x00	; 0
    15c0:	53 c0       	rjmp	.+166    	; 0x1668 <Serial_CreateStream>

000015c2 <main>:
    15c2:	d4 df       	rcall	.-88     	; 0x156c <SetupHardware>
    15c4:	8a db       	rcall	.-2284   	; 0xcda <TCP_Init>
    15c6:	cc df       	rcall	.-104    	; 0x1560 <Webserver_Init>
    15c8:	78 94       	sei
    15ca:	80 e0       	ldi	r24, 0x00	; 0
    15cc:	91 e0       	ldi	r25, 0x01	; 1
    15ce:	57 d3       	rcall	.+1710   	; 0x1c7e <RNDIS_Device_IsPacketReceived>
    15d0:	88 23       	and	r24, r24
    15d2:	e1 f0       	breq	.+56     	; 0x160c <main+0x4a>
    15d4:	49 e3       	ldi	r20, 0x39	; 57
    15d6:	5d e0       	ldi	r21, 0x0D	; 13
    15d8:	6d e5       	ldi	r22, 0x5D	; 93
    15da:	77 e0       	ldi	r23, 0x07	; 7
    15dc:	80 e0       	ldi	r24, 0x00	; 0
    15de:	91 e0       	ldi	r25, 0x01	; 1
    15e0:	62 d3       	rcall	.+1732   	; 0x1ca6 <RNDIS_Device_ReadPacket>
    15e2:	6f e7       	ldi	r22, 0x7F	; 127
    15e4:	71 e0       	ldi	r23, 0x01	; 1
    15e6:	8d e5       	ldi	r24, 0x5D	; 93
    15e8:	97 e0       	ldi	r25, 0x07	; 7
    15ea:	a3 d8       	rcall	.-3770   	; 0x732 <Ethernet_ProcessPacket>
    15ec:	40 91 5b 07 	lds	r20, 0x075B	; 0x80075b <FrameOUT+0x5dc>
    15f0:	50 91 5c 07 	lds	r21, 0x075C	; 0x80075c <FrameOUT+0x5dd>
    15f4:	41 15       	cp	r20, r1
    15f6:	51 05       	cpc	r21, r1
    15f8:	49 f0       	breq	.+18     	; 0x160c <main+0x4a>
    15fa:	6f e7       	ldi	r22, 0x7F	; 127
    15fc:	71 e0       	ldi	r23, 0x01	; 1
    15fe:	80 e0       	ldi	r24, 0x00	; 0
    1600:	91 e0       	ldi	r25, 0x01	; 1
    1602:	aa d3       	rcall	.+1876   	; 0x1d58 <RNDIS_Device_SendPacket>
    1604:	10 92 5c 07 	sts	0x075C, r1	; 0x80075c <FrameOUT+0x5dd>
    1608:	10 92 5b 07 	sts	0x075B, r1	; 0x80075b <FrameOUT+0x5dc>
    160c:	6f e7       	ldi	r22, 0x7F	; 127
    160e:	71 e0       	ldi	r23, 0x01	; 1
    1610:	80 e0       	ldi	r24, 0x00	; 0
    1612:	91 e0       	ldi	r25, 0x01	; 1
    1614:	5f da       	rcall	.-2882   	; 0xad4 <TCP_TCPTask>
    1616:	80 e0       	ldi	r24, 0x00	; 0
    1618:	91 e0       	ldi	r25, 0x01	; 1
    161a:	f2 d2       	rcall	.+1508   	; 0x1c00 <RNDIS_Device_USBTask>
    161c:	0e 94 f2 13 	call	0x27e4	; 0x27e4 <USB_USBTask>
    1620:	d4 cf       	rjmp	.-88     	; 0x15ca <main+0x8>

00001622 <EVENT_USB_Device_Connect>:
    1622:	08 95       	ret

00001624 <EVENT_USB_Device_Disconnect>:
    1624:	08 95       	ret

00001626 <EVENT_USB_Device_ConfigurationChanged>:
    1626:	80 e0       	ldi	r24, 0x00	; 0
    1628:	91 e0       	ldi	r25, 0x01	; 1
    162a:	bb c2       	rjmp	.+1398   	; 0x1ba2 <RNDIS_Device_ConfigureEndpoints>

0000162c <EVENT_USB_Device_ControlRequest>:
    162c:	80 e0       	ldi	r24, 0x00	; 0
    162e:	91 e0       	ldi	r25, 0x01	; 1
    1630:	39 c0       	rjmp	.+114    	; 0x16a4 <RNDIS_Device_ProcessControlRequest>

00001632 <Serial_putchar>:
    1632:	90 91 c8 00 	lds	r25, 0x00C8	; 0x8000c8 <__TEXT_REGION_LENGTH__+0x7e00c8>
    1636:	95 ff       	sbrs	r25, 5
    1638:	fc cf       	rjmp	.-8      	; 0x1632 <Serial_putchar>
    163a:	80 93 ce 00 	sts	0x00CE, r24	; 0x8000ce <__TEXT_REGION_LENGTH__+0x7e00ce>
    163e:	80 e0       	ldi	r24, 0x00	; 0
    1640:	90 e0       	ldi	r25, 0x00	; 0
    1642:	08 95       	ret

00001644 <Serial_getchar>:
    1644:	80 91 c8 00 	lds	r24, 0x00C8	; 0x8000c8 <__TEXT_REGION_LENGTH__+0x7e00c8>
    1648:	87 ff       	sbrs	r24, 7
    164a:	08 c0       	rjmp	.+16     	; 0x165c <Serial_getchar+0x18>
    164c:	80 91 c8 00 	lds	r24, 0x00C8	; 0x8000c8 <__TEXT_REGION_LENGTH__+0x7e00c8>
    1650:	87 ff       	sbrs	r24, 7
    1652:	07 c0       	rjmp	.+14     	; 0x1662 <Serial_getchar+0x1e>
    1654:	80 91 ce 00 	lds	r24, 0x00CE	; 0x8000ce <__TEXT_REGION_LENGTH__+0x7e00ce>
    1658:	90 e0       	ldi	r25, 0x00	; 0
    165a:	08 95       	ret
    165c:	8e ef       	ldi	r24, 0xFE	; 254
    165e:	9f ef       	ldi	r25, 0xFF	; 255
    1660:	08 95       	ret
    1662:	8f ef       	ldi	r24, 0xFF	; 255
    1664:	9f ef       	ldi	r25, 0xFF	; 255
    1666:	08 95       	ret

00001668 <Serial_CreateStream>:
    1668:	fc 01       	movw	r30, r24
    166a:	89 2b       	or	r24, r25
    166c:	59 f4       	brne	.+22     	; 0x1684 <Serial_CreateStream+0x1c>
    166e:	82 e4       	ldi	r24, 0x42	; 66
    1670:	94 e1       	ldi	r25, 0x14	; 20
    1672:	90 93 5e 14 	sts	0x145E, r25	; 0x80145e <__iob+0x1>
    1676:	80 93 5d 14 	sts	0x145D, r24	; 0x80145d <__iob>
    167a:	90 93 60 14 	sts	0x1460, r25	; 0x801460 <__iob+0x3>
    167e:	80 93 5f 14 	sts	0x145F, r24	; 0x80145f <__iob+0x2>
    1682:	fc 01       	movw	r30, r24
    1684:	8e e0       	ldi	r24, 0x0E	; 14
    1686:	df 01       	movw	r26, r30
    1688:	1d 92       	st	X+, r1
    168a:	8a 95       	dec	r24
    168c:	e9 f7       	brne	.-6      	; 0x1688 <Serial_CreateStream+0x20>
    168e:	83 e0       	ldi	r24, 0x03	; 3
    1690:	83 83       	std	Z+3, r24	; 0x03
    1692:	89 e1       	ldi	r24, 0x19	; 25
    1694:	9b e0       	ldi	r25, 0x0B	; 11
    1696:	91 87       	std	Z+9, r25	; 0x09
    1698:	80 87       	std	Z+8, r24	; 0x08
    169a:	82 e2       	ldi	r24, 0x22	; 34
    169c:	9b e0       	ldi	r25, 0x0B	; 11
    169e:	93 87       	std	Z+11, r25	; 0x0b
    16a0:	82 87       	std	Z+10, r24	; 0x0a
    16a2:	08 95       	ret

000016a4 <RNDIS_Device_ProcessControlRequest>:
    16a4:	cf 92       	push	r12
    16a6:	df 92       	push	r13
    16a8:	ef 92       	push	r14
    16aa:	ff 92       	push	r15
    16ac:	0f 93       	push	r16
    16ae:	1f 93       	push	r17
    16b0:	cf 93       	push	r28
    16b2:	df 93       	push	r29
    16b4:	20 91 e8 00 	lds	r18, 0x00E8	; 0x8000e8 <__TEXT_REGION_LENGTH__+0x7e00e8>
    16b8:	23 ff       	sbrs	r18, 3
    16ba:	6a c2       	rjmp	.+1236   	; 0x1b90 <RNDIS_Device_ProcessControlRequest+0x4ec>
    16bc:	dc 01       	movw	r26, r24
    16be:	2c 91       	ld	r18, X
    16c0:	30 e0       	ldi	r19, 0x00	; 0
    16c2:	40 91 59 14 	lds	r20, 0x1459	; 0x801459 <USB_ControlRequest+0x4>
    16c6:	50 91 5a 14 	lds	r21, 0x145A	; 0x80145a <USB_ControlRequest+0x5>
    16ca:	42 17       	cp	r20, r18
    16cc:	53 07       	cpc	r21, r19
    16ce:	09 f0       	breq	.+2      	; 0x16d2 <RNDIS_Device_ProcessControlRequest+0x2e>
    16d0:	5f c2       	rjmp	.+1214   	; 0x1b90 <RNDIS_Device_ProcessControlRequest+0x4ec>
    16d2:	8c 01       	movw	r16, r24
    16d4:	80 91 56 14 	lds	r24, 0x1456	; 0x801456 <USB_ControlRequest+0x1>
    16d8:	88 23       	and	r24, r24
    16da:	21 f0       	breq	.+8      	; 0x16e4 <RNDIS_Device_ProcessControlRequest+0x40>
    16dc:	81 30       	cpi	r24, 0x01	; 1
    16de:	09 f4       	brne	.+2      	; 0x16e2 <RNDIS_Device_ProcessControlRequest+0x3e>
    16e0:	f3 c1       	rjmp	.+998    	; 0x1ac8 <RNDIS_Device_ProcessControlRequest+0x424>
    16e2:	56 c2       	rjmp	.+1196   	; 0x1b90 <RNDIS_Device_ProcessControlRequest+0x4ec>
    16e4:	80 91 55 14 	lds	r24, 0x1455	; 0x801455 <USB_ControlRequest>
    16e8:	81 32       	cpi	r24, 0x21	; 33
    16ea:	09 f0       	breq	.+2      	; 0x16ee <RNDIS_Device_ProcessControlRequest+0x4a>
    16ec:	51 c2       	rjmp	.+1186   	; 0x1b90 <RNDIS_Device_ProcessControlRequest+0x4ec>
    16ee:	80 91 e8 00 	lds	r24, 0x00E8	; 0x8000e8 <__TEXT_REGION_LENGTH__+0x7e00e8>
    16f2:	87 7f       	andi	r24, 0xF7	; 247
    16f4:	80 93 e8 00 	sts	0x00E8, r24	; 0x8000e8 <__TEXT_REGION_LENGTH__+0x7e00e8>
    16f8:	60 91 5b 14 	lds	r22, 0x145B	; 0x80145b <USB_ControlRequest+0x6>
    16fc:	70 91 5c 14 	lds	r23, 0x145C	; 0x80145c <USB_ControlRequest+0x7>
    1700:	fd 01       	movw	r30, r26
    1702:	80 8d       	ldd	r24, Z+24	; 0x18
    1704:	91 8d       	ldd	r25, Z+25	; 0x19
    1706:	7f d4       	rcall	.+2302   	; 0x2006 <Endpoint_Read_Control_Stream_LE>
    1708:	80 91 e8 00 	lds	r24, 0x00E8	; 0x8000e8 <__TEXT_REGION_LENGTH__+0x7e00e8>
    170c:	8e 77       	andi	r24, 0x7E	; 126
    170e:	80 93 e8 00 	sts	0x00E8, r24	; 0x8000e8 <__TEXT_REGION_LENGTH__+0x7e00e8>
    1712:	d8 01       	movw	r26, r16
    1714:	58 96       	adiw	r26, 0x18	; 24
    1716:	cd 91       	ld	r28, X+
    1718:	dc 91       	ld	r29, X
    171a:	59 97       	sbiw	r26, 0x19	; 25
    171c:	88 81       	ld	r24, Y
    171e:	99 81       	ldd	r25, Y+1	; 0x01
    1720:	aa 81       	ldd	r26, Y+2	; 0x02
    1722:	bb 81       	ldd	r27, Y+3	; 0x03
    1724:	84 30       	cpi	r24, 0x04	; 4
    1726:	91 05       	cpc	r25, r1
    1728:	a1 05       	cpc	r26, r1
    172a:	b1 05       	cpc	r27, r1
    172c:	09 f4       	brne	.+2      	; 0x1730 <RNDIS_Device_ProcessControlRequest+0x8c>
    172e:	7d c0       	rjmp	.+250    	; 0x182a <RNDIS_Device_ProcessControlRequest+0x186>
    1730:	a8 f4       	brcc	.+42     	; 0x175c <RNDIS_Device_ProcessControlRequest+0xb8>
    1732:	82 30       	cpi	r24, 0x02	; 2
    1734:	91 05       	cpc	r25, r1
    1736:	a1 05       	cpc	r26, r1
    1738:	b1 05       	cpc	r27, r1
    173a:	91 f1       	breq	.+100    	; 0x17a0 <RNDIS_Device_ProcessControlRequest+0xfc>
    173c:	03 97       	sbiw	r24, 0x03	; 3
    173e:	a1 05       	cpc	r26, r1
    1740:	b1 05       	cpc	r27, r1
    1742:	09 f0       	breq	.+2      	; 0x1746 <RNDIS_Device_ProcessControlRequest+0xa2>
    1744:	25 c2       	rjmp	.+1098   	; 0x1b90 <RNDIS_Device_ProcessControlRequest+0x4ec>
    1746:	d8 01       	movw	r26, r16
    1748:	5c 96       	adiw	r26, 0x1c	; 28
    174a:	1c 92       	st	X, r1
    174c:	5c 97       	sbiw	r26, 0x1c	; 28
    174e:	1c 82       	std	Y+4, r1	; 0x04
    1750:	1d 82       	std	Y+5, r1	; 0x05
    1752:	1e 82       	std	Y+6, r1	; 0x06
    1754:	1f 82       	std	Y+7, r1	; 0x07
    1756:	5d 96       	adiw	r26, 0x1d	; 29
    1758:	1c 92       	st	X, r1
    175a:	1a c2       	rjmp	.+1076   	; 0x1b90 <RNDIS_Device_ProcessControlRequest+0x4ec>
    175c:	86 30       	cpi	r24, 0x06	; 6
    175e:	91 05       	cpc	r25, r1
    1760:	a1 05       	cpc	r26, r1
    1762:	b1 05       	cpc	r27, r1
    1764:	09 f4       	brne	.+2      	; 0x1768 <RNDIS_Device_ProcessControlRequest+0xc4>
    1766:	94 c1       	rjmp	.+808    	; 0x1a90 <RNDIS_Device_ProcessControlRequest+0x3ec>
    1768:	08 f4       	brcc	.+2      	; 0x176c <RNDIS_Device_ProcessControlRequest+0xc8>
    176a:	47 c1       	rjmp	.+654    	; 0x19fa <RNDIS_Device_ProcessControlRequest+0x356>
    176c:	08 97       	sbiw	r24, 0x08	; 8
    176e:	a1 05       	cpc	r26, r1
    1770:	b1 05       	cpc	r27, r1
    1772:	09 f0       	breq	.+2      	; 0x1776 <RNDIS_Device_ProcessControlRequest+0xd2>
    1774:	0d c2       	rjmp	.+1050   	; 0x1b90 <RNDIS_Device_ProcessControlRequest+0x4ec>
    1776:	81 e0       	ldi	r24, 0x01	; 1
    1778:	d8 01       	movw	r26, r16
    177a:	5c 96       	adiw	r26, 0x1c	; 28
    177c:	8c 93       	st	X, r24
    177e:	88 e0       	ldi	r24, 0x08	; 8
    1780:	90 e0       	ldi	r25, 0x00	; 0
    1782:	a0 e0       	ldi	r26, 0x00	; 0
    1784:	b0 e8       	ldi	r27, 0x80	; 128
    1786:	88 83       	st	Y, r24
    1788:	99 83       	std	Y+1, r25	; 0x01
    178a:	aa 83       	std	Y+2, r26	; 0x02
    178c:	bb 83       	std	Y+3, r27	; 0x03
    178e:	80 e1       	ldi	r24, 0x10	; 16
    1790:	90 e0       	ldi	r25, 0x00	; 0
    1792:	a0 e0       	ldi	r26, 0x00	; 0
    1794:	b0 e0       	ldi	r27, 0x00	; 0
    1796:	8c 83       	std	Y+4, r24	; 0x04
    1798:	9d 83       	std	Y+5, r25	; 0x05
    179a:	ae 83       	std	Y+6, r26	; 0x06
    179c:	bf 83       	std	Y+7, r27	; 0x07
    179e:	8f c1       	rjmp	.+798    	; 0x1abe <RNDIS_Device_ProcessControlRequest+0x41a>
    17a0:	21 e0       	ldi	r18, 0x01	; 1
    17a2:	f8 01       	movw	r30, r16
    17a4:	24 8f       	std	Z+28, r18	; 0x1c
    17a6:	82 e0       	ldi	r24, 0x02	; 2
    17a8:	90 e0       	ldi	r25, 0x00	; 0
    17aa:	a0 e0       	ldi	r26, 0x00	; 0
    17ac:	b0 e8       	ldi	r27, 0x80	; 128
    17ae:	88 83       	st	Y, r24
    17b0:	99 83       	std	Y+1, r25	; 0x01
    17b2:	aa 83       	std	Y+2, r26	; 0x02
    17b4:	bb 83       	std	Y+3, r27	; 0x03
    17b6:	84 e3       	ldi	r24, 0x34	; 52
    17b8:	90 e0       	ldi	r25, 0x00	; 0
    17ba:	a0 e0       	ldi	r26, 0x00	; 0
    17bc:	b0 e0       	ldi	r27, 0x00	; 0
    17be:	8c 83       	std	Y+4, r24	; 0x04
    17c0:	9d 83       	std	Y+5, r25	; 0x05
    17c2:	ae 83       	std	Y+6, r26	; 0x06
    17c4:	bf 83       	std	Y+7, r27	; 0x07
    17c6:	1c 86       	std	Y+12, r1	; 0x0c
    17c8:	1d 86       	std	Y+13, r1	; 0x0d
    17ca:	1e 86       	std	Y+14, r1	; 0x0e
    17cc:	1f 86       	std	Y+15, r1	; 0x0f
    17ce:	81 e0       	ldi	r24, 0x01	; 1
    17d0:	90 e0       	ldi	r25, 0x00	; 0
    17d2:	a0 e0       	ldi	r26, 0x00	; 0
    17d4:	b0 e0       	ldi	r27, 0x00	; 0
    17d6:	88 8b       	std	Y+16, r24	; 0x10
    17d8:	99 8b       	std	Y+17, r25	; 0x11
    17da:	aa 8b       	std	Y+18, r26	; 0x12
    17dc:	bb 8b       	std	Y+19, r27	; 0x13
    17de:	1c 8a       	std	Y+20, r1	; 0x14
    17e0:	1d 8a       	std	Y+21, r1	; 0x15
    17e2:	1e 8a       	std	Y+22, r1	; 0x16
    17e4:	1f 8a       	std	Y+23, r1	; 0x17
    17e6:	88 8f       	std	Y+24, r24	; 0x18
    17e8:	99 8f       	std	Y+25, r25	; 0x19
    17ea:	aa 8f       	std	Y+26, r26	; 0x1a
    17ec:	bb 8f       	std	Y+27, r27	; 0x1b
    17ee:	1c 8e       	std	Y+28, r1	; 0x1c
    17f0:	1d 8e       	std	Y+29, r1	; 0x1d
    17f2:	1e 8e       	std	Y+30, r1	; 0x1e
    17f4:	1f 8e       	std	Y+31, r1	; 0x1f
    17f6:	88 a3       	std	Y+32, r24	; 0x20
    17f8:	99 a3       	std	Y+33, r25	; 0x21
    17fa:	aa a3       	std	Y+34, r26	; 0x22
    17fc:	bb a3       	std	Y+35, r27	; 0x23
    17fe:	88 e0       	ldi	r24, 0x08	; 8
    1800:	96 e0       	ldi	r25, 0x06	; 6
    1802:	a0 e0       	ldi	r26, 0x00	; 0
    1804:	b0 e0       	ldi	r27, 0x00	; 0
    1806:	8c a3       	std	Y+36, r24	; 0x24
    1808:	9d a3       	std	Y+37, r25	; 0x25
    180a:	ae a3       	std	Y+38, r26	; 0x26
    180c:	bf a3       	std	Y+39, r27	; 0x27
    180e:	18 a6       	std	Y+40, r1	; 0x28
    1810:	19 a6       	std	Y+41, r1	; 0x29
    1812:	1a a6       	std	Y+42, r1	; 0x2a
    1814:	1b a6       	std	Y+43, r1	; 0x2b
    1816:	1c a6       	std	Y+44, r1	; 0x2c
    1818:	1d a6       	std	Y+45, r1	; 0x2d
    181a:	1e a6       	std	Y+46, r1	; 0x2e
    181c:	1f a6       	std	Y+47, r1	; 0x2f
    181e:	18 aa       	std	Y+48, r1	; 0x30
    1820:	19 aa       	std	Y+49, r1	; 0x31
    1822:	1a aa       	std	Y+50, r1	; 0x32
    1824:	1b aa       	std	Y+51, r1	; 0x33
    1826:	25 8f       	std	Z+29, r18	; 0x1d
    1828:	b3 c1       	rjmp	.+870    	; 0x1b90 <RNDIS_Device_ProcessControlRequest+0x4ec>
    182a:	81 e0       	ldi	r24, 0x01	; 1
    182c:	f8 01       	movw	r30, r16
    182e:	84 8f       	std	Z+28, r24	; 0x1c
    1830:	4c 85       	ldd	r20, Y+12	; 0x0c
    1832:	5d 85       	ldd	r21, Y+13	; 0x0d
    1834:	6e 85       	ldd	r22, Y+14	; 0x0e
    1836:	7f 85       	ldd	r23, Y+15	; 0x0f
    1838:	ce 01       	movw	r24, r28
    183a:	48 96       	adiw	r24, 0x18	; 24
    183c:	24 e0       	ldi	r18, 0x04	; 4
    183e:	c2 2e       	mov	r12, r18
    1840:	d1 2c       	mov	r13, r1
    1842:	e1 2c       	mov	r14, r1
    1844:	20 e8       	ldi	r18, 0x80	; 128
    1846:	f2 2e       	mov	r15, r18
    1848:	c8 82       	st	Y, r12
    184a:	d9 82       	std	Y+1, r13	; 0x01
    184c:	ea 82       	std	Y+2, r14	; 0x02
    184e:	fb 82       	std	Y+3, r15	; 0x03
    1850:	4e 30       	cpi	r20, 0x0E	; 14
    1852:	f1 e0       	ldi	r31, 0x01	; 1
    1854:	5f 07       	cpc	r21, r31
    1856:	6f 07       	cpc	r22, r31
    1858:	71 05       	cpc	r23, r1
    185a:	09 f4       	brne	.+2      	; 0x185e <RNDIS_Device_ProcessControlRequest+0x1ba>
    185c:	bc c0       	rjmp	.+376    	; 0x19d6 <RNDIS_Device_ProcessControlRequest+0x332>
    185e:	08 f0       	brcs	.+2      	; 0x1862 <RNDIS_Device_ProcessControlRequest+0x1be>
    1860:	57 c0       	rjmp	.+174    	; 0x1910 <RNDIS_Device_ProcessControlRequest+0x26c>
    1862:	46 30       	cpi	r20, 0x06	; 6
    1864:	a1 e0       	ldi	r26, 0x01	; 1
    1866:	5a 07       	cpc	r21, r26
    1868:	6a 07       	cpc	r22, r26
    186a:	71 05       	cpc	r23, r1
    186c:	09 f4       	brne	.+2      	; 0x1870 <RNDIS_Device_ProcessControlRequest+0x1cc>
    186e:	a9 c0       	rjmp	.+338    	; 0x19c2 <RNDIS_Device_ProcessControlRequest+0x31e>
    1870:	e8 f4       	brcc	.+58     	; 0x18ac <RNDIS_Device_ProcessControlRequest+0x208>
    1872:	42 30       	cpi	r20, 0x02	; 2
    1874:	e1 e0       	ldi	r30, 0x01	; 1
    1876:	5e 07       	cpc	r21, r30
    1878:	6e 07       	cpc	r22, r30
    187a:	71 05       	cpc	r23, r1
    187c:	09 f4       	brne	.+2      	; 0x1880 <RNDIS_Device_ProcessControlRequest+0x1dc>
    187e:	b1 c0       	rjmp	.+354    	; 0x19e2 <RNDIS_Device_ProcessControlRequest+0x33e>
    1880:	70 f4       	brcc	.+28     	; 0x189e <RNDIS_Device_ProcessControlRequest+0x1fa>
    1882:	41 30       	cpi	r20, 0x01	; 1
    1884:	51 40       	sbci	r21, 0x01	; 1
    1886:	61 40       	sbci	r22, 0x01	; 1
    1888:	71 05       	cpc	r23, r1
    188a:	09 f0       	breq	.+2      	; 0x188e <RNDIS_Device_ProcessControlRequest+0x1ea>
    188c:	69 c1       	rjmp	.+722    	; 0x1b60 <RNDIS_Device_ProcessControlRequest+0x4bc>
    188e:	4c e6       	ldi	r20, 0x6C	; 108
    1890:	50 e0       	ldi	r21, 0x00	; 0
    1892:	66 eb       	ldi	r22, 0xB6	; 182
    1894:	73 e0       	ldi	r23, 0x03	; 3
    1896:	c0 d7       	rcall	.+3968   	; 0x2818 <memcpy_P>
    1898:	0c e6       	ldi	r16, 0x6C	; 108
    189a:	10 e0       	ldi	r17, 0x00	; 0
    189c:	45 c1       	rjmp	.+650    	; 0x1b28 <RNDIS_Device_ProcessControlRequest+0x484>
    189e:	45 30       	cpi	r20, 0x05	; 5
    18a0:	51 40       	sbci	r21, 0x01	; 1
    18a2:	61 40       	sbci	r22, 0x01	; 1
    18a4:	71 05       	cpc	r23, r1
    18a6:	08 f4       	brcc	.+2      	; 0x18aa <RNDIS_Device_ProcessControlRequest+0x206>
    18a8:	9c c0       	rjmp	.+312    	; 0x19e2 <RNDIS_Device_ProcessControlRequest+0x33e>
    18aa:	5a c1       	rjmp	.+692    	; 0x1b60 <RNDIS_Device_ProcessControlRequest+0x4bc>
    18ac:	4c 30       	cpi	r20, 0x0C	; 12
    18ae:	a1 e0       	ldi	r26, 0x01	; 1
    18b0:	5a 07       	cpc	r21, r26
    18b2:	6a 07       	cpc	r22, r26
    18b4:	71 05       	cpc	r23, r1
    18b6:	90 f4       	brcc	.+36     	; 0x18dc <RNDIS_Device_ProcessControlRequest+0x238>
    18b8:	4a 30       	cpi	r20, 0x0A	; 10
    18ba:	b1 e0       	ldi	r27, 0x01	; 1
    18bc:	5b 07       	cpc	r21, r27
    18be:	6b 07       	cpc	r22, r27
    18c0:	71 05       	cpc	r23, r1
    18c2:	08 f0       	brcs	.+2      	; 0x18c6 <RNDIS_Device_ProcessControlRequest+0x222>
    18c4:	7e c0       	rjmp	.+252    	; 0x19c2 <RNDIS_Device_ProcessControlRequest+0x31e>
    18c6:	47 30       	cpi	r20, 0x07	; 7
    18c8:	51 40       	sbci	r21, 0x01	; 1
    18ca:	61 40       	sbci	r22, 0x01	; 1
    18cc:	71 05       	cpc	r23, r1
    18ce:	09 f0       	breq	.+2      	; 0x18d2 <RNDIS_Device_ProcessControlRequest+0x22e>
    18d0:	47 c1       	rjmp	.+654    	; 0x1b60 <RNDIS_Device_ProcessControlRequest+0x4bc>
    18d2:	80 ea       	ldi	r24, 0xA0	; 160
    18d4:	96 e8       	ldi	r25, 0x86	; 134
    18d6:	a1 e0       	ldi	r26, 0x01	; 1
    18d8:	b0 e0       	ldi	r27, 0x00	; 0
    18da:	88 c0       	rjmp	.+272    	; 0x19ec <RNDIS_Device_ProcessControlRequest+0x348>
    18dc:	4c 30       	cpi	r20, 0x0C	; 12
    18de:	f1 e0       	ldi	r31, 0x01	; 1
    18e0:	5f 07       	cpc	r21, r31
    18e2:	6f 07       	cpc	r22, r31
    18e4:	71 05       	cpc	r23, r1
    18e6:	09 f4       	brne	.+2      	; 0x18ea <RNDIS_Device_ProcessControlRequest+0x246>
    18e8:	67 c0       	rjmp	.+206    	; 0x19b8 <RNDIS_Device_ProcessControlRequest+0x314>
    18ea:	4d 30       	cpi	r20, 0x0D	; 13
    18ec:	51 40       	sbci	r21, 0x01	; 1
    18ee:	61 40       	sbci	r22, 0x01	; 1
    18f0:	71 05       	cpc	r23, r1
    18f2:	09 f0       	breq	.+2      	; 0x18f6 <RNDIS_Device_ProcessControlRequest+0x252>
    18f4:	35 c1       	rjmp	.+618    	; 0x1b60 <RNDIS_Device_ProcessControlRequest+0x4bc>
    18f6:	f8 01       	movw	r30, r16
    18f8:	60 89       	ldd	r22, Z+16	; 0x10
    18fa:	71 89       	ldd	r23, Z+17	; 0x11
    18fc:	fb 01       	movw	r30, r22
    18fe:	01 90       	ld	r0, Z+
    1900:	00 20       	and	r0, r0
    1902:	e9 f7       	brne	.-6      	; 0x18fe <RNDIS_Device_ProcessControlRequest+0x25a>
    1904:	8f 01       	movw	r16, r30
    1906:	06 1b       	sub	r16, r22
    1908:	17 0b       	sbc	r17, r23
    190a:	a8 01       	movw	r20, r16
    190c:	ba d7       	rcall	.+3956   	; 0x2882 <memcpy>
    190e:	0c c1       	rjmp	.+536    	; 0x1b28 <RNDIS_Device_ProcessControlRequest+0x484>
    1910:	46 30       	cpi	r20, 0x06	; 6
    1912:	a1 e0       	ldi	r26, 0x01	; 1
    1914:	5a 07       	cpc	r21, r26
    1916:	a2 e0       	ldi	r26, 0x02	; 2
    1918:	6a 07       	cpc	r22, r26
    191a:	71 05       	cpc	r23, r1
    191c:	38 f5       	brcc	.+78     	; 0x196c <RNDIS_Device_ProcessControlRequest+0x2c8>
    191e:	41 30       	cpi	r20, 0x01	; 1
    1920:	b1 e0       	ldi	r27, 0x01	; 1
    1922:	5b 07       	cpc	r21, r27
    1924:	b2 e0       	ldi	r27, 0x02	; 2
    1926:	6b 07       	cpc	r22, r27
    1928:	71 05       	cpc	r23, r1
    192a:	08 f0       	brcs	.+2      	; 0x192e <RNDIS_Device_ProcessControlRequest+0x28a>
    192c:	5a c0       	rjmp	.+180    	; 0x19e2 <RNDIS_Device_ProcessControlRequest+0x33e>
    192e:	44 31       	cpi	r20, 0x14	; 20
    1930:	e1 e0       	ldi	r30, 0x01	; 1
    1932:	5e 07       	cpc	r21, r30
    1934:	6e 07       	cpc	r22, r30
    1936:	71 05       	cpc	r23, r1
    1938:	09 f4       	brne	.+2      	; 0x193c <RNDIS_Device_ProcessControlRequest+0x298>
    193a:	53 c0       	rjmp	.+166    	; 0x19e2 <RNDIS_Device_ProcessControlRequest+0x33e>
    193c:	42 30       	cpi	r20, 0x02	; 2
    193e:	f2 e0       	ldi	r31, 0x02	; 2
    1940:	5f 07       	cpc	r21, r31
    1942:	f1 e0       	ldi	r31, 0x01	; 1
    1944:	6f 07       	cpc	r22, r31
    1946:	71 05       	cpc	r23, r1
    1948:	09 f4       	brne	.+2      	; 0x194c <RNDIS_Device_ProcessControlRequest+0x2a8>
    194a:	4b c0       	rjmp	.+150    	; 0x19e2 <RNDIS_Device_ProcessControlRequest+0x33e>
    194c:	41 31       	cpi	r20, 0x11	; 17
    194e:	51 40       	sbci	r21, 0x01	; 1
    1950:	61 40       	sbci	r22, 0x01	; 1
    1952:	71 05       	cpc	r23, r1
    1954:	09 f0       	breq	.+2      	; 0x1958 <RNDIS_Device_ProcessControlRequest+0x2b4>
    1956:	04 c1       	rjmp	.+520    	; 0x1b60 <RNDIS_Device_ProcessControlRequest+0x4bc>
    1958:	d8 01       	movw	r26, r16
    195a:	5a 96       	adiw	r26, 0x1a	; 26
    195c:	8d 91       	ld	r24, X+
    195e:	9c 91       	ld	r25, X
    1960:	5b 97       	sbiw	r26, 0x1b	; 27
    1962:	84 52       	subi	r24, 0x24	; 36
    1964:	9a 4f       	sbci	r25, 0xFA	; 250
    1966:	a0 e0       	ldi	r26, 0x00	; 0
    1968:	b0 e0       	ldi	r27, 0x00	; 0
    196a:	40 c0       	rjmp	.+128    	; 0x19ec <RNDIS_Device_ProcessControlRequest+0x348>
    196c:	44 30       	cpi	r20, 0x04	; 4
    196e:	a1 e0       	ldi	r26, 0x01	; 1
    1970:	5a 07       	cpc	r21, r26
    1972:	6a 07       	cpc	r22, r26
    1974:	7a 07       	cpc	r23, r26
    1976:	51 f1       	breq	.+84     	; 0x19cc <RNDIS_Device_ProcessControlRequest+0x328>
    1978:	a8 f4       	brcc	.+42     	; 0x19a4 <RNDIS_Device_ProcessControlRequest+0x300>
    197a:	41 50       	subi	r20, 0x01	; 1
    197c:	51 40       	sbci	r21, 0x01	; 1
    197e:	61 40       	sbci	r22, 0x01	; 1
    1980:	71 40       	sbci	r23, 0x01	; 1
    1982:	42 30       	cpi	r20, 0x02	; 2
    1984:	51 05       	cpc	r21, r1
    1986:	61 05       	cpc	r22, r1
    1988:	71 05       	cpc	r23, r1
    198a:	08 f0       	brcs	.+2      	; 0x198e <RNDIS_Device_ProcessControlRequest+0x2ea>
    198c:	e9 c0       	rjmp	.+466    	; 0x1b60 <RNDIS_Device_ProcessControlRequest+0x4bc>
    198e:	f8 01       	movw	r30, r16
    1990:	72 96       	adiw	r30, 0x12	; 18
    1992:	26 e0       	ldi	r18, 0x06	; 6
    1994:	dc 01       	movw	r26, r24
    1996:	01 90       	ld	r0, Z+
    1998:	0d 92       	st	X+, r0
    199a:	2a 95       	dec	r18
    199c:	e1 f7       	brne	.-8      	; 0x1996 <RNDIS_Device_ProcessControlRequest+0x2f2>
    199e:	06 e0       	ldi	r16, 0x06	; 6
    19a0:	10 e0       	ldi	r17, 0x00	; 0
    19a2:	c2 c0       	rjmp	.+388    	; 0x1b28 <RNDIS_Device_ProcessControlRequest+0x484>
    19a4:	41 50       	subi	r20, 0x01	; 1
    19a6:	51 40       	sbci	r21, 0x01	; 1
    19a8:	62 40       	sbci	r22, 0x02	; 2
    19aa:	71 40       	sbci	r23, 0x01	; 1
    19ac:	43 30       	cpi	r20, 0x03	; 3
    19ae:	51 05       	cpc	r21, r1
    19b0:	61 05       	cpc	r22, r1
    19b2:	71 05       	cpc	r23, r1
    19b4:	b0 f0       	brcs	.+44     	; 0x19e2 <RNDIS_Device_ProcessControlRequest+0x33e>
    19b6:	d4 c0       	rjmp	.+424    	; 0x1b60 <RNDIS_Device_ProcessControlRequest+0x4bc>
    19b8:	8f ef       	ldi	r24, 0xFF	; 255
    19ba:	9f ef       	ldi	r25, 0xFF	; 255
    19bc:	af ef       	ldi	r26, 0xFF	; 255
    19be:	b0 e0       	ldi	r27, 0x00	; 0
    19c0:	15 c0       	rjmp	.+42     	; 0x19ec <RNDIS_Device_ProcessControlRequest+0x348>
    19c2:	8c ed       	ldi	r24, 0xDC	; 220
    19c4:	95 e0       	ldi	r25, 0x05	; 5
    19c6:	a0 e0       	ldi	r26, 0x00	; 0
    19c8:	b0 e0       	ldi	r27, 0x00	; 0
    19ca:	10 c0       	rjmp	.+32     	; 0x19ec <RNDIS_Device_ProcessControlRequest+0x348>
    19cc:	81 e0       	ldi	r24, 0x01	; 1
    19ce:	90 e0       	ldi	r25, 0x00	; 0
    19d0:	a0 e0       	ldi	r26, 0x00	; 0
    19d2:	b0 e0       	ldi	r27, 0x00	; 0
    19d4:	0b c0       	rjmp	.+22     	; 0x19ec <RNDIS_Device_ProcessControlRequest+0x348>
    19d6:	f8 01       	movw	r30, r16
    19d8:	86 8d       	ldd	r24, Z+30	; 0x1e
    19da:	97 8d       	ldd	r25, Z+31	; 0x1f
    19dc:	a0 a1       	ldd	r26, Z+32	; 0x20
    19de:	b1 a1       	ldd	r27, Z+33	; 0x21
    19e0:	05 c0       	rjmp	.+10     	; 0x19ec <RNDIS_Device_ProcessControlRequest+0x348>
    19e2:	18 8e       	std	Y+24, r1	; 0x18
    19e4:	19 8e       	std	Y+25, r1	; 0x19
    19e6:	1a 8e       	std	Y+26, r1	; 0x1a
    19e8:	1b 8e       	std	Y+27, r1	; 0x1b
    19ea:	04 c0       	rjmp	.+8      	; 0x19f4 <RNDIS_Device_ProcessControlRequest+0x350>
    19ec:	88 8f       	std	Y+24, r24	; 0x18
    19ee:	99 8f       	std	Y+25, r25	; 0x19
    19f0:	aa 8f       	std	Y+26, r26	; 0x1a
    19f2:	bb 8f       	std	Y+27, r27	; 0x1b
    19f4:	04 e0       	ldi	r16, 0x04	; 4
    19f6:	10 e0       	ldi	r17, 0x00	; 0
    19f8:	97 c0       	rjmp	.+302    	; 0x1b28 <RNDIS_Device_ProcessControlRequest+0x484>
    19fa:	81 e0       	ldi	r24, 0x01	; 1
    19fc:	f8 01       	movw	r30, r16
    19fe:	84 8f       	std	Z+28, r24	; 0x1c
    1a00:	8c 85       	ldd	r24, Y+12	; 0x0c
    1a02:	9d 85       	ldd	r25, Y+13	; 0x0d
    1a04:	ae 85       	ldd	r26, Y+14	; 0x0e
    1a06:	bf 85       	ldd	r27, Y+15	; 0x0f
    1a08:	45 e0       	ldi	r20, 0x05	; 5
    1a0a:	50 e0       	ldi	r21, 0x00	; 0
    1a0c:	60 e0       	ldi	r22, 0x00	; 0
    1a0e:	70 e8       	ldi	r23, 0x80	; 128
    1a10:	48 83       	st	Y, r20
    1a12:	59 83       	std	Y+1, r21	; 0x01
    1a14:	6a 83       	std	Y+2, r22	; 0x02
    1a16:	7b 83       	std	Y+3, r23	; 0x03
    1a18:	40 e1       	ldi	r20, 0x10	; 16
    1a1a:	50 e0       	ldi	r21, 0x00	; 0
    1a1c:	60 e0       	ldi	r22, 0x00	; 0
    1a1e:	70 e0       	ldi	r23, 0x00	; 0
    1a20:	4c 83       	std	Y+4, r20	; 0x04
    1a22:	5d 83       	std	Y+5, r21	; 0x05
    1a24:	6e 83       	std	Y+6, r22	; 0x06
    1a26:	7f 83       	std	Y+7, r23	; 0x07
    1a28:	8e 30       	cpi	r24, 0x0E	; 14
    1a2a:	f1 e0       	ldi	r31, 0x01	; 1
    1a2c:	9f 07       	cpc	r25, r31
    1a2e:	af 07       	cpc	r26, r31
    1a30:	b1 05       	cpc	r27, r1
    1a32:	51 f0       	breq	.+20     	; 0x1a48 <RNDIS_Device_ProcessControlRequest+0x3a4>
    1a34:	83 30       	cpi	r24, 0x03	; 3
    1a36:	91 40       	sbci	r25, 0x01	; 1
    1a38:	a1 40       	sbci	r26, 0x01	; 1
    1a3a:	b1 40       	sbci	r27, 0x01	; 1
    1a3c:	09 f1       	breq	.+66     	; 0x1a80 <RNDIS_Device_ProcessControlRequest+0x3dc>
    1a3e:	8b eb       	ldi	r24, 0xBB	; 187
    1a40:	90 e0       	ldi	r25, 0x00	; 0
    1a42:	a0 e0       	ldi	r26, 0x00	; 0
    1a44:	b0 ec       	ldi	r27, 0xC0	; 192
    1a46:	1f c0       	rjmp	.+62     	; 0x1a86 <RNDIS_Device_ProcessControlRequest+0x3e2>
    1a48:	d8 01       	movw	r26, r16
    1a4a:	58 96       	adiw	r26, 0x18	; 24
    1a4c:	ed 91       	ld	r30, X+
    1a4e:	fc 91       	ld	r31, X
    1a50:	59 97       	sbiw	r26, 0x19	; 25
    1a52:	8c 89       	ldd	r24, Y+20	; 0x14
    1a54:	9d 89       	ldd	r25, Y+21	; 0x15
    1a56:	e8 0f       	add	r30, r24
    1a58:	f9 1f       	adc	r31, r25
    1a5a:	80 85       	ldd	r24, Z+8	; 0x08
    1a5c:	91 85       	ldd	r25, Z+9	; 0x09
    1a5e:	a2 85       	ldd	r26, Z+10	; 0x0a
    1a60:	b3 85       	ldd	r27, Z+11	; 0x0b
    1a62:	f8 01       	movw	r30, r16
    1a64:	86 8f       	std	Z+30, r24	; 0x1e
    1a66:	97 8f       	std	Z+31, r25	; 0x1f
    1a68:	a0 a3       	std	Z+32, r26	; 0x20
    1a6a:	b1 a3       	std	Z+33, r27	; 0x21
    1a6c:	89 2b       	or	r24, r25
    1a6e:	8a 2b       	or	r24, r26
    1a70:	8b 2b       	or	r24, r27
    1a72:	11 f4       	brne	.+4      	; 0x1a78 <RNDIS_Device_ProcessControlRequest+0x3d4>
    1a74:	81 e0       	ldi	r24, 0x01	; 1
    1a76:	01 c0       	rjmp	.+2      	; 0x1a7a <RNDIS_Device_ProcessControlRequest+0x3d6>
    1a78:	82 e0       	ldi	r24, 0x02	; 2
    1a7a:	d8 01       	movw	r26, r16
    1a7c:	5d 96       	adiw	r26, 0x1d	; 29
    1a7e:	8c 93       	st	X, r24
    1a80:	80 e0       	ldi	r24, 0x00	; 0
    1a82:	90 e0       	ldi	r25, 0x00	; 0
    1a84:	dc 01       	movw	r26, r24
    1a86:	8c 87       	std	Y+12, r24	; 0x0c
    1a88:	9d 87       	std	Y+13, r25	; 0x0d
    1a8a:	ae 87       	std	Y+14, r26	; 0x0e
    1a8c:	bf 87       	std	Y+15, r27	; 0x0f
    1a8e:	80 c0       	rjmp	.+256    	; 0x1b90 <RNDIS_Device_ProcessControlRequest+0x4ec>
    1a90:	81 e0       	ldi	r24, 0x01	; 1
    1a92:	f8 01       	movw	r30, r16
    1a94:	84 8f       	std	Z+28, r24	; 0x1c
    1a96:	86 e0       	ldi	r24, 0x06	; 6
    1a98:	90 e0       	ldi	r25, 0x00	; 0
    1a9a:	a0 e0       	ldi	r26, 0x00	; 0
    1a9c:	b0 e8       	ldi	r27, 0x80	; 128
    1a9e:	88 83       	st	Y, r24
    1aa0:	99 83       	std	Y+1, r25	; 0x01
    1aa2:	aa 83       	std	Y+2, r26	; 0x02
    1aa4:	bb 83       	std	Y+3, r27	; 0x03
    1aa6:	80 e1       	ldi	r24, 0x10	; 16
    1aa8:	90 e0       	ldi	r25, 0x00	; 0
    1aaa:	a0 e0       	ldi	r26, 0x00	; 0
    1aac:	b0 e0       	ldi	r27, 0x00	; 0
    1aae:	8c 83       	std	Y+4, r24	; 0x04
    1ab0:	9d 83       	std	Y+5, r25	; 0x05
    1ab2:	ae 83       	std	Y+6, r26	; 0x06
    1ab4:	bf 83       	std	Y+7, r27	; 0x07
    1ab6:	18 86       	std	Y+8, r1	; 0x08
    1ab8:	19 86       	std	Y+9, r1	; 0x09
    1aba:	1a 86       	std	Y+10, r1	; 0x0a
    1abc:	1b 86       	std	Y+11, r1	; 0x0b
    1abe:	1c 86       	std	Y+12, r1	; 0x0c
    1ac0:	1d 86       	std	Y+13, r1	; 0x0d
    1ac2:	1e 86       	std	Y+14, r1	; 0x0e
    1ac4:	1f 86       	std	Y+15, r1	; 0x0f
    1ac6:	64 c0       	rjmp	.+200    	; 0x1b90 <RNDIS_Device_ProcessControlRequest+0x4ec>
    1ac8:	80 91 55 14 	lds	r24, 0x1455	; 0x801455 <USB_ControlRequest>
    1acc:	81 3a       	cpi	r24, 0xA1	; 161
    1ace:	09 f0       	breq	.+2      	; 0x1ad2 <RNDIS_Device_ProcessControlRequest+0x42e>
    1ad0:	5f c0       	rjmp	.+190    	; 0x1b90 <RNDIS_Device_ProcessControlRequest+0x4ec>
    1ad2:	fd 01       	movw	r30, r26
    1ad4:	c0 8d       	ldd	r28, Z+24	; 0x18
    1ad6:	d1 8d       	ldd	r29, Z+25	; 0x19
    1ad8:	8c 81       	ldd	r24, Y+4	; 0x04
    1ada:	9d 81       	ldd	r25, Y+5	; 0x05
    1adc:	ae 81       	ldd	r26, Y+6	; 0x06
    1ade:	bf 81       	ldd	r27, Y+7	; 0x07
    1ae0:	89 2b       	or	r24, r25
    1ae2:	8a 2b       	or	r24, r26
    1ae4:	8b 2b       	or	r24, r27
    1ae6:	49 f4       	brne	.+18     	; 0x1afa <RNDIS_Device_ProcessControlRequest+0x456>
    1ae8:	18 82       	st	Y, r1
    1aea:	81 e0       	ldi	r24, 0x01	; 1
    1aec:	90 e0       	ldi	r25, 0x00	; 0
    1aee:	a0 e0       	ldi	r26, 0x00	; 0
    1af0:	b0 e0       	ldi	r27, 0x00	; 0
    1af2:	8c 83       	std	Y+4, r24	; 0x04
    1af4:	9d 83       	std	Y+5, r25	; 0x05
    1af6:	ae 83       	std	Y+6, r26	; 0x06
    1af8:	bf 83       	std	Y+7, r27	; 0x07
    1afa:	80 91 e8 00 	lds	r24, 0x00E8	; 0x8000e8 <__TEXT_REGION_LENGTH__+0x7e00e8>
    1afe:	87 7f       	andi	r24, 0xF7	; 247
    1b00:	80 93 e8 00 	sts	0x00E8, r24	; 0x8000e8 <__TEXT_REGION_LENGTH__+0x7e00e8>
    1b04:	6c 81       	ldd	r22, Y+4	; 0x04
    1b06:	7d 81       	ldd	r23, Y+5	; 0x05
    1b08:	d8 01       	movw	r26, r16
    1b0a:	58 96       	adiw	r26, 0x18	; 24
    1b0c:	8d 91       	ld	r24, X+
    1b0e:	9c 91       	ld	r25, X
    1b10:	59 97       	sbiw	r26, 0x19	; 25
    1b12:	1d d2       	rcall	.+1082   	; 0x1f4e <Endpoint_Write_Control_Stream_LE>
    1b14:	80 91 e8 00 	lds	r24, 0x00E8	; 0x8000e8 <__TEXT_REGION_LENGTH__+0x7e00e8>
    1b18:	8b 77       	andi	r24, 0x7B	; 123
    1b1a:	80 93 e8 00 	sts	0x00E8, r24	; 0x8000e8 <__TEXT_REGION_LENGTH__+0x7e00e8>
    1b1e:	1c 82       	std	Y+4, r1	; 0x04
    1b20:	1d 82       	std	Y+5, r1	; 0x05
    1b22:	1e 82       	std	Y+6, r1	; 0x06
    1b24:	1f 82       	std	Y+7, r1	; 0x07
    1b26:	34 c0       	rjmp	.+104    	; 0x1b90 <RNDIS_Device_ProcessControlRequest+0x4ec>
    1b28:	1c 86       	std	Y+12, r1	; 0x0c
    1b2a:	1d 86       	std	Y+13, r1	; 0x0d
    1b2c:	1e 86       	std	Y+14, r1	; 0x0e
    1b2e:	1f 86       	std	Y+15, r1	; 0x0f
    1b30:	c8 01       	movw	r24, r16
    1b32:	48 96       	adiw	r24, 0x18	; 24
    1b34:	a0 e0       	ldi	r26, 0x00	; 0
    1b36:	b0 e0       	ldi	r27, 0x00	; 0
    1b38:	8c 83       	std	Y+4, r24	; 0x04
    1b3a:	9d 83       	std	Y+5, r25	; 0x05
    1b3c:	ae 83       	std	Y+6, r26	; 0x06
    1b3e:	bf 83       	std	Y+7, r27	; 0x07
    1b40:	a8 01       	movw	r20, r16
    1b42:	60 e0       	ldi	r22, 0x00	; 0
    1b44:	70 e0       	ldi	r23, 0x00	; 0
    1b46:	48 8b       	std	Y+16, r20	; 0x10
    1b48:	59 8b       	std	Y+17, r21	; 0x11
    1b4a:	6a 8b       	std	Y+18, r22	; 0x12
    1b4c:	7b 8b       	std	Y+19, r23	; 0x13
    1b4e:	80 e1       	ldi	r24, 0x10	; 16
    1b50:	90 e0       	ldi	r25, 0x00	; 0
    1b52:	a0 e0       	ldi	r26, 0x00	; 0
    1b54:	b0 e0       	ldi	r27, 0x00	; 0
    1b56:	8c 8b       	std	Y+20, r24	; 0x14
    1b58:	9d 8b       	std	Y+21, r25	; 0x15
    1b5a:	ae 8b       	std	Y+22, r26	; 0x16
    1b5c:	bf 8b       	std	Y+23, r27	; 0x17
    1b5e:	18 c0       	rjmp	.+48     	; 0x1b90 <RNDIS_Device_ProcessControlRequest+0x4ec>
    1b60:	8b eb       	ldi	r24, 0xBB	; 187
    1b62:	90 e0       	ldi	r25, 0x00	; 0
    1b64:	a0 e0       	ldi	r26, 0x00	; 0
    1b66:	b0 ec       	ldi	r27, 0xC0	; 192
    1b68:	8c 87       	std	Y+12, r24	; 0x0c
    1b6a:	9d 87       	std	Y+13, r25	; 0x0d
    1b6c:	ae 87       	std	Y+14, r26	; 0x0e
    1b6e:	bf 87       	std	Y+15, r27	; 0x0f
    1b70:	88 e1       	ldi	r24, 0x18	; 24
    1b72:	90 e0       	ldi	r25, 0x00	; 0
    1b74:	a0 e0       	ldi	r26, 0x00	; 0
    1b76:	b0 e0       	ldi	r27, 0x00	; 0
    1b78:	8c 83       	std	Y+4, r24	; 0x04
    1b7a:	9d 83       	std	Y+5, r25	; 0x05
    1b7c:	ae 83       	std	Y+6, r26	; 0x06
    1b7e:	bf 83       	std	Y+7, r27	; 0x07
    1b80:	18 8a       	std	Y+16, r1	; 0x10
    1b82:	19 8a       	std	Y+17, r1	; 0x11
    1b84:	1a 8a       	std	Y+18, r1	; 0x12
    1b86:	1b 8a       	std	Y+19, r1	; 0x13
    1b88:	1c 8a       	std	Y+20, r1	; 0x14
    1b8a:	1d 8a       	std	Y+21, r1	; 0x15
    1b8c:	1e 8a       	std	Y+22, r1	; 0x16
    1b8e:	1f 8a       	std	Y+23, r1	; 0x17
    1b90:	df 91       	pop	r29
    1b92:	cf 91       	pop	r28
    1b94:	1f 91       	pop	r17
    1b96:	0f 91       	pop	r16
    1b98:	ff 90       	pop	r15
    1b9a:	ef 90       	pop	r14
    1b9c:	df 90       	pop	r13
    1b9e:	cf 90       	pop	r12
    1ba0:	08 95       	ret

00001ba2 <RNDIS_Device_ConfigureEndpoints>:
    1ba2:	cf 93       	push	r28
    1ba4:	df 93       	push	r29
    1ba6:	fc 01       	movw	r30, r24
    1ba8:	dc 01       	movw	r26, r24
    1baa:	5c 96       	adiw	r26, 0x1c	; 28
    1bac:	86 e0       	ldi	r24, 0x06	; 6
    1bae:	ed 01       	movw	r28, r26
    1bb0:	19 92       	st	Y+, r1
    1bb2:	8a 95       	dec	r24
    1bb4:	e9 f7       	brne	.-6      	; 0x1bb0 <RNDIS_Device_ConfigureEndpoints+0xe>
    1bb6:	82 e0       	ldi	r24, 0x02	; 2
    1bb8:	84 83       	std	Z+4, r24	; 0x04
    1bba:	81 87       	std	Z+9, r24	; 0x09
    1bbc:	83 e0       	ldi	r24, 0x03	; 3
    1bbe:	86 87       	std	Z+14, r24	; 0x0e
    1bc0:	80 8d       	ldd	r24, Z+24	; 0x18
    1bc2:	91 8d       	ldd	r25, Z+25	; 0x19
    1bc4:	89 2b       	or	r24, r25
    1bc6:	c1 f0       	breq	.+48     	; 0x1bf8 <RNDIS_Device_ConfigureEndpoints+0x56>
    1bc8:	82 8d       	ldd	r24, Z+26	; 0x1a
    1bca:	93 8d       	ldd	r25, Z+27	; 0x1b
    1bcc:	84 38       	cpi	r24, 0x84	; 132
    1bce:	91 05       	cpc	r25, r1
    1bd0:	98 f0       	brcs	.+38     	; 0x1bf8 <RNDIS_Device_ConfigureEndpoints+0x56>
    1bd2:	ef 01       	movw	r28, r30
    1bd4:	61 e0       	ldi	r22, 0x01	; 1
    1bd6:	cf 01       	movw	r24, r30
    1bd8:	01 96       	adiw	r24, 0x01	; 1
    1bda:	e7 d2       	rcall	.+1486   	; 0x21aa <Endpoint_ConfigureEndpointTable>
    1bdc:	88 23       	and	r24, r24
    1bde:	61 f0       	breq	.+24     	; 0x1bf8 <RNDIS_Device_ConfigureEndpoints+0x56>
    1be0:	61 e0       	ldi	r22, 0x01	; 1
    1be2:	ce 01       	movw	r24, r28
    1be4:	06 96       	adiw	r24, 0x06	; 6
    1be6:	e1 d2       	rcall	.+1474   	; 0x21aa <Endpoint_ConfigureEndpointTable>
    1be8:	88 23       	and	r24, r24
    1bea:	31 f0       	breq	.+12     	; 0x1bf8 <RNDIS_Device_ConfigureEndpoints+0x56>
    1bec:	61 e0       	ldi	r22, 0x01	; 1
    1bee:	ce 01       	movw	r24, r28
    1bf0:	0b 96       	adiw	r24, 0x0b	; 11
    1bf2:	df 91       	pop	r29
    1bf4:	cf 91       	pop	r28
    1bf6:	d9 c2       	rjmp	.+1458   	; 0x21aa <Endpoint_ConfigureEndpointTable>
    1bf8:	80 e0       	ldi	r24, 0x00	; 0
    1bfa:	df 91       	pop	r29
    1bfc:	cf 91       	pop	r28
    1bfe:	08 95       	ret

00001c00 <RNDIS_Device_USBTask>:
    1c00:	0f 93       	push	r16
    1c02:	1f 93       	push	r17
    1c04:	cf 93       	push	r28
    1c06:	df 93       	push	r29
    1c08:	cd b7       	in	r28, 0x3d	; 61
    1c0a:	de b7       	in	r29, 0x3e	; 62
    1c0c:	28 97       	sbiw	r28, 0x08	; 8
    1c0e:	0f b6       	in	r0, 0x3f	; 63
    1c10:	f8 94       	cli
    1c12:	de bf       	out	0x3e, r29	; 62
    1c14:	0f be       	out	0x3f, r0	; 63
    1c16:	cd bf       	out	0x3d, r28	; 61
    1c18:	20 91 54 14 	lds	r18, 0x1454	; 0x801454 <USB_DeviceState>
    1c1c:	24 30       	cpi	r18, 0x04	; 4
    1c1e:	21 f5       	brne	.+72     	; 0x1c68 <RNDIS_Device_USBTask+0x68>
    1c20:	fc 01       	movw	r30, r24
    1c22:	23 85       	ldd	r18, Z+11	; 0x0b
    1c24:	2f 70       	andi	r18, 0x0F	; 15
    1c26:	20 93 e9 00 	sts	0x00E9, r18	; 0x8000e9 <__TEXT_REGION_LENGTH__+0x7e00e9>
    1c2a:	20 91 e8 00 	lds	r18, 0x00E8	; 0x8000e8 <__TEXT_REGION_LENGTH__+0x7e00e8>
    1c2e:	20 ff       	sbrs	r18, 0
    1c30:	1b c0       	rjmp	.+54     	; 0x1c68 <RNDIS_Device_USBTask+0x68>
    1c32:	24 8d       	ldd	r18, Z+28	; 0x1c
    1c34:	22 23       	and	r18, r18
    1c36:	c1 f0       	breq	.+48     	; 0x1c68 <RNDIS_Device_USBTask+0x68>
    1c38:	8c 01       	movw	r16, r24
    1c3a:	88 e0       	ldi	r24, 0x08	; 8
    1c3c:	e8 e2       	ldi	r30, 0x28	; 40
    1c3e:	f1 e0       	ldi	r31, 0x01	; 1
    1c40:	de 01       	movw	r26, r28
    1c42:	11 96       	adiw	r26, 0x01	; 1
    1c44:	01 90       	ld	r0, Z+
    1c46:	0d 92       	st	X+, r0
    1c48:	8a 95       	dec	r24
    1c4a:	e1 f7       	brne	.-8      	; 0x1c44 <RNDIS_Device_USBTask+0x44>
    1c4c:	40 e0       	ldi	r20, 0x00	; 0
    1c4e:	50 e0       	ldi	r21, 0x00	; 0
    1c50:	68 e0       	ldi	r22, 0x08	; 8
    1c52:	70 e0       	ldi	r23, 0x00	; 0
    1c54:	ce 01       	movw	r24, r28
    1c56:	01 96       	adiw	r24, 0x01	; 1
    1c58:	e6 d0       	rcall	.+460    	; 0x1e26 <Endpoint_Write_Stream_LE>
    1c5a:	80 91 e8 00 	lds	r24, 0x00E8	; 0x8000e8 <__TEXT_REGION_LENGTH__+0x7e00e8>
    1c5e:	8e 77       	andi	r24, 0x7E	; 126
    1c60:	80 93 e8 00 	sts	0x00E8, r24	; 0x8000e8 <__TEXT_REGION_LENGTH__+0x7e00e8>
    1c64:	f8 01       	movw	r30, r16
    1c66:	14 8e       	std	Z+28, r1	; 0x1c
    1c68:	28 96       	adiw	r28, 0x08	; 8
    1c6a:	0f b6       	in	r0, 0x3f	; 63
    1c6c:	f8 94       	cli
    1c6e:	de bf       	out	0x3e, r29	; 62
    1c70:	0f be       	out	0x3f, r0	; 63
    1c72:	cd bf       	out	0x3d, r28	; 61
    1c74:	df 91       	pop	r29
    1c76:	cf 91       	pop	r28
    1c78:	1f 91       	pop	r17
    1c7a:	0f 91       	pop	r16
    1c7c:	08 95       	ret

00001c7e <RNDIS_Device_IsPacketReceived>:
    1c7e:	20 91 54 14 	lds	r18, 0x1454	; 0x801454 <USB_DeviceState>
    1c82:	24 30       	cpi	r18, 0x04	; 4
    1c84:	71 f4       	brne	.+28     	; 0x1ca2 <RNDIS_Device_IsPacketReceived+0x24>
    1c86:	fc 01       	movw	r30, r24
    1c88:	25 8d       	ldd	r18, Z+29	; 0x1d
    1c8a:	22 30       	cpi	r18, 0x02	; 2
    1c8c:	51 f4       	brne	.+20     	; 0x1ca2 <RNDIS_Device_IsPacketReceived+0x24>
    1c8e:	86 81       	ldd	r24, Z+6	; 0x06
    1c90:	8f 70       	andi	r24, 0x0F	; 15
    1c92:	80 93 e9 00 	sts	0x00E9, r24	; 0x8000e9 <__TEXT_REGION_LENGTH__+0x7e00e9>
    1c96:	80 91 e8 00 	lds	r24, 0x00E8	; 0x8000e8 <__TEXT_REGION_LENGTH__+0x7e00e8>
    1c9a:	82 fb       	bst	r24, 2
    1c9c:	88 27       	eor	r24, r24
    1c9e:	80 f9       	bld	r24, 0
    1ca0:	08 95       	ret
    1ca2:	80 e0       	ldi	r24, 0x00	; 0
    1ca4:	08 95       	ret

00001ca6 <RNDIS_Device_ReadPacket>:
    1ca6:	ef 92       	push	r14
    1ca8:	ff 92       	push	r15
    1caa:	0f 93       	push	r16
    1cac:	1f 93       	push	r17
    1cae:	cf 93       	push	r28
    1cb0:	df 93       	push	r29
    1cb2:	cd b7       	in	r28, 0x3d	; 61
    1cb4:	de b7       	in	r29, 0x3e	; 62
    1cb6:	ac 97       	sbiw	r28, 0x2c	; 44
    1cb8:	0f b6       	in	r0, 0x3f	; 63
    1cba:	f8 94       	cli
    1cbc:	de bf       	out	0x3e, r29	; 62
    1cbe:	0f be       	out	0x3f, r0	; 63
    1cc0:	cd bf       	out	0x3d, r28	; 61
    1cc2:	20 91 54 14 	lds	r18, 0x1454	; 0x801454 <USB_DeviceState>
    1cc6:	24 30       	cpi	r18, 0x04	; 4
    1cc8:	c9 f5       	brne	.+114    	; 0x1d3c <RNDIS_Device_ReadPacket+0x96>
    1cca:	fc 01       	movw	r30, r24
    1ccc:	25 8d       	ldd	r18, Z+29	; 0x1d
    1cce:	22 30       	cpi	r18, 0x02	; 2
    1cd0:	a9 f5       	brne	.+106    	; 0x1d3c <RNDIS_Device_ReadPacket+0x96>
    1cd2:	86 81       	ldd	r24, Z+6	; 0x06
    1cd4:	8f 70       	andi	r24, 0x0F	; 15
    1cd6:	80 93 e9 00 	sts	0x00E9, r24	; 0x8000e9 <__TEXT_REGION_LENGTH__+0x7e00e9>
    1cda:	fa 01       	movw	r30, r20
    1cdc:	11 82       	std	Z+1, r1	; 0x01
    1cde:	10 82       	st	Z, r1
    1ce0:	90 91 e8 00 	lds	r25, 0x00E8	; 0x8000e8 <__TEXT_REGION_LENGTH__+0x7e00e8>
    1ce4:	89 2f       	mov	r24, r25
    1ce6:	84 70       	andi	r24, 0x04	; 4
    1ce8:	92 ff       	sbrs	r25, 2
    1cea:	29 c0       	rjmp	.+82     	; 0x1d3e <RNDIS_Device_ReadPacket+0x98>
    1cec:	8a 01       	movw	r16, r20
    1cee:	7b 01       	movw	r14, r22
    1cf0:	40 e0       	ldi	r20, 0x00	; 0
    1cf2:	50 e0       	ldi	r21, 0x00	; 0
    1cf4:	6c e2       	ldi	r22, 0x2C	; 44
    1cf6:	70 e0       	ldi	r23, 0x00	; 0
    1cf8:	ce 01       	movw	r24, r28
    1cfa:	01 96       	adiw	r24, 0x01	; 1
    1cfc:	de d0       	rcall	.+444    	; 0x1eba <Endpoint_Read_Stream_LE>
    1cfe:	6d 85       	ldd	r22, Y+13	; 0x0d
    1d00:	7e 85       	ldd	r23, Y+14	; 0x0e
    1d02:	8f 85       	ldd	r24, Y+15	; 0x0f
    1d04:	98 89       	ldd	r25, Y+16	; 0x10
    1d06:	6d 3d       	cpi	r22, 0xDD	; 221
    1d08:	f5 e0       	ldi	r31, 0x05	; 5
    1d0a:	7f 07       	cpc	r23, r31
    1d0c:	81 05       	cpc	r24, r1
    1d0e:	91 05       	cpc	r25, r1
    1d10:	38 f0       	brcs	.+14     	; 0x1d20 <RNDIS_Device_ReadPacket+0x7a>
    1d12:	80 91 eb 00 	lds	r24, 0x00EB	; 0x8000eb <__TEXT_REGION_LENGTH__+0x7e00eb>
    1d16:	80 62       	ori	r24, 0x20	; 32
    1d18:	80 93 eb 00 	sts	0x00EB, r24	; 0x8000eb <__TEXT_REGION_LENGTH__+0x7e00eb>
    1d1c:	80 e8       	ldi	r24, 0x80	; 128
    1d1e:	0f c0       	rjmp	.+30     	; 0x1d3e <RNDIS_Device_ReadPacket+0x98>
    1d20:	f8 01       	movw	r30, r16
    1d22:	71 83       	std	Z+1, r23	; 0x01
    1d24:	60 83       	st	Z, r22
    1d26:	40 e0       	ldi	r20, 0x00	; 0
    1d28:	50 e0       	ldi	r21, 0x00	; 0
    1d2a:	c7 01       	movw	r24, r14
    1d2c:	c6 d0       	rcall	.+396    	; 0x1eba <Endpoint_Read_Stream_LE>
    1d2e:	80 91 e8 00 	lds	r24, 0x00E8	; 0x8000e8 <__TEXT_REGION_LENGTH__+0x7e00e8>
    1d32:	8b 77       	andi	r24, 0x7B	; 123
    1d34:	80 93 e8 00 	sts	0x00E8, r24	; 0x8000e8 <__TEXT_REGION_LENGTH__+0x7e00e8>
    1d38:	80 e0       	ldi	r24, 0x00	; 0
    1d3a:	01 c0       	rjmp	.+2      	; 0x1d3e <RNDIS_Device_ReadPacket+0x98>
    1d3c:	82 e0       	ldi	r24, 0x02	; 2
    1d3e:	ac 96       	adiw	r28, 0x2c	; 44
    1d40:	0f b6       	in	r0, 0x3f	; 63
    1d42:	f8 94       	cli
    1d44:	de bf       	out	0x3e, r29	; 62
    1d46:	0f be       	out	0x3f, r0	; 63
    1d48:	cd bf       	out	0x3d, r28	; 61
    1d4a:	df 91       	pop	r29
    1d4c:	cf 91       	pop	r28
    1d4e:	1f 91       	pop	r17
    1d50:	0f 91       	pop	r16
    1d52:	ff 90       	pop	r15
    1d54:	ef 90       	pop	r14
    1d56:	08 95       	ret

00001d58 <RNDIS_Device_SendPacket>:
    1d58:	ef 92       	push	r14
    1d5a:	ff 92       	push	r15
    1d5c:	0f 93       	push	r16
    1d5e:	1f 93       	push	r17
    1d60:	cf 93       	push	r28
    1d62:	df 93       	push	r29
    1d64:	cd b7       	in	r28, 0x3d	; 61
    1d66:	de b7       	in	r29, 0x3e	; 62
    1d68:	ac 97       	sbiw	r28, 0x2c	; 44
    1d6a:	0f b6       	in	r0, 0x3f	; 63
    1d6c:	f8 94       	cli
    1d6e:	de bf       	out	0x3e, r29	; 62
    1d70:	0f be       	out	0x3f, r0	; 63
    1d72:	cd bf       	out	0x3d, r28	; 61
    1d74:	20 91 54 14 	lds	r18, 0x1454	; 0x801454 <USB_DeviceState>
    1d78:	24 30       	cpi	r18, 0x04	; 4
    1d7a:	09 f0       	breq	.+2      	; 0x1d7e <RNDIS_Device_SendPacket+0x26>
    1d7c:	46 c0       	rjmp	.+140    	; 0x1e0a <RNDIS_Device_SendPacket+0xb2>
    1d7e:	fc 01       	movw	r30, r24
    1d80:	25 8d       	ldd	r18, Z+29	; 0x1d
    1d82:	22 30       	cpi	r18, 0x02	; 2
    1d84:	09 f0       	breq	.+2      	; 0x1d88 <RNDIS_Device_SendPacket+0x30>
    1d86:	41 c0       	rjmp	.+130    	; 0x1e0a <RNDIS_Device_SendPacket+0xb2>
    1d88:	8a 01       	movw	r16, r20
    1d8a:	7b 01       	movw	r14, r22
    1d8c:	81 81       	ldd	r24, Z+1	; 0x01
    1d8e:	8f 70       	andi	r24, 0x0F	; 15
    1d90:	80 93 e9 00 	sts	0x00E9, r24	; 0x8000e9 <__TEXT_REGION_LENGTH__+0x7e00e9>
    1d94:	66 d2       	rcall	.+1228   	; 0x2262 <Endpoint_WaitUntilReady>
    1d96:	81 11       	cpse	r24, r1
    1d98:	39 c0       	rjmp	.+114    	; 0x1e0c <RNDIS_Device_SendPacket+0xb4>
    1d9a:	ce 01       	movw	r24, r28
    1d9c:	01 96       	adiw	r24, 0x01	; 1
    1d9e:	2c e2       	ldi	r18, 0x2C	; 44
    1da0:	fc 01       	movw	r30, r24
    1da2:	11 92       	st	Z+, r1
    1da4:	2a 95       	dec	r18
    1da6:	e9 f7       	brne	.-6      	; 0x1da2 <RNDIS_Device_SendPacket+0x4a>
    1da8:	41 e0       	ldi	r20, 0x01	; 1
    1daa:	50 e0       	ldi	r21, 0x00	; 0
    1dac:	60 e0       	ldi	r22, 0x00	; 0
    1dae:	70 e0       	ldi	r23, 0x00	; 0
    1db0:	49 83       	std	Y+1, r20	; 0x01
    1db2:	5a 83       	std	Y+2, r21	; 0x02
    1db4:	6b 83       	std	Y+3, r22	; 0x03
    1db6:	7c 83       	std	Y+4, r23	; 0x04
    1db8:	a8 01       	movw	r20, r16
    1dba:	44 5d       	subi	r20, 0xD4	; 212
    1dbc:	5f 4f       	sbci	r21, 0xFF	; 255
    1dbe:	60 e0       	ldi	r22, 0x00	; 0
    1dc0:	70 e0       	ldi	r23, 0x00	; 0
    1dc2:	4d 83       	std	Y+5, r20	; 0x05
    1dc4:	5e 83       	std	Y+6, r21	; 0x06
    1dc6:	6f 83       	std	Y+7, r22	; 0x07
    1dc8:	78 87       	std	Y+8, r23	; 0x08
    1dca:	44 e2       	ldi	r20, 0x24	; 36
    1dcc:	50 e0       	ldi	r21, 0x00	; 0
    1dce:	60 e0       	ldi	r22, 0x00	; 0
    1dd0:	70 e0       	ldi	r23, 0x00	; 0
    1dd2:	49 87       	std	Y+9, r20	; 0x09
    1dd4:	5a 87       	std	Y+10, r21	; 0x0a
    1dd6:	6b 87       	std	Y+11, r22	; 0x0b
    1dd8:	7c 87       	std	Y+12, r23	; 0x0c
    1dda:	a8 01       	movw	r20, r16
    1ddc:	60 e0       	ldi	r22, 0x00	; 0
    1dde:	70 e0       	ldi	r23, 0x00	; 0
    1de0:	4d 87       	std	Y+13, r20	; 0x0d
    1de2:	5e 87       	std	Y+14, r21	; 0x0e
    1de4:	6f 87       	std	Y+15, r22	; 0x0f
    1de6:	78 8b       	std	Y+16, r23	; 0x10
    1de8:	40 e0       	ldi	r20, 0x00	; 0
    1dea:	50 e0       	ldi	r21, 0x00	; 0
    1dec:	6c e2       	ldi	r22, 0x2C	; 44
    1dee:	70 e0       	ldi	r23, 0x00	; 0
    1df0:	1a d0       	rcall	.+52     	; 0x1e26 <Endpoint_Write_Stream_LE>
    1df2:	40 e0       	ldi	r20, 0x00	; 0
    1df4:	50 e0       	ldi	r21, 0x00	; 0
    1df6:	b8 01       	movw	r22, r16
    1df8:	c7 01       	movw	r24, r14
    1dfa:	15 d0       	rcall	.+42     	; 0x1e26 <Endpoint_Write_Stream_LE>
    1dfc:	80 91 e8 00 	lds	r24, 0x00E8	; 0x8000e8 <__TEXT_REGION_LENGTH__+0x7e00e8>
    1e00:	8e 77       	andi	r24, 0x7E	; 126
    1e02:	80 93 e8 00 	sts	0x00E8, r24	; 0x8000e8 <__TEXT_REGION_LENGTH__+0x7e00e8>
    1e06:	80 e0       	ldi	r24, 0x00	; 0
    1e08:	01 c0       	rjmp	.+2      	; 0x1e0c <RNDIS_Device_SendPacket+0xb4>
    1e0a:	82 e0       	ldi	r24, 0x02	; 2
    1e0c:	ac 96       	adiw	r28, 0x2c	; 44
    1e0e:	0f b6       	in	r0, 0x3f	; 63
    1e10:	f8 94       	cli
    1e12:	de bf       	out	0x3e, r29	; 62
    1e14:	0f be       	out	0x3f, r0	; 63
    1e16:	cd bf       	out	0x3d, r28	; 61
    1e18:	df 91       	pop	r29
    1e1a:	cf 91       	pop	r28
    1e1c:	1f 91       	pop	r17
    1e1e:	0f 91       	pop	r16
    1e20:	ff 90       	pop	r15
    1e22:	ef 90       	pop	r14
    1e24:	08 95       	ret

00001e26 <Endpoint_Write_Stream_LE>:
    1e26:	cf 92       	push	r12
    1e28:	df 92       	push	r13
    1e2a:	ef 92       	push	r14
    1e2c:	ff 92       	push	r15
    1e2e:	0f 93       	push	r16
    1e30:	1f 93       	push	r17
    1e32:	cf 93       	push	r28
    1e34:	df 93       	push	r29
    1e36:	ec 01       	movw	r28, r24
    1e38:	8b 01       	movw	r16, r22
    1e3a:	7a 01       	movw	r14, r20
    1e3c:	12 d2       	rcall	.+1060   	; 0x2262 <Endpoint_WaitUntilReady>
    1e3e:	81 11       	cpse	r24, r1
    1e40:	33 c0       	rjmp	.+102    	; 0x1ea8 <Endpoint_Write_Stream_LE+0x82>
    1e42:	e1 14       	cp	r14, r1
    1e44:	f1 04       	cpc	r15, r1
    1e46:	39 f0       	breq	.+14     	; 0x1e56 <Endpoint_Write_Stream_LE+0x30>
    1e48:	f7 01       	movw	r30, r14
    1e4a:	80 81       	ld	r24, Z
    1e4c:	91 81       	ldd	r25, Z+1	; 0x01
    1e4e:	08 1b       	sub	r16, r24
    1e50:	19 0b       	sbc	r17, r25
    1e52:	c8 0f       	add	r28, r24
    1e54:	d9 1f       	adc	r29, r25
    1e56:	c1 2c       	mov	r12, r1
    1e58:	d1 2c       	mov	r13, r1
    1e5a:	01 15       	cp	r16, r1
    1e5c:	11 05       	cpc	r17, r1
    1e5e:	19 f1       	breq	.+70     	; 0x1ea6 <Endpoint_Write_Stream_LE+0x80>
    1e60:	80 91 e8 00 	lds	r24, 0x00E8	; 0x8000e8 <__TEXT_REGION_LENGTH__+0x7e00e8>
    1e64:	85 fd       	sbrc	r24, 5
    1e66:	16 c0       	rjmp	.+44     	; 0x1e94 <Endpoint_Write_Stream_LE+0x6e>
    1e68:	80 91 e8 00 	lds	r24, 0x00E8	; 0x8000e8 <__TEXT_REGION_LENGTH__+0x7e00e8>
    1e6c:	8e 77       	andi	r24, 0x7E	; 126
    1e6e:	80 93 e8 00 	sts	0x00E8, r24	; 0x8000e8 <__TEXT_REGION_LENGTH__+0x7e00e8>
    1e72:	b8 d4       	rcall	.+2416   	; 0x27e4 <USB_USBTask>
    1e74:	e1 14       	cp	r14, r1
    1e76:	f1 04       	cpc	r15, r1
    1e78:	49 f0       	breq	.+18     	; 0x1e8c <Endpoint_Write_Stream_LE+0x66>
    1e7a:	f7 01       	movw	r30, r14
    1e7c:	80 81       	ld	r24, Z
    1e7e:	91 81       	ldd	r25, Z+1	; 0x01
    1e80:	c8 0e       	add	r12, r24
    1e82:	d9 1e       	adc	r13, r25
    1e84:	d1 82       	std	Z+1, r13	; 0x01
    1e86:	c0 82       	st	Z, r12
    1e88:	85 e0       	ldi	r24, 0x05	; 5
    1e8a:	0e c0       	rjmp	.+28     	; 0x1ea8 <Endpoint_Write_Stream_LE+0x82>
    1e8c:	ea d1       	rcall	.+980    	; 0x2262 <Endpoint_WaitUntilReady>
    1e8e:	88 23       	and	r24, r24
    1e90:	21 f3       	breq	.-56     	; 0x1e5a <Endpoint_Write_Stream_LE+0x34>
    1e92:	0a c0       	rjmp	.+20     	; 0x1ea8 <Endpoint_Write_Stream_LE+0x82>
    1e94:	89 91       	ld	r24, Y+
    1e96:	80 93 f1 00 	sts	0x00F1, r24	; 0x8000f1 <__TEXT_REGION_LENGTH__+0x7e00f1>
    1e9a:	01 50       	subi	r16, 0x01	; 1
    1e9c:	11 09       	sbc	r17, r1
    1e9e:	ff ef       	ldi	r31, 0xFF	; 255
    1ea0:	cf 1a       	sub	r12, r31
    1ea2:	df 0a       	sbc	r13, r31
    1ea4:	da cf       	rjmp	.-76     	; 0x1e5a <Endpoint_Write_Stream_LE+0x34>
    1ea6:	80 e0       	ldi	r24, 0x00	; 0
    1ea8:	df 91       	pop	r29
    1eaa:	cf 91       	pop	r28
    1eac:	1f 91       	pop	r17
    1eae:	0f 91       	pop	r16
    1eb0:	ff 90       	pop	r15
    1eb2:	ef 90       	pop	r14
    1eb4:	df 90       	pop	r13
    1eb6:	cf 90       	pop	r12
    1eb8:	08 95       	ret

00001eba <Endpoint_Read_Stream_LE>:
    1eba:	cf 92       	push	r12
    1ebc:	df 92       	push	r13
    1ebe:	ef 92       	push	r14
    1ec0:	ff 92       	push	r15
    1ec2:	0f 93       	push	r16
    1ec4:	1f 93       	push	r17
    1ec6:	cf 93       	push	r28
    1ec8:	df 93       	push	r29
    1eca:	ec 01       	movw	r28, r24
    1ecc:	8b 01       	movw	r16, r22
    1ece:	7a 01       	movw	r14, r20
    1ed0:	c8 d1       	rcall	.+912    	; 0x2262 <Endpoint_WaitUntilReady>
    1ed2:	81 11       	cpse	r24, r1
    1ed4:	33 c0       	rjmp	.+102    	; 0x1f3c <Endpoint_Read_Stream_LE+0x82>
    1ed6:	e1 14       	cp	r14, r1
    1ed8:	f1 04       	cpc	r15, r1
    1eda:	39 f0       	breq	.+14     	; 0x1eea <Endpoint_Read_Stream_LE+0x30>
    1edc:	f7 01       	movw	r30, r14
    1ede:	80 81       	ld	r24, Z
    1ee0:	91 81       	ldd	r25, Z+1	; 0x01
    1ee2:	08 1b       	sub	r16, r24
    1ee4:	19 0b       	sbc	r17, r25
    1ee6:	c8 0f       	add	r28, r24
    1ee8:	d9 1f       	adc	r29, r25
    1eea:	c1 2c       	mov	r12, r1
    1eec:	d1 2c       	mov	r13, r1
    1eee:	01 15       	cp	r16, r1
    1ef0:	11 05       	cpc	r17, r1
    1ef2:	19 f1       	breq	.+70     	; 0x1f3a <Endpoint_Read_Stream_LE+0x80>
    1ef4:	80 91 e8 00 	lds	r24, 0x00E8	; 0x8000e8 <__TEXT_REGION_LENGTH__+0x7e00e8>
    1ef8:	85 fd       	sbrc	r24, 5
    1efa:	16 c0       	rjmp	.+44     	; 0x1f28 <Endpoint_Read_Stream_LE+0x6e>
    1efc:	80 91 e8 00 	lds	r24, 0x00E8	; 0x8000e8 <__TEXT_REGION_LENGTH__+0x7e00e8>
    1f00:	8b 77       	andi	r24, 0x7B	; 123
    1f02:	80 93 e8 00 	sts	0x00E8, r24	; 0x8000e8 <__TEXT_REGION_LENGTH__+0x7e00e8>
    1f06:	6e d4       	rcall	.+2268   	; 0x27e4 <USB_USBTask>
    1f08:	e1 14       	cp	r14, r1
    1f0a:	f1 04       	cpc	r15, r1
    1f0c:	49 f0       	breq	.+18     	; 0x1f20 <Endpoint_Read_Stream_LE+0x66>
    1f0e:	f7 01       	movw	r30, r14
    1f10:	80 81       	ld	r24, Z
    1f12:	91 81       	ldd	r25, Z+1	; 0x01
    1f14:	c8 0e       	add	r12, r24
    1f16:	d9 1e       	adc	r13, r25
    1f18:	d1 82       	std	Z+1, r13	; 0x01
    1f1a:	c0 82       	st	Z, r12
    1f1c:	85 e0       	ldi	r24, 0x05	; 5
    1f1e:	0e c0       	rjmp	.+28     	; 0x1f3c <Endpoint_Read_Stream_LE+0x82>
    1f20:	a0 d1       	rcall	.+832    	; 0x2262 <Endpoint_WaitUntilReady>
    1f22:	88 23       	and	r24, r24
    1f24:	21 f3       	breq	.-56     	; 0x1eee <Endpoint_Read_Stream_LE+0x34>
    1f26:	0a c0       	rjmp	.+20     	; 0x1f3c <Endpoint_Read_Stream_LE+0x82>
    1f28:	80 91 f1 00 	lds	r24, 0x00F1	; 0x8000f1 <__TEXT_REGION_LENGTH__+0x7e00f1>
    1f2c:	89 93       	st	Y+, r24
    1f2e:	01 50       	subi	r16, 0x01	; 1
    1f30:	11 09       	sbc	r17, r1
    1f32:	ff ef       	ldi	r31, 0xFF	; 255
    1f34:	cf 1a       	sub	r12, r31
    1f36:	df 0a       	sbc	r13, r31
    1f38:	da cf       	rjmp	.-76     	; 0x1eee <Endpoint_Read_Stream_LE+0x34>
    1f3a:	80 e0       	ldi	r24, 0x00	; 0
    1f3c:	df 91       	pop	r29
    1f3e:	cf 91       	pop	r28
    1f40:	1f 91       	pop	r17
    1f42:	0f 91       	pop	r16
    1f44:	ff 90       	pop	r15
    1f46:	ef 90       	pop	r14
    1f48:	df 90       	pop	r13
    1f4a:	cf 90       	pop	r12
    1f4c:	08 95       	ret

00001f4e <Endpoint_Write_Control_Stream_LE>:
    1f4e:	20 91 5b 14 	lds	r18, 0x145B	; 0x80145b <USB_ControlRequest+0x6>
    1f52:	30 91 5c 14 	lds	r19, 0x145C	; 0x80145c <USB_ControlRequest+0x7>
    1f56:	26 17       	cp	r18, r22
    1f58:	37 07       	cpc	r19, r23
    1f5a:	48 f0       	brcs	.+18     	; 0x1f6e <Endpoint_Write_Control_Stream_LE+0x20>
    1f5c:	61 15       	cp	r22, r1
    1f5e:	71 05       	cpc	r23, r1
    1f60:	39 f4       	brne	.+14     	; 0x1f70 <Endpoint_Write_Control_Stream_LE+0x22>
    1f62:	20 91 e8 00 	lds	r18, 0x00E8	; 0x8000e8 <__TEXT_REGION_LENGTH__+0x7e00e8>
    1f66:	2e 77       	andi	r18, 0x7E	; 126
    1f68:	20 93 e8 00 	sts	0x00E8, r18	; 0x8000e8 <__TEXT_REGION_LENGTH__+0x7e00e8>
    1f6c:	01 c0       	rjmp	.+2      	; 0x1f70 <Endpoint_Write_Control_Stream_LE+0x22>
    1f6e:	b9 01       	movw	r22, r18
    1f70:	fc 01       	movw	r30, r24
    1f72:	20 e0       	ldi	r18, 0x00	; 0
    1f74:	61 15       	cp	r22, r1
    1f76:	71 05       	cpc	r23, r1
    1f78:	69 f1       	breq	.+90     	; 0x1fd4 <Endpoint_Write_Control_Stream_LE+0x86>
    1f7a:	80 91 54 14 	lds	r24, 0x1454	; 0x801454 <USB_DeviceState>
    1f7e:	88 23       	and	r24, r24
    1f80:	e1 f1       	breq	.+120    	; 0x1ffa <Endpoint_Write_Control_Stream_LE+0xac>
    1f82:	85 30       	cpi	r24, 0x05	; 5
    1f84:	e1 f1       	breq	.+120    	; 0x1ffe <Endpoint_Write_Control_Stream_LE+0xb0>
    1f86:	80 91 e8 00 	lds	r24, 0x00E8	; 0x8000e8 <__TEXT_REGION_LENGTH__+0x7e00e8>
    1f8a:	83 fd       	sbrc	r24, 3
    1f8c:	3a c0       	rjmp	.+116    	; 0x2002 <__DATA_REGION_LENGTH__+0x2>
    1f8e:	80 91 e8 00 	lds	r24, 0x00E8	; 0x8000e8 <__TEXT_REGION_LENGTH__+0x7e00e8>
    1f92:	82 fd       	sbrc	r24, 2
    1f94:	2c c0       	rjmp	.+88     	; 0x1fee <Endpoint_Write_Control_Stream_LE+0xa0>
    1f96:	80 91 e8 00 	lds	r24, 0x00E8	; 0x8000e8 <__TEXT_REGION_LENGTH__+0x7e00e8>
    1f9a:	80 ff       	sbrs	r24, 0
    1f9c:	eb cf       	rjmp	.-42     	; 0x1f74 <Endpoint_Write_Control_Stream_LE+0x26>
    1f9e:	80 91 f2 00 	lds	r24, 0x00F2	; 0x8000f2 <__TEXT_REGION_LENGTH__+0x7e00f2>
    1fa2:	90 91 f3 00 	lds	r25, 0x00F3	; 0x8000f3 <__TEXT_REGION_LENGTH__+0x7e00f3>
    1fa6:	61 15       	cp	r22, r1
    1fa8:	71 05       	cpc	r23, r1
    1faa:	51 f0       	breq	.+20     	; 0x1fc0 <Endpoint_Write_Control_Stream_LE+0x72>
    1fac:	88 30       	cpi	r24, 0x08	; 8
    1fae:	91 05       	cpc	r25, r1
    1fb0:	38 f4       	brcc	.+14     	; 0x1fc0 <Endpoint_Write_Control_Stream_LE+0x72>
    1fb2:	21 91       	ld	r18, Z+
    1fb4:	20 93 f1 00 	sts	0x00F1, r18	; 0x8000f1 <__TEXT_REGION_LENGTH__+0x7e00f1>
    1fb8:	61 50       	subi	r22, 0x01	; 1
    1fba:	71 09       	sbc	r23, r1
    1fbc:	01 96       	adiw	r24, 0x01	; 1
    1fbe:	f3 cf       	rjmp	.-26     	; 0x1fa6 <Endpoint_Write_Control_Stream_LE+0x58>
    1fc0:	21 e0       	ldi	r18, 0x01	; 1
    1fc2:	08 97       	sbiw	r24, 0x08	; 8
    1fc4:	09 f0       	breq	.+2      	; 0x1fc8 <Endpoint_Write_Control_Stream_LE+0x7a>
    1fc6:	20 e0       	ldi	r18, 0x00	; 0
    1fc8:	80 91 e8 00 	lds	r24, 0x00E8	; 0x8000e8 <__TEXT_REGION_LENGTH__+0x7e00e8>
    1fcc:	8e 77       	andi	r24, 0x7E	; 126
    1fce:	80 93 e8 00 	sts	0x00E8, r24	; 0x8000e8 <__TEXT_REGION_LENGTH__+0x7e00e8>
    1fd2:	d0 cf       	rjmp	.-96     	; 0x1f74 <Endpoint_Write_Control_Stream_LE+0x26>
    1fd4:	21 11       	cpse	r18, r1
    1fd6:	d1 cf       	rjmp	.-94     	; 0x1f7a <Endpoint_Write_Control_Stream_LE+0x2c>
    1fd8:	0a c0       	rjmp	.+20     	; 0x1fee <Endpoint_Write_Control_Stream_LE+0xa0>
    1fda:	80 91 54 14 	lds	r24, 0x1454	; 0x801454 <USB_DeviceState>
    1fde:	88 23       	and	r24, r24
    1fe0:	61 f0       	breq	.+24     	; 0x1ffa <Endpoint_Write_Control_Stream_LE+0xac>
    1fe2:	85 30       	cpi	r24, 0x05	; 5
    1fe4:	61 f0       	breq	.+24     	; 0x1ffe <Endpoint_Write_Control_Stream_LE+0xb0>
    1fe6:	80 91 e8 00 	lds	r24, 0x00E8	; 0x8000e8 <__TEXT_REGION_LENGTH__+0x7e00e8>
    1fea:	83 fd       	sbrc	r24, 3
    1fec:	0a c0       	rjmp	.+20     	; 0x2002 <__DATA_REGION_LENGTH__+0x2>
    1fee:	80 91 e8 00 	lds	r24, 0x00E8	; 0x8000e8 <__TEXT_REGION_LENGTH__+0x7e00e8>
    1ff2:	82 ff       	sbrs	r24, 2
    1ff4:	f2 cf       	rjmp	.-28     	; 0x1fda <Endpoint_Write_Control_Stream_LE+0x8c>
    1ff6:	80 e0       	ldi	r24, 0x00	; 0
    1ff8:	08 95       	ret
    1ffa:	82 e0       	ldi	r24, 0x02	; 2
    1ffc:	08 95       	ret
    1ffe:	83 e0       	ldi	r24, 0x03	; 3
    2000:	08 95       	ret
    2002:	81 e0       	ldi	r24, 0x01	; 1
    2004:	08 95       	ret

00002006 <Endpoint_Read_Control_Stream_LE>:
    2006:	61 15       	cp	r22, r1
    2008:	71 05       	cpc	r23, r1
    200a:	29 f4       	brne	.+10     	; 0x2016 <Endpoint_Read_Control_Stream_LE+0x10>
    200c:	20 91 e8 00 	lds	r18, 0x00E8	; 0x8000e8 <__TEXT_REGION_LENGTH__+0x7e00e8>
    2010:	2b 77       	andi	r18, 0x7B	; 123
    2012:	20 93 e8 00 	sts	0x00E8, r18	; 0x8000e8 <__TEXT_REGION_LENGTH__+0x7e00e8>
    2016:	fc 01       	movw	r30, r24
    2018:	61 15       	cp	r22, r1
    201a:	71 05       	cpc	r23, r1
    201c:	31 f1       	breq	.+76     	; 0x206a <Endpoint_Read_Control_Stream_LE+0x64>
    201e:	80 91 54 14 	lds	r24, 0x1454	; 0x801454 <USB_DeviceState>
    2022:	88 23       	and	r24, r24
    2024:	51 f1       	breq	.+84     	; 0x207a <Endpoint_Read_Control_Stream_LE+0x74>
    2026:	85 30       	cpi	r24, 0x05	; 5
    2028:	51 f1       	breq	.+84     	; 0x207e <Endpoint_Read_Control_Stream_LE+0x78>
    202a:	80 91 e8 00 	lds	r24, 0x00E8	; 0x8000e8 <__TEXT_REGION_LENGTH__+0x7e00e8>
    202e:	83 fd       	sbrc	r24, 3
    2030:	22 c0       	rjmp	.+68     	; 0x2076 <Endpoint_Read_Control_Stream_LE+0x70>
    2032:	80 91 e8 00 	lds	r24, 0x00E8	; 0x8000e8 <__TEXT_REGION_LENGTH__+0x7e00e8>
    2036:	82 ff       	sbrs	r24, 2
    2038:	ef cf       	rjmp	.-34     	; 0x2018 <Endpoint_Read_Control_Stream_LE+0x12>
    203a:	80 91 f2 00 	lds	r24, 0x00F2	; 0x8000f2 <__TEXT_REGION_LENGTH__+0x7e00f2>
    203e:	90 91 f3 00 	lds	r25, 0x00F3	; 0x8000f3 <__TEXT_REGION_LENGTH__+0x7e00f3>
    2042:	89 2b       	or	r24, r25
    2044:	31 f0       	breq	.+12     	; 0x2052 <Endpoint_Read_Control_Stream_LE+0x4c>
    2046:	80 91 f1 00 	lds	r24, 0x00F1	; 0x8000f1 <__TEXT_REGION_LENGTH__+0x7e00f1>
    204a:	81 93       	st	Z+, r24
    204c:	61 50       	subi	r22, 0x01	; 1
    204e:	71 09       	sbc	r23, r1
    2050:	a1 f7       	brne	.-24     	; 0x203a <Endpoint_Read_Control_Stream_LE+0x34>
    2052:	80 91 e8 00 	lds	r24, 0x00E8	; 0x8000e8 <__TEXT_REGION_LENGTH__+0x7e00e8>
    2056:	8b 77       	andi	r24, 0x7B	; 123
    2058:	80 93 e8 00 	sts	0x00E8, r24	; 0x8000e8 <__TEXT_REGION_LENGTH__+0x7e00e8>
    205c:	dd cf       	rjmp	.-70     	; 0x2018 <Endpoint_Read_Control_Stream_LE+0x12>
    205e:	80 91 54 14 	lds	r24, 0x1454	; 0x801454 <USB_DeviceState>
    2062:	88 23       	and	r24, r24
    2064:	51 f0       	breq	.+20     	; 0x207a <Endpoint_Read_Control_Stream_LE+0x74>
    2066:	85 30       	cpi	r24, 0x05	; 5
    2068:	51 f0       	breq	.+20     	; 0x207e <Endpoint_Read_Control_Stream_LE+0x78>
    206a:	80 91 e8 00 	lds	r24, 0x00E8	; 0x8000e8 <__TEXT_REGION_LENGTH__+0x7e00e8>
    206e:	80 ff       	sbrs	r24, 0
    2070:	f6 cf       	rjmp	.-20     	; 0x205e <Endpoint_Read_Control_Stream_LE+0x58>
    2072:	80 e0       	ldi	r24, 0x00	; 0
    2074:	08 95       	ret
    2076:	81 e0       	ldi	r24, 0x01	; 1
    2078:	08 95       	ret
    207a:	82 e0       	ldi	r24, 0x02	; 2
    207c:	08 95       	ret
    207e:	83 e0       	ldi	r24, 0x03	; 3
    2080:	08 95       	ret

00002082 <Endpoint_Write_Control_PStream_LE>:
    2082:	20 91 5b 14 	lds	r18, 0x145B	; 0x80145b <USB_ControlRequest+0x6>
    2086:	30 91 5c 14 	lds	r19, 0x145C	; 0x80145c <USB_ControlRequest+0x7>
    208a:	26 17       	cp	r18, r22
    208c:	37 07       	cpc	r19, r23
    208e:	48 f0       	brcs	.+18     	; 0x20a2 <Endpoint_Write_Control_PStream_LE+0x20>
    2090:	61 15       	cp	r22, r1
    2092:	71 05       	cpc	r23, r1
    2094:	39 f4       	brne	.+14     	; 0x20a4 <Endpoint_Write_Control_PStream_LE+0x22>
    2096:	20 91 e8 00 	lds	r18, 0x00E8	; 0x8000e8 <__TEXT_REGION_LENGTH__+0x7e00e8>
    209a:	2e 77       	andi	r18, 0x7E	; 126
    209c:	20 93 e8 00 	sts	0x00E8, r18	; 0x8000e8 <__TEXT_REGION_LENGTH__+0x7e00e8>
    20a0:	01 c0       	rjmp	.+2      	; 0x20a4 <Endpoint_Write_Control_PStream_LE+0x22>
    20a2:	b9 01       	movw	r22, r18
    20a4:	fc 01       	movw	r30, r24
    20a6:	20 e0       	ldi	r18, 0x00	; 0
    20a8:	61 15       	cp	r22, r1
    20aa:	71 05       	cpc	r23, r1
    20ac:	81 f1       	breq	.+96     	; 0x210e <__stack+0xf>
    20ae:	80 91 54 14 	lds	r24, 0x1454	; 0x801454 <USB_DeviceState>
    20b2:	88 23       	and	r24, r24
    20b4:	09 f4       	brne	.+2      	; 0x20b8 <Endpoint_Write_Control_PStream_LE+0x36>
    20b6:	3e c0       	rjmp	.+124    	; 0x2134 <__stack+0x35>
    20b8:	85 30       	cpi	r24, 0x05	; 5
    20ba:	09 f4       	brne	.+2      	; 0x20be <Endpoint_Write_Control_PStream_LE+0x3c>
    20bc:	3d c0       	rjmp	.+122    	; 0x2138 <__stack+0x39>
    20be:	80 91 e8 00 	lds	r24, 0x00E8	; 0x8000e8 <__TEXT_REGION_LENGTH__+0x7e00e8>
    20c2:	83 fd       	sbrc	r24, 3
    20c4:	3b c0       	rjmp	.+118    	; 0x213c <__stack+0x3d>
    20c6:	80 91 e8 00 	lds	r24, 0x00E8	; 0x8000e8 <__TEXT_REGION_LENGTH__+0x7e00e8>
    20ca:	82 fd       	sbrc	r24, 2
    20cc:	2d c0       	rjmp	.+90     	; 0x2128 <__stack+0x29>
    20ce:	80 91 e8 00 	lds	r24, 0x00E8	; 0x8000e8 <__TEXT_REGION_LENGTH__+0x7e00e8>
    20d2:	80 ff       	sbrs	r24, 0
    20d4:	e9 cf       	rjmp	.-46     	; 0x20a8 <Endpoint_Write_Control_PStream_LE+0x26>
    20d6:	80 91 f2 00 	lds	r24, 0x00F2	; 0x8000f2 <__TEXT_REGION_LENGTH__+0x7e00f2>
    20da:	90 91 f3 00 	lds	r25, 0x00F3	; 0x8000f3 <__TEXT_REGION_LENGTH__+0x7e00f3>
    20de:	61 15       	cp	r22, r1
    20e0:	71 05       	cpc	r23, r1
    20e2:	59 f0       	breq	.+22     	; 0x20fa <Endpoint_Write_Control_PStream_LE+0x78>
    20e4:	88 30       	cpi	r24, 0x08	; 8
    20e6:	91 05       	cpc	r25, r1
    20e8:	40 f4       	brcc	.+16     	; 0x20fa <Endpoint_Write_Control_PStream_LE+0x78>
    20ea:	24 91       	lpm	r18, Z
    20ec:	20 93 f1 00 	sts	0x00F1, r18	; 0x8000f1 <__TEXT_REGION_LENGTH__+0x7e00f1>
    20f0:	31 96       	adiw	r30, 0x01	; 1
    20f2:	61 50       	subi	r22, 0x01	; 1
    20f4:	71 09       	sbc	r23, r1
    20f6:	01 96       	adiw	r24, 0x01	; 1
    20f8:	f2 cf       	rjmp	.-28     	; 0x20de <Endpoint_Write_Control_PStream_LE+0x5c>
    20fa:	21 e0       	ldi	r18, 0x01	; 1
    20fc:	08 97       	sbiw	r24, 0x08	; 8
    20fe:	09 f0       	breq	.+2      	; 0x2102 <__stack+0x3>
    2100:	20 e0       	ldi	r18, 0x00	; 0
    2102:	80 91 e8 00 	lds	r24, 0x00E8	; 0x8000e8 <__TEXT_REGION_LENGTH__+0x7e00e8>
    2106:	8e 77       	andi	r24, 0x7E	; 126
    2108:	80 93 e8 00 	sts	0x00E8, r24	; 0x8000e8 <__TEXT_REGION_LENGTH__+0x7e00e8>
    210c:	cd cf       	rjmp	.-102    	; 0x20a8 <Endpoint_Write_Control_PStream_LE+0x26>
    210e:	21 11       	cpse	r18, r1
    2110:	ce cf       	rjmp	.-100    	; 0x20ae <Endpoint_Write_Control_PStream_LE+0x2c>
    2112:	0a c0       	rjmp	.+20     	; 0x2128 <__stack+0x29>
    2114:	80 91 54 14 	lds	r24, 0x1454	; 0x801454 <USB_DeviceState>
    2118:	88 23       	and	r24, r24
    211a:	61 f0       	breq	.+24     	; 0x2134 <__stack+0x35>
    211c:	85 30       	cpi	r24, 0x05	; 5
    211e:	61 f0       	breq	.+24     	; 0x2138 <__stack+0x39>
    2120:	80 91 e8 00 	lds	r24, 0x00E8	; 0x8000e8 <__TEXT_REGION_LENGTH__+0x7e00e8>
    2124:	83 fd       	sbrc	r24, 3
    2126:	0a c0       	rjmp	.+20     	; 0x213c <__stack+0x3d>
    2128:	80 91 e8 00 	lds	r24, 0x00E8	; 0x8000e8 <__TEXT_REGION_LENGTH__+0x7e00e8>
    212c:	82 ff       	sbrs	r24, 2
    212e:	f2 cf       	rjmp	.-28     	; 0x2114 <__stack+0x15>
    2130:	80 e0       	ldi	r24, 0x00	; 0
    2132:	08 95       	ret
    2134:	82 e0       	ldi	r24, 0x02	; 2
    2136:	08 95       	ret
    2138:	83 e0       	ldi	r24, 0x03	; 3
    213a:	08 95       	ret
    213c:	81 e0       	ldi	r24, 0x01	; 1
    213e:	08 95       	ret

00002140 <Endpoint_ConfigureEndpoint_Prv>:
    2140:	98 2f       	mov	r25, r24
    2142:	97 30       	cpi	r25, 0x07	; 7
    2144:	68 f5       	brcc	.+90     	; 0x21a0 <Endpoint_ConfigureEndpoint_Prv+0x60>
    2146:	90 93 e9 00 	sts	0x00E9, r25	; 0x8000e9 <__TEXT_REGION_LENGTH__+0x7e00e9>
    214a:	98 17       	cp	r25, r24
    214c:	39 f0       	breq	.+14     	; 0x215c <Endpoint_ConfigureEndpoint_Prv+0x1c>
    214e:	70 91 ec 00 	lds	r23, 0x00EC	; 0x8000ec <__TEXT_REGION_LENGTH__+0x7e00ec>
    2152:	20 91 ed 00 	lds	r18, 0x00ED	; 0x8000ed <__TEXT_REGION_LENGTH__+0x7e00ed>
    2156:	50 91 f0 00 	lds	r21, 0x00F0	; 0x8000f0 <__TEXT_REGION_LENGTH__+0x7e00f0>
    215a:	03 c0       	rjmp	.+6      	; 0x2162 <Endpoint_ConfigureEndpoint_Prv+0x22>
    215c:	24 2f       	mov	r18, r20
    215e:	76 2f       	mov	r23, r22
    2160:	50 e0       	ldi	r21, 0x00	; 0
    2162:	21 fd       	sbrc	r18, 1
    2164:	02 c0       	rjmp	.+4      	; 0x216a <Endpoint_ConfigureEndpoint_Prv+0x2a>
    2166:	9f 5f       	subi	r25, 0xFF	; 255
    2168:	ec cf       	rjmp	.-40     	; 0x2142 <Endpoint_ConfigureEndpoint_Prv+0x2>
    216a:	30 91 eb 00 	lds	r19, 0x00EB	; 0x8000eb <__TEXT_REGION_LENGTH__+0x7e00eb>
    216e:	3e 7f       	andi	r19, 0xFE	; 254
    2170:	30 93 eb 00 	sts	0x00EB, r19	; 0x8000eb <__TEXT_REGION_LENGTH__+0x7e00eb>
    2174:	30 91 ed 00 	lds	r19, 0x00ED	; 0x8000ed <__TEXT_REGION_LENGTH__+0x7e00ed>
    2178:	3d 7f       	andi	r19, 0xFD	; 253
    217a:	30 93 ed 00 	sts	0x00ED, r19	; 0x8000ed <__TEXT_REGION_LENGTH__+0x7e00ed>
    217e:	30 91 eb 00 	lds	r19, 0x00EB	; 0x8000eb <__TEXT_REGION_LENGTH__+0x7e00eb>
    2182:	31 60       	ori	r19, 0x01	; 1
    2184:	30 93 eb 00 	sts	0x00EB, r19	; 0x8000eb <__TEXT_REGION_LENGTH__+0x7e00eb>
    2188:	70 93 ec 00 	sts	0x00EC, r23	; 0x8000ec <__TEXT_REGION_LENGTH__+0x7e00ec>
    218c:	20 93 ed 00 	sts	0x00ED, r18	; 0x8000ed <__TEXT_REGION_LENGTH__+0x7e00ed>
    2190:	50 93 f0 00 	sts	0x00F0, r21	; 0x8000f0 <__TEXT_REGION_LENGTH__+0x7e00f0>
    2194:	20 91 ee 00 	lds	r18, 0x00EE	; 0x8000ee <__TEXT_REGION_LENGTH__+0x7e00ee>
    2198:	27 fd       	sbrc	r18, 7
    219a:	e5 cf       	rjmp	.-54     	; 0x2166 <Endpoint_ConfigureEndpoint_Prv+0x26>
    219c:	80 e0       	ldi	r24, 0x00	; 0
    219e:	08 95       	ret
    21a0:	8f 70       	andi	r24, 0x0F	; 15
    21a2:	80 93 e9 00 	sts	0x00E9, r24	; 0x8000e9 <__TEXT_REGION_LENGTH__+0x7e00e9>
    21a6:	81 e0       	ldi	r24, 0x01	; 1
    21a8:	08 95       	ret

000021aa <Endpoint_ConfigureEndpointTable>:
    21aa:	0f 93       	push	r16
    21ac:	1f 93       	push	r17
    21ae:	cf 93       	push	r28
    21b0:	df 93       	push	r29
    21b2:	06 2f       	mov	r16, r22
    21b4:	ec 01       	movw	r28, r24
    21b6:	10 e0       	ldi	r17, 0x00	; 0
    21b8:	10 17       	cp	r17, r16
    21ba:	71 f1       	breq	.+92     	; 0x2218 <Endpoint_ConfigureEndpointTable+0x6e>
    21bc:	68 81       	ld	r22, Y
    21be:	61 11       	cpse	r22, r1
    21c0:	03 c0       	rjmp	.+6      	; 0x21c8 <Endpoint_ConfigureEndpointTable+0x1e>
    21c2:	1f 5f       	subi	r17, 0xFF	; 255
    21c4:	25 96       	adiw	r28, 0x05	; 5
    21c6:	f8 cf       	rjmp	.-16     	; 0x21b8 <Endpoint_ConfigureEndpointTable+0xe>
    21c8:	2c 81       	ldd	r18, Y+4	; 0x04
    21ca:	a9 81       	ldd	r26, Y+1	; 0x01
    21cc:	ba 81       	ldd	r27, Y+2	; 0x02
    21ce:	9b 81       	ldd	r25, Y+3	; 0x03
    21d0:	86 2f       	mov	r24, r22
    21d2:	8f 70       	andi	r24, 0x0F	; 15
    21d4:	87 30       	cpi	r24, 0x07	; 7
    21d6:	10 f0       	brcs	.+4      	; 0x21dc <Endpoint_ConfigureEndpointTable+0x32>
    21d8:	80 e0       	ldi	r24, 0x00	; 0
    21da:	1f c0       	rjmp	.+62     	; 0x221a <Endpoint_ConfigureEndpointTable+0x70>
    21dc:	22 30       	cpi	r18, 0x02	; 2
    21de:	10 f4       	brcc	.+4      	; 0x21e4 <Endpoint_ConfigureEndpointTable+0x3a>
    21e0:	42 e0       	ldi	r20, 0x02	; 2
    21e2:	01 c0       	rjmp	.+2      	; 0x21e6 <Endpoint_ConfigureEndpointTable+0x3c>
    21e4:	46 e0       	ldi	r20, 0x06	; 6
    21e6:	e8 e0       	ldi	r30, 0x08	; 8
    21e8:	f0 e0       	ldi	r31, 0x00	; 0
    21ea:	20 e0       	ldi	r18, 0x00	; 0
    21ec:	ea 17       	cp	r30, r26
    21ee:	fb 07       	cpc	r31, r27
    21f0:	20 f4       	brcc	.+8      	; 0x21fa <Endpoint_ConfigureEndpointTable+0x50>
    21f2:	2f 5f       	subi	r18, 0xFF	; 255
    21f4:	ee 0f       	add	r30, r30
    21f6:	ff 1f       	adc	r31, r31
    21f8:	f9 cf       	rjmp	.-14     	; 0x21ec <Endpoint_ConfigureEndpointTable+0x42>
    21fa:	22 95       	swap	r18
    21fc:	20 7f       	andi	r18, 0xF0	; 240
    21fe:	42 2b       	or	r20, r18
    2200:	50 e4       	ldi	r21, 0x40	; 64
    2202:	95 9f       	mul	r25, r21
    2204:	90 01       	movw	r18, r0
    2206:	11 24       	eor	r1, r1
    2208:	66 1f       	adc	r22, r22
    220a:	66 27       	eor	r22, r22
    220c:	66 1f       	adc	r22, r22
    220e:	62 2b       	or	r22, r18
    2210:	97 df       	rcall	.-210    	; 0x2140 <Endpoint_ConfigureEndpoint_Prv>
    2212:	81 11       	cpse	r24, r1
    2214:	d6 cf       	rjmp	.-84     	; 0x21c2 <Endpoint_ConfigureEndpointTable+0x18>
    2216:	e0 cf       	rjmp	.-64     	; 0x21d8 <Endpoint_ConfigureEndpointTable+0x2e>
    2218:	81 e0       	ldi	r24, 0x01	; 1
    221a:	df 91       	pop	r29
    221c:	cf 91       	pop	r28
    221e:	1f 91       	pop	r17
    2220:	0f 91       	pop	r16
    2222:	08 95       	ret

00002224 <Endpoint_ClearStatusStage>:
    2224:	80 91 55 14 	lds	r24, 0x1455	; 0x801455 <USB_ControlRequest>
    2228:	87 ff       	sbrs	r24, 7
    222a:	11 c0       	rjmp	.+34     	; 0x224e <Endpoint_ClearStatusStage+0x2a>
    222c:	80 91 e8 00 	lds	r24, 0x00E8	; 0x8000e8 <__TEXT_REGION_LENGTH__+0x7e00e8>
    2230:	82 fd       	sbrc	r24, 2
    2232:	05 c0       	rjmp	.+10     	; 0x223e <Endpoint_ClearStatusStage+0x1a>
    2234:	80 91 54 14 	lds	r24, 0x1454	; 0x801454 <USB_DeviceState>
    2238:	81 11       	cpse	r24, r1
    223a:	f8 cf       	rjmp	.-16     	; 0x222c <Endpoint_ClearStatusStage+0x8>
    223c:	11 c0       	rjmp	.+34     	; 0x2260 <Endpoint_ClearStatusStage+0x3c>
    223e:	80 91 e8 00 	lds	r24, 0x00E8	; 0x8000e8 <__TEXT_REGION_LENGTH__+0x7e00e8>
    2242:	8b 77       	andi	r24, 0x7B	; 123
    2244:	0b c0       	rjmp	.+22     	; 0x225c <Endpoint_ClearStatusStage+0x38>
    2246:	80 91 54 14 	lds	r24, 0x1454	; 0x801454 <USB_DeviceState>
    224a:	88 23       	and	r24, r24
    224c:	49 f0       	breq	.+18     	; 0x2260 <Endpoint_ClearStatusStage+0x3c>
    224e:	80 91 e8 00 	lds	r24, 0x00E8	; 0x8000e8 <__TEXT_REGION_LENGTH__+0x7e00e8>
    2252:	80 ff       	sbrs	r24, 0
    2254:	f8 cf       	rjmp	.-16     	; 0x2246 <Endpoint_ClearStatusStage+0x22>
    2256:	80 91 e8 00 	lds	r24, 0x00E8	; 0x8000e8 <__TEXT_REGION_LENGTH__+0x7e00e8>
    225a:	8e 77       	andi	r24, 0x7E	; 126
    225c:	80 93 e8 00 	sts	0x00E8, r24	; 0x8000e8 <__TEXT_REGION_LENGTH__+0x7e00e8>
    2260:	08 95       	ret

00002262 <Endpoint_WaitUntilReady>:
    2262:	20 91 e4 00 	lds	r18, 0x00E4	; 0x8000e4 <__TEXT_REGION_LENGTH__+0x7e00e4>
    2266:	30 91 e5 00 	lds	r19, 0x00E5	; 0x8000e5 <__TEXT_REGION_LENGTH__+0x7e00e5>
    226a:	95 e6       	ldi	r25, 0x65	; 101
    226c:	40 91 ec 00 	lds	r20, 0x00EC	; 0x8000ec <__TEXT_REGION_LENGTH__+0x7e00ec>
    2270:	84 2f       	mov	r24, r20
    2272:	81 70       	andi	r24, 0x01	; 1
    2274:	40 ff       	sbrs	r20, 0
    2276:	23 c0       	rjmp	.+70     	; 0x22be <Endpoint_WaitUntilReady+0x5c>
    2278:	80 91 e8 00 	lds	r24, 0x00E8	; 0x8000e8 <__TEXT_REGION_LENGTH__+0x7e00e8>
    227c:	80 fd       	sbrc	r24, 0
    227e:	1d c0       	rjmp	.+58     	; 0x22ba <Endpoint_WaitUntilReady+0x58>
    2280:	80 91 54 14 	lds	r24, 0x1454	; 0x801454 <USB_DeviceState>
    2284:	88 23       	and	r24, r24
    2286:	99 f0       	breq	.+38     	; 0x22ae <Endpoint_WaitUntilReady+0x4c>
    2288:	85 30       	cpi	r24, 0x05	; 5
    228a:	99 f0       	breq	.+38     	; 0x22b2 <Endpoint_WaitUntilReady+0x50>
    228c:	80 91 eb 00 	lds	r24, 0x00EB	; 0x8000eb <__TEXT_REGION_LENGTH__+0x7e00eb>
    2290:	85 fd       	sbrc	r24, 5
    2292:	11 c0       	rjmp	.+34     	; 0x22b6 <Endpoint_WaitUntilReady+0x54>
    2294:	40 91 e4 00 	lds	r20, 0x00E4	; 0x8000e4 <__TEXT_REGION_LENGTH__+0x7e00e4>
    2298:	50 91 e5 00 	lds	r21, 0x00E5	; 0x8000e5 <__TEXT_REGION_LENGTH__+0x7e00e5>
    229c:	24 17       	cp	r18, r20
    229e:	35 07       	cpc	r19, r21
    22a0:	29 f3       	breq	.-54     	; 0x226c <Endpoint_WaitUntilReady+0xa>
    22a2:	91 50       	subi	r25, 0x01	; 1
    22a4:	11 f0       	breq	.+4      	; 0x22aa <Endpoint_WaitUntilReady+0x48>
    22a6:	9a 01       	movw	r18, r20
    22a8:	e1 cf       	rjmp	.-62     	; 0x226c <Endpoint_WaitUntilReady+0xa>
    22aa:	84 e0       	ldi	r24, 0x04	; 4
    22ac:	08 95       	ret
    22ae:	82 e0       	ldi	r24, 0x02	; 2
    22b0:	08 95       	ret
    22b2:	83 e0       	ldi	r24, 0x03	; 3
    22b4:	08 95       	ret
    22b6:	81 e0       	ldi	r24, 0x01	; 1
    22b8:	08 95       	ret
    22ba:	80 e0       	ldi	r24, 0x00	; 0
    22bc:	08 95       	ret
    22be:	40 91 e8 00 	lds	r20, 0x00E8	; 0x8000e8 <__TEXT_REGION_LENGTH__+0x7e00e8>
    22c2:	42 ff       	sbrs	r20, 2
    22c4:	dd cf       	rjmp	.-70     	; 0x2280 <Endpoint_WaitUntilReady+0x1e>
    22c6:	08 95       	ret

000022c8 <USB_ResetInterface>:
    22c8:	0f 93       	push	r16
    22ca:	1f 93       	push	r17
    22cc:	cf 93       	push	r28
    22ce:	df 93       	push	r29
    22d0:	4e d0       	rcall	.+156    	; 0x236e <USB_INT_DisableAllInterrupts>
    22d2:	55 d0       	rcall	.+170    	; 0x237e <USB_INT_ClearAllInterrupts>
    22d4:	c8 ed       	ldi	r28, 0xD8	; 216
    22d6:	d0 e0       	ldi	r29, 0x00	; 0
    22d8:	88 81       	ld	r24, Y
    22da:	8f 77       	andi	r24, 0x7F	; 127
    22dc:	88 83       	st	Y, r24
    22de:	88 81       	ld	r24, Y
    22e0:	80 68       	ori	r24, 0x80	; 128
    22e2:	88 83       	st	Y, r24
    22e4:	88 81       	ld	r24, Y
    22e6:	8f 7d       	andi	r24, 0xDF	; 223
    22e8:	88 83       	st	Y, r24
    22ea:	e7 ed       	ldi	r30, 0xD7	; 215
    22ec:	f0 e0       	ldi	r31, 0x00	; 0
    22ee:	80 81       	ld	r24, Z
    22f0:	80 68       	ori	r24, 0x80	; 128
    22f2:	80 83       	st	Z, r24
    22f4:	19 bc       	out	0x29, r1	; 41
    22f6:	10 92 54 14 	sts	0x1454, r1	; 0x801454 <USB_DeviceState>
    22fa:	10 92 50 14 	sts	0x1450, r1	; 0x801450 <USB_Device_ConfigurationNumber>
    22fe:	10 92 52 14 	sts	0x1452, r1	; 0x801452 <USB_Device_RemoteWakeupEnabled>
    2302:	10 92 51 14 	sts	0x1451, r1	; 0x801451 <USB_Device_CurrentlySelfPowered>
    2306:	00 ee       	ldi	r16, 0xE0	; 224
    2308:	10 e0       	ldi	r17, 0x00	; 0
    230a:	f8 01       	movw	r30, r16
    230c:	80 81       	ld	r24, Z
    230e:	8b 7f       	andi	r24, 0xFB	; 251
    2310:	80 83       	st	Z, r24
    2312:	88 81       	ld	r24, Y
    2314:	81 60       	ori	r24, 0x01	; 1
    2316:	88 83       	st	Y, r24
    2318:	42 e0       	ldi	r20, 0x02	; 2
    231a:	60 e0       	ldi	r22, 0x00	; 0
    231c:	80 e0       	ldi	r24, 0x00	; 0
    231e:	10 df       	rcall	.-480    	; 0x2140 <Endpoint_ConfigureEndpoint_Prv>
    2320:	e1 ee       	ldi	r30, 0xE1	; 225
    2322:	f0 e0       	ldi	r31, 0x00	; 0
    2324:	80 81       	ld	r24, Z
    2326:	8e 7f       	andi	r24, 0xFE	; 254
    2328:	80 83       	st	Z, r24
    232a:	e2 ee       	ldi	r30, 0xE2	; 226
    232c:	f0 e0       	ldi	r31, 0x00	; 0
    232e:	80 81       	ld	r24, Z
    2330:	81 60       	ori	r24, 0x01	; 1
    2332:	80 83       	st	Z, r24
    2334:	80 81       	ld	r24, Z
    2336:	88 60       	ori	r24, 0x08	; 8
    2338:	80 83       	st	Z, r24
    233a:	f8 01       	movw	r30, r16
    233c:	80 81       	ld	r24, Z
    233e:	8e 7f       	andi	r24, 0xFE	; 254
    2340:	80 83       	st	Z, r24
    2342:	88 81       	ld	r24, Y
    2344:	80 61       	ori	r24, 0x10	; 16
    2346:	88 83       	st	Y, r24
    2348:	df 91       	pop	r29
    234a:	cf 91       	pop	r28
    234c:	1f 91       	pop	r17
    234e:	0f 91       	pop	r16
    2350:	08 95       	ret

00002352 <USB_Init>:
    2352:	e8 ed       	ldi	r30, 0xD8	; 216
    2354:	f0 e0       	ldi	r31, 0x00	; 0
    2356:	80 81       	ld	r24, Z
    2358:	8f 7e       	andi	r24, 0xEF	; 239
    235a:	80 83       	st	Z, r24
    235c:	e7 ed       	ldi	r30, 0xD7	; 215
    235e:	f0 e0       	ldi	r31, 0x00	; 0
    2360:	80 81       	ld	r24, Z
    2362:	81 60       	ori	r24, 0x01	; 1
    2364:	80 83       	st	Z, r24
    2366:	81 e0       	ldi	r24, 0x01	; 1
    2368:	80 93 53 14 	sts	0x1453, r24	; 0x801453 <USB_IsInitialized>
    236c:	ad cf       	rjmp	.-166    	; 0x22c8 <USB_ResetInterface>

0000236e <USB_INT_DisableAllInterrupts>:
    236e:	e8 ed       	ldi	r30, 0xD8	; 216
    2370:	f0 e0       	ldi	r31, 0x00	; 0
    2372:	80 81       	ld	r24, Z
    2374:	8c 7f       	andi	r24, 0xFC	; 252
    2376:	80 83       	st	Z, r24
    2378:	10 92 e2 00 	sts	0x00E2, r1	; 0x8000e2 <__TEXT_REGION_LENGTH__+0x7e00e2>
    237c:	08 95       	ret

0000237e <USB_INT_ClearAllInterrupts>:
    237e:	10 92 da 00 	sts	0x00DA, r1	; 0x8000da <__TEXT_REGION_LENGTH__+0x7e00da>
    2382:	10 92 e1 00 	sts	0x00E1, r1	; 0x8000e1 <__TEXT_REGION_LENGTH__+0x7e00e1>
    2386:	08 95       	ret

00002388 <__vector_10>:
    2388:	1f 92       	push	r1
    238a:	0f 92       	push	r0
    238c:	0f b6       	in	r0, 0x3f	; 63
    238e:	0f 92       	push	r0
    2390:	11 24       	eor	r1, r1
    2392:	0b b6       	in	r0, 0x3b	; 59
    2394:	0f 92       	push	r0
    2396:	2f 93       	push	r18
    2398:	3f 93       	push	r19
    239a:	4f 93       	push	r20
    239c:	5f 93       	push	r21
    239e:	6f 93       	push	r22
    23a0:	7f 93       	push	r23
    23a2:	8f 93       	push	r24
    23a4:	9f 93       	push	r25
    23a6:	af 93       	push	r26
    23a8:	bf 93       	push	r27
    23aa:	ef 93       	push	r30
    23ac:	ff 93       	push	r31
    23ae:	80 91 e1 00 	lds	r24, 0x00E1	; 0x8000e1 <__TEXT_REGION_LENGTH__+0x7e00e1>
    23b2:	82 ff       	sbrs	r24, 2
    23b4:	0a c0       	rjmp	.+20     	; 0x23ca <__vector_10+0x42>
    23b6:	80 91 e2 00 	lds	r24, 0x00E2	; 0x8000e2 <__TEXT_REGION_LENGTH__+0x7e00e2>
    23ba:	82 ff       	sbrs	r24, 2
    23bc:	06 c0       	rjmp	.+12     	; 0x23ca <__vector_10+0x42>
    23be:	80 91 e1 00 	lds	r24, 0x00E1	; 0x8000e1 <__TEXT_REGION_LENGTH__+0x7e00e1>
    23c2:	8b 7f       	andi	r24, 0xFB	; 251
    23c4:	80 93 e1 00 	sts	0x00E1, r24	; 0x8000e1 <__TEXT_REGION_LENGTH__+0x7e00e1>
    23c8:	0c d2       	rcall	.+1048   	; 0x27e2 <USB_Event_Stub>
    23ca:	80 91 da 00 	lds	r24, 0x00DA	; 0x8000da <__TEXT_REGION_LENGTH__+0x7e00da>
    23ce:	80 ff       	sbrs	r24, 0
    23d0:	1d c0       	rjmp	.+58     	; 0x240c <__vector_10+0x84>
    23d2:	80 91 d8 00 	lds	r24, 0x00D8	; 0x8000d8 <__TEXT_REGION_LENGTH__+0x7e00d8>
    23d6:	80 ff       	sbrs	r24, 0
    23d8:	19 c0       	rjmp	.+50     	; 0x240c <__vector_10+0x84>
    23da:	80 91 da 00 	lds	r24, 0x00DA	; 0x8000da <__TEXT_REGION_LENGTH__+0x7e00da>
    23de:	8e 7f       	andi	r24, 0xFE	; 254
    23e0:	80 93 da 00 	sts	0x00DA, r24	; 0x8000da <__TEXT_REGION_LENGTH__+0x7e00da>
    23e4:	80 91 d9 00 	lds	r24, 0x00D9	; 0x8000d9 <__TEXT_REGION_LENGTH__+0x7e00d9>
    23e8:	80 ff       	sbrs	r24, 0
    23ea:	0c c0       	rjmp	.+24     	; 0x2404 <__vector_10+0x7c>
    23ec:	84 e1       	ldi	r24, 0x14	; 20
    23ee:	89 bd       	out	0x29, r24	; 41
    23f0:	86 e1       	ldi	r24, 0x16	; 22
    23f2:	89 bd       	out	0x29, r24	; 41
    23f4:	09 b4       	in	r0, 0x29	; 41
    23f6:	00 fe       	sbrs	r0, 0
    23f8:	fd cf       	rjmp	.-6      	; 0x23f4 <__vector_10+0x6c>
    23fa:	81 e0       	ldi	r24, 0x01	; 1
    23fc:	80 93 54 14 	sts	0x1454, r24	; 0x801454 <USB_DeviceState>
    2400:	10 d9       	rcall	.-3552   	; 0x1622 <EVENT_USB_Device_Connect>
    2402:	04 c0       	rjmp	.+8      	; 0x240c <__vector_10+0x84>
    2404:	19 bc       	out	0x29, r1	; 41
    2406:	10 92 54 14 	sts	0x1454, r1	; 0x801454 <USB_DeviceState>
    240a:	0c d9       	rcall	.-3560   	; 0x1624 <EVENT_USB_Device_Disconnect>
    240c:	80 91 e1 00 	lds	r24, 0x00E1	; 0x8000e1 <__TEXT_REGION_LENGTH__+0x7e00e1>
    2410:	80 ff       	sbrs	r24, 0
    2412:	18 c0       	rjmp	.+48     	; 0x2444 <__vector_10+0xbc>
    2414:	80 91 e2 00 	lds	r24, 0x00E2	; 0x8000e2 <__TEXT_REGION_LENGTH__+0x7e00e2>
    2418:	80 ff       	sbrs	r24, 0
    241a:	14 c0       	rjmp	.+40     	; 0x2444 <__vector_10+0xbc>
    241c:	80 91 e2 00 	lds	r24, 0x00E2	; 0x8000e2 <__TEXT_REGION_LENGTH__+0x7e00e2>
    2420:	8e 7f       	andi	r24, 0xFE	; 254
    2422:	80 93 e2 00 	sts	0x00E2, r24	; 0x8000e2 <__TEXT_REGION_LENGTH__+0x7e00e2>
    2426:	80 91 e2 00 	lds	r24, 0x00E2	; 0x8000e2 <__TEXT_REGION_LENGTH__+0x7e00e2>
    242a:	80 61       	ori	r24, 0x10	; 16
    242c:	80 93 e2 00 	sts	0x00E2, r24	; 0x8000e2 <__TEXT_REGION_LENGTH__+0x7e00e2>
    2430:	80 91 d8 00 	lds	r24, 0x00D8	; 0x8000d8 <__TEXT_REGION_LENGTH__+0x7e00d8>
    2434:	80 62       	ori	r24, 0x20	; 32
    2436:	80 93 d8 00 	sts	0x00D8, r24	; 0x8000d8 <__TEXT_REGION_LENGTH__+0x7e00d8>
    243a:	19 bc       	out	0x29, r1	; 41
    243c:	85 e0       	ldi	r24, 0x05	; 5
    243e:	80 93 54 14 	sts	0x1454, r24	; 0x801454 <USB_DeviceState>
    2442:	cf d1       	rcall	.+926    	; 0x27e2 <USB_Event_Stub>
    2444:	80 91 e1 00 	lds	r24, 0x00E1	; 0x8000e1 <__TEXT_REGION_LENGTH__+0x7e00e1>
    2448:	84 ff       	sbrs	r24, 4
    244a:	2f c0       	rjmp	.+94     	; 0x24aa <__vector_10+0x122>
    244c:	80 91 e2 00 	lds	r24, 0x00E2	; 0x8000e2 <__TEXT_REGION_LENGTH__+0x7e00e2>
    2450:	84 ff       	sbrs	r24, 4
    2452:	2b c0       	rjmp	.+86     	; 0x24aa <__vector_10+0x122>
    2454:	84 e1       	ldi	r24, 0x14	; 20
    2456:	89 bd       	out	0x29, r24	; 41
    2458:	86 e1       	ldi	r24, 0x16	; 22
    245a:	89 bd       	out	0x29, r24	; 41
    245c:	09 b4       	in	r0, 0x29	; 41
    245e:	00 fe       	sbrs	r0, 0
    2460:	fd cf       	rjmp	.-6      	; 0x245c <__vector_10+0xd4>
    2462:	80 91 d8 00 	lds	r24, 0x00D8	; 0x8000d8 <__TEXT_REGION_LENGTH__+0x7e00d8>
    2466:	8f 7d       	andi	r24, 0xDF	; 223
    2468:	80 93 d8 00 	sts	0x00D8, r24	; 0x8000d8 <__TEXT_REGION_LENGTH__+0x7e00d8>
    246c:	80 91 e1 00 	lds	r24, 0x00E1	; 0x8000e1 <__TEXT_REGION_LENGTH__+0x7e00e1>
    2470:	8f 7e       	andi	r24, 0xEF	; 239
    2472:	80 93 e1 00 	sts	0x00E1, r24	; 0x8000e1 <__TEXT_REGION_LENGTH__+0x7e00e1>
    2476:	80 91 e2 00 	lds	r24, 0x00E2	; 0x8000e2 <__TEXT_REGION_LENGTH__+0x7e00e2>
    247a:	8f 7e       	andi	r24, 0xEF	; 239
    247c:	80 93 e2 00 	sts	0x00E2, r24	; 0x8000e2 <__TEXT_REGION_LENGTH__+0x7e00e2>
    2480:	80 91 e2 00 	lds	r24, 0x00E2	; 0x8000e2 <__TEXT_REGION_LENGTH__+0x7e00e2>
    2484:	81 60       	ori	r24, 0x01	; 1
    2486:	80 93 e2 00 	sts	0x00E2, r24	; 0x8000e2 <__TEXT_REGION_LENGTH__+0x7e00e2>
    248a:	80 91 50 14 	lds	r24, 0x1450	; 0x801450 <USB_Device_ConfigurationNumber>
    248e:	88 23       	and	r24, r24
    2490:	11 f0       	breq	.+4      	; 0x2496 <__vector_10+0x10e>
    2492:	84 e0       	ldi	r24, 0x04	; 4
    2494:	07 c0       	rjmp	.+14     	; 0x24a4 <__vector_10+0x11c>
    2496:	80 91 e3 00 	lds	r24, 0x00E3	; 0x8000e3 <__TEXT_REGION_LENGTH__+0x7e00e3>
    249a:	87 fd       	sbrc	r24, 7
    249c:	02 c0       	rjmp	.+4      	; 0x24a2 <__vector_10+0x11a>
    249e:	81 e0       	ldi	r24, 0x01	; 1
    24a0:	01 c0       	rjmp	.+2      	; 0x24a4 <__vector_10+0x11c>
    24a2:	83 e0       	ldi	r24, 0x03	; 3
    24a4:	80 93 54 14 	sts	0x1454, r24	; 0x801454 <USB_DeviceState>
    24a8:	9c d1       	rcall	.+824    	; 0x27e2 <USB_Event_Stub>
    24aa:	80 91 e1 00 	lds	r24, 0x00E1	; 0x8000e1 <__TEXT_REGION_LENGTH__+0x7e00e1>
    24ae:	83 ff       	sbrs	r24, 3
    24b0:	22 c0       	rjmp	.+68     	; 0x24f6 <__vector_10+0x16e>
    24b2:	80 91 e2 00 	lds	r24, 0x00E2	; 0x8000e2 <__TEXT_REGION_LENGTH__+0x7e00e2>
    24b6:	83 ff       	sbrs	r24, 3
    24b8:	1e c0       	rjmp	.+60     	; 0x24f6 <__vector_10+0x16e>
    24ba:	80 91 e1 00 	lds	r24, 0x00E1	; 0x8000e1 <__TEXT_REGION_LENGTH__+0x7e00e1>
    24be:	87 7f       	andi	r24, 0xF7	; 247
    24c0:	80 93 e1 00 	sts	0x00E1, r24	; 0x8000e1 <__TEXT_REGION_LENGTH__+0x7e00e1>
    24c4:	82 e0       	ldi	r24, 0x02	; 2
    24c6:	80 93 54 14 	sts	0x1454, r24	; 0x801454 <USB_DeviceState>
    24ca:	10 92 50 14 	sts	0x1450, r1	; 0x801450 <USB_Device_ConfigurationNumber>
    24ce:	80 91 e1 00 	lds	r24, 0x00E1	; 0x8000e1 <__TEXT_REGION_LENGTH__+0x7e00e1>
    24d2:	8e 7f       	andi	r24, 0xFE	; 254
    24d4:	80 93 e1 00 	sts	0x00E1, r24	; 0x8000e1 <__TEXT_REGION_LENGTH__+0x7e00e1>
    24d8:	80 91 e2 00 	lds	r24, 0x00E2	; 0x8000e2 <__TEXT_REGION_LENGTH__+0x7e00e2>
    24dc:	8e 7f       	andi	r24, 0xFE	; 254
    24de:	80 93 e2 00 	sts	0x00E2, r24	; 0x8000e2 <__TEXT_REGION_LENGTH__+0x7e00e2>
    24e2:	80 91 e2 00 	lds	r24, 0x00E2	; 0x8000e2 <__TEXT_REGION_LENGTH__+0x7e00e2>
    24e6:	80 61       	ori	r24, 0x10	; 16
    24e8:	80 93 e2 00 	sts	0x00E2, r24	; 0x8000e2 <__TEXT_REGION_LENGTH__+0x7e00e2>
    24ec:	42 e0       	ldi	r20, 0x02	; 2
    24ee:	60 e0       	ldi	r22, 0x00	; 0
    24f0:	80 e0       	ldi	r24, 0x00	; 0
    24f2:	26 de       	rcall	.-948    	; 0x2140 <Endpoint_ConfigureEndpoint_Prv>
    24f4:	76 d1       	rcall	.+748    	; 0x27e2 <USB_Event_Stub>
    24f6:	ff 91       	pop	r31
    24f8:	ef 91       	pop	r30
    24fa:	bf 91       	pop	r27
    24fc:	af 91       	pop	r26
    24fe:	9f 91       	pop	r25
    2500:	8f 91       	pop	r24
    2502:	7f 91       	pop	r23
    2504:	6f 91       	pop	r22
    2506:	5f 91       	pop	r21
    2508:	4f 91       	pop	r20
    250a:	3f 91       	pop	r19
    250c:	2f 91       	pop	r18
    250e:	0f 90       	pop	r0
    2510:	0b be       	out	0x3b, r0	; 59
    2512:	0f 90       	pop	r0
    2514:	0f be       	out	0x3f, r0	; 63
    2516:	0f 90       	pop	r0
    2518:	1f 90       	pop	r1
    251a:	18 95       	reti

0000251c <USB_Device_ProcessControlRequest>:
    251c:	1f 93       	push	r17
    251e:	cf 93       	push	r28
    2520:	df 93       	push	r29
    2522:	cd b7       	in	r28, 0x3d	; 61
    2524:	de b7       	in	r29, 0x3e	; 62
    2526:	aa 97       	sbiw	r28, 0x2a	; 42
    2528:	0f b6       	in	r0, 0x3f	; 63
    252a:	f8 94       	cli
    252c:	de bf       	out	0x3e, r29	; 62
    252e:	0f be       	out	0x3f, r0	; 63
    2530:	cd bf       	out	0x3d, r28	; 61
    2532:	e5 e5       	ldi	r30, 0x55	; 85
    2534:	f4 e1       	ldi	r31, 0x14	; 20
    2536:	80 91 f1 00 	lds	r24, 0x00F1	; 0x8000f1 <__TEXT_REGION_LENGTH__+0x7e00f1>
    253a:	81 93       	st	Z+, r24
    253c:	24 e1       	ldi	r18, 0x14	; 20
    253e:	ed 35       	cpi	r30, 0x5D	; 93
    2540:	f2 07       	cpc	r31, r18
    2542:	c9 f7       	brne	.-14     	; 0x2536 <USB_Device_ProcessControlRequest+0x1a>
    2544:	73 d8       	rcall	.-3866   	; 0x162c <EVENT_USB_Device_ControlRequest>
    2546:	80 91 e8 00 	lds	r24, 0x00E8	; 0x8000e8 <__TEXT_REGION_LENGTH__+0x7e00e8>
    254a:	83 ff       	sbrs	r24, 3
    254c:	32 c1       	rjmp	.+612    	; 0x27b2 <USB_Device_ProcessControlRequest+0x296>
    254e:	80 91 55 14 	lds	r24, 0x1455	; 0x801455 <USB_ControlRequest>
    2552:	90 91 56 14 	lds	r25, 0x1456	; 0x801456 <USB_ControlRequest+0x1>
    2556:	95 30       	cpi	r25, 0x05	; 5
    2558:	09 f4       	brne	.+2      	; 0x255c <USB_Device_ProcessControlRequest+0x40>
    255a:	83 c0       	rjmp	.+262    	; 0x2662 <USB_Device_ProcessControlRequest+0x146>
    255c:	30 f4       	brcc	.+12     	; 0x256a <USB_Device_ProcessControlRequest+0x4e>
    255e:	91 30       	cpi	r25, 0x01	; 1
    2560:	a9 f1       	breq	.+106    	; 0x25cc <USB_Device_ProcessControlRequest+0xb0>
    2562:	68 f0       	brcs	.+26     	; 0x257e <USB_Device_ProcessControlRequest+0x62>
    2564:	93 30       	cpi	r25, 0x03	; 3
    2566:	91 f1       	breq	.+100    	; 0x25cc <USB_Device_ProcessControlRequest+0xb0>
    2568:	24 c1       	rjmp	.+584    	; 0x27b2 <USB_Device_ProcessControlRequest+0x296>
    256a:	98 30       	cpi	r25, 0x08	; 8
    256c:	09 f4       	brne	.+2      	; 0x2570 <USB_Device_ProcessControlRequest+0x54>
    256e:	f0 c0       	rjmp	.+480    	; 0x2750 <USB_Device_ProcessControlRequest+0x234>
    2570:	99 30       	cpi	r25, 0x09	; 9
    2572:	09 f4       	brne	.+2      	; 0x2576 <USB_Device_ProcessControlRequest+0x5a>
    2574:	fc c0       	rjmp	.+504    	; 0x276e <USB_Device_ProcessControlRequest+0x252>
    2576:	96 30       	cpi	r25, 0x06	; 6
    2578:	09 f0       	breq	.+2      	; 0x257c <USB_Device_ProcessControlRequest+0x60>
    257a:	1b c1       	rjmp	.+566    	; 0x27b2 <USB_Device_ProcessControlRequest+0x296>
    257c:	94 c0       	rjmp	.+296    	; 0x26a6 <USB_Device_ProcessControlRequest+0x18a>
    257e:	80 38       	cpi	r24, 0x80	; 128
    2580:	21 f0       	breq	.+8      	; 0x258a <USB_Device_ProcessControlRequest+0x6e>
    2582:	82 38       	cpi	r24, 0x82	; 130
    2584:	09 f0       	breq	.+2      	; 0x2588 <USB_Device_ProcessControlRequest+0x6c>
    2586:	15 c1       	rjmp	.+554    	; 0x27b2 <USB_Device_ProcessControlRequest+0x296>
    2588:	08 c0       	rjmp	.+16     	; 0x259a <USB_Device_ProcessControlRequest+0x7e>
    258a:	80 91 51 14 	lds	r24, 0x1451	; 0x801451 <USB_Device_CurrentlySelfPowered>
    258e:	90 91 52 14 	lds	r25, 0x1452	; 0x801452 <USB_Device_RemoteWakeupEnabled>
    2592:	99 23       	and	r25, r25
    2594:	89 f0       	breq	.+34     	; 0x25b8 <USB_Device_ProcessControlRequest+0x9c>
    2596:	82 60       	ori	r24, 0x02	; 2
    2598:	0f c0       	rjmp	.+30     	; 0x25b8 <USB_Device_ProcessControlRequest+0x9c>
    259a:	80 91 59 14 	lds	r24, 0x1459	; 0x801459 <USB_ControlRequest+0x4>
    259e:	8f 70       	andi	r24, 0x0F	; 15
    25a0:	87 30       	cpi	r24, 0x07	; 7
    25a2:	08 f0       	brcs	.+2      	; 0x25a6 <USB_Device_ProcessControlRequest+0x8a>
    25a4:	06 c1       	rjmp	.+524    	; 0x27b2 <USB_Device_ProcessControlRequest+0x296>
    25a6:	80 93 e9 00 	sts	0x00E9, r24	; 0x8000e9 <__TEXT_REGION_LENGTH__+0x7e00e9>
    25aa:	80 91 eb 00 	lds	r24, 0x00EB	; 0x8000eb <__TEXT_REGION_LENGTH__+0x7e00eb>
    25ae:	85 fb       	bst	r24, 5
    25b0:	88 27       	eor	r24, r24
    25b2:	80 f9       	bld	r24, 0
    25b4:	10 92 e9 00 	sts	0x00E9, r1	; 0x8000e9 <__TEXT_REGION_LENGTH__+0x7e00e9>
    25b8:	90 91 e8 00 	lds	r25, 0x00E8	; 0x8000e8 <__TEXT_REGION_LENGTH__+0x7e00e8>
    25bc:	97 7f       	andi	r25, 0xF7	; 247
    25be:	90 93 e8 00 	sts	0x00E8, r25	; 0x8000e8 <__TEXT_REGION_LENGTH__+0x7e00e8>
    25c2:	80 93 f1 00 	sts	0x00F1, r24	; 0x8000f1 <__TEXT_REGION_LENGTH__+0x7e00f1>
    25c6:	10 92 f1 00 	sts	0x00F1, r1	; 0x8000f1 <__TEXT_REGION_LENGTH__+0x7e00f1>
    25ca:	cd c0       	rjmp	.+410    	; 0x2766 <USB_Device_ProcessControlRequest+0x24a>
    25cc:	28 2f       	mov	r18, r24
    25ce:	2d 7f       	andi	r18, 0xFD	; 253
    25d0:	09 f0       	breq	.+2      	; 0x25d4 <USB_Device_ProcessControlRequest+0xb8>
    25d2:	ef c0       	rjmp	.+478    	; 0x27b2 <USB_Device_ProcessControlRequest+0x296>
    25d4:	88 23       	and	r24, r24
    25d6:	19 f0       	breq	.+6      	; 0x25de <USB_Device_ProcessControlRequest+0xc2>
    25d8:	82 30       	cpi	r24, 0x02	; 2
    25da:	61 f0       	breq	.+24     	; 0x25f4 <USB_Device_ProcessControlRequest+0xd8>
    25dc:	ea c0       	rjmp	.+468    	; 0x27b2 <USB_Device_ProcessControlRequest+0x296>
    25de:	80 91 57 14 	lds	r24, 0x1457	; 0x801457 <USB_ControlRequest+0x2>
    25e2:	81 30       	cpi	r24, 0x01	; 1
    25e4:	09 f0       	breq	.+2      	; 0x25e8 <USB_Device_ProcessControlRequest+0xcc>
    25e6:	e5 c0       	rjmp	.+458    	; 0x27b2 <USB_Device_ProcessControlRequest+0x296>
    25e8:	93 30       	cpi	r25, 0x03	; 3
    25ea:	09 f0       	breq	.+2      	; 0x25ee <USB_Device_ProcessControlRequest+0xd2>
    25ec:	80 e0       	ldi	r24, 0x00	; 0
    25ee:	80 93 52 14 	sts	0x1452, r24	; 0x801452 <USB_Device_RemoteWakeupEnabled>
    25f2:	2e c0       	rjmp	.+92     	; 0x2650 <USB_Device_ProcessControlRequest+0x134>
    25f4:	80 91 57 14 	lds	r24, 0x1457	; 0x801457 <USB_ControlRequest+0x2>
    25f8:	81 11       	cpse	r24, r1
    25fa:	2a c0       	rjmp	.+84     	; 0x2650 <USB_Device_ProcessControlRequest+0x134>
    25fc:	80 91 59 14 	lds	r24, 0x1459	; 0x801459 <USB_ControlRequest+0x4>
    2600:	8f 70       	andi	r24, 0x0F	; 15
    2602:	2f ef       	ldi	r18, 0xFF	; 255
    2604:	28 0f       	add	r18, r24
    2606:	26 30       	cpi	r18, 0x06	; 6
    2608:	08 f0       	brcs	.+2      	; 0x260c <USB_Device_ProcessControlRequest+0xf0>
    260a:	d3 c0       	rjmp	.+422    	; 0x27b2 <USB_Device_ProcessControlRequest+0x296>
    260c:	80 93 e9 00 	sts	0x00E9, r24	; 0x8000e9 <__TEXT_REGION_LENGTH__+0x7e00e9>
    2610:	20 91 eb 00 	lds	r18, 0x00EB	; 0x8000eb <__TEXT_REGION_LENGTH__+0x7e00eb>
    2614:	20 ff       	sbrs	r18, 0
    2616:	1c c0       	rjmp	.+56     	; 0x2650 <USB_Device_ProcessControlRequest+0x134>
    2618:	93 30       	cpi	r25, 0x03	; 3
    261a:	21 f4       	brne	.+8      	; 0x2624 <USB_Device_ProcessControlRequest+0x108>
    261c:	80 91 eb 00 	lds	r24, 0x00EB	; 0x8000eb <__TEXT_REGION_LENGTH__+0x7e00eb>
    2620:	80 62       	ori	r24, 0x20	; 32
    2622:	14 c0       	rjmp	.+40     	; 0x264c <USB_Device_ProcessControlRequest+0x130>
    2624:	90 91 eb 00 	lds	r25, 0x00EB	; 0x8000eb <__TEXT_REGION_LENGTH__+0x7e00eb>
    2628:	90 61       	ori	r25, 0x10	; 16
    262a:	90 93 eb 00 	sts	0x00EB, r25	; 0x8000eb <__TEXT_REGION_LENGTH__+0x7e00eb>
    262e:	21 e0       	ldi	r18, 0x01	; 1
    2630:	30 e0       	ldi	r19, 0x00	; 0
    2632:	a9 01       	movw	r20, r18
    2634:	02 c0       	rjmp	.+4      	; 0x263a <USB_Device_ProcessControlRequest+0x11e>
    2636:	44 0f       	add	r20, r20
    2638:	55 1f       	adc	r21, r21
    263a:	8a 95       	dec	r24
    263c:	e2 f7       	brpl	.-8      	; 0x2636 <USB_Device_ProcessControlRequest+0x11a>
    263e:	40 93 ea 00 	sts	0x00EA, r20	; 0x8000ea <__TEXT_REGION_LENGTH__+0x7e00ea>
    2642:	10 92 ea 00 	sts	0x00EA, r1	; 0x8000ea <__TEXT_REGION_LENGTH__+0x7e00ea>
    2646:	80 91 eb 00 	lds	r24, 0x00EB	; 0x8000eb <__TEXT_REGION_LENGTH__+0x7e00eb>
    264a:	88 60       	ori	r24, 0x08	; 8
    264c:	80 93 eb 00 	sts	0x00EB, r24	; 0x8000eb <__TEXT_REGION_LENGTH__+0x7e00eb>
    2650:	10 92 e9 00 	sts	0x00E9, r1	; 0x8000e9 <__TEXT_REGION_LENGTH__+0x7e00e9>
    2654:	80 91 e8 00 	lds	r24, 0x00E8	; 0x8000e8 <__TEXT_REGION_LENGTH__+0x7e00e8>
    2658:	87 7f       	andi	r24, 0xF7	; 247
    265a:	80 93 e8 00 	sts	0x00E8, r24	; 0x8000e8 <__TEXT_REGION_LENGTH__+0x7e00e8>
    265e:	e2 dd       	rcall	.-1084   	; 0x2224 <Endpoint_ClearStatusStage>
    2660:	a8 c0       	rjmp	.+336    	; 0x27b2 <USB_Device_ProcessControlRequest+0x296>
    2662:	81 11       	cpse	r24, r1
    2664:	a6 c0       	rjmp	.+332    	; 0x27b2 <USB_Device_ProcessControlRequest+0x296>
    2666:	10 91 57 14 	lds	r17, 0x1457	; 0x801457 <USB_ControlRequest+0x2>
    266a:	1f 77       	andi	r17, 0x7F	; 127
    266c:	80 91 e3 00 	lds	r24, 0x00E3	; 0x8000e3 <__TEXT_REGION_LENGTH__+0x7e00e3>
    2670:	80 78       	andi	r24, 0x80	; 128
    2672:	81 2b       	or	r24, r17
    2674:	80 93 e3 00 	sts	0x00E3, r24	; 0x8000e3 <__TEXT_REGION_LENGTH__+0x7e00e3>
    2678:	80 91 e8 00 	lds	r24, 0x00E8	; 0x8000e8 <__TEXT_REGION_LENGTH__+0x7e00e8>
    267c:	87 7f       	andi	r24, 0xF7	; 247
    267e:	80 93 e8 00 	sts	0x00E8, r24	; 0x8000e8 <__TEXT_REGION_LENGTH__+0x7e00e8>
    2682:	d0 dd       	rcall	.-1120   	; 0x2224 <Endpoint_ClearStatusStage>
    2684:	80 91 e8 00 	lds	r24, 0x00E8	; 0x8000e8 <__TEXT_REGION_LENGTH__+0x7e00e8>
    2688:	80 ff       	sbrs	r24, 0
    268a:	fc cf       	rjmp	.-8      	; 0x2684 <USB_Device_ProcessControlRequest+0x168>
    268c:	80 91 e3 00 	lds	r24, 0x00E3	; 0x8000e3 <__TEXT_REGION_LENGTH__+0x7e00e3>
    2690:	80 68       	ori	r24, 0x80	; 128
    2692:	80 93 e3 00 	sts	0x00E3, r24	; 0x8000e3 <__TEXT_REGION_LENGTH__+0x7e00e3>
    2696:	11 11       	cpse	r17, r1
    2698:	02 c0       	rjmp	.+4      	; 0x269e <USB_Device_ProcessControlRequest+0x182>
    269a:	82 e0       	ldi	r24, 0x02	; 2
    269c:	01 c0       	rjmp	.+2      	; 0x26a0 <USB_Device_ProcessControlRequest+0x184>
    269e:	83 e0       	ldi	r24, 0x03	; 3
    26a0:	80 93 54 14 	sts	0x1454, r24	; 0x801454 <USB_DeviceState>
    26a4:	86 c0       	rjmp	.+268    	; 0x27b2 <USB_Device_ProcessControlRequest+0x296>
    26a6:	80 58       	subi	r24, 0x80	; 128
    26a8:	82 30       	cpi	r24, 0x02	; 2
    26aa:	08 f0       	brcs	.+2      	; 0x26ae <USB_Device_ProcessControlRequest+0x192>
    26ac:	82 c0       	rjmp	.+260    	; 0x27b2 <USB_Device_ProcessControlRequest+0x296>
    26ae:	80 91 57 14 	lds	r24, 0x1457	; 0x801457 <USB_ControlRequest+0x2>
    26b2:	90 91 58 14 	lds	r25, 0x1458	; 0x801458 <USB_ControlRequest+0x3>
    26b6:	8c 3d       	cpi	r24, 0xDC	; 220
    26b8:	53 e0       	ldi	r21, 0x03	; 3
    26ba:	95 07       	cpc	r25, r21
    26bc:	71 f5       	brne	.+92     	; 0x271a <USB_Device_ProcessControlRequest+0x1fe>
    26be:	83 e0       	ldi	r24, 0x03	; 3
    26c0:	8a 83       	std	Y+2, r24	; 0x02
    26c2:	8a e2       	ldi	r24, 0x2A	; 42
    26c4:	89 83       	std	Y+1, r24	; 0x01
    26c6:	4f b7       	in	r20, 0x3f	; 63
    26c8:	f8 94       	cli
    26ca:	de 01       	movw	r26, r28
    26cc:	13 96       	adiw	r26, 0x03	; 3
    26ce:	20 e0       	ldi	r18, 0x00	; 0
    26d0:	3e e0       	ldi	r19, 0x0E	; 14
    26d2:	51 e2       	ldi	r21, 0x21	; 33
    26d4:	e3 2f       	mov	r30, r19
    26d6:	f0 e0       	ldi	r31, 0x00	; 0
    26d8:	50 93 57 00 	sts	0x0057, r21	; 0x800057 <__TEXT_REGION_LENGTH__+0x7e0057>
    26dc:	e4 91       	lpm	r30, Z
    26de:	20 ff       	sbrs	r18, 0
    26e0:	03 c0       	rjmp	.+6      	; 0x26e8 <USB_Device_ProcessControlRequest+0x1cc>
    26e2:	e2 95       	swap	r30
    26e4:	ef 70       	andi	r30, 0x0F	; 15
    26e6:	3f 5f       	subi	r19, 0xFF	; 255
    26e8:	ef 70       	andi	r30, 0x0F	; 15
    26ea:	8e 2f       	mov	r24, r30
    26ec:	90 e0       	ldi	r25, 0x00	; 0
    26ee:	ea 30       	cpi	r30, 0x0A	; 10
    26f0:	10 f0       	brcs	.+4      	; 0x26f6 <USB_Device_ProcessControlRequest+0x1da>
    26f2:	c7 96       	adiw	r24, 0x37	; 55
    26f4:	01 c0       	rjmp	.+2      	; 0x26f8 <USB_Device_ProcessControlRequest+0x1dc>
    26f6:	c0 96       	adiw	r24, 0x30	; 48
    26f8:	8d 93       	st	X+, r24
    26fa:	9d 93       	st	X+, r25
    26fc:	2f 5f       	subi	r18, 0xFF	; 255
    26fe:	24 31       	cpi	r18, 0x14	; 20
    2700:	49 f7       	brne	.-46     	; 0x26d4 <USB_Device_ProcessControlRequest+0x1b8>
    2702:	4f bf       	out	0x3f, r20	; 63
    2704:	80 91 e8 00 	lds	r24, 0x00E8	; 0x8000e8 <__TEXT_REGION_LENGTH__+0x7e00e8>
    2708:	87 7f       	andi	r24, 0xF7	; 247
    270a:	80 93 e8 00 	sts	0x00E8, r24	; 0x8000e8 <__TEXT_REGION_LENGTH__+0x7e00e8>
    270e:	6a e2       	ldi	r22, 0x2A	; 42
    2710:	70 e0       	ldi	r23, 0x00	; 0
    2712:	ce 01       	movw	r24, r28
    2714:	01 96       	adiw	r24, 0x01	; 1
    2716:	1b dc       	rcall	.-1994   	; 0x1f4e <Endpoint_Write_Control_Stream_LE>
    2718:	15 c0       	rjmp	.+42     	; 0x2744 <USB_Device_ProcessControlRequest+0x228>
    271a:	60 91 59 14 	lds	r22, 0x1459	; 0x801459 <USB_ControlRequest+0x4>
    271e:	70 91 5a 14 	lds	r23, 0x145A	; 0x80145a <USB_ControlRequest+0x5>
    2722:	ae 01       	movw	r20, r28
    2724:	4f 5f       	subi	r20, 0xFF	; 255
    2726:	5f 4f       	sbci	r21, 0xFF	; 255
    2728:	0e 94 31 02 	call	0x462	; 0x462 <CALLBACK_USB_GetDescriptor>
    272c:	bc 01       	movw	r22, r24
    272e:	89 2b       	or	r24, r25
    2730:	09 f4       	brne	.+2      	; 0x2734 <USB_Device_ProcessControlRequest+0x218>
    2732:	3f c0       	rjmp	.+126    	; 0x27b2 <USB_Device_ProcessControlRequest+0x296>
    2734:	90 91 e8 00 	lds	r25, 0x00E8	; 0x8000e8 <__TEXT_REGION_LENGTH__+0x7e00e8>
    2738:	97 7f       	andi	r25, 0xF7	; 247
    273a:	90 93 e8 00 	sts	0x00E8, r25	; 0x8000e8 <__TEXT_REGION_LENGTH__+0x7e00e8>
    273e:	89 81       	ldd	r24, Y+1	; 0x01
    2740:	9a 81       	ldd	r25, Y+2	; 0x02
    2742:	9f dc       	rcall	.-1730   	; 0x2082 <Endpoint_Write_Control_PStream_LE>
    2744:	80 91 e8 00 	lds	r24, 0x00E8	; 0x8000e8 <__TEXT_REGION_LENGTH__+0x7e00e8>
    2748:	8b 77       	andi	r24, 0x7B	; 123
    274a:	80 93 e8 00 	sts	0x00E8, r24	; 0x8000e8 <__TEXT_REGION_LENGTH__+0x7e00e8>
    274e:	31 c0       	rjmp	.+98     	; 0x27b2 <USB_Device_ProcessControlRequest+0x296>
    2750:	80 38       	cpi	r24, 0x80	; 128
    2752:	79 f5       	brne	.+94     	; 0x27b2 <USB_Device_ProcessControlRequest+0x296>
    2754:	80 91 e8 00 	lds	r24, 0x00E8	; 0x8000e8 <__TEXT_REGION_LENGTH__+0x7e00e8>
    2758:	87 7f       	andi	r24, 0xF7	; 247
    275a:	80 93 e8 00 	sts	0x00E8, r24	; 0x8000e8 <__TEXT_REGION_LENGTH__+0x7e00e8>
    275e:	80 91 50 14 	lds	r24, 0x1450	; 0x801450 <USB_Device_ConfigurationNumber>
    2762:	80 93 f1 00 	sts	0x00F1, r24	; 0x8000f1 <__TEXT_REGION_LENGTH__+0x7e00f1>
    2766:	80 91 e8 00 	lds	r24, 0x00E8	; 0x8000e8 <__TEXT_REGION_LENGTH__+0x7e00e8>
    276a:	8e 77       	andi	r24, 0x7E	; 126
    276c:	76 cf       	rjmp	.-276    	; 0x265a <USB_Device_ProcessControlRequest+0x13e>
    276e:	81 11       	cpse	r24, r1
    2770:	20 c0       	rjmp	.+64     	; 0x27b2 <USB_Device_ProcessControlRequest+0x296>
    2772:	80 91 57 14 	lds	r24, 0x1457	; 0x801457 <USB_ControlRequest+0x2>
    2776:	90 91 58 14 	lds	r25, 0x1458	; 0x801458 <USB_ControlRequest+0x3>
    277a:	99 27       	eor	r25, r25
    277c:	02 97       	sbiw	r24, 0x02	; 2
    277e:	cc f4       	brge	.+50     	; 0x27b2 <USB_Device_ProcessControlRequest+0x296>
    2780:	80 91 e8 00 	lds	r24, 0x00E8	; 0x8000e8 <__TEXT_REGION_LENGTH__+0x7e00e8>
    2784:	87 7f       	andi	r24, 0xF7	; 247
    2786:	80 93 e8 00 	sts	0x00E8, r24	; 0x8000e8 <__TEXT_REGION_LENGTH__+0x7e00e8>
    278a:	80 91 57 14 	lds	r24, 0x1457	; 0x801457 <USB_ControlRequest+0x2>
    278e:	80 93 50 14 	sts	0x1450, r24	; 0x801450 <USB_Device_ConfigurationNumber>
    2792:	48 dd       	rcall	.-1392   	; 0x2224 <Endpoint_ClearStatusStage>
    2794:	80 91 50 14 	lds	r24, 0x1450	; 0x801450 <USB_Device_ConfigurationNumber>
    2798:	81 11       	cpse	r24, r1
    279a:	06 c0       	rjmp	.+12     	; 0x27a8 <USB_Device_ProcessControlRequest+0x28c>
    279c:	80 91 e3 00 	lds	r24, 0x00E3	; 0x8000e3 <__TEXT_REGION_LENGTH__+0x7e00e3>
    27a0:	87 fd       	sbrc	r24, 7
    27a2:	02 c0       	rjmp	.+4      	; 0x27a8 <USB_Device_ProcessControlRequest+0x28c>
    27a4:	81 e0       	ldi	r24, 0x01	; 1
    27a6:	01 c0       	rjmp	.+2      	; 0x27aa <USB_Device_ProcessControlRequest+0x28e>
    27a8:	84 e0       	ldi	r24, 0x04	; 4
    27aa:	80 93 54 14 	sts	0x1454, r24	; 0x801454 <USB_DeviceState>
    27ae:	0e 94 13 0b 	call	0x1626	; 0x1626 <EVENT_USB_Device_ConfigurationChanged>
    27b2:	80 91 e8 00 	lds	r24, 0x00E8	; 0x8000e8 <__TEXT_REGION_LENGTH__+0x7e00e8>
    27b6:	83 ff       	sbrs	r24, 3
    27b8:	0a c0       	rjmp	.+20     	; 0x27ce <USB_Device_ProcessControlRequest+0x2b2>
    27ba:	80 91 e8 00 	lds	r24, 0x00E8	; 0x8000e8 <__TEXT_REGION_LENGTH__+0x7e00e8>
    27be:	87 7f       	andi	r24, 0xF7	; 247
    27c0:	80 93 e8 00 	sts	0x00E8, r24	; 0x8000e8 <__TEXT_REGION_LENGTH__+0x7e00e8>
    27c4:	80 91 eb 00 	lds	r24, 0x00EB	; 0x8000eb <__TEXT_REGION_LENGTH__+0x7e00eb>
    27c8:	80 62       	ori	r24, 0x20	; 32
    27ca:	80 93 eb 00 	sts	0x00EB, r24	; 0x8000eb <__TEXT_REGION_LENGTH__+0x7e00eb>
    27ce:	aa 96       	adiw	r28, 0x2a	; 42
    27d0:	0f b6       	in	r0, 0x3f	; 63
    27d2:	f8 94       	cli
    27d4:	de bf       	out	0x3e, r29	; 62
    27d6:	0f be       	out	0x3f, r0	; 63
    27d8:	cd bf       	out	0x3d, r28	; 61
    27da:	df 91       	pop	r29
    27dc:	cf 91       	pop	r28
    27de:	1f 91       	pop	r17
    27e0:	08 95       	ret

000027e2 <USB_Event_Stub>:
    27e2:	08 95       	ret

000027e4 <USB_USBTask>:
    27e4:	cf 93       	push	r28
    27e6:	80 91 54 14 	lds	r24, 0x1454	; 0x801454 <USB_DeviceState>
    27ea:	88 23       	and	r24, r24
    27ec:	99 f0       	breq	.+38     	; 0x2814 <USB_USBTask+0x30>
    27ee:	c0 91 e9 00 	lds	r28, 0x00E9	; 0x8000e9 <__TEXT_REGION_LENGTH__+0x7e00e9>
    27f2:	cf 70       	andi	r28, 0x0F	; 15
    27f4:	90 91 ec 00 	lds	r25, 0x00EC	; 0x8000ec <__TEXT_REGION_LENGTH__+0x7e00ec>
    27f8:	89 2f       	mov	r24, r25
    27fa:	81 70       	andi	r24, 0x01	; 1
    27fc:	90 fd       	sbrc	r25, 0
    27fe:	80 e8       	ldi	r24, 0x80	; 128
    2800:	c8 2b       	or	r28, r24
    2802:	10 92 e9 00 	sts	0x00E9, r1	; 0x8000e9 <__TEXT_REGION_LENGTH__+0x7e00e9>
    2806:	80 91 e8 00 	lds	r24, 0x00E8	; 0x8000e8 <__TEXT_REGION_LENGTH__+0x7e00e8>
    280a:	83 fd       	sbrc	r24, 3
    280c:	87 de       	rcall	.-754    	; 0x251c <USB_Device_ProcessControlRequest>
    280e:	cf 70       	andi	r28, 0x0F	; 15
    2810:	c0 93 e9 00 	sts	0x00E9, r28	; 0x8000e9 <__TEXT_REGION_LENGTH__+0x7e00e9>
    2814:	cf 91       	pop	r28
    2816:	08 95       	ret

00002818 <memcpy_P>:
    2818:	fb 01       	movw	r30, r22
    281a:	dc 01       	movw	r26, r24
    281c:	02 c0       	rjmp	.+4      	; 0x2822 <memcpy_P+0xa>
    281e:	05 90       	lpm	r0, Z+
    2820:	0d 92       	st	X+, r0
    2822:	41 50       	subi	r20, 0x01	; 1
    2824:	50 40       	sbci	r21, 0x00	; 0
    2826:	d8 f7       	brcc	.-10     	; 0x281e <memcpy_P+0x6>
    2828:	08 95       	ret

0000282a <strcpy_P>:
    282a:	fb 01       	movw	r30, r22
    282c:	dc 01       	movw	r26, r24
    282e:	05 90       	lpm	r0, Z+
    2830:	0d 92       	st	X+, r0
    2832:	00 20       	and	r0, r0
    2834:	e1 f7       	brne	.-8      	; 0x282e <strcpy_P+0x4>
    2836:	08 95       	ret

00002838 <__strlen_P>:
    2838:	fc 01       	movw	r30, r24
    283a:	05 90       	lpm	r0, Z+
    283c:	00 20       	and	r0, r0
    283e:	e9 f7       	brne	.-6      	; 0x283a <__strlen_P+0x2>
    2840:	80 95       	com	r24
    2842:	90 95       	com	r25
    2844:	8e 0f       	add	r24, r30
    2846:	9f 1f       	adc	r25, r31
    2848:	08 95       	ret

0000284a <strncpy_P>:
    284a:	fb 01       	movw	r30, r22
    284c:	dc 01       	movw	r26, r24
    284e:	41 50       	subi	r20, 0x01	; 1
    2850:	50 40       	sbci	r21, 0x00	; 0
    2852:	48 f0       	brcs	.+18     	; 0x2866 <strncpy_P+0x1c>
    2854:	05 90       	lpm	r0, Z+
    2856:	0d 92       	st	X+, r0
    2858:	00 20       	and	r0, r0
    285a:	c9 f7       	brne	.-14     	; 0x284e <strncpy_P+0x4>
    285c:	01 c0       	rjmp	.+2      	; 0x2860 <strncpy_P+0x16>
    285e:	1d 92       	st	X+, r1
    2860:	41 50       	subi	r20, 0x01	; 1
    2862:	50 40       	sbci	r21, 0x00	; 0
    2864:	e0 f7       	brcc	.-8      	; 0x285e <strncpy_P+0x14>
    2866:	08 95       	ret

00002868 <memcmp>:
    2868:	fb 01       	movw	r30, r22
    286a:	dc 01       	movw	r26, r24
    286c:	04 c0       	rjmp	.+8      	; 0x2876 <memcmp+0xe>
    286e:	8d 91       	ld	r24, X+
    2870:	01 90       	ld	r0, Z+
    2872:	80 19       	sub	r24, r0
    2874:	21 f4       	brne	.+8      	; 0x287e <memcmp+0x16>
    2876:	41 50       	subi	r20, 0x01	; 1
    2878:	50 40       	sbci	r21, 0x00	; 0
    287a:	c8 f7       	brcc	.-14     	; 0x286e <memcmp+0x6>
    287c:	88 1b       	sub	r24, r24
    287e:	99 0b       	sbc	r25, r25
    2880:	08 95       	ret

00002882 <memcpy>:
    2882:	fb 01       	movw	r30, r22
    2884:	dc 01       	movw	r26, r24
    2886:	02 c0       	rjmp	.+4      	; 0x288c <memcpy+0xa>
    2888:	01 90       	ld	r0, Z+
    288a:	0d 92       	st	X+, r0
    288c:	41 50       	subi	r20, 0x01	; 1
    288e:	50 40       	sbci	r21, 0x00	; 0
    2890:	d8 f7       	brcc	.-10     	; 0x2888 <memcpy+0x6>
    2892:	08 95       	ret

00002894 <memmove>:
    2894:	68 17       	cp	r22, r24
    2896:	79 07       	cpc	r23, r25
    2898:	68 f4       	brcc	.+26     	; 0x28b4 <memmove+0x20>
    289a:	fb 01       	movw	r30, r22
    289c:	dc 01       	movw	r26, r24
    289e:	e4 0f       	add	r30, r20
    28a0:	f5 1f       	adc	r31, r21
    28a2:	a4 0f       	add	r26, r20
    28a4:	b5 1f       	adc	r27, r21
    28a6:	02 c0       	rjmp	.+4      	; 0x28ac <memmove+0x18>
    28a8:	02 90       	ld	r0, -Z
    28aa:	0e 92       	st	-X, r0
    28ac:	41 50       	subi	r20, 0x01	; 1
    28ae:	50 40       	sbci	r21, 0x00	; 0
    28b0:	d8 f7       	brcc	.-10     	; 0x28a8 <memmove+0x14>
    28b2:	08 95       	ret
    28b4:	e6 cf       	rjmp	.-52     	; 0x2882 <memcpy>

000028b6 <strncmp>:
    28b6:	fb 01       	movw	r30, r22
    28b8:	dc 01       	movw	r26, r24
    28ba:	41 50       	subi	r20, 0x01	; 1
    28bc:	50 40       	sbci	r21, 0x00	; 0
    28be:	30 f0       	brcs	.+12     	; 0x28cc <strncmp+0x16>
    28c0:	8d 91       	ld	r24, X+
    28c2:	01 90       	ld	r0, Z+
    28c4:	80 19       	sub	r24, r0
    28c6:	19 f4       	brne	.+6      	; 0x28ce <strncmp+0x18>
    28c8:	00 20       	and	r0, r0
    28ca:	b9 f7       	brne	.-18     	; 0x28ba <strncmp+0x4>
    28cc:	88 1b       	sub	r24, r24
    28ce:	99 0b       	sbc	r25, r25
    28d0:	08 95       	ret

000028d2 <_exit>:
    28d2:	f8 94       	cli

000028d4 <__stop_program>:
    28d4:	ff cf       	rjmp	.-2      	; 0x28d4 <__stop_program>
