
at90virtualserial.elf:     file format elf32-avr

Sections:
Idx Name          Size      VMA       LMA       File off  Algn
  0 .data         0000001c  00800100  00000e46  00000eda  2**0
                  CONTENTS, ALLOC, LOAD, DATA
  1 .text         00000e46  00000000  00000000  00000094  2**1
                  CONTENTS, ALLOC, LOAD, READONLY, CODE
  2 .bss          0000001b  0080011c  0080011c  00000ef6  2**0
                  ALLOC
  3 .comment      00000030  00000000  00000000  00000ef6  2**0
                  CONTENTS, READONLY
  4 .note.gnu.avr.deviceinfo 00000040  00000000  00000000  00000f28  2**2
                  CONTENTS, READONLY
  5 .debug_info   00000b70  00000000  00000000  00000f68  2**0
                  CONTENTS, READONLY, DEBUGGING
  6 .debug_abbrev 00000ad2  00000000  00000000  00001ad8  2**0
                  CONTENTS, READONLY, DEBUGGING
  7 .debug_line   0000017c  00000000  00000000  000025aa  2**0
                  CONTENTS, READONLY, DEBUGGING
  8 .debug_str    000003f7  00000000  00000000  00002726  2**0
                  CONTENTS, READONLY, DEBUGGING

Disassembly of section .text:

00000000 <__vectors>:
   0:	91 c0       	rjmp	.+290    	; 0x124 <__ctors_end>
   2:	00 00       	nop
   4:	ac c0       	rjmp	.+344    	; 0x15e <__bad_interrupt>
   6:	00 00       	nop
   8:	aa c0       	rjmp	.+340    	; 0x15e <__bad_interrupt>
   a:	00 00       	nop
   c:	a8 c0       	rjmp	.+336    	; 0x15e <__bad_interrupt>
   e:	00 00       	nop
  10:	a6 c0       	rjmp	.+332    	; 0x15e <__bad_interrupt>
  12:	00 00       	nop
  14:	a4 c0       	rjmp	.+328    	; 0x15e <__bad_interrupt>
  16:	00 00       	nop
  18:	a2 c0       	rjmp	.+324    	; 0x15e <__bad_interrupt>
  1a:	00 00       	nop
  1c:	a0 c0       	rjmp	.+320    	; 0x15e <__bad_interrupt>
  1e:	00 00       	nop
  20:	9e c0       	rjmp	.+316    	; 0x15e <__bad_interrupt>
  22:	00 00       	nop
  24:	9c c0       	rjmp	.+312    	; 0x15e <__bad_interrupt>
  26:	00 00       	nop
  28:	4a c4       	rjmp	.+2196   	; 0x8be <__vector_10>
  2a:	00 00       	nop
  2c:	17 c5       	rjmp	.+2606   	; 0xa5c <__vector_11>
  2e:	00 00       	nop
  30:	96 c0       	rjmp	.+300    	; 0x15e <__bad_interrupt>
  32:	00 00       	nop
  34:	94 c0       	rjmp	.+296    	; 0x15e <__bad_interrupt>
  36:	00 00       	nop
  38:	92 c0       	rjmp	.+292    	; 0x15e <__bad_interrupt>
  3a:	00 00       	nop
  3c:	90 c0       	rjmp	.+288    	; 0x15e <__bad_interrupt>
  3e:	00 00       	nop
  40:	8e c0       	rjmp	.+284    	; 0x15e <__bad_interrupt>
  42:	00 00       	nop
  44:	8c c0       	rjmp	.+280    	; 0x15e <__bad_interrupt>
  46:	00 00       	nop
  48:	8a c0       	rjmp	.+276    	; 0x15e <__bad_interrupt>
  4a:	00 00       	nop
  4c:	88 c0       	rjmp	.+272    	; 0x15e <__bad_interrupt>
  4e:	00 00       	nop
  50:	86 c0       	rjmp	.+268    	; 0x15e <__bad_interrupt>
  52:	00 00       	nop
  54:	84 c0       	rjmp	.+264    	; 0x15e <__bad_interrupt>
  56:	00 00       	nop
  58:	82 c0       	rjmp	.+260    	; 0x15e <__bad_interrupt>
  5a:	00 00       	nop
  5c:	80 c0       	rjmp	.+256    	; 0x15e <__bad_interrupt>
  5e:	00 00       	nop
  60:	7e c0       	rjmp	.+252    	; 0x15e <__bad_interrupt>
  62:	00 00       	nop
  64:	7c c0       	rjmp	.+248    	; 0x15e <__bad_interrupt>
  66:	00 00       	nop
  68:	7a c0       	rjmp	.+244    	; 0x15e <__bad_interrupt>
  6a:	00 00       	nop
  6c:	78 c0       	rjmp	.+240    	; 0x15e <__bad_interrupt>
  6e:	00 00       	nop
  70:	76 c0       	rjmp	.+236    	; 0x15e <__bad_interrupt>
  72:	00 00       	nop
  74:	74 c0       	rjmp	.+232    	; 0x15e <__bad_interrupt>
  76:	00 00       	nop
  78:	72 c0       	rjmp	.+228    	; 0x15e <__bad_interrupt>
  7a:	00 00       	nop
  7c:	70 c0       	rjmp	.+224    	; 0x15e <__bad_interrupt>
  7e:	00 00       	nop
  80:	6e c0       	rjmp	.+220    	; 0x15e <__bad_interrupt>
  82:	00 00       	nop
  84:	6c c0       	rjmp	.+216    	; 0x15e <__bad_interrupt>
  86:	00 00       	nop
  88:	6a c0       	rjmp	.+212    	; 0x15e <__bad_interrupt>
  8a:	00 00       	nop
  8c:	68 c0       	rjmp	.+208    	; 0x15e <__bad_interrupt>
  8e:	00 00       	nop
  90:	66 c0       	rjmp	.+204    	; 0x15e <__bad_interrupt>
  92:	00 00       	nop
  94:	64 c0       	rjmp	.+200    	; 0x15e <__bad_interrupt>
	...

00000098 <ProductString>:
  98:	1c 03 4c 00 55 00 46 00 41 00 20 00 43 00 44 00     ..L.U.F.A. .C.D.
  a8:	43 00 20 00 44 00 65 00 6d 00 6f 00 00 00           C. .D.e.m.o...

000000b6 <ManufacturerString>:
  b6:	18 03 44 00 65 00 61 00 6e 00 20 00 43 00 61 00     ..D.e.a.n. .C.a.
  c6:	6d 00 65 00 72 00 61 00 00 00                       m.e.r.a...

000000d0 <LanguageString>:
  d0:	04 03 09 04                                         ....

000000d4 <ConfigurationDescriptor>:
  d4:	09 02 3e 00 02 01 00 c0 32 09 04 00 00 01 02 02     ..>.....2.......
  e4:	01 00 05 24 00 10 01 04 24 02 06 05 24 06 00 01     ...$....$...$...
  f4:	07 05 82 03 08 00 ff 09 04 01 00 02 0a 00 00 00     ................
 104:	07 05 04 02 10 00 05 07 05 83 02 10 00 05           ..............

00000112 <DeviceDescriptor>:
 112:	12 01 10 01 02 00 00 08 69 69 51 55 01 00 01 02     ........iiQU....
 122:	dc 01                                               ..

00000124 <__ctors_end>:
 124:	11 24       	eor	r1, r1
 126:	1f be       	out	0x3f, r1	; 63
 128:	cf ef       	ldi	r28, 0xFF	; 255
 12a:	d0 e2       	ldi	r29, 0x20	; 32
 12c:	de bf       	out	0x3e, r29	; 62
 12e:	cd bf       	out	0x3d, r28	; 61

00000130 <__do_copy_data>:
 130:	11 e0       	ldi	r17, 0x01	; 1
 132:	a0 e0       	ldi	r26, 0x00	; 0
 134:	b1 e0       	ldi	r27, 0x01	; 1
 136:	e6 e4       	ldi	r30, 0x46	; 70
 138:	fe e0       	ldi	r31, 0x0E	; 14
 13a:	00 e0       	ldi	r16, 0x00	; 0
 13c:	0b bf       	out	0x3b, r16	; 59
 13e:	02 c0       	rjmp	.+4      	; 0x144 <__do_copy_data+0x14>
 140:	07 90       	elpm	r0, Z+
 142:	0d 92       	st	X+, r0
 144:	ac 31       	cpi	r26, 0x1C	; 28
 146:	b1 07       	cpc	r27, r17
 148:	d9 f7       	brne	.-10     	; 0x140 <__do_copy_data+0x10>

0000014a <__do_clear_bss>:
 14a:	21 e0       	ldi	r18, 0x01	; 1
 14c:	ac e1       	ldi	r26, 0x1C	; 28
 14e:	b1 e0       	ldi	r27, 0x01	; 1
 150:	01 c0       	rjmp	.+2      	; 0x154 <.do_clear_bss_start>

00000152 <.do_clear_bss_loop>:
 152:	1d 92       	st	X+, r1

00000154 <.do_clear_bss_start>:
 154:	a7 33       	cpi	r26, 0x37	; 55
 156:	b2 07       	cpc	r27, r18
 158:	e1 f7       	brne	.-8      	; 0x152 <.do_clear_bss_loop>
 15a:	5b d6       	rcall	.+3254   	; 0xe12 <main>
 15c:	72 c6       	rjmp	.+3300   	; 0xe42 <_exit>

0000015e <__bad_interrupt>:
 15e:	50 cf       	rjmp	.-352    	; 0x0 <__vectors>

00000160 <CALLBACK_USB_GetDescriptor>:
 160:	29 2f       	mov	r18, r25
 162:	33 27       	eor	r19, r19
 164:	22 30       	cpi	r18, 0x02	; 2
 166:	31 05       	cpc	r19, r1
 168:	59 f0       	breq	.+22     	; 0x180 <CALLBACK_USB_GetDescriptor+0x20>
 16a:	23 30       	cpi	r18, 0x03	; 3
 16c:	31 05       	cpc	r19, r1
 16e:	69 f0       	breq	.+26     	; 0x18a <CALLBACK_USB_GetDescriptor+0x2a>
 170:	21 30       	cpi	r18, 0x01	; 1
 172:	31 05       	cpc	r19, r1
 174:	e9 f4       	brne	.+58     	; 0x1b0 <CALLBACK_USB_GetDescriptor+0x50>
 176:	82 e1       	ldi	r24, 0x12	; 18
 178:	90 e0       	ldi	r25, 0x00	; 0
 17a:	22 e1       	ldi	r18, 0x12	; 18
 17c:	31 e0       	ldi	r19, 0x01	; 1
 17e:	1c c0       	rjmp	.+56     	; 0x1b8 <CALLBACK_USB_GetDescriptor+0x58>
 180:	8e e3       	ldi	r24, 0x3E	; 62
 182:	90 e0       	ldi	r25, 0x00	; 0
 184:	24 ed       	ldi	r18, 0xD4	; 212
 186:	30 e0       	ldi	r19, 0x00	; 0
 188:	17 c0       	rjmp	.+46     	; 0x1b8 <CALLBACK_USB_GetDescriptor+0x58>
 18a:	99 27       	eor	r25, r25
 18c:	81 30       	cpi	r24, 0x01	; 1
 18e:	91 05       	cpc	r25, r1
 190:	49 f0       	breq	.+18     	; 0x1a4 <CALLBACK_USB_GetDescriptor+0x44>
 192:	28 f0       	brcs	.+10     	; 0x19e <CALLBACK_USB_GetDescriptor+0x3e>
 194:	02 97       	sbiw	r24, 0x02	; 2
 196:	61 f4       	brne	.+24     	; 0x1b0 <CALLBACK_USB_GetDescriptor+0x50>
 198:	e8 e9       	ldi	r30, 0x98	; 152
 19a:	f0 e0       	ldi	r31, 0x00	; 0
 19c:	05 c0       	rjmp	.+10     	; 0x1a8 <CALLBACK_USB_GetDescriptor+0x48>
 19e:	e0 ed       	ldi	r30, 0xD0	; 208
 1a0:	f0 e0       	ldi	r31, 0x00	; 0
 1a2:	02 c0       	rjmp	.+4      	; 0x1a8 <CALLBACK_USB_GetDescriptor+0x48>
 1a4:	e6 eb       	ldi	r30, 0xB6	; 182
 1a6:	f0 e0       	ldi	r31, 0x00	; 0
 1a8:	84 91       	lpm	r24, Z
 1aa:	90 e0       	ldi	r25, 0x00	; 0
 1ac:	9f 01       	movw	r18, r30
 1ae:	04 c0       	rjmp	.+8      	; 0x1b8 <CALLBACK_USB_GetDescriptor+0x58>
 1b0:	80 e0       	ldi	r24, 0x00	; 0
 1b2:	90 e0       	ldi	r25, 0x00	; 0
 1b4:	20 e0       	ldi	r18, 0x00	; 0
 1b6:	30 e0       	ldi	r19, 0x00	; 0
 1b8:	fa 01       	movw	r30, r20
 1ba:	31 83       	std	Z+1, r19	; 0x01
 1bc:	20 83       	st	Z, r18
 1be:	08 95       	ret

000001c0 <CDC_Device_ConfigureEndpoints>:
 1c0:	cf 93       	push	r28
 1c2:	df 93       	push	r29
 1c4:	ec 01       	movw	r28, r24
 1c6:	fc 01       	movw	r30, r24
 1c8:	70 96       	adiw	r30, 0x10	; 16
 1ca:	8b e0       	ldi	r24, 0x0B	; 11
 1cc:	df 01       	movw	r26, r30
 1ce:	1d 92       	st	X+, r1
 1d0:	8a 95       	dec	r24
 1d2:	e9 f7       	brne	.-6      	; 0x1ce <CDC_Device_ConfigureEndpoints+0xe>
 1d4:	82 e0       	ldi	r24, 0x02	; 2
 1d6:	8c 83       	std	Y+4, r24	; 0x04
 1d8:	89 87       	std	Y+9, r24	; 0x09
 1da:	83 e0       	ldi	r24, 0x03	; 3
 1dc:	8e 87       	std	Y+14, r24	; 0x0e
 1de:	61 e0       	ldi	r22, 0x01	; 1
 1e0:	ce 01       	movw	r24, r28
 1e2:	01 96       	adiw	r24, 0x01	; 1
 1e4:	7d d2       	rcall	.+1274   	; 0x6e0 <Endpoint_ConfigureEndpointTable>
 1e6:	88 23       	and	r24, r24
 1e8:	61 f0       	breq	.+24     	; 0x202 <CDC_Device_ConfigureEndpoints+0x42>
 1ea:	61 e0       	ldi	r22, 0x01	; 1
 1ec:	ce 01       	movw	r24, r28
 1ee:	06 96       	adiw	r24, 0x06	; 6
 1f0:	77 d2       	rcall	.+1262   	; 0x6e0 <Endpoint_ConfigureEndpointTable>
 1f2:	88 23       	and	r24, r24
 1f4:	31 f0       	breq	.+12     	; 0x202 <CDC_Device_ConfigureEndpoints+0x42>
 1f6:	61 e0       	ldi	r22, 0x01	; 1
 1f8:	ce 01       	movw	r24, r28
 1fa:	0b 96       	adiw	r24, 0x0b	; 11
 1fc:	df 91       	pop	r29
 1fe:	cf 91       	pop	r28
 200:	6f c2       	rjmp	.+1246   	; 0x6e0 <Endpoint_ConfigureEndpointTable>
 202:	80 e0       	ldi	r24, 0x00	; 0
 204:	df 91       	pop	r29
 206:	cf 91       	pop	r28
 208:	08 95       	ret

0000020a <CDC_Device_SendByte>:
 20a:	0f 93       	push	r16
 20c:	1f 93       	push	r17
 20e:	cf 93       	push	r28
 210:	20 91 2e 01 	lds	r18, 0x012E	; 0x80012e <USB_DeviceState>
 214:	24 30       	cpi	r18, 0x04	; 4
 216:	f9 f4       	brne	.+62     	; 0x256 <CDC_Device_SendByte+0x4c>
 218:	fc 01       	movw	r30, r24
 21a:	04 89       	ldd	r16, Z+20	; 0x14
 21c:	15 89       	ldd	r17, Z+21	; 0x15
 21e:	26 89       	ldd	r18, Z+22	; 0x16
 220:	37 89       	ldd	r19, Z+23	; 0x17
 222:	01 2b       	or	r16, r17
 224:	02 2b       	or	r16, r18
 226:	03 2b       	or	r16, r19
 228:	b1 f0       	breq	.+44     	; 0x256 <CDC_Device_SendByte+0x4c>
 22a:	c6 2f       	mov	r28, r22
 22c:	81 81       	ldd	r24, Z+1	; 0x01
 22e:	8f 70       	andi	r24, 0x0F	; 15
 230:	80 93 e9 00 	sts	0x00E9, r24	; 0x8000e9 <__TEXT_REGION_LENGTH__+0x7e00e9>
 234:	80 91 e8 00 	lds	r24, 0x00E8	; 0x8000e8 <__TEXT_REGION_LENGTH__+0x7e00e8>
 238:	85 ff       	sbrs	r24, 5
 23a:	04 c0       	rjmp	.+8      	; 0x244 <CDC_Device_SendByte+0x3a>
 23c:	c0 93 f1 00 	sts	0x00F1, r28	; 0x8000f1 <__TEXT_REGION_LENGTH__+0x7e00f1>
 240:	80 e0       	ldi	r24, 0x00	; 0
 242:	0a c0       	rjmp	.+20     	; 0x258 <CDC_Device_SendByte+0x4e>
 244:	80 91 e8 00 	lds	r24, 0x00E8	; 0x8000e8 <__TEXT_REGION_LENGTH__+0x7e00e8>
 248:	8e 77       	andi	r24, 0x7E	; 126
 24a:	80 93 e8 00 	sts	0x00E8, r24	; 0x8000e8 <__TEXT_REGION_LENGTH__+0x7e00e8>
 24e:	a4 d2       	rcall	.+1352   	; 0x798 <Endpoint_WaitUntilReady>
 250:	88 23       	and	r24, r24
 252:	a1 f3       	breq	.-24     	; 0x23c <CDC_Device_SendByte+0x32>
 254:	01 c0       	rjmp	.+2      	; 0x258 <CDC_Device_SendByte+0x4e>
 256:	82 e0       	ldi	r24, 0x02	; 2
 258:	cf 91       	pop	r28
 25a:	1f 91       	pop	r17
 25c:	0f 91       	pop	r16
 25e:	08 95       	ret

00000260 <CDC_Device_putchar>:
 260:	fb 01       	movw	r30, r22
 262:	68 2f       	mov	r22, r24
 264:	84 85       	ldd	r24, Z+12	; 0x0c
 266:	95 85       	ldd	r25, Z+13	; 0x0d
 268:	d0 df       	rcall	.-96     	; 0x20a <CDC_Device_SendByte>
 26a:	21 e0       	ldi	r18, 0x01	; 1
 26c:	30 e0       	ldi	r19, 0x00	; 0
 26e:	81 11       	cpse	r24, r1
 270:	02 c0       	rjmp	.+4      	; 0x276 <CDC_Device_putchar+0x16>
 272:	20 e0       	ldi	r18, 0x00	; 0
 274:	30 e0       	ldi	r19, 0x00	; 0
 276:	88 27       	eor	r24, r24
 278:	99 27       	eor	r25, r25
 27a:	82 1b       	sub	r24, r18
 27c:	93 0b       	sbc	r25, r19
 27e:	08 95       	ret

00000280 <CDC_Device_Flush>:
 280:	20 91 2e 01 	lds	r18, 0x012E	; 0x80012e <USB_DeviceState>
 284:	24 30       	cpi	r18, 0x04	; 4
 286:	31 f5       	brne	.+76     	; 0x2d4 <CDC_Device_Flush+0x54>
 288:	fc 01       	movw	r30, r24
 28a:	44 89       	ldd	r20, Z+20	; 0x14
 28c:	55 89       	ldd	r21, Z+21	; 0x15
 28e:	66 89       	ldd	r22, Z+22	; 0x16
 290:	77 89       	ldd	r23, Z+23	; 0x17
 292:	45 2b       	or	r20, r21
 294:	46 2b       	or	r20, r22
 296:	47 2b       	or	r20, r23
 298:	e9 f0       	breq	.+58     	; 0x2d4 <CDC_Device_Flush+0x54>
 29a:	81 81       	ldd	r24, Z+1	; 0x01
 29c:	8f 70       	andi	r24, 0x0F	; 15
 29e:	80 93 e9 00 	sts	0x00E9, r24	; 0x8000e9 <__TEXT_REGION_LENGTH__+0x7e00e9>
 2a2:	80 91 f2 00 	lds	r24, 0x00F2	; 0x8000f2 <__TEXT_REGION_LENGTH__+0x7e00f2>
 2a6:	90 91 f3 00 	lds	r25, 0x00F3	; 0x8000f3 <__TEXT_REGION_LENGTH__+0x7e00f3>
 2aa:	89 2b       	or	r24, r25
 2ac:	89 f0       	breq	.+34     	; 0x2d0 <CDC_Device_Flush+0x50>
 2ae:	90 91 e8 00 	lds	r25, 0x00E8	; 0x8000e8 <__TEXT_REGION_LENGTH__+0x7e00e8>
 2b2:	80 91 e8 00 	lds	r24, 0x00E8	; 0x8000e8 <__TEXT_REGION_LENGTH__+0x7e00e8>
 2b6:	8e 77       	andi	r24, 0x7E	; 126
 2b8:	80 93 e8 00 	sts	0x00E8, r24	; 0x8000e8 <__TEXT_REGION_LENGTH__+0x7e00e8>
 2bc:	95 fd       	sbrc	r25, 5
 2be:	08 c0       	rjmp	.+16     	; 0x2d0 <CDC_Device_Flush+0x50>
 2c0:	6b d2       	rcall	.+1238   	; 0x798 <Endpoint_WaitUntilReady>
 2c2:	81 11       	cpse	r24, r1
 2c4:	08 c0       	rjmp	.+16     	; 0x2d6 <CDC_Device_Flush+0x56>
 2c6:	80 91 e8 00 	lds	r24, 0x00E8	; 0x8000e8 <__TEXT_REGION_LENGTH__+0x7e00e8>
 2ca:	8e 77       	andi	r24, 0x7E	; 126
 2cc:	80 93 e8 00 	sts	0x00E8, r24	; 0x8000e8 <__TEXT_REGION_LENGTH__+0x7e00e8>
 2d0:	80 e0       	ldi	r24, 0x00	; 0
 2d2:	08 95       	ret
 2d4:	82 e0       	ldi	r24, 0x02	; 2
 2d6:	08 95       	ret

000002d8 <CDC_Device_USBTask>:
 2d8:	20 91 2e 01 	lds	r18, 0x012E	; 0x80012e <USB_DeviceState>
 2dc:	24 30       	cpi	r18, 0x04	; 4
 2de:	89 f4       	brne	.+34     	; 0x302 <CDC_Device_USBTask+0x2a>
 2e0:	fc 01       	movw	r30, r24
 2e2:	44 89       	ldd	r20, Z+20	; 0x14
 2e4:	55 89       	ldd	r21, Z+21	; 0x15
 2e6:	66 89       	ldd	r22, Z+22	; 0x16
 2e8:	77 89       	ldd	r23, Z+23	; 0x17
 2ea:	45 2b       	or	r20, r21
 2ec:	46 2b       	or	r20, r22
 2ee:	47 2b       	or	r20, r23
 2f0:	41 f0       	breq	.+16     	; 0x302 <CDC_Device_USBTask+0x2a>
 2f2:	21 81       	ldd	r18, Z+1	; 0x01
 2f4:	2f 70       	andi	r18, 0x0F	; 15
 2f6:	20 93 e9 00 	sts	0x00E9, r18	; 0x8000e9 <__TEXT_REGION_LENGTH__+0x7e00e9>
 2fa:	20 91 e8 00 	lds	r18, 0x00E8	; 0x8000e8 <__TEXT_REGION_LENGTH__+0x7e00e8>
 2fe:	20 fd       	sbrc	r18, 0
 300:	bf cf       	rjmp	.-130    	; 0x280 <CDC_Device_Flush>
 302:	08 95       	ret

00000304 <CDC_Device_ReceiveByte>:
 304:	20 91 2e 01 	lds	r18, 0x012E	; 0x80012e <USB_DeviceState>
 308:	24 30       	cpi	r18, 0x04	; 4
 30a:	19 f0       	breq	.+6      	; 0x312 <CDC_Device_ReceiveByte+0xe>
 30c:	8f ef       	ldi	r24, 0xFF	; 255
 30e:	9f ef       	ldi	r25, 0xFF	; 255
 310:	08 95       	ret
 312:	fc 01       	movw	r30, r24
 314:	44 89       	ldd	r20, Z+20	; 0x14
 316:	55 89       	ldd	r21, Z+21	; 0x15
 318:	66 89       	ldd	r22, Z+22	; 0x16
 31a:	77 89       	ldd	r23, Z+23	; 0x17
 31c:	45 2b       	or	r20, r21
 31e:	46 2b       	or	r20, r22
 320:	47 2b       	or	r20, r23
 322:	a1 f3       	breq	.-24     	; 0x30c <CDC_Device_ReceiveByte+0x8>
 324:	86 81       	ldd	r24, Z+6	; 0x06
 326:	8f 70       	andi	r24, 0x0F	; 15
 328:	80 93 e9 00 	sts	0x00E9, r24	; 0x8000e9 <__TEXT_REGION_LENGTH__+0x7e00e9>
 32c:	80 91 e8 00 	lds	r24, 0x00E8	; 0x8000e8 <__TEXT_REGION_LENGTH__+0x7e00e8>
 330:	82 ff       	sbrs	r24, 2
 332:	ec cf       	rjmp	.-40     	; 0x30c <CDC_Device_ReceiveByte+0x8>
 334:	80 91 f2 00 	lds	r24, 0x00F2	; 0x8000f2 <__TEXT_REGION_LENGTH__+0x7e00f2>
 338:	90 91 f3 00 	lds	r25, 0x00F3	; 0x8000f3 <__TEXT_REGION_LENGTH__+0x7e00f3>
 33c:	89 2b       	or	r24, r25
 33e:	21 f0       	breq	.+8      	; 0x348 <CDC_Device_ReceiveByte+0x44>
 340:	20 91 f1 00 	lds	r18, 0x00F1	; 0x8000f1 <__TEXT_REGION_LENGTH__+0x7e00f1>
 344:	30 e0       	ldi	r19, 0x00	; 0
 346:	02 c0       	rjmp	.+4      	; 0x34c <CDC_Device_ReceiveByte+0x48>
 348:	2f ef       	ldi	r18, 0xFF	; 255
 34a:	3f ef       	ldi	r19, 0xFF	; 255
 34c:	80 91 f2 00 	lds	r24, 0x00F2	; 0x8000f2 <__TEXT_REGION_LENGTH__+0x7e00f2>
 350:	90 91 f3 00 	lds	r25, 0x00F3	; 0x8000f3 <__TEXT_REGION_LENGTH__+0x7e00f3>
 354:	89 2b       	or	r24, r25
 356:	29 f4       	brne	.+10     	; 0x362 <CDC_Device_ReceiveByte+0x5e>
 358:	80 91 e8 00 	lds	r24, 0x00E8	; 0x8000e8 <__TEXT_REGION_LENGTH__+0x7e00e8>
 35c:	8b 77       	andi	r24, 0x7B	; 123
 35e:	80 93 e8 00 	sts	0x00E8, r24	; 0x8000e8 <__TEXT_REGION_LENGTH__+0x7e00e8>
 362:	c9 01       	movw	r24, r18
 364:	08 95       	ret

00000366 <CDC_Device_getchar>:
 366:	fc 01       	movw	r30, r24
 368:	84 85       	ldd	r24, Z+12	; 0x0c
 36a:	95 85       	ldd	r25, Z+13	; 0x0d
 36c:	cb df       	rcall	.-106    	; 0x304 <CDC_Device_ReceiveByte>
 36e:	97 ff       	sbrs	r25, 7
 370:	02 c0       	rjmp	.+4      	; 0x376 <CDC_Device_getchar+0x10>
 372:	8e ef       	ldi	r24, 0xFE	; 254
 374:	9f ef       	ldi	r25, 0xFF	; 255
 376:	08 95       	ret

00000378 <CDC_Device_CreateStream>:
 378:	fb 01       	movw	r30, r22
 37a:	2e e0       	ldi	r18, 0x0E	; 14
 37c:	db 01       	movw	r26, r22
 37e:	1d 92       	st	X+, r1
 380:	2a 95       	dec	r18
 382:	e9 f7       	brne	.-6      	; 0x37e <CDC_Device_CreateStream+0x6>
 384:	23 e0       	ldi	r18, 0x03	; 3
 386:	23 83       	std	Z+3, r18	; 0x03
 388:	20 e3       	ldi	r18, 0x30	; 48
 38a:	31 e0       	ldi	r19, 0x01	; 1
 38c:	31 87       	std	Z+9, r19	; 0x09
 38e:	20 87       	std	Z+8, r18	; 0x08
 390:	23 eb       	ldi	r18, 0xB3	; 179
 392:	31 e0       	ldi	r19, 0x01	; 1
 394:	33 87       	std	Z+11, r19	; 0x0b
 396:	22 87       	std	Z+10, r18	; 0x0a
 398:	95 87       	std	Z+13, r25	; 0x0d
 39a:	84 87       	std	Z+12, r24	; 0x0c
 39c:	08 95       	ret

0000039e <CDC_Device_Event_Stub>:
 39e:	08 95       	ret

000003a0 <CDC_Device_ProcessControlRequest>:
 3a0:	cf 93       	push	r28
 3a2:	df 93       	push	r29
 3a4:	ec 01       	movw	r28, r24
 3a6:	80 91 e8 00 	lds	r24, 0x00E8	; 0x8000e8 <__TEXT_REGION_LENGTH__+0x7e00e8>
 3aa:	83 ff       	sbrs	r24, 3
 3ac:	a6 c0       	rjmp	.+332    	; 0x4fa <__LOCK_REGION_LENGTH__+0xfa>
 3ae:	88 81       	ld	r24, Y
 3b0:	90 e0       	ldi	r25, 0x00	; 0
 3b2:	20 91 33 01 	lds	r18, 0x0133	; 0x800133 <USB_ControlRequest+0x4>
 3b6:	30 91 34 01 	lds	r19, 0x0134	; 0x800134 <USB_ControlRequest+0x5>
 3ba:	28 17       	cp	r18, r24
 3bc:	39 07       	cpc	r19, r25
 3be:	09 f0       	breq	.+2      	; 0x3c2 <CDC_Device_ProcessControlRequest+0x22>
 3c0:	9c c0       	rjmp	.+312    	; 0x4fa <__LOCK_REGION_LENGTH__+0xfa>
 3c2:	80 91 30 01 	lds	r24, 0x0130	; 0x800130 <USB_ControlRequest+0x1>
 3c6:	81 32       	cpi	r24, 0x21	; 33
 3c8:	61 f0       	breq	.+24     	; 0x3e2 <CDC_Device_ProcessControlRequest+0x42>
 3ca:	20 f4       	brcc	.+8      	; 0x3d4 <CDC_Device_ProcessControlRequest+0x34>
 3cc:	80 32       	cpi	r24, 0x20	; 32
 3ce:	09 f4       	brne	.+2      	; 0x3d2 <CDC_Device_ProcessControlRequest+0x32>
 3d0:	3e c0       	rjmp	.+124    	; 0x44e <__LOCK_REGION_LENGTH__+0x4e>
 3d2:	93 c0       	rjmp	.+294    	; 0x4fa <__LOCK_REGION_LENGTH__+0xfa>
 3d4:	82 32       	cpi	r24, 0x22	; 34
 3d6:	09 f4       	brne	.+2      	; 0x3da <CDC_Device_ProcessControlRequest+0x3a>
 3d8:	6c c0       	rjmp	.+216    	; 0x4b2 <__LOCK_REGION_LENGTH__+0xb2>
 3da:	83 32       	cpi	r24, 0x23	; 35
 3dc:	09 f4       	brne	.+2      	; 0x3e0 <CDC_Device_ProcessControlRequest+0x40>
 3de:	7d c0       	rjmp	.+250    	; 0x4da <__LOCK_REGION_LENGTH__+0xda>
 3e0:	8c c0       	rjmp	.+280    	; 0x4fa <__LOCK_REGION_LENGTH__+0xfa>
 3e2:	80 91 2f 01 	lds	r24, 0x012F	; 0x80012f <USB_ControlRequest>
 3e6:	81 3a       	cpi	r24, 0xA1	; 161
 3e8:	09 f0       	breq	.+2      	; 0x3ec <CDC_Device_ProcessControlRequest+0x4c>
 3ea:	87 c0       	rjmp	.+270    	; 0x4fa <__LOCK_REGION_LENGTH__+0xfa>
 3ec:	80 91 e8 00 	lds	r24, 0x00E8	; 0x8000e8 <__TEXT_REGION_LENGTH__+0x7e00e8>
 3f0:	87 7f       	andi	r24, 0xF7	; 247
 3f2:	80 93 e8 00 	sts	0x00E8, r24	; 0x8000e8 <__TEXT_REGION_LENGTH__+0x7e00e8>
 3f6:	80 91 e8 00 	lds	r24, 0x00E8	; 0x8000e8 <__TEXT_REGION_LENGTH__+0x7e00e8>
 3fa:	80 ff       	sbrs	r24, 0
 3fc:	fc cf       	rjmp	.-8      	; 0x3f6 <CDC_Device_ProcessControlRequest+0x56>
 3fe:	8c 89       	ldd	r24, Y+20	; 0x14
 400:	9d 89       	ldd	r25, Y+21	; 0x15
 402:	ae 89       	ldd	r26, Y+22	; 0x16
 404:	bf 89       	ldd	r27, Y+23	; 0x17
 406:	80 93 f1 00 	sts	0x00F1, r24	; 0x8000f1 <__TEXT_REGION_LENGTH__+0x7e00f1>
 40a:	49 2f       	mov	r20, r25
 40c:	5a 2f       	mov	r21, r26
 40e:	6b 2f       	mov	r22, r27
 410:	77 27       	eor	r23, r23
 412:	40 93 f1 00 	sts	0x00F1, r20	; 0x8000f1 <__TEXT_REGION_LENGTH__+0x7e00f1>
 416:	ad 01       	movw	r20, r26
 418:	66 27       	eor	r22, r22
 41a:	77 27       	eor	r23, r23
 41c:	40 93 f1 00 	sts	0x00F1, r20	; 0x8000f1 <__TEXT_REGION_LENGTH__+0x7e00f1>
 420:	8b 2f       	mov	r24, r27
 422:	99 27       	eor	r25, r25
 424:	aa 27       	eor	r26, r26
 426:	bb 27       	eor	r27, r27
 428:	80 93 f1 00 	sts	0x00F1, r24	; 0x8000f1 <__TEXT_REGION_LENGTH__+0x7e00f1>
 42c:	88 8d       	ldd	r24, Y+24	; 0x18
 42e:	80 93 f1 00 	sts	0x00F1, r24	; 0x8000f1 <__TEXT_REGION_LENGTH__+0x7e00f1>
 432:	89 8d       	ldd	r24, Y+25	; 0x19
 434:	80 93 f1 00 	sts	0x00F1, r24	; 0x8000f1 <__TEXT_REGION_LENGTH__+0x7e00f1>
 438:	8a 8d       	ldd	r24, Y+26	; 0x1a
 43a:	80 93 f1 00 	sts	0x00F1, r24	; 0x8000f1 <__TEXT_REGION_LENGTH__+0x7e00f1>
 43e:	80 91 e8 00 	lds	r24, 0x00E8	; 0x8000e8 <__TEXT_REGION_LENGTH__+0x7e00e8>
 442:	8e 77       	andi	r24, 0x7E	; 126
 444:	80 93 e8 00 	sts	0x00E8, r24	; 0x8000e8 <__TEXT_REGION_LENGTH__+0x7e00e8>
 448:	df 91       	pop	r29
 44a:	cf 91       	pop	r28
 44c:	86 c1       	rjmp	.+780    	; 0x75a <Endpoint_ClearStatusStage>
 44e:	80 91 2f 01 	lds	r24, 0x012F	; 0x80012f <USB_ControlRequest>
 452:	81 32       	cpi	r24, 0x21	; 33
 454:	09 f0       	breq	.+2      	; 0x458 <__LOCK_REGION_LENGTH__+0x58>
 456:	51 c0       	rjmp	.+162    	; 0x4fa <__LOCK_REGION_LENGTH__+0xfa>
 458:	80 91 e8 00 	lds	r24, 0x00E8	; 0x8000e8 <__TEXT_REGION_LENGTH__+0x7e00e8>
 45c:	87 7f       	andi	r24, 0xF7	; 247
 45e:	80 93 e8 00 	sts	0x00E8, r24	; 0x8000e8 <__TEXT_REGION_LENGTH__+0x7e00e8>
 462:	80 91 e8 00 	lds	r24, 0x00E8	; 0x8000e8 <__TEXT_REGION_LENGTH__+0x7e00e8>
 466:	82 fd       	sbrc	r24, 2
 468:	05 c0       	rjmp	.+10     	; 0x474 <__LOCK_REGION_LENGTH__+0x74>
 46a:	80 91 2e 01 	lds	r24, 0x012E	; 0x80012e <USB_DeviceState>
 46e:	81 11       	cpse	r24, r1
 470:	f8 cf       	rjmp	.-16     	; 0x462 <__LOCK_REGION_LENGTH__+0x62>
 472:	43 c0       	rjmp	.+134    	; 0x4fa <__LOCK_REGION_LENGTH__+0xfa>
 474:	30 91 f1 00 	lds	r19, 0x00F1	; 0x8000f1 <__TEXT_REGION_LENGTH__+0x7e00f1>
 478:	20 91 f1 00 	lds	r18, 0x00F1	; 0x8000f1 <__TEXT_REGION_LENGTH__+0x7e00f1>
 47c:	90 91 f1 00 	lds	r25, 0x00F1	; 0x8000f1 <__TEXT_REGION_LENGTH__+0x7e00f1>
 480:	80 91 f1 00 	lds	r24, 0x00F1	; 0x8000f1 <__TEXT_REGION_LENGTH__+0x7e00f1>
 484:	3c 8b       	std	Y+20, r19	; 0x14
 486:	2d 8b       	std	Y+21, r18	; 0x15
 488:	9e 8b       	std	Y+22, r25	; 0x16
 48a:	8f 8b       	std	Y+23, r24	; 0x17
 48c:	80 91 f1 00 	lds	r24, 0x00F1	; 0x8000f1 <__TEXT_REGION_LENGTH__+0x7e00f1>
 490:	88 8f       	std	Y+24, r24	; 0x18
 492:	80 91 f1 00 	lds	r24, 0x00F1	; 0x8000f1 <__TEXT_REGION_LENGTH__+0x7e00f1>
 496:	89 8f       	std	Y+25, r24	; 0x19
 498:	80 91 f1 00 	lds	r24, 0x00F1	; 0x8000f1 <__TEXT_REGION_LENGTH__+0x7e00f1>
 49c:	8a 8f       	std	Y+26, r24	; 0x1a
 49e:	80 91 e8 00 	lds	r24, 0x00E8	; 0x8000e8 <__TEXT_REGION_LENGTH__+0x7e00e8>
 4a2:	8b 77       	andi	r24, 0x7B	; 123
 4a4:	80 93 e8 00 	sts	0x00E8, r24	; 0x8000e8 <__TEXT_REGION_LENGTH__+0x7e00e8>
 4a8:	58 d1       	rcall	.+688    	; 0x75a <Endpoint_ClearStatusStage>
 4aa:	ce 01       	movw	r24, r28
 4ac:	df 91       	pop	r29
 4ae:	cf 91       	pop	r28
 4b0:	76 cf       	rjmp	.-276    	; 0x39e <CDC_Device_Event_Stub>
 4b2:	80 91 2f 01 	lds	r24, 0x012F	; 0x80012f <USB_ControlRequest>
 4b6:	81 32       	cpi	r24, 0x21	; 33
 4b8:	01 f5       	brne	.+64     	; 0x4fa <__LOCK_REGION_LENGTH__+0xfa>
 4ba:	80 91 e8 00 	lds	r24, 0x00E8	; 0x8000e8 <__TEXT_REGION_LENGTH__+0x7e00e8>
 4be:	87 7f       	andi	r24, 0xF7	; 247
 4c0:	80 93 e8 00 	sts	0x00E8, r24	; 0x8000e8 <__TEXT_REGION_LENGTH__+0x7e00e8>
 4c4:	4a d1       	rcall	.+660    	; 0x75a <Endpoint_ClearStatusStage>
 4c6:	80 91 31 01 	lds	r24, 0x0131	; 0x800131 <USB_ControlRequest+0x2>
 4ca:	90 91 32 01 	lds	r25, 0x0132	; 0x800132 <USB_ControlRequest+0x3>
 4ce:	99 8b       	std	Y+17, r25	; 0x11
 4d0:	88 8b       	std	Y+16, r24	; 0x10
 4d2:	ce 01       	movw	r24, r28
 4d4:	df 91       	pop	r29
 4d6:	cf 91       	pop	r28
 4d8:	b3 c4       	rjmp	.+2406   	; 0xe40 <EVENT_CDC_Device_ControLineStateChanged>
 4da:	80 91 2f 01 	lds	r24, 0x012F	; 0x80012f <USB_ControlRequest>
 4de:	81 32       	cpi	r24, 0x21	; 33
 4e0:	61 f4       	brne	.+24     	; 0x4fa <__LOCK_REGION_LENGTH__+0xfa>
 4e2:	80 91 e8 00 	lds	r24, 0x00E8	; 0x8000e8 <__TEXT_REGION_LENGTH__+0x7e00e8>
 4e6:	87 7f       	andi	r24, 0xF7	; 247
 4e8:	80 93 e8 00 	sts	0x00E8, r24	; 0x8000e8 <__TEXT_REGION_LENGTH__+0x7e00e8>
 4ec:	36 d1       	rcall	.+620    	; 0x75a <Endpoint_ClearStatusStage>
 4ee:	60 91 31 01 	lds	r22, 0x0131	; 0x800131 <USB_ControlRequest+0x2>
 4f2:	ce 01       	movw	r24, r28
 4f4:	df 91       	pop	r29
 4f6:	cf 91       	pop	r28
 4f8:	52 cf       	rjmp	.-348    	; 0x39e <CDC_Device_Event_Stub>
 4fa:	df 91       	pop	r29
 4fc:	cf 91       	pop	r28
 4fe:	08 95       	ret

00000500 <Endpoint_Write_Control_Stream_LE>:
 500:	20 91 35 01 	lds	r18, 0x0135	; 0x800135 <USB_ControlRequest+0x6>
 504:	30 91 36 01 	lds	r19, 0x0136	; 0x800136 <USB_ControlRequest+0x7>
 508:	26 17       	cp	r18, r22
 50a:	37 07       	cpc	r19, r23
 50c:	48 f0       	brcs	.+18     	; 0x520 <Endpoint_Write_Control_Stream_LE+0x20>
 50e:	61 15       	cp	r22, r1
 510:	71 05       	cpc	r23, r1
 512:	39 f4       	brne	.+14     	; 0x522 <Endpoint_Write_Control_Stream_LE+0x22>
 514:	20 91 e8 00 	lds	r18, 0x00E8	; 0x8000e8 <__TEXT_REGION_LENGTH__+0x7e00e8>
 518:	2e 77       	andi	r18, 0x7E	; 126
 51a:	20 93 e8 00 	sts	0x00E8, r18	; 0x8000e8 <__TEXT_REGION_LENGTH__+0x7e00e8>
 51e:	01 c0       	rjmp	.+2      	; 0x522 <Endpoint_Write_Control_Stream_LE+0x22>
 520:	b9 01       	movw	r22, r18
 522:	fc 01       	movw	r30, r24
 524:	20 e0       	ldi	r18, 0x00	; 0
 526:	61 15       	cp	r22, r1
 528:	71 05       	cpc	r23, r1
 52a:	69 f1       	breq	.+90     	; 0x586 <Endpoint_Write_Control_Stream_LE+0x86>
 52c:	80 91 2e 01 	lds	r24, 0x012E	; 0x80012e <USB_DeviceState>
 530:	88 23       	and	r24, r24
 532:	e1 f1       	breq	.+120    	; 0x5ac <Endpoint_Write_Control_Stream_LE+0xac>
 534:	85 30       	cpi	r24, 0x05	; 5
 536:	e1 f1       	breq	.+120    	; 0x5b0 <Endpoint_Write_Control_Stream_LE+0xb0>
 538:	80 91 e8 00 	lds	r24, 0x00E8	; 0x8000e8 <__TEXT_REGION_LENGTH__+0x7e00e8>
 53c:	83 fd       	sbrc	r24, 3
 53e:	3a c0       	rjmp	.+116    	; 0x5b4 <Endpoint_Write_Control_Stream_LE+0xb4>
 540:	80 91 e8 00 	lds	r24, 0x00E8	; 0x8000e8 <__TEXT_REGION_LENGTH__+0x7e00e8>
 544:	82 fd       	sbrc	r24, 2
 546:	2c c0       	rjmp	.+88     	; 0x5a0 <Endpoint_Write_Control_Stream_LE+0xa0>
 548:	80 91 e8 00 	lds	r24, 0x00E8	; 0x8000e8 <__TEXT_REGION_LENGTH__+0x7e00e8>
 54c:	80 ff       	sbrs	r24, 0
 54e:	eb cf       	rjmp	.-42     	; 0x526 <Endpoint_Write_Control_Stream_LE+0x26>
 550:	80 91 f2 00 	lds	r24, 0x00F2	; 0x8000f2 <__TEXT_REGION_LENGTH__+0x7e00f2>
 554:	90 91 f3 00 	lds	r25, 0x00F3	; 0x8000f3 <__TEXT_REGION_LENGTH__+0x7e00f3>
 558:	61 15       	cp	r22, r1
 55a:	71 05       	cpc	r23, r1
 55c:	51 f0       	breq	.+20     	; 0x572 <Endpoint_Write_Control_Stream_LE+0x72>
 55e:	88 30       	cpi	r24, 0x08	; 8
 560:	91 05       	cpc	r25, r1
 562:	38 f4       	brcc	.+14     	; 0x572 <Endpoint_Write_Control_Stream_LE+0x72>
 564:	21 91       	ld	r18, Z+
 566:	20 93 f1 00 	sts	0x00F1, r18	; 0x8000f1 <__TEXT_REGION_LENGTH__+0x7e00f1>
 56a:	61 50       	subi	r22, 0x01	; 1
 56c:	71 09       	sbc	r23, r1
 56e:	01 96       	adiw	r24, 0x01	; 1
 570:	f3 cf       	rjmp	.-26     	; 0x558 <Endpoint_Write_Control_Stream_LE+0x58>
 572:	21 e0       	ldi	r18, 0x01	; 1
 574:	08 97       	sbiw	r24, 0x08	; 8
 576:	09 f0       	breq	.+2      	; 0x57a <Endpoint_Write_Control_Stream_LE+0x7a>
 578:	20 e0       	ldi	r18, 0x00	; 0
 57a:	80 91 e8 00 	lds	r24, 0x00E8	; 0x8000e8 <__TEXT_REGION_LENGTH__+0x7e00e8>
 57e:	8e 77       	andi	r24, 0x7E	; 126
 580:	80 93 e8 00 	sts	0x00E8, r24	; 0x8000e8 <__TEXT_REGION_LENGTH__+0x7e00e8>
 584:	d0 cf       	rjmp	.-96     	; 0x526 <Endpoint_Write_Control_Stream_LE+0x26>
 586:	21 11       	cpse	r18, r1
 588:	d1 cf       	rjmp	.-94     	; 0x52c <Endpoint_Write_Control_Stream_LE+0x2c>
 58a:	0a c0       	rjmp	.+20     	; 0x5a0 <Endpoint_Write_Control_Stream_LE+0xa0>
 58c:	80 91 2e 01 	lds	r24, 0x012E	; 0x80012e <USB_DeviceState>
 590:	88 23       	and	r24, r24
 592:	61 f0       	breq	.+24     	; 0x5ac <Endpoint_Write_Control_Stream_LE+0xac>
 594:	85 30       	cpi	r24, 0x05	; 5
 596:	61 f0       	breq	.+24     	; 0x5b0 <Endpoint_Write_Control_Stream_LE+0xb0>
 598:	80 91 e8 00 	lds	r24, 0x00E8	; 0x8000e8 <__TEXT_REGION_LENGTH__+0x7e00e8>
 59c:	83 fd       	sbrc	r24, 3
 59e:	0a c0       	rjmp	.+20     	; 0x5b4 <Endpoint_Write_Control_Stream_LE+0xb4>
 5a0:	80 91 e8 00 	lds	r24, 0x00E8	; 0x8000e8 <__TEXT_REGION_LENGTH__+0x7e00e8>
 5a4:	82 ff       	sbrs	r24, 2
 5a6:	f2 cf       	rjmp	.-28     	; 0x58c <Endpoint_Write_Control_Stream_LE+0x8c>
 5a8:	80 e0       	ldi	r24, 0x00	; 0
 5aa:	08 95       	ret
 5ac:	82 e0       	ldi	r24, 0x02	; 2
 5ae:	08 95       	ret
 5b0:	83 e0       	ldi	r24, 0x03	; 3
 5b2:	08 95       	ret
 5b4:	81 e0       	ldi	r24, 0x01	; 1
 5b6:	08 95       	ret

000005b8 <Endpoint_Write_Control_PStream_LE>:
 5b8:	20 91 35 01 	lds	r18, 0x0135	; 0x800135 <USB_ControlRequest+0x6>
 5bc:	30 91 36 01 	lds	r19, 0x0136	; 0x800136 <USB_ControlRequest+0x7>
 5c0:	26 17       	cp	r18, r22
 5c2:	37 07       	cpc	r19, r23
 5c4:	48 f0       	brcs	.+18     	; 0x5d8 <Endpoint_Write_Control_PStream_LE+0x20>
 5c6:	61 15       	cp	r22, r1
 5c8:	71 05       	cpc	r23, r1
 5ca:	39 f4       	brne	.+14     	; 0x5da <Endpoint_Write_Control_PStream_LE+0x22>
 5cc:	20 91 e8 00 	lds	r18, 0x00E8	; 0x8000e8 <__TEXT_REGION_LENGTH__+0x7e00e8>
 5d0:	2e 77       	andi	r18, 0x7E	; 126
 5d2:	20 93 e8 00 	sts	0x00E8, r18	; 0x8000e8 <__TEXT_REGION_LENGTH__+0x7e00e8>
 5d6:	01 c0       	rjmp	.+2      	; 0x5da <Endpoint_Write_Control_PStream_LE+0x22>
 5d8:	b9 01       	movw	r22, r18
 5da:	fc 01       	movw	r30, r24
 5dc:	20 e0       	ldi	r18, 0x00	; 0
 5de:	61 15       	cp	r22, r1
 5e0:	71 05       	cpc	r23, r1
 5e2:	81 f1       	breq	.+96     	; 0x644 <Endpoint_Write_Control_PStream_LE+0x8c>
 5e4:	80 91 2e 01 	lds	r24, 0x012E	; 0x80012e <USB_DeviceState>
 5e8:	88 23       	and	r24, r24
 5ea:	09 f4       	brne	.+2      	; 0x5ee <Endpoint_Write_Control_PStream_LE+0x36>
 5ec:	3e c0       	rjmp	.+124    	; 0x66a <Endpoint_Write_Control_PStream_LE+0xb2>
 5ee:	85 30       	cpi	r24, 0x05	; 5
 5f0:	09 f4       	brne	.+2      	; 0x5f4 <Endpoint_Write_Control_PStream_LE+0x3c>
 5f2:	3d c0       	rjmp	.+122    	; 0x66e <Endpoint_Write_Control_PStream_LE+0xb6>
 5f4:	80 91 e8 00 	lds	r24, 0x00E8	; 0x8000e8 <__TEXT_REGION_LENGTH__+0x7e00e8>
 5f8:	83 fd       	sbrc	r24, 3
 5fa:	3b c0       	rjmp	.+118    	; 0x672 <Endpoint_Write_Control_PStream_LE+0xba>
 5fc:	80 91 e8 00 	lds	r24, 0x00E8	; 0x8000e8 <__TEXT_REGION_LENGTH__+0x7e00e8>
 600:	82 fd       	sbrc	r24, 2
 602:	2d c0       	rjmp	.+90     	; 0x65e <Endpoint_Write_Control_PStream_LE+0xa6>
 604:	80 91 e8 00 	lds	r24, 0x00E8	; 0x8000e8 <__TEXT_REGION_LENGTH__+0x7e00e8>
 608:	80 ff       	sbrs	r24, 0
 60a:	e9 cf       	rjmp	.-46     	; 0x5de <Endpoint_Write_Control_PStream_LE+0x26>
 60c:	80 91 f2 00 	lds	r24, 0x00F2	; 0x8000f2 <__TEXT_REGION_LENGTH__+0x7e00f2>
 610:	90 91 f3 00 	lds	r25, 0x00F3	; 0x8000f3 <__TEXT_REGION_LENGTH__+0x7e00f3>
 614:	61 15       	cp	r22, r1
 616:	71 05       	cpc	r23, r1
 618:	59 f0       	breq	.+22     	; 0x630 <Endpoint_Write_Control_PStream_LE+0x78>
 61a:	88 30       	cpi	r24, 0x08	; 8
 61c:	91 05       	cpc	r25, r1
 61e:	40 f4       	brcc	.+16     	; 0x630 <Endpoint_Write_Control_PStream_LE+0x78>
 620:	24 91       	lpm	r18, Z
 622:	20 93 f1 00 	sts	0x00F1, r18	; 0x8000f1 <__TEXT_REGION_LENGTH__+0x7e00f1>
 626:	31 96       	adiw	r30, 0x01	; 1
 628:	61 50       	subi	r22, 0x01	; 1
 62a:	71 09       	sbc	r23, r1
 62c:	01 96       	adiw	r24, 0x01	; 1
 62e:	f2 cf       	rjmp	.-28     	; 0x614 <Endpoint_Write_Control_PStream_LE+0x5c>
 630:	21 e0       	ldi	r18, 0x01	; 1
 632:	08 97       	sbiw	r24, 0x08	; 8
 634:	09 f0       	breq	.+2      	; 0x638 <Endpoint_Write_Control_PStream_LE+0x80>
 636:	20 e0       	ldi	r18, 0x00	; 0
 638:	80 91 e8 00 	lds	r24, 0x00E8	; 0x8000e8 <__TEXT_REGION_LENGTH__+0x7e00e8>
 63c:	8e 77       	andi	r24, 0x7E	; 126
 63e:	80 93 e8 00 	sts	0x00E8, r24	; 0x8000e8 <__TEXT_REGION_LENGTH__+0x7e00e8>
 642:	cd cf       	rjmp	.-102    	; 0x5de <Endpoint_Write_Control_PStream_LE+0x26>
 644:	21 11       	cpse	r18, r1
 646:	ce cf       	rjmp	.-100    	; 0x5e4 <Endpoint_Write_Control_PStream_LE+0x2c>
 648:	0a c0       	rjmp	.+20     	; 0x65e <Endpoint_Write_Control_PStream_LE+0xa6>
 64a:	80 91 2e 01 	lds	r24, 0x012E	; 0x80012e <USB_DeviceState>
 64e:	88 23       	and	r24, r24
 650:	61 f0       	breq	.+24     	; 0x66a <Endpoint_Write_Control_PStream_LE+0xb2>
 652:	85 30       	cpi	r24, 0x05	; 5
 654:	61 f0       	breq	.+24     	; 0x66e <Endpoint_Write_Control_PStream_LE+0xb6>
 656:	80 91 e8 00 	lds	r24, 0x00E8	; 0x8000e8 <__TEXT_REGION_LENGTH__+0x7e00e8>
 65a:	83 fd       	sbrc	r24, 3
 65c:	0a c0       	rjmp	.+20     	; 0x672 <Endpoint_Write_Control_PStream_LE+0xba>
 65e:	80 91 e8 00 	lds	r24, 0x00E8	; 0x8000e8 <__TEXT_REGION_LENGTH__+0x7e00e8>
 662:	82 ff       	sbrs	r24, 2
 664:	f2 cf       	rjmp	.-28     	; 0x64a <Endpoint_Write_Control_PStream_LE+0x92>
 666:	80 e0       	ldi	r24, 0x00	; 0
 668:	08 95       	ret
 66a:	82 e0       	ldi	r24, 0x02	; 2
 66c:	08 95       	ret
 66e:	83 e0       	ldi	r24, 0x03	; 3
 670:	08 95       	ret
 672:	81 e0       	ldi	r24, 0x01	; 1
 674:	08 95       	ret

00000676 <Endpoint_ConfigureEndpoint_Prv>:
 676:	98 2f       	mov	r25, r24
 678:	97 30       	cpi	r25, 0x07	; 7
 67a:	68 f5       	brcc	.+90     	; 0x6d6 <Endpoint_ConfigureEndpoint_Prv+0x60>
 67c:	90 93 e9 00 	sts	0x00E9, r25	; 0x8000e9 <__TEXT_REGION_LENGTH__+0x7e00e9>
 680:	98 17       	cp	r25, r24
 682:	39 f0       	breq	.+14     	; 0x692 <Endpoint_ConfigureEndpoint_Prv+0x1c>
 684:	70 91 ec 00 	lds	r23, 0x00EC	; 0x8000ec <__TEXT_REGION_LENGTH__+0x7e00ec>
 688:	20 91 ed 00 	lds	r18, 0x00ED	; 0x8000ed <__TEXT_REGION_LENGTH__+0x7e00ed>
 68c:	50 91 f0 00 	lds	r21, 0x00F0	; 0x8000f0 <__TEXT_REGION_LENGTH__+0x7e00f0>
 690:	03 c0       	rjmp	.+6      	; 0x698 <Endpoint_ConfigureEndpoint_Prv+0x22>
 692:	24 2f       	mov	r18, r20
 694:	76 2f       	mov	r23, r22
 696:	50 e0       	ldi	r21, 0x00	; 0
 698:	21 fd       	sbrc	r18, 1
 69a:	02 c0       	rjmp	.+4      	; 0x6a0 <Endpoint_ConfigureEndpoint_Prv+0x2a>
 69c:	9f 5f       	subi	r25, 0xFF	; 255
 69e:	ec cf       	rjmp	.-40     	; 0x678 <Endpoint_ConfigureEndpoint_Prv+0x2>
 6a0:	30 91 eb 00 	lds	r19, 0x00EB	; 0x8000eb <__TEXT_REGION_LENGTH__+0x7e00eb>
 6a4:	3e 7f       	andi	r19, 0xFE	; 254
 6a6:	30 93 eb 00 	sts	0x00EB, r19	; 0x8000eb <__TEXT_REGION_LENGTH__+0x7e00eb>
 6aa:	30 91 ed 00 	lds	r19, 0x00ED	; 0x8000ed <__TEXT_REGION_LENGTH__+0x7e00ed>
 6ae:	3d 7f       	andi	r19, 0xFD	; 253
 6b0:	30 93 ed 00 	sts	0x00ED, r19	; 0x8000ed <__TEXT_REGION_LENGTH__+0x7e00ed>
 6b4:	30 91 eb 00 	lds	r19, 0x00EB	; 0x8000eb <__TEXT_REGION_LENGTH__+0x7e00eb>
 6b8:	31 60       	ori	r19, 0x01	; 1
 6ba:	30 93 eb 00 	sts	0x00EB, r19	; 0x8000eb <__TEXT_REGION_LENGTH__+0x7e00eb>
 6be:	70 93 ec 00 	sts	0x00EC, r23	; 0x8000ec <__TEXT_REGION_LENGTH__+0x7e00ec>
 6c2:	20 93 ed 00 	sts	0x00ED, r18	; 0x8000ed <__TEXT_REGION_LENGTH__+0x7e00ed>
 6c6:	50 93 f0 00 	sts	0x00F0, r21	; 0x8000f0 <__TEXT_REGION_LENGTH__+0x7e00f0>
 6ca:	20 91 ee 00 	lds	r18, 0x00EE	; 0x8000ee <__TEXT_REGION_LENGTH__+0x7e00ee>
 6ce:	27 fd       	sbrc	r18, 7
 6d0:	e5 cf       	rjmp	.-54     	; 0x69c <Endpoint_ConfigureEndpoint_Prv+0x26>
 6d2:	80 e0       	ldi	r24, 0x00	; 0
 6d4:	08 95       	ret
 6d6:	8f 70       	andi	r24, 0x0F	; 15
 6d8:	80 93 e9 00 	sts	0x00E9, r24	; 0x8000e9 <__TEXT_REGION_LENGTH__+0x7e00e9>
 6dc:	81 e0       	ldi	r24, 0x01	; 1
 6de:	08 95       	ret

000006e0 <Endpoint_ConfigureEndpointTable>:
 6e0:	0f 93       	push	r16
 6e2:	1f 93       	push	r17
 6e4:	cf 93       	push	r28
 6e6:	df 93       	push	r29
 6e8:	06 2f       	mov	r16, r22
 6ea:	ec 01       	movw	r28, r24
 6ec:	10 e0       	ldi	r17, 0x00	; 0
 6ee:	10 17       	cp	r17, r16
 6f0:	71 f1       	breq	.+92     	; 0x74e <Endpoint_ConfigureEndpointTable+0x6e>
 6f2:	68 81       	ld	r22, Y
 6f4:	61 11       	cpse	r22, r1
 6f6:	03 c0       	rjmp	.+6      	; 0x6fe <Endpoint_ConfigureEndpointTable+0x1e>
 6f8:	1f 5f       	subi	r17, 0xFF	; 255
 6fa:	25 96       	adiw	r28, 0x05	; 5
 6fc:	f8 cf       	rjmp	.-16     	; 0x6ee <Endpoint_ConfigureEndpointTable+0xe>
 6fe:	2c 81       	ldd	r18, Y+4	; 0x04
 700:	a9 81       	ldd	r26, Y+1	; 0x01
 702:	ba 81       	ldd	r27, Y+2	; 0x02
 704:	9b 81       	ldd	r25, Y+3	; 0x03
 706:	86 2f       	mov	r24, r22
 708:	8f 70       	andi	r24, 0x0F	; 15
 70a:	87 30       	cpi	r24, 0x07	; 7
 70c:	10 f0       	brcs	.+4      	; 0x712 <Endpoint_ConfigureEndpointTable+0x32>
 70e:	80 e0       	ldi	r24, 0x00	; 0
 710:	1f c0       	rjmp	.+62     	; 0x750 <Endpoint_ConfigureEndpointTable+0x70>
 712:	22 30       	cpi	r18, 0x02	; 2
 714:	10 f4       	brcc	.+4      	; 0x71a <Endpoint_ConfigureEndpointTable+0x3a>
 716:	42 e0       	ldi	r20, 0x02	; 2
 718:	01 c0       	rjmp	.+2      	; 0x71c <Endpoint_ConfigureEndpointTable+0x3c>
 71a:	46 e0       	ldi	r20, 0x06	; 6
 71c:	e8 e0       	ldi	r30, 0x08	; 8
 71e:	f0 e0       	ldi	r31, 0x00	; 0
 720:	20 e0       	ldi	r18, 0x00	; 0
 722:	ea 17       	cp	r30, r26
 724:	fb 07       	cpc	r31, r27
 726:	20 f4       	brcc	.+8      	; 0x730 <Endpoint_ConfigureEndpointTable+0x50>
 728:	2f 5f       	subi	r18, 0xFF	; 255
 72a:	ee 0f       	add	r30, r30
 72c:	ff 1f       	adc	r31, r31
 72e:	f9 cf       	rjmp	.-14     	; 0x722 <Endpoint_ConfigureEndpointTable+0x42>
 730:	22 95       	swap	r18
 732:	20 7f       	andi	r18, 0xF0	; 240
 734:	42 2b       	or	r20, r18
 736:	50 e4       	ldi	r21, 0x40	; 64
 738:	95 9f       	mul	r25, r21
 73a:	90 01       	movw	r18, r0
 73c:	11 24       	eor	r1, r1
 73e:	66 1f       	adc	r22, r22
 740:	66 27       	eor	r22, r22
 742:	66 1f       	adc	r22, r22
 744:	62 2b       	or	r22, r18
 746:	97 df       	rcall	.-210    	; 0x676 <Endpoint_ConfigureEndpoint_Prv>
 748:	81 11       	cpse	r24, r1
 74a:	d6 cf       	rjmp	.-84     	; 0x6f8 <Endpoint_ConfigureEndpointTable+0x18>
 74c:	e0 cf       	rjmp	.-64     	; 0x70e <Endpoint_ConfigureEndpointTable+0x2e>
 74e:	81 e0       	ldi	r24, 0x01	; 1
 750:	df 91       	pop	r29
 752:	cf 91       	pop	r28
 754:	1f 91       	pop	r17
 756:	0f 91       	pop	r16
 758:	08 95       	ret

0000075a <Endpoint_ClearStatusStage>:
 75a:	80 91 2f 01 	lds	r24, 0x012F	; 0x80012f <USB_ControlRequest>
 75e:	87 ff       	sbrs	r24, 7
 760:	11 c0       	rjmp	.+34     	; 0x784 <Endpoint_ClearStatusStage+0x2a>
 762:	80 91 e8 00 	lds	r24, 0x00E8	; 0x8000e8 <__TEXT_REGION_LENGTH__+0x7e00e8>
 766:	82 fd       	sbrc	r24, 2
 768:	05 c0       	rjmp	.+10     	; 0x774 <Endpoint_ClearStatusStage+0x1a>
 76a:	80 91 2e 01 	lds	r24, 0x012E	; 0x80012e <USB_DeviceState>
 76e:	81 11       	cpse	r24, r1
 770:	f8 cf       	rjmp	.-16     	; 0x762 <Endpoint_ClearStatusStage+0x8>
 772:	11 c0       	rjmp	.+34     	; 0x796 <Endpoint_ClearStatusStage+0x3c>
 774:	80 91 e8 00 	lds	r24, 0x00E8	; 0x8000e8 <__TEXT_REGION_LENGTH__+0x7e00e8>
 778:	8b 77       	andi	r24, 0x7B	; 123
 77a:	0b c0       	rjmp	.+22     	; 0x792 <Endpoint_ClearStatusStage+0x38>
 77c:	80 91 2e 01 	lds	r24, 0x012E	; 0x80012e <USB_DeviceState>
 780:	88 23       	and	r24, r24
 782:	49 f0       	breq	.+18     	; 0x796 <Endpoint_ClearStatusStage+0x3c>
 784:	80 91 e8 00 	lds	r24, 0x00E8	; 0x8000e8 <__TEXT_REGION_LENGTH__+0x7e00e8>
 788:	80 ff       	sbrs	r24, 0
 78a:	f8 cf       	rjmp	.-16     	; 0x77c <Endpoint_ClearStatusStage+0x22>
 78c:	80 91 e8 00 	lds	r24, 0x00E8	; 0x8000e8 <__TEXT_REGION_LENGTH__+0x7e00e8>
 790:	8e 77       	andi	r24, 0x7E	; 126
 792:	80 93 e8 00 	sts	0x00E8, r24	; 0x8000e8 <__TEXT_REGION_LENGTH__+0x7e00e8>
 796:	08 95       	ret

00000798 <Endpoint_WaitUntilReady>:
 798:	20 91 e4 00 	lds	r18, 0x00E4	; 0x8000e4 <__TEXT_REGION_LENGTH__+0x7e00e4>
 79c:	30 91 e5 00 	lds	r19, 0x00E5	; 0x8000e5 <__TEXT_REGION_LENGTH__+0x7e00e5>
 7a0:	95 e6       	ldi	r25, 0x65	; 101
 7a2:	40 91 ec 00 	lds	r20, 0x00EC	; 0x8000ec <__TEXT_REGION_LENGTH__+0x7e00ec>
 7a6:	84 2f       	mov	r24, r20
 7a8:	81 70       	andi	r24, 0x01	; 1
 7aa:	40 ff       	sbrs	r20, 0
 7ac:	23 c0       	rjmp	.+70     	; 0x7f4 <Endpoint_WaitUntilReady+0x5c>
 7ae:	80 91 e8 00 	lds	r24, 0x00E8	; 0x8000e8 <__TEXT_REGION_LENGTH__+0x7e00e8>
 7b2:	80 fd       	sbrc	r24, 0
 7b4:	1d c0       	rjmp	.+58     	; 0x7f0 <Endpoint_WaitUntilReady+0x58>
 7b6:	80 91 2e 01 	lds	r24, 0x012E	; 0x80012e <USB_DeviceState>
 7ba:	88 23       	and	r24, r24
 7bc:	99 f0       	breq	.+38     	; 0x7e4 <Endpoint_WaitUntilReady+0x4c>
 7be:	85 30       	cpi	r24, 0x05	; 5
 7c0:	99 f0       	breq	.+38     	; 0x7e8 <Endpoint_WaitUntilReady+0x50>
 7c2:	80 91 eb 00 	lds	r24, 0x00EB	; 0x8000eb <__TEXT_REGION_LENGTH__+0x7e00eb>
 7c6:	85 fd       	sbrc	r24, 5
 7c8:	11 c0       	rjmp	.+34     	; 0x7ec <Endpoint_WaitUntilReady+0x54>
 7ca:	40 91 e4 00 	lds	r20, 0x00E4	; 0x8000e4 <__TEXT_REGION_LENGTH__+0x7e00e4>
 7ce:	50 91 e5 00 	lds	r21, 0x00E5	; 0x8000e5 <__TEXT_REGION_LENGTH__+0x7e00e5>
 7d2:	24 17       	cp	r18, r20
 7d4:	35 07       	cpc	r19, r21
 7d6:	29 f3       	breq	.-54     	; 0x7a2 <Endpoint_WaitUntilReady+0xa>
 7d8:	91 50       	subi	r25, 0x01	; 1
 7da:	11 f0       	breq	.+4      	; 0x7e0 <Endpoint_WaitUntilReady+0x48>
 7dc:	9a 01       	movw	r18, r20
 7de:	e1 cf       	rjmp	.-62     	; 0x7a2 <Endpoint_WaitUntilReady+0xa>
 7e0:	84 e0       	ldi	r24, 0x04	; 4
 7e2:	08 95       	ret
 7e4:	82 e0       	ldi	r24, 0x02	; 2
 7e6:	08 95       	ret
 7e8:	83 e0       	ldi	r24, 0x03	; 3
 7ea:	08 95       	ret
 7ec:	81 e0       	ldi	r24, 0x01	; 1
 7ee:	08 95       	ret
 7f0:	80 e0       	ldi	r24, 0x00	; 0
 7f2:	08 95       	ret
 7f4:	40 91 e8 00 	lds	r20, 0x00E8	; 0x8000e8 <__TEXT_REGION_LENGTH__+0x7e00e8>
 7f8:	42 ff       	sbrs	r20, 2
 7fa:	dd cf       	rjmp	.-70     	; 0x7b6 <Endpoint_WaitUntilReady+0x1e>
 7fc:	08 95       	ret

000007fe <USB_ResetInterface>:
 7fe:	0f 93       	push	r16
 800:	1f 93       	push	r17
 802:	cf 93       	push	r28
 804:	df 93       	push	r29
 806:	4e d0       	rcall	.+156    	; 0x8a4 <USB_INT_DisableAllInterrupts>
 808:	55 d0       	rcall	.+170    	; 0x8b4 <USB_INT_ClearAllInterrupts>
 80a:	c8 ed       	ldi	r28, 0xD8	; 216
 80c:	d0 e0       	ldi	r29, 0x00	; 0
 80e:	88 81       	ld	r24, Y
 810:	8f 77       	andi	r24, 0x7F	; 127
 812:	88 83       	st	Y, r24
 814:	88 81       	ld	r24, Y
 816:	80 68       	ori	r24, 0x80	; 128
 818:	88 83       	st	Y, r24
 81a:	88 81       	ld	r24, Y
 81c:	8f 7d       	andi	r24, 0xDF	; 223
 81e:	88 83       	st	Y, r24
 820:	e7 ed       	ldi	r30, 0xD7	; 215
 822:	f0 e0       	ldi	r31, 0x00	; 0
 824:	80 81       	ld	r24, Z
 826:	80 68       	ori	r24, 0x80	; 128
 828:	80 83       	st	Z, r24
 82a:	19 bc       	out	0x29, r1	; 41
 82c:	10 92 2e 01 	sts	0x012E, r1	; 0x80012e <USB_DeviceState>
 830:	10 92 2a 01 	sts	0x012A, r1	; 0x80012a <USB_Device_ConfigurationNumber>
 834:	10 92 2c 01 	sts	0x012C, r1	; 0x80012c <USB_Device_RemoteWakeupEnabled>
 838:	10 92 2b 01 	sts	0x012B, r1	; 0x80012b <USB_Device_CurrentlySelfPowered>
 83c:	00 ee       	ldi	r16, 0xE0	; 224
 83e:	10 e0       	ldi	r17, 0x00	; 0
 840:	f8 01       	movw	r30, r16
 842:	80 81       	ld	r24, Z
 844:	8b 7f       	andi	r24, 0xFB	; 251
 846:	80 83       	st	Z, r24
 848:	88 81       	ld	r24, Y
 84a:	81 60       	ori	r24, 0x01	; 1
 84c:	88 83       	st	Y, r24
 84e:	42 e0       	ldi	r20, 0x02	; 2
 850:	60 e0       	ldi	r22, 0x00	; 0
 852:	80 e0       	ldi	r24, 0x00	; 0
 854:	10 df       	rcall	.-480    	; 0x676 <Endpoint_ConfigureEndpoint_Prv>
 856:	e1 ee       	ldi	r30, 0xE1	; 225
 858:	f0 e0       	ldi	r31, 0x00	; 0
 85a:	80 81       	ld	r24, Z
 85c:	8e 7f       	andi	r24, 0xFE	; 254
 85e:	80 83       	st	Z, r24
 860:	e2 ee       	ldi	r30, 0xE2	; 226
 862:	f0 e0       	ldi	r31, 0x00	; 0
 864:	80 81       	ld	r24, Z
 866:	81 60       	ori	r24, 0x01	; 1
 868:	80 83       	st	Z, r24
 86a:	80 81       	ld	r24, Z
 86c:	88 60       	ori	r24, 0x08	; 8
 86e:	80 83       	st	Z, r24
 870:	f8 01       	movw	r30, r16
 872:	80 81       	ld	r24, Z
 874:	8e 7f       	andi	r24, 0xFE	; 254
 876:	80 83       	st	Z, r24
 878:	88 81       	ld	r24, Y
 87a:	80 61       	ori	r24, 0x10	; 16
 87c:	88 83       	st	Y, r24
 87e:	df 91       	pop	r29
 880:	cf 91       	pop	r28
 882:	1f 91       	pop	r17
 884:	0f 91       	pop	r16
 886:	08 95       	ret

00000888 <USB_Init>:
 888:	e8 ed       	ldi	r30, 0xD8	; 216
 88a:	f0 e0       	ldi	r31, 0x00	; 0
 88c:	80 81       	ld	r24, Z
 88e:	8f 7e       	andi	r24, 0xEF	; 239
 890:	80 83       	st	Z, r24
 892:	e7 ed       	ldi	r30, 0xD7	; 215
 894:	f0 e0       	ldi	r31, 0x00	; 0
 896:	80 81       	ld	r24, Z
 898:	81 60       	ori	r24, 0x01	; 1
 89a:	80 83       	st	Z, r24
 89c:	81 e0       	ldi	r24, 0x01	; 1
 89e:	80 93 2d 01 	sts	0x012D, r24	; 0x80012d <USB_IsInitialized>
 8a2:	ad cf       	rjmp	.-166    	; 0x7fe <USB_ResetInterface>

000008a4 <USB_INT_DisableAllInterrupts>:
 8a4:	e8 ed       	ldi	r30, 0xD8	; 216
 8a6:	f0 e0       	ldi	r31, 0x00	; 0
 8a8:	80 81       	ld	r24, Z
 8aa:	8c 7f       	andi	r24, 0xFC	; 252
 8ac:	80 83       	st	Z, r24
 8ae:	10 92 e2 00 	sts	0x00E2, r1	; 0x8000e2 <__TEXT_REGION_LENGTH__+0x7e00e2>
 8b2:	08 95       	ret

000008b4 <USB_INT_ClearAllInterrupts>:
 8b4:	10 92 da 00 	sts	0x00DA, r1	; 0x8000da <__TEXT_REGION_LENGTH__+0x7e00da>
 8b8:	10 92 e1 00 	sts	0x00E1, r1	; 0x8000e1 <__TEXT_REGION_LENGTH__+0x7e00e1>
 8bc:	08 95       	ret

000008be <__vector_10>:
 8be:	1f 92       	push	r1
 8c0:	0f 92       	push	r0
 8c2:	0f b6       	in	r0, 0x3f	; 63
 8c4:	0f 92       	push	r0
 8c6:	11 24       	eor	r1, r1
 8c8:	0b b6       	in	r0, 0x3b	; 59
 8ca:	0f 92       	push	r0
 8cc:	2f 93       	push	r18
 8ce:	3f 93       	push	r19
 8d0:	4f 93       	push	r20
 8d2:	5f 93       	push	r21
 8d4:	6f 93       	push	r22
 8d6:	7f 93       	push	r23
 8d8:	8f 93       	push	r24
 8da:	9f 93       	push	r25
 8dc:	af 93       	push	r26
 8de:	bf 93       	push	r27
 8e0:	ef 93       	push	r30
 8e2:	ff 93       	push	r31
 8e4:	80 91 e1 00 	lds	r24, 0x00E1	; 0x8000e1 <__TEXT_REGION_LENGTH__+0x7e00e1>
 8e8:	82 ff       	sbrs	r24, 2
 8ea:	0a c0       	rjmp	.+20     	; 0x900 <__vector_10+0x42>
 8ec:	80 91 e2 00 	lds	r24, 0x00E2	; 0x8000e2 <__TEXT_REGION_LENGTH__+0x7e00e2>
 8f0:	82 ff       	sbrs	r24, 2
 8f2:	06 c0       	rjmp	.+12     	; 0x900 <__vector_10+0x42>
 8f4:	80 91 e1 00 	lds	r24, 0x00E1	; 0x8000e1 <__TEXT_REGION_LENGTH__+0x7e00e1>
 8f8:	8b 7f       	andi	r24, 0xFB	; 251
 8fa:	80 93 e1 00 	sts	0x00E1, r24	; 0x8000e1 <__TEXT_REGION_LENGTH__+0x7e00e1>
 8fe:	56 d2       	rcall	.+1196   	; 0xdac <USB_Event_Stub>
 900:	80 91 da 00 	lds	r24, 0x00DA	; 0x8000da <__TEXT_REGION_LENGTH__+0x7e00da>
 904:	80 ff       	sbrs	r24, 0
 906:	1d c0       	rjmp	.+58     	; 0x942 <__vector_10+0x84>
 908:	80 91 d8 00 	lds	r24, 0x00D8	; 0x8000d8 <__TEXT_REGION_LENGTH__+0x7e00d8>
 90c:	80 ff       	sbrs	r24, 0
 90e:	19 c0       	rjmp	.+50     	; 0x942 <__vector_10+0x84>
 910:	80 91 da 00 	lds	r24, 0x00DA	; 0x8000da <__TEXT_REGION_LENGTH__+0x7e00da>
 914:	8e 7f       	andi	r24, 0xFE	; 254
 916:	80 93 da 00 	sts	0x00DA, r24	; 0x8000da <__TEXT_REGION_LENGTH__+0x7e00da>
 91a:	80 91 d9 00 	lds	r24, 0x00D9	; 0x8000d9 <__TEXT_REGION_LENGTH__+0x7e00d9>
 91e:	80 ff       	sbrs	r24, 0
 920:	0c c0       	rjmp	.+24     	; 0x93a <__vector_10+0x7c>
 922:	84 e1       	ldi	r24, 0x14	; 20
 924:	89 bd       	out	0x29, r24	; 41
 926:	86 e1       	ldi	r24, 0x16	; 22
 928:	89 bd       	out	0x29, r24	; 41
 92a:	09 b4       	in	r0, 0x29	; 41
 92c:	00 fe       	sbrs	r0, 0
 92e:	fd cf       	rjmp	.-6      	; 0x92a <__vector_10+0x6c>
 930:	81 e0       	ldi	r24, 0x01	; 1
 932:	80 93 2e 01 	sts	0x012E, r24	; 0x80012e <USB_DeviceState>
 936:	7c d2       	rcall	.+1272   	; 0xe30 <EVENT_USB_Device_Connect>
 938:	04 c0       	rjmp	.+8      	; 0x942 <__vector_10+0x84>
 93a:	19 bc       	out	0x29, r1	; 41
 93c:	10 92 2e 01 	sts	0x012E, r1	; 0x80012e <USB_DeviceState>
 940:	78 d2       	rcall	.+1264   	; 0xe32 <EVENT_USB_Device_Disconnect>
 942:	80 91 e1 00 	lds	r24, 0x00E1	; 0x8000e1 <__TEXT_REGION_LENGTH__+0x7e00e1>
 946:	80 ff       	sbrs	r24, 0
 948:	18 c0       	rjmp	.+48     	; 0x97a <__vector_10+0xbc>
 94a:	80 91 e2 00 	lds	r24, 0x00E2	; 0x8000e2 <__TEXT_REGION_LENGTH__+0x7e00e2>
 94e:	80 ff       	sbrs	r24, 0
 950:	14 c0       	rjmp	.+40     	; 0x97a <__vector_10+0xbc>
 952:	80 91 e2 00 	lds	r24, 0x00E2	; 0x8000e2 <__TEXT_REGION_LENGTH__+0x7e00e2>
 956:	8e 7f       	andi	r24, 0xFE	; 254
 958:	80 93 e2 00 	sts	0x00E2, r24	; 0x8000e2 <__TEXT_REGION_LENGTH__+0x7e00e2>
 95c:	80 91 e2 00 	lds	r24, 0x00E2	; 0x8000e2 <__TEXT_REGION_LENGTH__+0x7e00e2>
 960:	80 61       	ori	r24, 0x10	; 16
 962:	80 93 e2 00 	sts	0x00E2, r24	; 0x8000e2 <__TEXT_REGION_LENGTH__+0x7e00e2>
 966:	80 91 d8 00 	lds	r24, 0x00D8	; 0x8000d8 <__TEXT_REGION_LENGTH__+0x7e00d8>
 96a:	80 62       	ori	r24, 0x20	; 32
 96c:	80 93 d8 00 	sts	0x00D8, r24	; 0x8000d8 <__TEXT_REGION_LENGTH__+0x7e00d8>
 970:	19 bc       	out	0x29, r1	; 41
 972:	85 e0       	ldi	r24, 0x05	; 5
 974:	80 93 2e 01 	sts	0x012E, r24	; 0x80012e <USB_DeviceState>
 978:	19 d2       	rcall	.+1074   	; 0xdac <USB_Event_Stub>
 97a:	80 91 e1 00 	lds	r24, 0x00E1	; 0x8000e1 <__TEXT_REGION_LENGTH__+0x7e00e1>
 97e:	84 ff       	sbrs	r24, 4
 980:	2f c0       	rjmp	.+94     	; 0x9e0 <__vector_10+0x122>
 982:	80 91 e2 00 	lds	r24, 0x00E2	; 0x8000e2 <__TEXT_REGION_LENGTH__+0x7e00e2>
 986:	84 ff       	sbrs	r24, 4
 988:	2b c0       	rjmp	.+86     	; 0x9e0 <__vector_10+0x122>
 98a:	84 e1       	ldi	r24, 0x14	; 20
 98c:	89 bd       	out	0x29, r24	; 41
 98e:	86 e1       	ldi	r24, 0x16	; 22
 990:	89 bd       	out	0x29, r24	; 41
 992:	09 b4       	in	r0, 0x29	; 41
 994:	00 fe       	sbrs	r0, 0
 996:	fd cf       	rjmp	.-6      	; 0x992 <__vector_10+0xd4>
 998:	80 91 d8 00 	lds	r24, 0x00D8	; 0x8000d8 <__TEXT_REGION_LENGTH__+0x7e00d8>
 99c:	8f 7d       	andi	r24, 0xDF	; 223
 99e:	80 93 d8 00 	sts	0x00D8, r24	; 0x8000d8 <__TEXT_REGION_LENGTH__+0x7e00d8>
 9a2:	80 91 e1 00 	lds	r24, 0x00E1	; 0x8000e1 <__TEXT_REGION_LENGTH__+0x7e00e1>
 9a6:	8f 7e       	andi	r24, 0xEF	; 239
 9a8:	80 93 e1 00 	sts	0x00E1, r24	; 0x8000e1 <__TEXT_REGION_LENGTH__+0x7e00e1>
 9ac:	80 91 e2 00 	lds	r24, 0x00E2	; 0x8000e2 <__TEXT_REGION_LENGTH__+0x7e00e2>
 9b0:	8f 7e       	andi	r24, 0xEF	; 239
 9b2:	80 93 e2 00 	sts	0x00E2, r24	; 0x8000e2 <__TEXT_REGION_LENGTH__+0x7e00e2>
 9b6:	80 91 e2 00 	lds	r24, 0x00E2	; 0x8000e2 <__TEXT_REGION_LENGTH__+0x7e00e2>
 9ba:	81 60       	ori	r24, 0x01	; 1
 9bc:	80 93 e2 00 	sts	0x00E2, r24	; 0x8000e2 <__TEXT_REGION_LENGTH__+0x7e00e2>
 9c0:	80 91 2a 01 	lds	r24, 0x012A	; 0x80012a <USB_Device_ConfigurationNumber>
 9c4:	88 23       	and	r24, r24
 9c6:	11 f0       	breq	.+4      	; 0x9cc <__vector_10+0x10e>
 9c8:	84 e0       	ldi	r24, 0x04	; 4
 9ca:	07 c0       	rjmp	.+14     	; 0x9da <__vector_10+0x11c>
 9cc:	80 91 e3 00 	lds	r24, 0x00E3	; 0x8000e3 <__TEXT_REGION_LENGTH__+0x7e00e3>
 9d0:	87 fd       	sbrc	r24, 7
 9d2:	02 c0       	rjmp	.+4      	; 0x9d8 <__vector_10+0x11a>
 9d4:	81 e0       	ldi	r24, 0x01	; 1
 9d6:	01 c0       	rjmp	.+2      	; 0x9da <__vector_10+0x11c>
 9d8:	83 e0       	ldi	r24, 0x03	; 3
 9da:	80 93 2e 01 	sts	0x012E, r24	; 0x80012e <USB_DeviceState>
 9de:	e6 d1       	rcall	.+972    	; 0xdac <USB_Event_Stub>
 9e0:	80 91 e1 00 	lds	r24, 0x00E1	; 0x8000e1 <__TEXT_REGION_LENGTH__+0x7e00e1>
 9e4:	83 ff       	sbrs	r24, 3
 9e6:	27 c0       	rjmp	.+78     	; 0xa36 <__vector_10+0x178>
 9e8:	80 91 e2 00 	lds	r24, 0x00E2	; 0x8000e2 <__TEXT_REGION_LENGTH__+0x7e00e2>
 9ec:	83 ff       	sbrs	r24, 3
 9ee:	23 c0       	rjmp	.+70     	; 0xa36 <__vector_10+0x178>
 9f0:	80 91 e1 00 	lds	r24, 0x00E1	; 0x8000e1 <__TEXT_REGION_LENGTH__+0x7e00e1>
 9f4:	87 7f       	andi	r24, 0xF7	; 247
 9f6:	80 93 e1 00 	sts	0x00E1, r24	; 0x8000e1 <__TEXT_REGION_LENGTH__+0x7e00e1>
 9fa:	82 e0       	ldi	r24, 0x02	; 2
 9fc:	80 93 2e 01 	sts	0x012E, r24	; 0x80012e <USB_DeviceState>
 a00:	10 92 2a 01 	sts	0x012A, r1	; 0x80012a <USB_Device_ConfigurationNumber>
 a04:	80 91 e1 00 	lds	r24, 0x00E1	; 0x8000e1 <__TEXT_REGION_LENGTH__+0x7e00e1>
 a08:	8e 7f       	andi	r24, 0xFE	; 254
 a0a:	80 93 e1 00 	sts	0x00E1, r24	; 0x8000e1 <__TEXT_REGION_LENGTH__+0x7e00e1>
 a0e:	80 91 e2 00 	lds	r24, 0x00E2	; 0x8000e2 <__TEXT_REGION_LENGTH__+0x7e00e2>
 a12:	8e 7f       	andi	r24, 0xFE	; 254
 a14:	80 93 e2 00 	sts	0x00E2, r24	; 0x8000e2 <__TEXT_REGION_LENGTH__+0x7e00e2>
 a18:	80 91 e2 00 	lds	r24, 0x00E2	; 0x8000e2 <__TEXT_REGION_LENGTH__+0x7e00e2>
 a1c:	80 61       	ori	r24, 0x10	; 16
 a1e:	80 93 e2 00 	sts	0x00E2, r24	; 0x8000e2 <__TEXT_REGION_LENGTH__+0x7e00e2>
 a22:	42 e0       	ldi	r20, 0x02	; 2
 a24:	60 e0       	ldi	r22, 0x00	; 0
 a26:	80 e0       	ldi	r24, 0x00	; 0
 a28:	26 de       	rcall	.-948    	; 0x676 <Endpoint_ConfigureEndpoint_Prv>
 a2a:	80 91 f0 00 	lds	r24, 0x00F0	; 0x8000f0 <__TEXT_REGION_LENGTH__+0x7e00f0>
 a2e:	88 60       	ori	r24, 0x08	; 8
 a30:	80 93 f0 00 	sts	0x00F0, r24	; 0x8000f0 <__TEXT_REGION_LENGTH__+0x7e00f0>
 a34:	bb d1       	rcall	.+886    	; 0xdac <USB_Event_Stub>
 a36:	ff 91       	pop	r31
 a38:	ef 91       	pop	r30
 a3a:	bf 91       	pop	r27
 a3c:	af 91       	pop	r26
 a3e:	9f 91       	pop	r25
 a40:	8f 91       	pop	r24
 a42:	7f 91       	pop	r23
 a44:	6f 91       	pop	r22
 a46:	5f 91       	pop	r21
 a48:	4f 91       	pop	r20
 a4a:	3f 91       	pop	r19
 a4c:	2f 91       	pop	r18
 a4e:	0f 90       	pop	r0
 a50:	0b be       	out	0x3b, r0	; 59
 a52:	0f 90       	pop	r0
 a54:	0f be       	out	0x3f, r0	; 63
 a56:	0f 90       	pop	r0
 a58:	1f 90       	pop	r1
 a5a:	18 95       	reti

00000a5c <__vector_11>:
 a5c:	1f 92       	push	r1
 a5e:	0f 92       	push	r0
 a60:	0f b6       	in	r0, 0x3f	; 63
 a62:	0f 92       	push	r0
 a64:	11 24       	eor	r1, r1
 a66:	0b b6       	in	r0, 0x3b	; 59
 a68:	0f 92       	push	r0
 a6a:	2f 93       	push	r18
 a6c:	3f 93       	push	r19
 a6e:	4f 93       	push	r20
 a70:	5f 93       	push	r21
 a72:	6f 93       	push	r22
 a74:	7f 93       	push	r23
 a76:	8f 93       	push	r24
 a78:	9f 93       	push	r25
 a7a:	af 93       	push	r26
 a7c:	bf 93       	push	r27
 a7e:	cf 93       	push	r28
 a80:	df 93       	push	r29
 a82:	ef 93       	push	r30
 a84:	ff 93       	push	r31
 a86:	c0 91 e9 00 	lds	r28, 0x00E9	; 0x8000e9 <__TEXT_REGION_LENGTH__+0x7e00e9>
 a8a:	cf 70       	andi	r28, 0x0F	; 15
 a8c:	80 91 ec 00 	lds	r24, 0x00EC	; 0x8000ec <__TEXT_REGION_LENGTH__+0x7e00ec>
 a90:	d8 2f       	mov	r29, r24
 a92:	d1 70       	andi	r29, 0x01	; 1
 a94:	80 fd       	sbrc	r24, 0
 a96:	d0 e8       	ldi	r29, 0x80	; 128
 a98:	10 92 e9 00 	sts	0x00E9, r1	; 0x8000e9 <__TEXT_REGION_LENGTH__+0x7e00e9>
 a9c:	80 91 f0 00 	lds	r24, 0x00F0	; 0x8000f0 <__TEXT_REGION_LENGTH__+0x7e00f0>
 aa0:	87 7f       	andi	r24, 0xF7	; 247
 aa2:	80 93 f0 00 	sts	0x00F0, r24	; 0x8000f0 <__TEXT_REGION_LENGTH__+0x7e00f0>
 aa6:	78 94       	sei
 aa8:	20 d0       	rcall	.+64     	; 0xaea <USB_Device_ProcessControlRequest>
 aaa:	10 92 e9 00 	sts	0x00E9, r1	; 0x8000e9 <__TEXT_REGION_LENGTH__+0x7e00e9>
 aae:	80 91 f0 00 	lds	r24, 0x00F0	; 0x8000f0 <__TEXT_REGION_LENGTH__+0x7e00f0>
 ab2:	88 60       	ori	r24, 0x08	; 8
 ab4:	80 93 f0 00 	sts	0x00F0, r24	; 0x8000f0 <__TEXT_REGION_LENGTH__+0x7e00f0>
 ab8:	cd 2b       	or	r28, r29
 aba:	cf 70       	andi	r28, 0x0F	; 15
 abc:	c0 93 e9 00 	sts	0x00E9, r28	; 0x8000e9 <__TEXT_REGION_LENGTH__+0x7e00e9>
 ac0:	ff 91       	pop	r31
 ac2:	ef 91       	pop	r30
 ac4:	df 91       	pop	r29
 ac6:	cf 91       	pop	r28
 ac8:	bf 91       	pop	r27
 aca:	af 91       	pop	r26
 acc:	9f 91       	pop	r25
 ace:	8f 91       	pop	r24
 ad0:	7f 91       	pop	r23
 ad2:	6f 91       	pop	r22
 ad4:	5f 91       	pop	r21
 ad6:	4f 91       	pop	r20
 ad8:	3f 91       	pop	r19
 ada:	2f 91       	pop	r18
 adc:	0f 90       	pop	r0
 ade:	0b be       	out	0x3b, r0	; 59
 ae0:	0f 90       	pop	r0
 ae2:	0f be       	out	0x3f, r0	; 63
 ae4:	0f 90       	pop	r0
 ae6:	1f 90       	pop	r1
 ae8:	18 95       	reti

00000aea <USB_Device_ProcessControlRequest>:
 aea:	1f 93       	push	r17
 aec:	cf 93       	push	r28
 aee:	df 93       	push	r29
 af0:	cd b7       	in	r28, 0x3d	; 61
 af2:	de b7       	in	r29, 0x3e	; 62
 af4:	aa 97       	sbiw	r28, 0x2a	; 42
 af6:	0f b6       	in	r0, 0x3f	; 63
 af8:	f8 94       	cli
 afa:	de bf       	out	0x3e, r29	; 62
 afc:	0f be       	out	0x3f, r0	; 63
 afe:	cd bf       	out	0x3d, r28	; 61
 b00:	ef e2       	ldi	r30, 0x2F	; 47
 b02:	f1 e0       	ldi	r31, 0x01	; 1
 b04:	80 91 f1 00 	lds	r24, 0x00F1	; 0x8000f1 <__TEXT_REGION_LENGTH__+0x7e00f1>
 b08:	81 93       	st	Z+, r24
 b0a:	21 e0       	ldi	r18, 0x01	; 1
 b0c:	e7 33       	cpi	r30, 0x37	; 55
 b0e:	f2 07       	cpc	r31, r18
 b10:	c9 f7       	brne	.-14     	; 0xb04 <USB_Device_ProcessControlRequest+0x1a>
 b12:	93 d1       	rcall	.+806    	; 0xe3a <EVENT_USB_Device_ControlRequest>
 b14:	80 91 e8 00 	lds	r24, 0x00E8	; 0x8000e8 <__TEXT_REGION_LENGTH__+0x7e00e8>
 b18:	83 ff       	sbrs	r24, 3
 b1a:	30 c1       	rjmp	.+608    	; 0xd7c <USB_Device_ProcessControlRequest+0x292>
 b1c:	80 91 2f 01 	lds	r24, 0x012F	; 0x80012f <USB_ControlRequest>
 b20:	90 91 30 01 	lds	r25, 0x0130	; 0x800130 <USB_ControlRequest+0x1>
 b24:	95 30       	cpi	r25, 0x05	; 5
 b26:	09 f4       	brne	.+2      	; 0xb2a <USB_Device_ProcessControlRequest+0x40>
 b28:	83 c0       	rjmp	.+262    	; 0xc30 <USB_Device_ProcessControlRequest+0x146>
 b2a:	30 f4       	brcc	.+12     	; 0xb38 <USB_Device_ProcessControlRequest+0x4e>
 b2c:	91 30       	cpi	r25, 0x01	; 1
 b2e:	a9 f1       	breq	.+106    	; 0xb9a <USB_Device_ProcessControlRequest+0xb0>
 b30:	68 f0       	brcs	.+26     	; 0xb4c <USB_Device_ProcessControlRequest+0x62>
 b32:	93 30       	cpi	r25, 0x03	; 3
 b34:	91 f1       	breq	.+100    	; 0xb9a <USB_Device_ProcessControlRequest+0xb0>
 b36:	22 c1       	rjmp	.+580    	; 0xd7c <USB_Device_ProcessControlRequest+0x292>
 b38:	98 30       	cpi	r25, 0x08	; 8
 b3a:	09 f4       	brne	.+2      	; 0xb3e <USB_Device_ProcessControlRequest+0x54>
 b3c:	ef c0       	rjmp	.+478    	; 0xd1c <USB_Device_ProcessControlRequest+0x232>
 b3e:	99 30       	cpi	r25, 0x09	; 9
 b40:	09 f4       	brne	.+2      	; 0xb44 <USB_Device_ProcessControlRequest+0x5a>
 b42:	fb c0       	rjmp	.+502    	; 0xd3a <USB_Device_ProcessControlRequest+0x250>
 b44:	96 30       	cpi	r25, 0x06	; 6
 b46:	09 f0       	breq	.+2      	; 0xb4a <USB_Device_ProcessControlRequest+0x60>
 b48:	19 c1       	rjmp	.+562    	; 0xd7c <USB_Device_ProcessControlRequest+0x292>
 b4a:	94 c0       	rjmp	.+296    	; 0xc74 <USB_Device_ProcessControlRequest+0x18a>
 b4c:	80 38       	cpi	r24, 0x80	; 128
 b4e:	21 f0       	breq	.+8      	; 0xb58 <USB_Device_ProcessControlRequest+0x6e>
 b50:	82 38       	cpi	r24, 0x82	; 130
 b52:	09 f0       	breq	.+2      	; 0xb56 <USB_Device_ProcessControlRequest+0x6c>
 b54:	13 c1       	rjmp	.+550    	; 0xd7c <USB_Device_ProcessControlRequest+0x292>
 b56:	08 c0       	rjmp	.+16     	; 0xb68 <USB_Device_ProcessControlRequest+0x7e>
 b58:	80 91 2b 01 	lds	r24, 0x012B	; 0x80012b <USB_Device_CurrentlySelfPowered>
 b5c:	90 91 2c 01 	lds	r25, 0x012C	; 0x80012c <USB_Device_RemoteWakeupEnabled>
 b60:	99 23       	and	r25, r25
 b62:	89 f0       	breq	.+34     	; 0xb86 <USB_Device_ProcessControlRequest+0x9c>
 b64:	82 60       	ori	r24, 0x02	; 2
 b66:	0f c0       	rjmp	.+30     	; 0xb86 <USB_Device_ProcessControlRequest+0x9c>
 b68:	80 91 33 01 	lds	r24, 0x0133	; 0x800133 <USB_ControlRequest+0x4>
 b6c:	8f 70       	andi	r24, 0x0F	; 15
 b6e:	87 30       	cpi	r24, 0x07	; 7
 b70:	08 f0       	brcs	.+2      	; 0xb74 <USB_Device_ProcessControlRequest+0x8a>
 b72:	04 c1       	rjmp	.+520    	; 0xd7c <USB_Device_ProcessControlRequest+0x292>
 b74:	80 93 e9 00 	sts	0x00E9, r24	; 0x8000e9 <__TEXT_REGION_LENGTH__+0x7e00e9>
 b78:	80 91 eb 00 	lds	r24, 0x00EB	; 0x8000eb <__TEXT_REGION_LENGTH__+0x7e00eb>
 b7c:	85 fb       	bst	r24, 5
 b7e:	88 27       	eor	r24, r24
 b80:	80 f9       	bld	r24, 0
 b82:	10 92 e9 00 	sts	0x00E9, r1	; 0x8000e9 <__TEXT_REGION_LENGTH__+0x7e00e9>
 b86:	90 91 e8 00 	lds	r25, 0x00E8	; 0x8000e8 <__TEXT_REGION_LENGTH__+0x7e00e8>
 b8a:	97 7f       	andi	r25, 0xF7	; 247
 b8c:	90 93 e8 00 	sts	0x00E8, r25	; 0x8000e8 <__TEXT_REGION_LENGTH__+0x7e00e8>
 b90:	80 93 f1 00 	sts	0x00F1, r24	; 0x8000f1 <__TEXT_REGION_LENGTH__+0x7e00f1>
 b94:	10 92 f1 00 	sts	0x00F1, r1	; 0x8000f1 <__TEXT_REGION_LENGTH__+0x7e00f1>
 b98:	cc c0       	rjmp	.+408    	; 0xd32 <USB_Device_ProcessControlRequest+0x248>
 b9a:	28 2f       	mov	r18, r24
 b9c:	2d 7f       	andi	r18, 0xFD	; 253
 b9e:	09 f0       	breq	.+2      	; 0xba2 <USB_Device_ProcessControlRequest+0xb8>
 ba0:	ed c0       	rjmp	.+474    	; 0xd7c <USB_Device_ProcessControlRequest+0x292>
 ba2:	88 23       	and	r24, r24
 ba4:	19 f0       	breq	.+6      	; 0xbac <USB_Device_ProcessControlRequest+0xc2>
 ba6:	82 30       	cpi	r24, 0x02	; 2
 ba8:	61 f0       	breq	.+24     	; 0xbc2 <USB_Device_ProcessControlRequest+0xd8>
 baa:	e8 c0       	rjmp	.+464    	; 0xd7c <USB_Device_ProcessControlRequest+0x292>
 bac:	80 91 31 01 	lds	r24, 0x0131	; 0x800131 <USB_ControlRequest+0x2>
 bb0:	81 30       	cpi	r24, 0x01	; 1
 bb2:	09 f0       	breq	.+2      	; 0xbb6 <USB_Device_ProcessControlRequest+0xcc>
 bb4:	e3 c0       	rjmp	.+454    	; 0xd7c <USB_Device_ProcessControlRequest+0x292>
 bb6:	93 30       	cpi	r25, 0x03	; 3
 bb8:	09 f0       	breq	.+2      	; 0xbbc <USB_Device_ProcessControlRequest+0xd2>
 bba:	80 e0       	ldi	r24, 0x00	; 0
 bbc:	80 93 2c 01 	sts	0x012C, r24	; 0x80012c <USB_Device_RemoteWakeupEnabled>
 bc0:	2e c0       	rjmp	.+92     	; 0xc1e <USB_Device_ProcessControlRequest+0x134>
 bc2:	80 91 31 01 	lds	r24, 0x0131	; 0x800131 <USB_ControlRequest+0x2>
 bc6:	81 11       	cpse	r24, r1
 bc8:	2a c0       	rjmp	.+84     	; 0xc1e <USB_Device_ProcessControlRequest+0x134>
 bca:	80 91 33 01 	lds	r24, 0x0133	; 0x800133 <USB_ControlRequest+0x4>
 bce:	8f 70       	andi	r24, 0x0F	; 15
 bd0:	2f ef       	ldi	r18, 0xFF	; 255
 bd2:	28 0f       	add	r18, r24
 bd4:	26 30       	cpi	r18, 0x06	; 6
 bd6:	08 f0       	brcs	.+2      	; 0xbda <USB_Device_ProcessControlRequest+0xf0>
 bd8:	d1 c0       	rjmp	.+418    	; 0xd7c <USB_Device_ProcessControlRequest+0x292>
 bda:	80 93 e9 00 	sts	0x00E9, r24	; 0x8000e9 <__TEXT_REGION_LENGTH__+0x7e00e9>
 bde:	20 91 eb 00 	lds	r18, 0x00EB	; 0x8000eb <__TEXT_REGION_LENGTH__+0x7e00eb>
 be2:	20 ff       	sbrs	r18, 0
 be4:	1c c0       	rjmp	.+56     	; 0xc1e <USB_Device_ProcessControlRequest+0x134>
 be6:	93 30       	cpi	r25, 0x03	; 3
 be8:	21 f4       	brne	.+8      	; 0xbf2 <USB_Device_ProcessControlRequest+0x108>
 bea:	80 91 eb 00 	lds	r24, 0x00EB	; 0x8000eb <__TEXT_REGION_LENGTH__+0x7e00eb>
 bee:	80 62       	ori	r24, 0x20	; 32
 bf0:	14 c0       	rjmp	.+40     	; 0xc1a <USB_Device_ProcessControlRequest+0x130>
 bf2:	90 91 eb 00 	lds	r25, 0x00EB	; 0x8000eb <__TEXT_REGION_LENGTH__+0x7e00eb>
 bf6:	90 61       	ori	r25, 0x10	; 16
 bf8:	90 93 eb 00 	sts	0x00EB, r25	; 0x8000eb <__TEXT_REGION_LENGTH__+0x7e00eb>
 bfc:	21 e0       	ldi	r18, 0x01	; 1
 bfe:	30 e0       	ldi	r19, 0x00	; 0
 c00:	a9 01       	movw	r20, r18
 c02:	02 c0       	rjmp	.+4      	; 0xc08 <USB_Device_ProcessControlRequest+0x11e>
 c04:	44 0f       	add	r20, r20
 c06:	55 1f       	adc	r21, r21
 c08:	8a 95       	dec	r24
 c0a:	e2 f7       	brpl	.-8      	; 0xc04 <USB_Device_ProcessControlRequest+0x11a>
 c0c:	40 93 ea 00 	sts	0x00EA, r20	; 0x8000ea <__TEXT_REGION_LENGTH__+0x7e00ea>
 c10:	10 92 ea 00 	sts	0x00EA, r1	; 0x8000ea <__TEXT_REGION_LENGTH__+0x7e00ea>
 c14:	80 91 eb 00 	lds	r24, 0x00EB	; 0x8000eb <__TEXT_REGION_LENGTH__+0x7e00eb>
 c18:	88 60       	ori	r24, 0x08	; 8
 c1a:	80 93 eb 00 	sts	0x00EB, r24	; 0x8000eb <__TEXT_REGION_LENGTH__+0x7e00eb>
 c1e:	10 92 e9 00 	sts	0x00E9, r1	; 0x8000e9 <__TEXT_REGION_LENGTH__+0x7e00e9>
 c22:	80 91 e8 00 	lds	r24, 0x00E8	; 0x8000e8 <__TEXT_REGION_LENGTH__+0x7e00e8>
 c26:	87 7f       	andi	r24, 0xF7	; 247
 c28:	80 93 e8 00 	sts	0x00E8, r24	; 0x8000e8 <__TEXT_REGION_LENGTH__+0x7e00e8>
 c2c:	96 dd       	rcall	.-1236   	; 0x75a <Endpoint_ClearStatusStage>
 c2e:	a6 c0       	rjmp	.+332    	; 0xd7c <USB_Device_ProcessControlRequest+0x292>
 c30:	81 11       	cpse	r24, r1
 c32:	a4 c0       	rjmp	.+328    	; 0xd7c <USB_Device_ProcessControlRequest+0x292>
 c34:	10 91 31 01 	lds	r17, 0x0131	; 0x800131 <USB_ControlRequest+0x2>
 c38:	1f 77       	andi	r17, 0x7F	; 127
 c3a:	80 91 e3 00 	lds	r24, 0x00E3	; 0x8000e3 <__TEXT_REGION_LENGTH__+0x7e00e3>
 c3e:	80 78       	andi	r24, 0x80	; 128
 c40:	81 2b       	or	r24, r17
 c42:	80 93 e3 00 	sts	0x00E3, r24	; 0x8000e3 <__TEXT_REGION_LENGTH__+0x7e00e3>
 c46:	80 91 e8 00 	lds	r24, 0x00E8	; 0x8000e8 <__TEXT_REGION_LENGTH__+0x7e00e8>
 c4a:	87 7f       	andi	r24, 0xF7	; 247
 c4c:	80 93 e8 00 	sts	0x00E8, r24	; 0x8000e8 <__TEXT_REGION_LENGTH__+0x7e00e8>
 c50:	84 dd       	rcall	.-1272   	; 0x75a <Endpoint_ClearStatusStage>
 c52:	80 91 e8 00 	lds	r24, 0x00E8	; 0x8000e8 <__TEXT_REGION_LENGTH__+0x7e00e8>
 c56:	80 ff       	sbrs	r24, 0
 c58:	fc cf       	rjmp	.-8      	; 0xc52 <USB_Device_ProcessControlRequest+0x168>
 c5a:	80 91 e3 00 	lds	r24, 0x00E3	; 0x8000e3 <__TEXT_REGION_LENGTH__+0x7e00e3>
 c5e:	80 68       	ori	r24, 0x80	; 128
 c60:	80 93 e3 00 	sts	0x00E3, r24	; 0x8000e3 <__TEXT_REGION_LENGTH__+0x7e00e3>
 c64:	11 11       	cpse	r17, r1
 c66:	02 c0       	rjmp	.+4      	; 0xc6c <USB_Device_ProcessControlRequest+0x182>
 c68:	82 e0       	ldi	r24, 0x02	; 2
 c6a:	01 c0       	rjmp	.+2      	; 0xc6e <USB_Device_ProcessControlRequest+0x184>
 c6c:	83 e0       	ldi	r24, 0x03	; 3
 c6e:	80 93 2e 01 	sts	0x012E, r24	; 0x80012e <USB_DeviceState>
 c72:	84 c0       	rjmp	.+264    	; 0xd7c <USB_Device_ProcessControlRequest+0x292>
 c74:	80 58       	subi	r24, 0x80	; 128
 c76:	82 30       	cpi	r24, 0x02	; 2
 c78:	08 f0       	brcs	.+2      	; 0xc7c <USB_Device_ProcessControlRequest+0x192>
 c7a:	80 c0       	rjmp	.+256    	; 0xd7c <USB_Device_ProcessControlRequest+0x292>
 c7c:	80 91 31 01 	lds	r24, 0x0131	; 0x800131 <USB_ControlRequest+0x2>
 c80:	90 91 32 01 	lds	r25, 0x0132	; 0x800132 <USB_ControlRequest+0x3>
 c84:	8c 3d       	cpi	r24, 0xDC	; 220
 c86:	53 e0       	ldi	r21, 0x03	; 3
 c88:	95 07       	cpc	r25, r21
 c8a:	71 f5       	brne	.+92     	; 0xce8 <USB_Device_ProcessControlRequest+0x1fe>
 c8c:	83 e0       	ldi	r24, 0x03	; 3
 c8e:	8a 83       	std	Y+2, r24	; 0x02
 c90:	8a e2       	ldi	r24, 0x2A	; 42
 c92:	89 83       	std	Y+1, r24	; 0x01
 c94:	4f b7       	in	r20, 0x3f	; 63
 c96:	f8 94       	cli
 c98:	de 01       	movw	r26, r28
 c9a:	13 96       	adiw	r26, 0x03	; 3
 c9c:	20 e0       	ldi	r18, 0x00	; 0
 c9e:	3e e0       	ldi	r19, 0x0E	; 14
 ca0:	51 e2       	ldi	r21, 0x21	; 33
 ca2:	e3 2f       	mov	r30, r19
 ca4:	f0 e0       	ldi	r31, 0x00	; 0
 ca6:	50 93 57 00 	sts	0x0057, r21	; 0x800057 <__TEXT_REGION_LENGTH__+0x7e0057>
 caa:	e4 91       	lpm	r30, Z
 cac:	20 ff       	sbrs	r18, 0
 cae:	03 c0       	rjmp	.+6      	; 0xcb6 <USB_Device_ProcessControlRequest+0x1cc>
 cb0:	e2 95       	swap	r30
 cb2:	ef 70       	andi	r30, 0x0F	; 15
 cb4:	3f 5f       	subi	r19, 0xFF	; 255
 cb6:	ef 70       	andi	r30, 0x0F	; 15
 cb8:	8e 2f       	mov	r24, r30
 cba:	90 e0       	ldi	r25, 0x00	; 0
 cbc:	ea 30       	cpi	r30, 0x0A	; 10
 cbe:	10 f0       	brcs	.+4      	; 0xcc4 <USB_Device_ProcessControlRequest+0x1da>
 cc0:	c7 96       	adiw	r24, 0x37	; 55
 cc2:	01 c0       	rjmp	.+2      	; 0xcc6 <USB_Device_ProcessControlRequest+0x1dc>
 cc4:	c0 96       	adiw	r24, 0x30	; 48
 cc6:	8d 93       	st	X+, r24
 cc8:	9d 93       	st	X+, r25
 cca:	2f 5f       	subi	r18, 0xFF	; 255
 ccc:	24 31       	cpi	r18, 0x14	; 20
 cce:	49 f7       	brne	.-46     	; 0xca2 <USB_Device_ProcessControlRequest+0x1b8>
 cd0:	4f bf       	out	0x3f, r20	; 63
 cd2:	80 91 e8 00 	lds	r24, 0x00E8	; 0x8000e8 <__TEXT_REGION_LENGTH__+0x7e00e8>
 cd6:	87 7f       	andi	r24, 0xF7	; 247
 cd8:	80 93 e8 00 	sts	0x00E8, r24	; 0x8000e8 <__TEXT_REGION_LENGTH__+0x7e00e8>
 cdc:	6a e2       	ldi	r22, 0x2A	; 42
 cde:	70 e0       	ldi	r23, 0x00	; 0
 ce0:	ce 01       	movw	r24, r28
 ce2:	01 96       	adiw	r24, 0x01	; 1
 ce4:	0d dc       	rcall	.-2022   	; 0x500 <Endpoint_Write_Control_Stream_LE>
 ce6:	14 c0       	rjmp	.+40     	; 0xd10 <USB_Device_ProcessControlRequest+0x226>
 ce8:	60 91 33 01 	lds	r22, 0x0133	; 0x800133 <USB_ControlRequest+0x4>
 cec:	70 91 34 01 	lds	r23, 0x0134	; 0x800134 <USB_ControlRequest+0x5>
 cf0:	ae 01       	movw	r20, r28
 cf2:	4f 5f       	subi	r20, 0xFF	; 255
 cf4:	5f 4f       	sbci	r21, 0xFF	; 255
 cf6:	34 da       	rcall	.-2968   	; 0x160 <CALLBACK_USB_GetDescriptor>
 cf8:	bc 01       	movw	r22, r24
 cfa:	89 2b       	or	r24, r25
 cfc:	09 f4       	brne	.+2      	; 0xd00 <USB_Device_ProcessControlRequest+0x216>
 cfe:	3e c0       	rjmp	.+124    	; 0xd7c <USB_Device_ProcessControlRequest+0x292>
 d00:	90 91 e8 00 	lds	r25, 0x00E8	; 0x8000e8 <__TEXT_REGION_LENGTH__+0x7e00e8>
 d04:	97 7f       	andi	r25, 0xF7	; 247
 d06:	90 93 e8 00 	sts	0x00E8, r25	; 0x8000e8 <__TEXT_REGION_LENGTH__+0x7e00e8>
 d0a:	89 81       	ldd	r24, Y+1	; 0x01
 d0c:	9a 81       	ldd	r25, Y+2	; 0x02
 d0e:	54 dc       	rcall	.-1880   	; 0x5b8 <Endpoint_Write_Control_PStream_LE>
 d10:	80 91 e8 00 	lds	r24, 0x00E8	; 0x8000e8 <__TEXT_REGION_LENGTH__+0x7e00e8>
 d14:	8b 77       	andi	r24, 0x7B	; 123
 d16:	80 93 e8 00 	sts	0x00E8, r24	; 0x8000e8 <__TEXT_REGION_LENGTH__+0x7e00e8>
 d1a:	30 c0       	rjmp	.+96     	; 0xd7c <USB_Device_ProcessControlRequest+0x292>
 d1c:	80 38       	cpi	r24, 0x80	; 128
 d1e:	71 f5       	brne	.+92     	; 0xd7c <USB_Device_ProcessControlRequest+0x292>
 d20:	80 91 e8 00 	lds	r24, 0x00E8	; 0x8000e8 <__TEXT_REGION_LENGTH__+0x7e00e8>
 d24:	87 7f       	andi	r24, 0xF7	; 247
 d26:	80 93 e8 00 	sts	0x00E8, r24	; 0x8000e8 <__TEXT_REGION_LENGTH__+0x7e00e8>
 d2a:	80 91 2a 01 	lds	r24, 0x012A	; 0x80012a <USB_Device_ConfigurationNumber>
 d2e:	80 93 f1 00 	sts	0x00F1, r24	; 0x8000f1 <__TEXT_REGION_LENGTH__+0x7e00f1>
 d32:	80 91 e8 00 	lds	r24, 0x00E8	; 0x8000e8 <__TEXT_REGION_LENGTH__+0x7e00e8>
 d36:	8e 77       	andi	r24, 0x7E	; 126
 d38:	77 cf       	rjmp	.-274    	; 0xc28 <USB_Device_ProcessControlRequest+0x13e>
 d3a:	81 11       	cpse	r24, r1
 d3c:	1f c0       	rjmp	.+62     	; 0xd7c <USB_Device_ProcessControlRequest+0x292>
 d3e:	80 91 31 01 	lds	r24, 0x0131	; 0x800131 <USB_ControlRequest+0x2>
 d42:	90 91 32 01 	lds	r25, 0x0132	; 0x800132 <USB_ControlRequest+0x3>
 d46:	99 27       	eor	r25, r25
 d48:	02 97       	sbiw	r24, 0x02	; 2
 d4a:	c4 f4       	brge	.+48     	; 0xd7c <USB_Device_ProcessControlRequest+0x292>
 d4c:	80 91 e8 00 	lds	r24, 0x00E8	; 0x8000e8 <__TEXT_REGION_LENGTH__+0x7e00e8>
 d50:	87 7f       	andi	r24, 0xF7	; 247
 d52:	80 93 e8 00 	sts	0x00E8, r24	; 0x8000e8 <__TEXT_REGION_LENGTH__+0x7e00e8>
 d56:	80 91 31 01 	lds	r24, 0x0131	; 0x800131 <USB_ControlRequest+0x2>
 d5a:	80 93 2a 01 	sts	0x012A, r24	; 0x80012a <USB_Device_ConfigurationNumber>
 d5e:	fd dc       	rcall	.-1542   	; 0x75a <Endpoint_ClearStatusStage>
 d60:	80 91 2a 01 	lds	r24, 0x012A	; 0x80012a <USB_Device_ConfigurationNumber>
 d64:	81 11       	cpse	r24, r1
 d66:	06 c0       	rjmp	.+12     	; 0xd74 <USB_Device_ProcessControlRequest+0x28a>
 d68:	80 91 e3 00 	lds	r24, 0x00E3	; 0x8000e3 <__TEXT_REGION_LENGTH__+0x7e00e3>
 d6c:	87 fd       	sbrc	r24, 7
 d6e:	02 c0       	rjmp	.+4      	; 0xd74 <USB_Device_ProcessControlRequest+0x28a>
 d70:	81 e0       	ldi	r24, 0x01	; 1
 d72:	01 c0       	rjmp	.+2      	; 0xd76 <USB_Device_ProcessControlRequest+0x28c>
 d74:	84 e0       	ldi	r24, 0x04	; 4
 d76:	80 93 2e 01 	sts	0x012E, r24	; 0x80012e <USB_DeviceState>
 d7a:	5c d0       	rcall	.+184    	; 0xe34 <EVENT_USB_Device_ConfigurationChanged>
 d7c:	80 91 e8 00 	lds	r24, 0x00E8	; 0x8000e8 <__TEXT_REGION_LENGTH__+0x7e00e8>
 d80:	83 ff       	sbrs	r24, 3
 d82:	0a c0       	rjmp	.+20     	; 0xd98 <USB_Device_ProcessControlRequest+0x2ae>
 d84:	80 91 e8 00 	lds	r24, 0x00E8	; 0x8000e8 <__TEXT_REGION_LENGTH__+0x7e00e8>
 d88:	87 7f       	andi	r24, 0xF7	; 247
 d8a:	80 93 e8 00 	sts	0x00E8, r24	; 0x8000e8 <__TEXT_REGION_LENGTH__+0x7e00e8>
 d8e:	80 91 eb 00 	lds	r24, 0x00EB	; 0x8000eb <__TEXT_REGION_LENGTH__+0x7e00eb>
 d92:	80 62       	ori	r24, 0x20	; 32
 d94:	80 93 eb 00 	sts	0x00EB, r24	; 0x8000eb <__TEXT_REGION_LENGTH__+0x7e00eb>
 d98:	aa 96       	adiw	r28, 0x2a	; 42
 d9a:	0f b6       	in	r0, 0x3f	; 63
 d9c:	f8 94       	cli
 d9e:	de bf       	out	0x3e, r29	; 62
 da0:	0f be       	out	0x3f, r0	; 63
 da2:	cd bf       	out	0x3d, r28	; 61
 da4:	df 91       	pop	r29
 da6:	cf 91       	pop	r28
 da8:	1f 91       	pop	r17
 daa:	08 95       	ret

00000dac <USB_Event_Stub>:
 dac:	08 95       	ret

00000dae <USB_USBTask>:
 dae:	cf 93       	push	r28
 db0:	80 91 2e 01 	lds	r24, 0x012E	; 0x80012e <USB_DeviceState>
 db4:	88 23       	and	r24, r24
 db6:	99 f0       	breq	.+38     	; 0xdde <USB_USBTask+0x30>
 db8:	c0 91 e9 00 	lds	r28, 0x00E9	; 0x8000e9 <__TEXT_REGION_LENGTH__+0x7e00e9>
 dbc:	cf 70       	andi	r28, 0x0F	; 15
 dbe:	90 91 ec 00 	lds	r25, 0x00EC	; 0x8000ec <__TEXT_REGION_LENGTH__+0x7e00ec>
 dc2:	89 2f       	mov	r24, r25
 dc4:	81 70       	andi	r24, 0x01	; 1
 dc6:	90 fd       	sbrc	r25, 0
 dc8:	80 e8       	ldi	r24, 0x80	; 128
 dca:	c8 2b       	or	r28, r24
 dcc:	10 92 e9 00 	sts	0x00E9, r1	; 0x8000e9 <__TEXT_REGION_LENGTH__+0x7e00e9>
 dd0:	80 91 e8 00 	lds	r24, 0x00E8	; 0x8000e8 <__TEXT_REGION_LENGTH__+0x7e00e8>
 dd4:	83 fd       	sbrc	r24, 3
 dd6:	89 de       	rcall	.-750    	; 0xaea <USB_Device_ProcessControlRequest>
 dd8:	cf 70       	andi	r28, 0x0F	; 15
 dda:	c0 93 e9 00 	sts	0x00E9, r28	; 0x8000e9 <__TEXT_REGION_LENGTH__+0x7e00e9>
 dde:	cf 91       	pop	r28
 de0:	08 95       	ret

00000de2 <SetupHardware>:
 de2:	84 b7       	in	r24, 0x34	; 52
 de4:	87 7f       	andi	r24, 0xF7	; 247
 de6:	84 bf       	out	0x34, r24	; 52
 de8:	0f b6       	in	r0, 0x3f	; 63
 dea:	f8 94       	cli
 dec:	a8 95       	wdr
 dee:	80 91 60 00 	lds	r24, 0x0060	; 0x800060 <__TEXT_REGION_LENGTH__+0x7e0060>
 df2:	88 61       	ori	r24, 0x18	; 24
 df4:	80 93 60 00 	sts	0x0060, r24	; 0x800060 <__TEXT_REGION_LENGTH__+0x7e0060>
 df8:	10 92 60 00 	sts	0x0060, r1	; 0x800060 <__TEXT_REGION_LENGTH__+0x7e0060>
 dfc:	0f be       	out	0x3f, r0	; 63
 dfe:	90 e0       	ldi	r25, 0x00	; 0
 e00:	80 e8       	ldi	r24, 0x80	; 128
 e02:	0f b6       	in	r0, 0x3f	; 63
 e04:	f8 94       	cli
 e06:	80 93 61 00 	sts	0x0061, r24	; 0x800061 <__TEXT_REGION_LENGTH__+0x7e0061>
 e0a:	90 93 61 00 	sts	0x0061, r25	; 0x800061 <__TEXT_REGION_LENGTH__+0x7e0061>
 e0e:	0f be       	out	0x3f, r0	; 63
 e10:	3b cd       	rjmp	.-1418   	; 0x888 <USB_Init>

00000e12 <main>:
 e12:	e7 df       	rcall	.-50     	; 0xde2 <SetupHardware>
 e14:	6c e1       	ldi	r22, 0x1C	; 28
 e16:	71 e0       	ldi	r23, 0x01	; 1
 e18:	80 e0       	ldi	r24, 0x00	; 0
 e1a:	91 e0       	ldi	r25, 0x01	; 1
 e1c:	ad da       	rcall	.-2726   	; 0x378 <CDC_Device_CreateStream>
 e1e:	78 94       	sei
 e20:	80 e0       	ldi	r24, 0x00	; 0
 e22:	91 e0       	ldi	r25, 0x01	; 1
 e24:	6f da       	rcall	.-2850   	; 0x304 <CDC_Device_ReceiveByte>
 e26:	80 e0       	ldi	r24, 0x00	; 0
 e28:	91 e0       	ldi	r25, 0x01	; 1
 e2a:	56 da       	rcall	.-2900   	; 0x2d8 <CDC_Device_USBTask>
 e2c:	c0 df       	rcall	.-128    	; 0xdae <USB_USBTask>
 e2e:	f8 cf       	rjmp	.-16     	; 0xe20 <main+0xe>

00000e30 <EVENT_USB_Device_Connect>:
 e30:	08 95       	ret

00000e32 <EVENT_USB_Device_Disconnect>:
 e32:	08 95       	ret

00000e34 <EVENT_USB_Device_ConfigurationChanged>:
 e34:	80 e0       	ldi	r24, 0x00	; 0
 e36:	91 e0       	ldi	r25, 0x01	; 1
 e38:	c3 c9       	rjmp	.-3194   	; 0x1c0 <CDC_Device_ConfigureEndpoints>

00000e3a <EVENT_USB_Device_ControlRequest>:
 e3a:	80 e0       	ldi	r24, 0x00	; 0
 e3c:	91 e0       	ldi	r25, 0x01	; 1
 e3e:	b0 ca       	rjmp	.-2720   	; 0x3a0 <CDC_Device_ProcessControlRequest>

00000e40 <EVENT_CDC_Device_ControLineStateChanged>:
 e40:	08 95       	ret

00000e42 <_exit>:
 e42:	f8 94       	cli

00000e44 <__stop_program>:
 e44:	ff cf       	rjmp	.-2      	; 0xe44 <__stop_program>
