
at90masskeyboardvirtualserial2gbsd.elf:     file format elf32-avr

Sections:
Idx Name          Size      VMA       LMA       File off  Algn
  0 .data         00000422  00800100  000031aa  0000323e  2**0
                  CONTENTS, ALLOC, LOAD, DATA
  1 .text         000031aa  00000000  00000000  00000094  2**1
                  CONTENTS, ALLOC, LOAD, READONLY, CODE
  2 .bss          00000457  00800522  00800522  00003660  2**0
                  ALLOC
  3 .noinit       00000004  00800979  00800979  00003660  2**0
                  ALLOC
  4 .comment      0000005c  00000000  00000000  00003660  2**0
                  CONTENTS, READONLY
  5 .note.gnu.avr.deviceinfo 00000040  00000000  00000000  000036bc  2**2
                  CONTENTS, READONLY
  6 .debug_info   00000b70  00000000  00000000  000036fc  2**0
                  CONTENTS, READONLY, DEBUGGING
  7 .debug_abbrev 00000ad2  00000000  00000000  0000426c  2**0
                  CONTENTS, READONLY, DEBUGGING
  8 .debug_line   0000017b  00000000  00000000  00004d3e  2**0
                  CONTENTS, READONLY, DEBUGGING
  9 .debug_str    000003f7  00000000  00000000  00004eb9  2**0
                  CONTENTS, READONLY, DEBUGGING

Disassembly of section .text:

00000000 <__vectors>:
       0:	94 c0       	rjmp	.+296    	; 0x12a <__ctors_end>
       2:	00 00       	nop
       4:	b0 c0       	rjmp	.+352    	; 0x166 <__bad_interrupt>
       6:	00 00       	nop
       8:	ae c0       	rjmp	.+348    	; 0x166 <__bad_interrupt>
       a:	00 00       	nop
       c:	ac c0       	rjmp	.+344    	; 0x166 <__bad_interrupt>
       e:	00 00       	nop
      10:	aa c0       	rjmp	.+340    	; 0x166 <__bad_interrupt>
      12:	00 00       	nop
      14:	a8 c0       	rjmp	.+336    	; 0x166 <__bad_interrupt>
      16:	00 00       	nop
      18:	a6 c0       	rjmp	.+332    	; 0x166 <__bad_interrupt>
      1a:	00 00       	nop
      1c:	a4 c0       	rjmp	.+328    	; 0x166 <__bad_interrupt>
      1e:	00 00       	nop
      20:	a2 c0       	rjmp	.+324    	; 0x166 <__bad_interrupt>
      22:	00 00       	nop
      24:	a0 c0       	rjmp	.+320    	; 0x166 <__bad_interrupt>
      26:	00 00       	nop
      28:	0c 94 72 12 	jmp	0x24e4	; 0x24e4 <__vector_10>
      2c:	0c 94 44 13 	jmp	0x2688	; 0x2688 <__vector_11>
      30:	9a c0       	rjmp	.+308    	; 0x166 <__bad_interrupt>
      32:	00 00       	nop
      34:	98 c0       	rjmp	.+304    	; 0x166 <__bad_interrupt>
      36:	00 00       	nop
      38:	96 c0       	rjmp	.+300    	; 0x166 <__bad_interrupt>
      3a:	00 00       	nop
      3c:	94 c0       	rjmp	.+296    	; 0x166 <__bad_interrupt>
      3e:	00 00       	nop
      40:	92 c0       	rjmp	.+292    	; 0x166 <__bad_interrupt>
      42:	00 00       	nop
      44:	90 c0       	rjmp	.+288    	; 0x166 <__bad_interrupt>
      46:	00 00       	nop
      48:	8e c0       	rjmp	.+284    	; 0x166 <__bad_interrupt>
      4a:	00 00       	nop
      4c:	8c c0       	rjmp	.+280    	; 0x166 <__bad_interrupt>
      4e:	00 00       	nop
      50:	8a c0       	rjmp	.+276    	; 0x166 <__bad_interrupt>
      52:	00 00       	nop
      54:	88 c0       	rjmp	.+272    	; 0x166 <__bad_interrupt>
      56:	00 00       	nop
      58:	86 c0       	rjmp	.+268    	; 0x166 <__bad_interrupt>
      5a:	00 00       	nop
      5c:	84 c0       	rjmp	.+264    	; 0x166 <__bad_interrupt>
      5e:	00 00       	nop
      60:	82 c0       	rjmp	.+260    	; 0x166 <__bad_interrupt>
      62:	00 00       	nop
      64:	80 c0       	rjmp	.+256    	; 0x166 <__bad_interrupt>
      66:	00 00       	nop
      68:	7e c0       	rjmp	.+252    	; 0x166 <__bad_interrupt>
      6a:	00 00       	nop
      6c:	7c c0       	rjmp	.+248    	; 0x166 <__bad_interrupt>
      6e:	00 00       	nop
      70:	7a c0       	rjmp	.+244    	; 0x166 <__bad_interrupt>
      72:	00 00       	nop
      74:	78 c0       	rjmp	.+240    	; 0x166 <__bad_interrupt>
      76:	00 00       	nop
      78:	76 c0       	rjmp	.+236    	; 0x166 <__bad_interrupt>
      7a:	00 00       	nop
      7c:	74 c0       	rjmp	.+232    	; 0x166 <__bad_interrupt>
      7e:	00 00       	nop
      80:	72 c0       	rjmp	.+228    	; 0x166 <__bad_interrupt>
      82:	00 00       	nop
      84:	70 c0       	rjmp	.+224    	; 0x166 <__bad_interrupt>
      86:	00 00       	nop
      88:	6e c0       	rjmp	.+220    	; 0x166 <__bad_interrupt>
      8a:	00 00       	nop
      8c:	6c c0       	rjmp	.+216    	; 0x166 <__bad_interrupt>
      8e:	00 00       	nop
      90:	6a c0       	rjmp	.+212    	; 0x166 <__bad_interrupt>
      92:	00 00       	nop
      94:	68 c0       	rjmp	.+208    	; 0x166 <__bad_interrupt>
	...

00000098 <__trampolines_end>:
      98:	52 65       	ori	r21, 0x52	; 82
      9a:	61 64       	ori	r22, 0x41	; 65
      9c:	79 0d       	add	r23, r9
      9e:	0a 00       	.word	0x000a	; ????

000000a0 <__c.4759>:
      a0:	44 69 73 63 6f 6e 6e 65 63 74 0d 0a 00              Disconnect...

000000ad <__c.4754>:
      ad:	43 6f 6e 6e 65 63 74 0d 0a 00                       Connect...

000000b7 <__c.4749>:
      b7:	68 74 74 70 73 3a 2f 2f 77 77 77 2e 66 72 33 33     https://www.fr33
      c7:	70 72 6f 6a 65 63 74 2e 6f 72 67 0d 0a 70 6f 77     project.org..pow
      d7:	65 72 65 64 20 62 79 20 4c 55 46 41 0d 0a 0d 0a     ered by LUFA....
	...

000000e8 <__c.4721>:
      e8:	52 20 25 6c 69 20 25 69 0d 0a 00                    R %li %i...

000000f3 <__c.4701>:
      f3:	57 20 25 6c 69 20 25 69 0d 0a 00                    W %li %i...

000000fe <__c.4687>:
      fe:	0d 0a 53 44 20 62 6c 6f 63 6b 73 3a 20 25 6c 69     ..SD blocks: %li
     10e:	0d 0a 00                                            ...

00000111 <__c.4681>:
     111:	0d 0a 0d 0a 00                                      .....

00000116 <__c.4679>:
     116:	66 69 72 73 74 20 53 44 20 73 65 63 74 6f 72 3a     first SD sector:
     126:	0d 0a 00 00                                         ....

0000012a <__ctors_end>:
     12a:	11 24       	eor	r1, r1
     12c:	1f be       	out	0x3f, r1	; 63
     12e:	cf ef       	ldi	r28, 0xFF	; 255
     130:	d0 e2       	ldi	r29, 0x20	; 32
     132:	de bf       	out	0x3e, r29	; 62
     134:	cd bf       	out	0x3d, r28	; 61

00000136 <__do_copy_data>:
     136:	15 e0       	ldi	r17, 0x05	; 5
     138:	a0 e0       	ldi	r26, 0x00	; 0
     13a:	b1 e0       	ldi	r27, 0x01	; 1
     13c:	ea ea       	ldi	r30, 0xAA	; 170
     13e:	f1 e3       	ldi	r31, 0x31	; 49
     140:	00 e0       	ldi	r16, 0x00	; 0
     142:	0b bf       	out	0x3b, r16	; 59
     144:	02 c0       	rjmp	.+4      	; 0x14a <__do_copy_data+0x14>
     146:	07 90       	elpm	r0, Z+
     148:	0d 92       	st	X+, r0
     14a:	a2 32       	cpi	r26, 0x22	; 34
     14c:	b1 07       	cpc	r27, r17
     14e:	d9 f7       	brne	.-10     	; 0x146 <__do_copy_data+0x10>

00000150 <__do_clear_bss>:
     150:	29 e0       	ldi	r18, 0x09	; 9
     152:	a2 e2       	ldi	r26, 0x22	; 34
     154:	b5 e0       	ldi	r27, 0x05	; 5
     156:	01 c0       	rjmp	.+2      	; 0x15a <.do_clear_bss_start>

00000158 <.do_clear_bss_loop>:
     158:	1d 92       	st	X+, r1

0000015a <.do_clear_bss_start>:
     15a:	a9 37       	cpi	r26, 0x79	; 121
     15c:	b2 07       	cpc	r27, r18
     15e:	e1 f7       	brne	.-8      	; 0x158 <.do_clear_bss_loop>
     160:	7d d4       	rcall	.+2298   	; 0xa5c <main>
     162:	0c 94 d3 18 	jmp	0x31a6	; 0x31a6 <_exit>

00000166 <__bad_interrupt>:
     166:	4c cf       	rjmp	.-360    	; 0x0 <__vectors>

00000168 <on_sd>:
     168:	26 9a       	sbi	0x04, 6	; 4
     16a:	2e 98       	cbi	0x05, 6	; 5
     16c:	08 95       	ret

0000016e <uart_putc>:
     16e:	90 91 c8 00 	lds	r25, 0x00C8	; 0x8000c8 <__TEXT_REGION_LENGTH__+0x7e00c8>
     172:	95 ff       	sbrs	r25, 5
     174:	fc cf       	rjmp	.-8      	; 0x16e <uart_putc>
     176:	80 93 ce 00 	sts	0x00CE, r24	; 0x8000ce <__TEXT_REGION_LENGTH__+0x7e00ce>
     17a:	08 95       	ret

0000017c <uart_puts>:
     17c:	cf 93       	push	r28
     17e:	df 93       	push	r29
     180:	ec 01       	movw	r28, r24
     182:	88 81       	ld	r24, Y
     184:	88 23       	and	r24, r24
     186:	71 f0       	breq	.+28     	; 0x1a4 <uart_puts+0x28>
     188:	8a 30       	cpi	r24, 0x0A	; 10
     18a:	39 f4       	brne	.+14     	; 0x19a <uart_puts+0x1e>
     18c:	90 91 22 05 	lds	r25, 0x0522	; 0x800522 <__data_end>
     190:	9d 30       	cpi	r25, 0x0D	; 13
     192:	19 f0       	breq	.+6      	; 0x19a <uart_puts+0x1e>
     194:	8d e0       	ldi	r24, 0x0D	; 13
     196:	eb df       	rcall	.-42     	; 0x16e <uart_putc>
     198:	8a e0       	ldi	r24, 0x0A	; 10
     19a:	e9 df       	rcall	.-46     	; 0x16e <uart_putc>
     19c:	89 91       	ld	r24, Y+
     19e:	80 93 22 05 	sts	0x0522, r24	; 0x800522 <__data_end>
     1a2:	ef cf       	rjmp	.-34     	; 0x182 <uart_puts+0x6>
     1a4:	df 91       	pop	r29
     1a6:	cf 91       	pop	r28
     1a8:	08 95       	ret

000001aa <uart_putsnl>:
     1aa:	e8 df       	rcall	.-48     	; 0x17c <uart_puts>
     1ac:	8b e4       	ldi	r24, 0x4B	; 75
     1ae:	94 e0       	ldi	r25, 0x04	; 4
     1b0:	e5 cf       	rjmp	.-54     	; 0x17c <uart_puts>

000001b2 <uart_printhexchar>:
     1b2:	1f 93       	push	r17
     1b4:	cf 93       	push	r28
     1b6:	df 93       	push	r29
     1b8:	cd b7       	in	r28, 0x3d	; 61
     1ba:	de b7       	in	r29, 0x3e	; 62
     1bc:	61 97       	sbiw	r28, 0x11	; 17
     1be:	0f b6       	in	r0, 0x3f	; 63
     1c0:	f8 94       	cli
     1c2:	de bf       	out	0x3e, r29	; 62
     1c4:	0f be       	out	0x3f, r0	; 63
     1c6:	cd bf       	out	0x3d, r28	; 61
     1c8:	18 2f       	mov	r17, r24
     1ca:	81 e1       	ldi	r24, 0x11	; 17
     1cc:	e6 ea       	ldi	r30, 0xA6	; 166
     1ce:	f1 e0       	ldi	r31, 0x01	; 1
     1d0:	de 01       	movw	r26, r28
     1d2:	11 96       	adiw	r26, 0x01	; 1
     1d4:	01 90       	ld	r0, Z+
     1d6:	0d 92       	st	X+, r0
     1d8:	8a 95       	dec	r24
     1da:	e1 f7       	brne	.-8      	; 0x1d4 <uart_printhexchar+0x22>
     1dc:	81 2f       	mov	r24, r17
     1de:	82 95       	swap	r24
     1e0:	8f 70       	andi	r24, 0x0F	; 15
     1e2:	e1 e0       	ldi	r30, 0x01	; 1
     1e4:	f0 e0       	ldi	r31, 0x00	; 0
     1e6:	ec 0f       	add	r30, r28
     1e8:	fd 1f       	adc	r31, r29
     1ea:	e8 0f       	add	r30, r24
     1ec:	f1 1d       	adc	r31, r1
     1ee:	80 81       	ld	r24, Z
     1f0:	be df       	rcall	.-132    	; 0x16e <uart_putc>
     1f2:	1f 70       	andi	r17, 0x0F	; 15
     1f4:	e1 e0       	ldi	r30, 0x01	; 1
     1f6:	f0 e0       	ldi	r31, 0x00	; 0
     1f8:	ec 0f       	add	r30, r28
     1fa:	fd 1f       	adc	r31, r29
     1fc:	e1 0f       	add	r30, r17
     1fe:	f1 1d       	adc	r31, r1
     200:	80 81       	ld	r24, Z
     202:	61 96       	adiw	r28, 0x11	; 17
     204:	0f b6       	in	r0, 0x3f	; 63
     206:	f8 94       	cli
     208:	de bf       	out	0x3e, r29	; 62
     20a:	0f be       	out	0x3f, r0	; 63
     20c:	cd bf       	out	0x3d, r28	; 61
     20e:	df 91       	pop	r29
     210:	cf 91       	pop	r28
     212:	1f 91       	pop	r17
     214:	ac cf       	rjmp	.-168    	; 0x16e <uart_putc>

00000216 <uart_printhexdump>:
     216:	9f 92       	push	r9
     218:	af 92       	push	r10
     21a:	bf 92       	push	r11
     21c:	cf 92       	push	r12
     21e:	df 92       	push	r13
     220:	ef 92       	push	r14
     222:	ff 92       	push	r15
     224:	0f 93       	push	r16
     226:	1f 93       	push	r17
     228:	cf 93       	push	r28
     22a:	df 93       	push	r29
     22c:	61 15       	cp	r22, r1
     22e:	71 05       	cpc	r23, r1
     230:	09 f4       	brne	.+2      	; 0x234 <uart_printhexdump+0x1e>
     232:	41 c0       	rjmp	.+130    	; 0x2b6 <uart_printhexdump+0xa0>
     234:	8b 01       	movw	r16, r22
     236:	ec 01       	movw	r28, r24
     238:	e1 2c       	mov	r14, r1
     23a:	f1 2c       	mov	r15, r1
     23c:	5b 01       	movw	r10, r22
     23e:	81 e0       	ldi	r24, 0x01	; 1
     240:	a8 1a       	sub	r10, r24
     242:	b1 08       	sbc	r11, r1
     244:	6e 01       	movw	r12, r28
     246:	8f ef       	ldi	r24, 0xFF	; 255
     248:	c8 1a       	sub	r12, r24
     24a:	d8 0a       	sbc	r13, r24
     24c:	88 81       	ld	r24, Y
     24e:	b1 df       	rcall	.-158    	; 0x1b2 <uart_printhexchar>
     250:	80 e2       	ldi	r24, 0x20	; 32
     252:	8d df       	rcall	.-230    	; 0x16e <uart_putc>
     254:	8f ef       	ldi	r24, 0xFF	; 255
     256:	e8 1a       	sub	r14, r24
     258:	f8 0a       	sbc	r15, r24
     25a:	c7 01       	movw	r24, r14
     25c:	8f 70       	andi	r24, 0x0F	; 15
     25e:	99 27       	eor	r25, r25
     260:	89 2b       	or	r24, r25
     262:	29 f0       	breq	.+10     	; 0x26e <uart_printhexdump+0x58>
     264:	c7 01       	movw	r24, r14
     266:	01 97       	sbiw	r24, 0x01	; 1
     268:	8a 15       	cp	r24, r10
     26a:	9b 05       	cpc	r25, r11
     26c:	91 f4       	brne	.+36     	; 0x292 <uart_printhexdump+0x7c>
     26e:	2f 97       	sbiw	r28, 0x0f	; 15
     270:	99 90       	ld	r9, Y+
     272:	89 2d       	mov	r24, r9
     274:	90 e0       	ldi	r25, 0x00	; 0
     276:	0e 94 59 15 	call	0x2ab2	; 0x2ab2 <isprint>
     27a:	89 2b       	or	r24, r25
     27c:	11 f0       	breq	.+4      	; 0x282 <uart_printhexdump+0x6c>
     27e:	89 2d       	mov	r24, r9
     280:	01 c0       	rjmp	.+2      	; 0x284 <uart_printhexdump+0x6e>
     282:	8e e2       	ldi	r24, 0x2E	; 46
     284:	74 df       	rcall	.-280    	; 0x16e <uart_putc>
     286:	cc 15       	cp	r28, r12
     288:	dd 05       	cpc	r29, r13
     28a:	91 f7       	brne	.-28     	; 0x270 <uart_printhexdump+0x5a>
     28c:	8b e4       	ldi	r24, 0x4B	; 75
     28e:	94 e0       	ldi	r25, 0x04	; 4
     290:	75 df       	rcall	.-278    	; 0x17c <uart_puts>
     292:	e6 01       	movw	r28, r12
     294:	e0 16       	cp	r14, r16
     296:	f1 06       	cpc	r15, r17
     298:	a9 f6       	brne	.-86     	; 0x244 <uart_printhexdump+0x2e>
     29a:	8b e4       	ldi	r24, 0x4B	; 75
     29c:	94 e0       	ldi	r25, 0x04	; 4
     29e:	df 91       	pop	r29
     2a0:	cf 91       	pop	r28
     2a2:	1f 91       	pop	r17
     2a4:	0f 91       	pop	r16
     2a6:	ff 90       	pop	r15
     2a8:	ef 90       	pop	r14
     2aa:	df 90       	pop	r13
     2ac:	cf 90       	pop	r12
     2ae:	bf 90       	pop	r11
     2b0:	af 90       	pop	r10
     2b2:	9f 90       	pop	r9
     2b4:	63 cf       	rjmp	.-314    	; 0x17c <uart_puts>
     2b6:	df 91       	pop	r29
     2b8:	cf 91       	pop	r28
     2ba:	1f 91       	pop	r17
     2bc:	0f 91       	pop	r16
     2be:	ff 90       	pop	r15
     2c0:	ef 90       	pop	r14
     2c2:	df 90       	pop	r13
     2c4:	cf 90       	pop	r12
     2c6:	bf 90       	pop	r11
     2c8:	af 90       	pop	r10
     2ca:	9f 90       	pop	r9
     2cc:	08 95       	ret

000002ce <SPI_init>:
     2ce:	20 9a       	sbi	0x04, 0	; 4
     2d0:	84 b1       	in	r24, 0x04	; 4
     2d2:	86 60       	ori	r24, 0x06	; 6
     2d4:	84 b9       	out	0x04, r24	; 4
     2d6:	2b 9a       	sbi	0x05, 3	; 5
     2d8:	08 95       	ret

000002da <SPI_write>:
     2da:	8e bd       	out	0x2e, r24	; 46
     2dc:	0d b4       	in	r0, 0x2d	; 45
     2de:	07 fe       	sbrs	r0, 7
     2e0:	fd cf       	rjmp	.-6      	; 0x2dc <SPI_write+0x2>
     2e2:	8e b5       	in	r24, 0x2e	; 46
     2e4:	08 95       	ret

000002e6 <wait_sd_some_cycl>:
     2e6:	8f ef       	ldi	r24, 0xFF	; 255
     2e8:	f8 df       	rcall	.-16     	; 0x2da <SPI_write>
     2ea:	8f ef       	ldi	r24, 0xFF	; 255
     2ec:	f6 df       	rcall	.-20     	; 0x2da <SPI_write>
     2ee:	8f ef       	ldi	r24, 0xFF	; 255
     2f0:	f4 df       	rcall	.-24     	; 0x2da <SPI_write>
     2f2:	8f ef       	ldi	r24, 0xFF	; 255
     2f4:	f2 df       	rcall	.-28     	; 0x2da <SPI_write>
     2f6:	8f ef       	ldi	r24, 0xFF	; 255
     2f8:	f0 df       	rcall	.-32     	; 0x2da <SPI_write>
     2fa:	8f ef       	ldi	r24, 0xFF	; 255
     2fc:	ee df       	rcall	.-36     	; 0x2da <SPI_write>
     2fe:	8f ef       	ldi	r24, 0xFF	; 255
     300:	ec df       	rcall	.-40     	; 0x2da <SPI_write>
     302:	8f ef       	ldi	r24, 0xFF	; 255
     304:	ea df       	rcall	.-44     	; 0x2da <SPI_write>
     306:	8f ef       	ldi	r24, 0xFF	; 255
     308:	e8 df       	rcall	.-48     	; 0x2da <SPI_write>
     30a:	8f ef       	ldi	r24, 0xFF	; 255
     30c:	e6 cf       	rjmp	.-52     	; 0x2da <SPI_write>

0000030e <read_spi_while_byte_is_not>:
     30e:	4f 92       	push	r4
     310:	5f 92       	push	r5
     312:	6f 92       	push	r6
     314:	7f 92       	push	r7
     316:	8f 92       	push	r8
     318:	9f 92       	push	r9
     31a:	af 92       	push	r10
     31c:	bf 92       	push	r11
     31e:	cf 92       	push	r12
     320:	df 92       	push	r13
     322:	ef 92       	push	r14
     324:	ff 92       	push	r15
     326:	cf 93       	push	r28
     328:	c8 2f       	mov	r28, r24
     32a:	4a 01       	movw	r8, r20
     32c:	5b 01       	movw	r10, r22
     32e:	c1 2c       	mov	r12, r1
     330:	d1 2c       	mov	r13, r1
     332:	76 01       	movw	r14, r12
     334:	88 ee       	ldi	r24, 0xE8	; 232
     336:	48 2e       	mov	r4, r24
     338:	83 e0       	ldi	r24, 0x03	; 3
     33a:	58 2e       	mov	r5, r24
     33c:	61 2c       	mov	r6, r1
     33e:	71 2c       	mov	r7, r1
     340:	c8 14       	cp	r12, r8
     342:	d9 04       	cpc	r13, r9
     344:	ea 04       	cpc	r14, r10
     346:	fb 04       	cpc	r15, r11
     348:	b9 f0       	breq	.+46     	; 0x378 <read_spi_while_byte_is_not+0x6a>
     34a:	8f ef       	ldi	r24, 0xFF	; 255
     34c:	c6 df       	rcall	.-116    	; 0x2da <SPI_write>
     34e:	8c 17       	cp	r24, r28
     350:	c1 f0       	breq	.+48     	; 0x382 <read_spi_while_byte_is_not+0x74>
     352:	8f ef       	ldi	r24, 0xFF	; 255
     354:	c8 1a       	sub	r12, r24
     356:	d8 0a       	sbc	r13, r24
     358:	e8 0a       	sbc	r14, r24
     35a:	f8 0a       	sbc	r15, r24
     35c:	c7 01       	movw	r24, r14
     35e:	b6 01       	movw	r22, r12
     360:	a3 01       	movw	r20, r6
     362:	92 01       	movw	r18, r4
     364:	0e 94 35 15 	call	0x2a6a	; 0x2a6a <__udivmodsi4>
     368:	67 2b       	or	r22, r23
     36a:	68 2b       	or	r22, r24
     36c:	69 2b       	or	r22, r25
     36e:	41 f7       	brne	.-48     	; 0x340 <read_spi_while_byte_is_not+0x32>
     370:	87 eb       	ldi	r24, 0xB7	; 183
     372:	91 e0       	ldi	r25, 0x01	; 1
     374:	1a df       	rcall	.-460    	; 0x1aa <uart_putsnl>
     376:	e4 cf       	rjmp	.-56     	; 0x340 <read_spi_while_byte_is_not+0x32>
     378:	80 ed       	ldi	r24, 0xD0	; 208
     37a:	91 e0       	ldi	r25, 0x01	; 1
     37c:	16 df       	rcall	.-468    	; 0x1aa <uart_putsnl>
     37e:	80 e0       	ldi	r24, 0x00	; 0
     380:	01 c0       	rjmp	.+2      	; 0x384 <read_spi_while_byte_is_not+0x76>
     382:	81 e0       	ldi	r24, 0x01	; 1
     384:	cf 91       	pop	r28
     386:	ff 90       	pop	r15
     388:	ef 90       	pop	r14
     38a:	df 90       	pop	r13
     38c:	cf 90       	pop	r12
     38e:	bf 90       	pop	r11
     390:	af 90       	pop	r10
     392:	9f 90       	pop	r9
     394:	8f 90       	pop	r8
     396:	7f 90       	pop	r7
     398:	6f 90       	pop	r6
     39a:	5f 90       	pop	r5
     39c:	4f 90       	pop	r4
     39e:	08 95       	ret

000003a0 <SD_command>:
     3a0:	9f 92       	push	r9
     3a2:	af 92       	push	r10
     3a4:	bf 92       	push	r11
     3a6:	cf 92       	push	r12
     3a8:	df 92       	push	r13
     3aa:	ef 92       	push	r14
     3ac:	ff 92       	push	r15
     3ae:	0f 93       	push	r16
     3b0:	1f 93       	push	r17
     3b2:	cf 93       	push	r28
     3b4:	df 93       	push	r29
     3b6:	cd b7       	in	r28, 0x3d	; 61
     3b8:	de b7       	in	r29, 0x3e	; 62
     3ba:	a0 97       	sbiw	r28, 0x20	; 32
     3bc:	0f b6       	in	r0, 0x3f	; 63
     3be:	f8 94       	cli
     3c0:	de bf       	out	0x3e, r29	; 62
     3c2:	0f be       	out	0x3f, r0	; 63
     3c4:	cd bf       	out	0x3d, r28	; 61
     3c6:	18 2f       	mov	r17, r24
     3c8:	c4 2e       	mov	r12, r20
     3ca:	b5 2e       	mov	r11, r21
     3cc:	a6 2e       	mov	r10, r22
     3ce:	97 2e       	mov	r9, r23
     3d0:	d2 2e       	mov	r13, r18
     3d2:	ce 01       	movw	r24, r28
     3d4:	01 96       	adiw	r24, 0x01	; 1
     3d6:	7c 01       	movw	r14, r24
     3d8:	80 e2       	ldi	r24, 0x20	; 32
     3da:	f7 01       	movw	r30, r14
     3dc:	11 92       	st	Z+, r1
     3de:	8a 95       	dec	r24
     3e0:	e9 f7       	brne	.-6      	; 0x3dc <SD_command+0x3c>
     3e2:	81 df       	rcall	.-254    	; 0x2e6 <wait_sd_some_cycl>
     3e4:	87 ef       	ldi	r24, 0xF7	; 247
     3e6:	91 e0       	ldi	r25, 0x01	; 1
     3e8:	c9 de       	rcall	.-622    	; 0x17c <uart_puts>
     3ea:	81 2f       	mov	r24, r17
     3ec:	e2 de       	rcall	.-572    	; 0x1b2 <uart_printhexchar>
     3ee:	80 e2       	ldi	r24, 0x20	; 32
     3f0:	be de       	rcall	.-644    	; 0x16e <uart_putc>
     3f2:	81 2f       	mov	r24, r17
     3f4:	72 df       	rcall	.-284    	; 0x2da <SPI_write>
     3f6:	89 2d       	mov	r24, r9
     3f8:	70 df       	rcall	.-288    	; 0x2da <SPI_write>
     3fa:	8a 2d       	mov	r24, r10
     3fc:	6e df       	rcall	.-292    	; 0x2da <SPI_write>
     3fe:	8b 2d       	mov	r24, r11
     400:	6c df       	rcall	.-296    	; 0x2da <SPI_write>
     402:	8c 2d       	mov	r24, r12
     404:	6a df       	rcall	.-300    	; 0x2da <SPI_write>
     406:	8d 2d       	mov	r24, r13
     408:	68 df       	rcall	.-304    	; 0x2da <SPI_write>
     40a:	67 01       	movw	r12, r14
     40c:	57 01       	movw	r10, r14
     40e:	9e 2c       	mov	r9, r14
     410:	8a 2d       	mov	r24, r10
     412:	8e 19       	sub	r24, r14
     414:	80 17       	cp	r24, r16
     416:	30 f4       	brcc	.+12     	; 0x424 <__LOCK_REGION_LENGTH__+0x24>
     418:	8f ef       	ldi	r24, 0xFF	; 255
     41a:	5f df       	rcall	.-322    	; 0x2da <SPI_write>
     41c:	f5 01       	movw	r30, r10
     41e:	81 93       	st	Z+, r24
     420:	5f 01       	movw	r10, r30
     422:	f6 cf       	rjmp	.-20     	; 0x410 <__LOCK_REGION_LENGTH__+0x10>
     424:	ff 24       	eor	r15, r15
     426:	fa 94       	dec	r15
     428:	8c 2d       	mov	r24, r12
     42a:	89 19       	sub	r24, r9
     42c:	80 17       	cp	r24, r16
     42e:	58 f4       	brcc	.+22     	; 0x446 <__LOCK_REGION_LENGTH__+0x46>
     430:	f6 01       	movw	r30, r12
     432:	11 91       	ld	r17, Z+
     434:	6f 01       	movw	r12, r30
     436:	81 2f       	mov	r24, r17
     438:	bc de       	rcall	.-648    	; 0x1b2 <uart_printhexchar>
     43a:	80 e2       	ldi	r24, 0x20	; 32
     43c:	98 de       	rcall	.-720    	; 0x16e <uart_putc>
     43e:	1f 3f       	cpi	r17, 0xFF	; 255
     440:	99 f3       	breq	.-26     	; 0x428 <__LOCK_REGION_LENGTH__+0x28>
     442:	f1 2e       	mov	r15, r17
     444:	f1 cf       	rjmp	.-30     	; 0x428 <__LOCK_REGION_LENGTH__+0x28>
     446:	8b e4       	ldi	r24, 0x4B	; 75
     448:	94 e0       	ldi	r25, 0x04	; 4
     44a:	98 de       	rcall	.-720    	; 0x17c <uart_puts>
     44c:	8f 2d       	mov	r24, r15
     44e:	a0 96       	adiw	r28, 0x20	; 32
     450:	0f b6       	in	r0, 0x3f	; 63
     452:	f8 94       	cli
     454:	de bf       	out	0x3e, r29	; 62
     456:	0f be       	out	0x3f, r0	; 63
     458:	cd bf       	out	0x3d, r28	; 61
     45a:	df 91       	pop	r29
     45c:	cf 91       	pop	r28
     45e:	1f 91       	pop	r17
     460:	0f 91       	pop	r16
     462:	ff 90       	pop	r15
     464:	ef 90       	pop	r14
     466:	df 90       	pop	r13
     468:	cf 90       	pop	r12
     46a:	bf 90       	pop	r11
     46c:	af 90       	pop	r10
     46e:	9f 90       	pop	r9
     470:	08 95       	ret

00000472 <SD_init>:
     472:	0f 93       	push	r16
     474:	cf 93       	push	r28
     476:	82 e5       	ldi	r24, 0x52	; 82
     478:	8c bd       	out	0x2c, r24	; 44
     47a:	28 9a       	sbi	0x05, 0	; 5
     47c:	ca e0       	ldi	r28, 0x0A	; 10
     47e:	8f ef       	ldi	r24, 0xFF	; 255
     480:	2c df       	rcall	.-424    	; 0x2da <SPI_write>
     482:	c1 50       	subi	r28, 0x01	; 1
     484:	e1 f7       	brne	.-8      	; 0x47e <SD_init+0xc>
     486:	8c ef       	ldi	r24, 0xFC	; 252
     488:	91 e0       	ldi	r25, 0x01	; 1
     48a:	8f de       	rcall	.-738    	; 0x1aa <uart_putsnl>
     48c:	28 98       	cbi	0x05, 0	; 5
     48e:	40 ea       	ldi	r20, 0xA0	; 160
     490:	56 e8       	ldi	r21, 0x86	; 134
     492:	61 e0       	ldi	r22, 0x01	; 1
     494:	70 e0       	ldi	r23, 0x00	; 0
     496:	8f ef       	ldi	r24, 0xFF	; 255
     498:	3a df       	rcall	.-396    	; 0x30e <read_spi_while_byte_is_not>
     49a:	88 23       	and	r24, r24
     49c:	99 f1       	breq	.+102    	; 0x504 <SD_init+0x92>
     49e:	28 9a       	sbi	0x05, 0	; 5
     4a0:	ca e0       	ldi	r28, 0x0A	; 10
     4a2:	28 98       	cbi	0x05, 0	; 5
     4a4:	08 e0       	ldi	r16, 0x08	; 8
     4a6:	25 e9       	ldi	r18, 0x95	; 149
     4a8:	40 e0       	ldi	r20, 0x00	; 0
     4aa:	50 e0       	ldi	r21, 0x00	; 0
     4ac:	ba 01       	movw	r22, r20
     4ae:	80 e4       	ldi	r24, 0x40	; 64
     4b0:	77 df       	rcall	.-274    	; 0x3a0 <SD_command>
     4b2:	81 30       	cpi	r24, 0x01	; 1
     4b4:	71 f0       	breq	.+28     	; 0x4d2 <SD_init+0x60>
     4b6:	28 9a       	sbi	0x05, 0	; 5
     4b8:	2f ef       	ldi	r18, 0xFF	; 255
     4ba:	81 ee       	ldi	r24, 0xE1	; 225
     4bc:	94 e0       	ldi	r25, 0x04	; 4
     4be:	21 50       	subi	r18, 0x01	; 1
     4c0:	80 40       	sbci	r24, 0x00	; 0
     4c2:	90 40       	sbci	r25, 0x00	; 0
     4c4:	e1 f7       	brne	.-8      	; 0x4be <SD_init+0x4c>
     4c6:	00 c0       	rjmp	.+0      	; 0x4c8 <SD_init+0x56>
     4c8:	00 00       	nop
     4ca:	c1 50       	subi	r28, 0x01	; 1
     4cc:	51 f7       	brne	.-44     	; 0x4a2 <SD_init+0x30>
     4ce:	82 e0       	ldi	r24, 0x02	; 2
     4d0:	28 c0       	rjmp	.+80     	; 0x522 <SD_init+0xb0>
     4d2:	ca e0       	ldi	r28, 0x0A	; 10
     4d4:	28 98       	cbi	0x05, 0	; 5
     4d6:	08 e0       	ldi	r16, 0x08	; 8
     4d8:	2f ef       	ldi	r18, 0xFF	; 255
     4da:	40 e0       	ldi	r20, 0x00	; 0
     4dc:	50 e0       	ldi	r21, 0x00	; 0
     4de:	ba 01       	movw	r22, r20
     4e0:	81 e4       	ldi	r24, 0x41	; 65
     4e2:	5e df       	rcall	.-324    	; 0x3a0 <SD_command>
     4e4:	88 23       	and	r24, r24
     4e6:	81 f0       	breq	.+32     	; 0x508 <SD_init+0x96>
     4e8:	28 9a       	sbi	0x05, 0	; 5
     4ea:	2f ef       	ldi	r18, 0xFF	; 255
     4ec:	81 ee       	ldi	r24, 0xE1	; 225
     4ee:	94 e0       	ldi	r25, 0x04	; 4
     4f0:	21 50       	subi	r18, 0x01	; 1
     4f2:	80 40       	sbci	r24, 0x00	; 0
     4f4:	90 40       	sbci	r25, 0x00	; 0
     4f6:	e1 f7       	brne	.-8      	; 0x4f0 <SD_init+0x7e>
     4f8:	00 c0       	rjmp	.+0      	; 0x4fa <SD_init+0x88>
     4fa:	00 00       	nop
     4fc:	c1 50       	subi	r28, 0x01	; 1
     4fe:	51 f7       	brne	.-44     	; 0x4d4 <SD_init+0x62>
     500:	83 e0       	ldi	r24, 0x03	; 3
     502:	0f c0       	rjmp	.+30     	; 0x522 <SD_init+0xb0>
     504:	81 e0       	ldi	r24, 0x01	; 1
     506:	0d c0       	rjmp	.+26     	; 0x522 <SD_init+0xb0>
     508:	28 98       	cbi	0x05, 0	; 5
     50a:	08 e0       	ldi	r16, 0x08	; 8
     50c:	2f ef       	ldi	r18, 0xFF	; 255
     50e:	40 e0       	ldi	r20, 0x00	; 0
     510:	52 e0       	ldi	r21, 0x02	; 2
     512:	60 e0       	ldi	r22, 0x00	; 0
     514:	70 e0       	ldi	r23, 0x00	; 0
     516:	80 e5       	ldi	r24, 0x50	; 80
     518:	43 df       	rcall	.-378    	; 0x3a0 <SD_command>
     51a:	28 9a       	sbi	0x05, 0	; 5
     51c:	81 e5       	ldi	r24, 0x51	; 81
     51e:	8c bd       	out	0x2c, r24	; 44
     520:	80 e0       	ldi	r24, 0x00	; 0
     522:	cf 91       	pop	r28
     524:	0f 91       	pop	r16
     526:	08 95       	ret

00000528 <SD_read_sector>:
     528:	cf 92       	push	r12
     52a:	df 92       	push	r13
     52c:	ef 92       	push	r14
     52e:	ff 92       	push	r15
     530:	0f 93       	push	r16
     532:	1f 93       	push	r17
     534:	cf 93       	push	r28
     536:	df 93       	push	r29
     538:	6b 01       	movw	r12, r22
     53a:	7c 01       	movw	r14, r24
     53c:	8a 01       	movw	r16, r20
     53e:	28 98       	cbi	0x05, 0	; 5
     540:	d2 de       	rcall	.-604    	; 0x2e6 <wait_sd_some_cycl>
     542:	81 e5       	ldi	r24, 0x51	; 81
     544:	ca de       	rcall	.-620    	; 0x2da <SPI_write>
     546:	d7 01       	movw	r26, r14
     548:	c6 01       	movw	r24, r12
     54a:	2f e0       	ldi	r18, 0x0F	; 15
     54c:	b6 95       	lsr	r27
     54e:	a7 95       	ror	r26
     550:	97 95       	ror	r25
     552:	87 95       	ror	r24
     554:	2a 95       	dec	r18
     556:	d1 f7       	brne	.-12     	; 0x54c <SD_read_sector+0x24>
     558:	c0 de       	rcall	.-640    	; 0x2da <SPI_write>
     55a:	d7 01       	movw	r26, r14
     55c:	c6 01       	movw	r24, r12
     55e:	37 e0       	ldi	r19, 0x07	; 7
     560:	b6 95       	lsr	r27
     562:	a7 95       	ror	r26
     564:	97 95       	ror	r25
     566:	87 95       	ror	r24
     568:	3a 95       	dec	r19
     56a:	d1 f7       	brne	.-12     	; 0x560 <SD_read_sector+0x38>
     56c:	b6 de       	rcall	.-660    	; 0x2da <SPI_write>
     56e:	8c 2d       	mov	r24, r12
     570:	88 0f       	add	r24, r24
     572:	b3 de       	rcall	.-666    	; 0x2da <SPI_write>
     574:	80 e0       	ldi	r24, 0x00	; 0
     576:	b1 de       	rcall	.-670    	; 0x2da <SPI_write>
     578:	8f ef       	ldi	r24, 0xFF	; 255
     57a:	af de       	rcall	.-674    	; 0x2da <SPI_write>
     57c:	40 ea       	ldi	r20, 0xA0	; 160
     57e:	56 e8       	ldi	r21, 0x86	; 134
     580:	61 e0       	ldi	r22, 0x01	; 1
     582:	70 e0       	ldi	r23, 0x00	; 0
     584:	80 e0       	ldi	r24, 0x00	; 0
     586:	c3 de       	rcall	.-634    	; 0x30e <read_spi_while_byte_is_not>
     588:	81 11       	cpse	r24, r1
     58a:	02 c0       	rjmp	.+4      	; 0x590 <SD_read_sector+0x68>
     58c:	80 e0       	ldi	r24, 0x00	; 0
     58e:	17 c0       	rjmp	.+46     	; 0x5be <SD_read_sector+0x96>
     590:	40 ea       	ldi	r20, 0xA0	; 160
     592:	56 e8       	ldi	r21, 0x86	; 134
     594:	61 e0       	ldi	r22, 0x01	; 1
     596:	70 e0       	ldi	r23, 0x00	; 0
     598:	8e ef       	ldi	r24, 0xFE	; 254
     59a:	b9 de       	rcall	.-654    	; 0x30e <read_spi_while_byte_is_not>
     59c:	88 23       	and	r24, r24
     59e:	b1 f3       	breq	.-20     	; 0x58c <SD_read_sector+0x64>
     5a0:	e8 01       	movw	r28, r16
     5a2:	78 01       	movw	r14, r16
     5a4:	8e ef       	ldi	r24, 0xFE	; 254
     5a6:	f8 1a       	sub	r15, r24
     5a8:	8f ef       	ldi	r24, 0xFF	; 255
     5aa:	97 de       	rcall	.-722    	; 0x2da <SPI_write>
     5ac:	89 93       	st	Y+, r24
     5ae:	ce 15       	cp	r28, r14
     5b0:	df 05       	cpc	r29, r15
     5b2:	d1 f7       	brne	.-12     	; 0x5a8 <SD_read_sector+0x80>
     5b4:	8f ef       	ldi	r24, 0xFF	; 255
     5b6:	91 de       	rcall	.-734    	; 0x2da <SPI_write>
     5b8:	8f ef       	ldi	r24, 0xFF	; 255
     5ba:	8f de       	rcall	.-738    	; 0x2da <SPI_write>
     5bc:	81 e0       	ldi	r24, 0x01	; 1
     5be:	28 9a       	sbi	0x05, 0	; 5
     5c0:	df 91       	pop	r29
     5c2:	cf 91       	pop	r28
     5c4:	1f 91       	pop	r17
     5c6:	0f 91       	pop	r16
     5c8:	ff 90       	pop	r15
     5ca:	ef 90       	pop	r14
     5cc:	df 90       	pop	r13
     5ce:	cf 90       	pop	r12
     5d0:	08 95       	ret

000005d2 <SD_write_sector>:
     5d2:	cf 92       	push	r12
     5d4:	df 92       	push	r13
     5d6:	ef 92       	push	r14
     5d8:	ff 92       	push	r15
     5da:	0f 93       	push	r16
     5dc:	1f 93       	push	r17
     5de:	cf 93       	push	r28
     5e0:	df 93       	push	r29
     5e2:	6b 01       	movw	r12, r22
     5e4:	7c 01       	movw	r14, r24
     5e6:	8a 01       	movw	r16, r20
     5e8:	28 98       	cbi	0x05, 0	; 5
     5ea:	7d de       	rcall	.-774    	; 0x2e6 <wait_sd_some_cycl>
     5ec:	88 e5       	ldi	r24, 0x58	; 88
     5ee:	75 de       	rcall	.-790    	; 0x2da <SPI_write>
     5f0:	d7 01       	movw	r26, r14
     5f2:	c6 01       	movw	r24, r12
     5f4:	2f e0       	ldi	r18, 0x0F	; 15
     5f6:	b6 95       	lsr	r27
     5f8:	a7 95       	ror	r26
     5fa:	97 95       	ror	r25
     5fc:	87 95       	ror	r24
     5fe:	2a 95       	dec	r18
     600:	d1 f7       	brne	.-12     	; 0x5f6 <SD_write_sector+0x24>
     602:	6b de       	rcall	.-810    	; 0x2da <SPI_write>
     604:	d7 01       	movw	r26, r14
     606:	c6 01       	movw	r24, r12
     608:	37 e0       	ldi	r19, 0x07	; 7
     60a:	b6 95       	lsr	r27
     60c:	a7 95       	ror	r26
     60e:	97 95       	ror	r25
     610:	87 95       	ror	r24
     612:	3a 95       	dec	r19
     614:	d1 f7       	brne	.-12     	; 0x60a <SD_write_sector+0x38>
     616:	61 de       	rcall	.-830    	; 0x2da <SPI_write>
     618:	8c 2d       	mov	r24, r12
     61a:	88 0f       	add	r24, r24
     61c:	5e de       	rcall	.-836    	; 0x2da <SPI_write>
     61e:	80 e0       	ldi	r24, 0x00	; 0
     620:	5c de       	rcall	.-840    	; 0x2da <SPI_write>
     622:	8f ef       	ldi	r24, 0xFF	; 255
     624:	5a de       	rcall	.-844    	; 0x2da <SPI_write>
     626:	40 ea       	ldi	r20, 0xA0	; 160
     628:	56 e8       	ldi	r21, 0x86	; 134
     62a:	61 e0       	ldi	r22, 0x01	; 1
     62c:	70 e0       	ldi	r23, 0x00	; 0
     62e:	80 e0       	ldi	r24, 0x00	; 0
     630:	6e de       	rcall	.-804    	; 0x30e <read_spi_while_byte_is_not>
     632:	88 23       	and	r24, r24
     634:	29 f1       	breq	.+74     	; 0x680 <SD_write_sector+0xae>
     636:	40 ea       	ldi	r20, 0xA0	; 160
     638:	56 e8       	ldi	r21, 0x86	; 134
     63a:	61 e0       	ldi	r22, 0x01	; 1
     63c:	70 e0       	ldi	r23, 0x00	; 0
     63e:	8f ef       	ldi	r24, 0xFF	; 255
     640:	66 de       	rcall	.-820    	; 0x30e <read_spi_while_byte_is_not>
     642:	88 23       	and	r24, r24
     644:	e9 f0       	breq	.+58     	; 0x680 <SD_write_sector+0xae>
     646:	8e ef       	ldi	r24, 0xFE	; 254
     648:	48 de       	rcall	.-880    	; 0x2da <SPI_write>
     64a:	e8 01       	movw	r28, r16
     64c:	78 01       	movw	r14, r16
     64e:	8e ef       	ldi	r24, 0xFE	; 254
     650:	f8 1a       	sub	r15, r24
     652:	89 91       	ld	r24, Y+
     654:	42 de       	rcall	.-892    	; 0x2da <SPI_write>
     656:	ce 15       	cp	r28, r14
     658:	df 05       	cpc	r29, r15
     65a:	d9 f7       	brne	.-10     	; 0x652 <SD_write_sector+0x80>
     65c:	80 e0       	ldi	r24, 0x00	; 0
     65e:	3d de       	rcall	.-902    	; 0x2da <SPI_write>
     660:	80 e0       	ldi	r24, 0x00	; 0
     662:	3b de       	rcall	.-906    	; 0x2da <SPI_write>
     664:	80 e0       	ldi	r24, 0x00	; 0
     666:	39 de       	rcall	.-910    	; 0x2da <SPI_write>
     668:	85 3e       	cpi	r24, 0xE5	; 229
     66a:	39 f4       	brne	.+14     	; 0x67a <SD_write_sector+0xa8>
     66c:	40 ea       	ldi	r20, 0xA0	; 160
     66e:	56 e8       	ldi	r21, 0x86	; 134
     670:	61 e0       	ldi	r22, 0x01	; 1
     672:	70 e0       	ldi	r23, 0x00	; 0
     674:	8f ef       	ldi	r24, 0xFF	; 255
     676:	4b de       	rcall	.-874    	; 0x30e <read_spi_while_byte_is_not>
     678:	04 c0       	rjmp	.+8      	; 0x682 <SD_write_sector+0xb0>
     67a:	8b e0       	ldi	r24, 0x0B	; 11
     67c:	92 e0       	ldi	r25, 0x02	; 2
     67e:	95 dd       	rcall	.-1238   	; 0x1aa <uart_putsnl>
     680:	80 e0       	ldi	r24, 0x00	; 0
     682:	28 9a       	sbi	0x05, 0	; 5
     684:	df 91       	pop	r29
     686:	cf 91       	pop	r28
     688:	1f 91       	pop	r17
     68a:	0f 91       	pop	r16
     68c:	ff 90       	pop	r15
     68e:	ef 90       	pop	r14
     690:	df 90       	pop	r13
     692:	cf 90       	pop	r12
     694:	08 95       	ret

00000696 <sd_get_number_of_sectors>:
     696:	4f 92       	push	r4
     698:	5f 92       	push	r5
     69a:	6f 92       	push	r6
     69c:	7f 92       	push	r7
     69e:	bf 92       	push	r11
     6a0:	cf 92       	push	r12
     6a2:	df 92       	push	r13
     6a4:	ef 92       	push	r14
     6a6:	ff 92       	push	r15
     6a8:	0f 93       	push	r16
     6aa:	1f 93       	push	r17
     6ac:	cf 93       	push	r28
     6ae:	df 93       	push	r29
     6b0:	8c 01       	movw	r16, r24
     6b2:	28 98       	cbi	0x05, 0	; 5
     6b4:	18 de       	rcall	.-976    	; 0x2e6 <wait_sd_some_cycl>
     6b6:	89 e4       	ldi	r24, 0x49	; 73
     6b8:	10 de       	rcall	.-992    	; 0x2da <SPI_write>
     6ba:	80 e0       	ldi	r24, 0x00	; 0
     6bc:	0e de       	rcall	.-996    	; 0x2da <SPI_write>
     6be:	80 e0       	ldi	r24, 0x00	; 0
     6c0:	0c de       	rcall	.-1000   	; 0x2da <SPI_write>
     6c2:	80 e0       	ldi	r24, 0x00	; 0
     6c4:	0a de       	rcall	.-1004   	; 0x2da <SPI_write>
     6c6:	80 e0       	ldi	r24, 0x00	; 0
     6c8:	08 de       	rcall	.-1008   	; 0x2da <SPI_write>
     6ca:	40 ea       	ldi	r20, 0xA0	; 160
     6cc:	56 e8       	ldi	r21, 0x86	; 134
     6ce:	61 e0       	ldi	r22, 0x01	; 1
     6d0:	70 e0       	ldi	r23, 0x00	; 0
     6d2:	8e ef       	ldi	r24, 0xFE	; 254
     6d4:	1c de       	rcall	.-968    	; 0x30e <read_spi_while_byte_is_not>
     6d6:	88 23       	and	r24, r24
     6d8:	09 f4       	brne	.+2      	; 0x6dc <sd_get_number_of_sectors+0x46>
     6da:	63 c0       	rjmp	.+198    	; 0x7a2 <sd_get_number_of_sectors+0x10c>
     6dc:	c0 e0       	ldi	r28, 0x00	; 0
     6de:	41 2c       	mov	r4, r1
     6e0:	51 2c       	mov	r5, r1
     6e2:	32 01       	movw	r6, r4
     6e4:	d0 e0       	ldi	r29, 0x00	; 0
     6e6:	b1 2c       	mov	r11, r1
     6e8:	c1 2c       	mov	r12, r1
     6ea:	d1 2c       	mov	r13, r1
     6ec:	76 01       	movw	r14, r12
     6ee:	c3 94       	inc	r12
     6f0:	8f ef       	ldi	r24, 0xFF	; 255
     6f2:	f3 dd       	rcall	.-1050   	; 0x2da <SPI_write>
     6f4:	c7 30       	cpi	r28, 0x07	; 7
     6f6:	59 f1       	breq	.+86     	; 0x74e <sd_get_number_of_sectors+0xb8>
     6f8:	70 f4       	brcc	.+28     	; 0x716 <sd_get_number_of_sectors+0x80>
     6fa:	c5 30       	cpi	r28, 0x05	; 5
     6fc:	29 f1       	breq	.+74     	; 0x748 <sd_get_number_of_sectors+0xb2>
     6fe:	c6 30       	cpi	r28, 0x06	; 6
     700:	09 f0       	breq	.+2      	; 0x704 <sd_get_number_of_sectors+0x6e>
     702:	4a c0       	rjmp	.+148    	; 0x798 <sd_get_number_of_sectors+0x102>
     704:	83 70       	andi	r24, 0x03	; 3
     706:	90 e0       	ldi	r25, 0x00	; 0
     708:	a0 e0       	ldi	r26, 0x00	; 0
     70a:	b0 e0       	ldi	r27, 0x00	; 0
     70c:	44 24       	eor	r4, r4
     70e:	58 2e       	mov	r5, r24
     710:	69 2e       	mov	r6, r25
     712:	7a 2e       	mov	r7, r26
     714:	41 c0       	rjmp	.+130    	; 0x798 <sd_get_number_of_sectors+0x102>
     716:	c9 30       	cpi	r28, 0x09	; 9
     718:	d9 f1       	breq	.+118    	; 0x790 <sd_get_number_of_sectors+0xfa>
     71a:	40 f1       	brcs	.+80     	; 0x76c <sd_get_number_of_sectors+0xd6>
     71c:	ca 30       	cpi	r28, 0x0A	; 10
     71e:	e1 f5       	brne	.+120    	; 0x798 <sd_get_number_of_sectors+0x102>
     720:	98 2f       	mov	r25, r24
     722:	99 1f       	adc	r25, r25
     724:	99 27       	eor	r25, r25
     726:	99 1f       	adc	r25, r25
     728:	d9 2b       	or	r29, r25
     72a:	8b 2d       	mov	r24, r11
     72c:	90 e0       	ldi	r25, 0x00	; 0
     72e:	8d 0f       	add	r24, r29
     730:	91 1d       	adc	r25, r1
     732:	02 96       	adiw	r24, 0x02	; 2
     734:	73 01       	movw	r14, r6
     736:	62 01       	movw	r12, r4
     738:	04 c0       	rjmp	.+8      	; 0x742 <sd_get_number_of_sectors+0xac>
     73a:	cc 0c       	add	r12, r12
     73c:	dd 1c       	adc	r13, r13
     73e:	ee 1c       	adc	r14, r14
     740:	ff 1c       	adc	r15, r15
     742:	8a 95       	dec	r24
     744:	d2 f7       	brpl	.-12     	; 0x73a <sd_get_number_of_sectors+0xa4>
     746:	28 c0       	rjmp	.+80     	; 0x798 <sd_get_number_of_sectors+0x102>
     748:	8f 70       	andi	r24, 0x0F	; 15
     74a:	b8 2e       	mov	r11, r24
     74c:	25 c0       	rjmp	.+74     	; 0x798 <sd_get_number_of_sectors+0x102>
     74e:	a3 01       	movw	r20, r6
     750:	92 01       	movw	r18, r4
     752:	28 2b       	or	r18, r24
     754:	da 01       	movw	r26, r20
     756:	c9 01       	movw	r24, r18
     758:	2c 01       	movw	r4, r24
     75a:	3d 01       	movw	r6, r26
     75c:	22 e0       	ldi	r18, 0x02	; 2
     75e:	44 0c       	add	r4, r4
     760:	55 1c       	adc	r5, r5
     762:	66 1c       	adc	r6, r6
     764:	77 1c       	adc	r7, r7
     766:	2a 95       	dec	r18
     768:	d1 f7       	brne	.-12     	; 0x75e <sd_get_number_of_sectors+0xc8>
     76a:	16 c0       	rjmp	.+44     	; 0x798 <sd_get_number_of_sectors+0x102>
     76c:	98 2f       	mov	r25, r24
     76e:	92 95       	swap	r25
     770:	96 95       	lsr	r25
     772:	96 95       	lsr	r25
     774:	93 70       	andi	r25, 0x03	; 3
     776:	a3 01       	movw	r20, r6
     778:	92 01       	movw	r18, r4
     77a:	29 2b       	or	r18, r25
     77c:	da 01       	movw	r26, r20
     77e:	c9 01       	movw	r24, r18
     780:	2c 01       	movw	r4, r24
     782:	3d 01       	movw	r6, r26
     784:	3f ef       	ldi	r19, 0xFF	; 255
     786:	43 1a       	sub	r4, r19
     788:	53 0a       	sbc	r5, r19
     78a:	63 0a       	sbc	r6, r19
     78c:	73 0a       	sbc	r7, r19
     78e:	04 c0       	rjmp	.+8      	; 0x798 <sd_get_number_of_sectors+0x102>
     790:	98 2f       	mov	r25, r24
     792:	93 70       	andi	r25, 0x03	; 3
     794:	d9 2f       	mov	r29, r25
     796:	dd 0f       	add	r29, r29
     798:	cf 5f       	subi	r28, 0xFF	; 255
     79a:	c2 31       	cpi	r28, 0x12	; 18
     79c:	09 f0       	breq	.+2      	; 0x7a0 <sd_get_number_of_sectors+0x10a>
     79e:	a8 cf       	rjmp	.-176    	; 0x6f0 <sd_get_number_of_sectors+0x5a>
     7a0:	04 c0       	rjmp	.+8      	; 0x7aa <sd_get_number_of_sectors+0x114>
     7a2:	c1 2c       	mov	r12, r1
     7a4:	d1 2c       	mov	r13, r1
     7a6:	76 01       	movw	r14, r12
     7a8:	c3 94       	inc	r12
     7aa:	28 9a       	sbi	0x05, 0	; 5
     7ac:	d7 01       	movw	r26, r14
     7ae:	c6 01       	movw	r24, r12
     7b0:	91 70       	andi	r25, 0x01	; 1
     7b2:	aa 27       	eor	r26, r26
     7b4:	bb 27       	eor	r27, r27
     7b6:	89 2b       	or	r24, r25
     7b8:	8a 2b       	or	r24, r26
     7ba:	8b 2b       	or	r24, r27
     7bc:	29 f0       	breq	.+10     	; 0x7c8 <sd_get_number_of_sectors+0x132>
     7be:	85 e3       	ldi	r24, 0x35	; 53
     7c0:	92 e0       	ldi	r25, 0x02	; 2
     7c2:	f3 dc       	rcall	.-1562   	; 0x1aa <uart_putsnl>
     7c4:	80 e0       	ldi	r24, 0x00	; 0
     7c6:	0d c0       	rjmp	.+26     	; 0x7e2 <sd_get_number_of_sectors+0x14c>
     7c8:	89 e0       	ldi	r24, 0x09	; 9
     7ca:	f6 94       	lsr	r15
     7cc:	e7 94       	ror	r14
     7ce:	d7 94       	ror	r13
     7d0:	c7 94       	ror	r12
     7d2:	8a 95       	dec	r24
     7d4:	d1 f7       	brne	.-12     	; 0x7ca <sd_get_number_of_sectors+0x134>
     7d6:	f8 01       	movw	r30, r16
     7d8:	c0 82       	st	Z, r12
     7da:	d1 82       	std	Z+1, r13	; 0x01
     7dc:	e2 82       	std	Z+2, r14	; 0x02
     7de:	f3 82       	std	Z+3, r15	; 0x03
     7e0:	81 e0       	ldi	r24, 0x01	; 1
     7e2:	df 91       	pop	r29
     7e4:	cf 91       	pop	r28
     7e6:	1f 91       	pop	r17
     7e8:	0f 91       	pop	r16
     7ea:	ff 90       	pop	r15
     7ec:	ef 90       	pop	r14
     7ee:	df 90       	pop	r13
     7f0:	cf 90       	pop	r12
     7f2:	bf 90       	pop	r11
     7f4:	7f 90       	pop	r7
     7f6:	6f 90       	pop	r6
     7f8:	5f 90       	pop	r5
     7fa:	4f 90       	pop	r4
     7fc:	08 95       	ret

000007fe <CALLBACK_USB_GetDescriptor>:
     7fe:	29 2f       	mov	r18, r25
     800:	33 27       	eor	r19, r19
     802:	23 30       	cpi	r18, 0x03	; 3
     804:	31 05       	cpc	r19, r1
     806:	e9 f0       	breq	.+58     	; 0x842 <CALLBACK_USB_GetDescriptor+0x44>
     808:	60 f4       	brcc	.+24     	; 0x822 <CALLBACK_USB_GetDescriptor+0x24>
     80a:	21 30       	cpi	r18, 0x01	; 1
     80c:	31 05       	cpc	r19, r1
     80e:	a1 f0       	breq	.+40     	; 0x838 <CALLBACK_USB_GetDescriptor+0x3a>
     810:	22 30       	cpi	r18, 0x02	; 2
     812:	31 05       	cpc	r19, r1
     814:	09 f0       	breq	.+2      	; 0x818 <CALLBACK_USB_GetDescriptor+0x1a>
     816:	41 c0       	rjmp	.+130    	; 0x89a <CALLBACK_USB_GetDescriptor+0x9c>
     818:	86 e7       	ldi	r24, 0x76	; 118
     81a:	90 e0       	ldi	r25, 0x00	; 0
     81c:	28 ec       	ldi	r18, 0xC8	; 200
     81e:	32 e0       	ldi	r19, 0x02	; 2
     820:	40 c0       	rjmp	.+128    	; 0x8a2 <CALLBACK_USB_GetDescriptor+0xa4>
     822:	21 32       	cpi	r18, 0x21	; 33
     824:	31 05       	cpc	r19, r1
     826:	a1 f1       	breq	.+104    	; 0x890 <CALLBACK_USB_GetDescriptor+0x92>
     828:	22 32       	cpi	r18, 0x22	; 34
     82a:	31 05       	cpc	r19, r1
     82c:	b1 f5       	brne	.+108    	; 0x89a <CALLBACK_USB_GetDescriptor+0x9c>
     82e:	80 e4       	ldi	r24, 0x40	; 64
     830:	90 e0       	ldi	r25, 0x00	; 0
     832:	20 e5       	ldi	r18, 0x50	; 80
     834:	33 e0       	ldi	r19, 0x03	; 3
     836:	35 c0       	rjmp	.+106    	; 0x8a2 <CALLBACK_USB_GetDescriptor+0xa4>
     838:	82 e1       	ldi	r24, 0x12	; 18
     83a:	90 e0       	ldi	r25, 0x00	; 0
     83c:	2e e3       	ldi	r18, 0x3E	; 62
     83e:	33 e0       	ldi	r19, 0x03	; 3
     840:	30 c0       	rjmp	.+96     	; 0x8a2 <CALLBACK_USB_GetDescriptor+0xa4>
     842:	20 91 71 09 	lds	r18, 0x0971	; 0x800971 <USB_ControlRequest+0x6>
     846:	30 91 72 09 	lds	r19, 0x0972	; 0x800972 <USB_ControlRequest+0x7>
     84a:	2f 3f       	cpi	r18, 0xFF	; 255
     84c:	31 05       	cpc	r19, r1
     84e:	29 f4       	brne	.+10     	; 0x85a <CALLBACK_USB_GetDescriptor+0x5c>
     850:	20 91 57 09 	lds	r18, 0x0957	; 0x800957 <guess_os>
     854:	23 60       	ori	r18, 0x03	; 3
     856:	20 62       	ori	r18, 0x20	; 32
     858:	03 c0       	rjmp	.+6      	; 0x860 <CALLBACK_USB_GetDescriptor+0x62>
     85a:	20 91 57 09 	lds	r18, 0x0957	; 0x800957 <guess_os>
     85e:	28 60       	ori	r18, 0x08	; 8
     860:	20 93 57 09 	sts	0x0957, r18	; 0x800957 <guess_os>
     864:	99 27       	eor	r25, r25
     866:	81 30       	cpi	r24, 0x01	; 1
     868:	91 05       	cpc	r25, r1
     86a:	69 f0       	breq	.+26     	; 0x886 <CALLBACK_USB_GetDescriptor+0x88>
     86c:	38 f0       	brcs	.+14     	; 0x87c <CALLBACK_USB_GetDescriptor+0x7e>
     86e:	02 97       	sbiw	r24, 0x02	; 2
     870:	a1 f4       	brne	.+40     	; 0x89a <CALLBACK_USB_GetDescriptor+0x9c>
     872:	8e e3       	ldi	r24, 0x3E	; 62
     874:	90 e0       	ldi	r25, 0x00	; 0
     876:	28 e7       	ldi	r18, 0x78	; 120
     878:	32 e0       	ldi	r19, 0x02	; 2
     87a:	13 c0       	rjmp	.+38     	; 0x8a2 <CALLBACK_USB_GetDescriptor+0xa4>
     87c:	84 e0       	ldi	r24, 0x04	; 4
     87e:	90 e0       	ldi	r25, 0x00	; 0
     880:	24 ec       	ldi	r18, 0xC4	; 196
     882:	32 e0       	ldi	r19, 0x02	; 2
     884:	0e c0       	rjmp	.+28     	; 0x8a2 <CALLBACK_USB_GetDescriptor+0xa4>
     886:	8a e0       	ldi	r24, 0x0A	; 10
     888:	90 e0       	ldi	r25, 0x00	; 0
     88a:	28 eb       	ldi	r18, 0xB8	; 184
     88c:	32 e0       	ldi	r19, 0x02	; 2
     88e:	09 c0       	rjmp	.+18     	; 0x8a2 <CALLBACK_USB_GetDescriptor+0xa4>
     890:	89 e0       	ldi	r24, 0x09	; 9
     892:	90 e0       	ldi	r25, 0x00	; 0
     894:	21 ef       	ldi	r18, 0xF1	; 241
     896:	32 e0       	ldi	r19, 0x02	; 2
     898:	04 c0       	rjmp	.+8      	; 0x8a2 <CALLBACK_USB_GetDescriptor+0xa4>
     89a:	80 e0       	ldi	r24, 0x00	; 0
     89c:	90 e0       	ldi	r25, 0x00	; 0
     89e:	20 e0       	ldi	r18, 0x00	; 0
     8a0:	30 e0       	ldi	r19, 0x00	; 0
     8a2:	fa 01       	movw	r30, r20
     8a4:	31 83       	std	Z+1, r19	; 0x01
     8a6:	20 83       	st	Z, r18
     8a8:	08 95       	ret

000008aa <guess_host_os>:
     8aa:	80 91 57 09 	lds	r24, 0x0957	; 0x800957 <guess_os>
     8ae:	98 2f       	mov	r25, r24
     8b0:	9a 72       	andi	r25, 0x2A	; 42
     8b2:	9a 32       	cpi	r25, 0x2A	; 42
     8b4:	51 f0       	breq	.+20     	; 0x8ca <guess_host_os+0x20>
     8b6:	98 2f       	mov	r25, r24
     8b8:	99 70       	andi	r25, 0x09	; 9
     8ba:	91 30       	cpi	r25, 0x01	; 1
     8bc:	21 f0       	breq	.+8      	; 0x8c6 <guess_host_os+0x1c>
     8be:	85 fd       	sbrc	r24, 5
     8c0:	04 c0       	rjmp	.+8      	; 0x8ca <guess_host_os+0x20>
     8c2:	82 e0       	ldi	r24, 0x02	; 2
     8c4:	08 95       	ret
     8c6:	81 e0       	ldi	r24, 0x01	; 1
     8c8:	08 95       	ret
     8ca:	80 e0       	ldi	r24, 0x00	; 0
     8cc:	08 95       	ret

000008ce <guess_host_os_string>:
     8ce:	ed df       	rcall	.-38     	; 0x8aa <guess_host_os>
     8d0:	81 30       	cpi	r24, 0x01	; 1
     8d2:	29 f0       	breq	.+10     	; 0x8de <guess_host_os_string+0x10>
     8d4:	82 30       	cpi	r24, 0x02	; 2
     8d6:	31 f4       	brne	.+12     	; 0x8e4 <guess_host_os_string+0x16>
     8d8:	81 e7       	ldi	r24, 0x71	; 113
     8da:	92 e0       	ldi	r25, 0x02	; 2
     8dc:	08 95       	ret
     8de:	88 e6       	ldi	r24, 0x68	; 104
     8e0:	92 e0       	ldi	r25, 0x02	; 2
     8e2:	08 95       	ret
     8e4:	8d e5       	ldi	r24, 0x5D	; 93
     8e6:	92 e0       	ldi	r25, 0x02	; 2
     8e8:	08 95       	ret

000008ea <LEDs_SetAllLEDs>:
     8ea:	9b b1       	in	r25, 0x0b	; 11
     8ec:	9f 73       	andi	r25, 0x3F	; 63
     8ee:	89 2b       	or	r24, r25
     8f0:	8b b9       	out	0x0b, r24	; 11
     8f2:	08 95       	ret

000008f4 <myrand>:
     8f4:	80 91 79 09 	lds	r24, 0x0979	; 0x800979 <__bss_end>
     8f8:	90 91 7a 09 	lds	r25, 0x097A	; 0x80097a <__bss_end+0x1>
     8fc:	a0 91 7b 09 	lds	r26, 0x097B	; 0x80097b <__bss_end+0x2>
     900:	b0 91 7c 09 	lds	r27, 0x097C	; 0x80097c <__bss_end+0x3>
     904:	88 0f       	add	r24, r24
     906:	99 1f       	adc	r25, r25
     908:	aa 1f       	adc	r26, r26
     90a:	bb 1f       	adc	r27, r27
     90c:	18 16       	cp	r1, r24
     90e:	19 06       	cpc	r1, r25
     910:	1a 06       	cpc	r1, r26
     912:	1b 06       	cpc	r1, r27
     914:	44 f0       	brlt	.+16     	; 0x926 <myrand+0x32>
     916:	25 eb       	ldi	r18, 0xB5	; 181
     918:	82 27       	eor	r24, r18
     91a:	25 e9       	ldi	r18, 0x95	; 149
     91c:	92 27       	eor	r25, r18
     91e:	2a ea       	ldi	r18, 0xAA	; 170
     920:	a2 27       	eor	r26, r18
     922:	20 e2       	ldi	r18, 0x20	; 32
     924:	b2 27       	eor	r27, r18
     926:	80 93 79 09 	sts	0x0979, r24	; 0x800979 <__bss_end>
     92a:	90 93 7a 09 	sts	0x097A, r25	; 0x80097a <__bss_end+0x1>
     92e:	a0 93 7b 09 	sts	0x097B, r26	; 0x80097b <__bss_end+0x2>
     932:	b0 93 7c 09 	sts	0x097C, r27	; 0x80097c <__bss_end+0x3>
     936:	20 91 3b 05 	lds	r18, 0x053B	; 0x80053b <cur.4475>
     93a:	31 e0       	ldi	r19, 0x01	; 1
     93c:	32 0f       	add	r19, r18
     93e:	30 93 3b 05 	sts	0x053B, r19	; 0x80053b <cur.4475>
     942:	82 0f       	add	r24, r18
     944:	08 95       	ret

00000946 <lufa_hook_usb_serialnumber_randomize>:
     946:	df 92       	push	r13
     948:	ef 92       	push	r14
     94a:	ff 92       	push	r15
     94c:	0f 93       	push	r16
     94e:	1f 93       	push	r17
     950:	cf 93       	push	r28
     952:	df 93       	push	r29
     954:	f8 2e       	mov	r15, r24
     956:	e9 2e       	mov	r14, r25
     958:	eb 01       	movw	r28, r22
     95a:	80 91 3a 05 	lds	r24, 0x053A	; 0x80053a <init.4482>
     95e:	88 23       	and	r24, r24
     960:	29 f0       	breq	.+10     	; 0x96c <lufa_hook_usb_serialnumber_randomize+0x26>
     962:	ef 2d       	mov	r30, r15
     964:	fe 2d       	mov	r31, r14
     966:	80 e0       	ldi	r24, 0x00	; 0
     968:	90 e0       	ldi	r25, 0x00	; 0
     96a:	14 c0       	rjmp	.+40     	; 0x994 <lufa_hook_usb_serialnumber_randomize+0x4e>
     96c:	81 e0       	ldi	r24, 0x01	; 1
     96e:	80 93 3a 05 	sts	0x053A, r24	; 0x80053a <init.4482>
     972:	0a e2       	ldi	r16, 0x2A	; 42
     974:	15 e0       	ldi	r17, 0x05	; 5
     976:	89 e0       	ldi	r24, 0x09	; 9
     978:	d8 2e       	mov	r13, r24
     97a:	bc df       	rcall	.-136    	; 0x8f4 <myrand>
     97c:	6d 2d       	mov	r22, r13
     97e:	0e 94 15 15 	call	0x2a2a	; 0x2a2a <__udivmodqi4>
     982:	9f 5c       	subi	r25, 0xCF	; 207
     984:	f8 01       	movw	r30, r16
     986:	91 93       	st	Z+, r25
     988:	8f 01       	movw	r16, r30
     98a:	f5 e0       	ldi	r31, 0x05	; 5
     98c:	0a 33       	cpi	r16, 0x3A	; 58
     98e:	1f 07       	cpc	r17, r31
     990:	a1 f7       	brne	.-24     	; 0x97a <lufa_hook_usb_serialnumber_randomize+0x34>
     992:	e7 cf       	rjmp	.-50     	; 0x962 <lufa_hook_usb_serialnumber_randomize+0x1c>
     994:	8c 17       	cp	r24, r28
     996:	9d 07       	cpc	r25, r29
     998:	59 f0       	breq	.+22     	; 0x9b0 <lufa_hook_usb_serialnumber_randomize+0x6a>
     99a:	dc 01       	movw	r26, r24
     99c:	af 70       	andi	r26, 0x0F	; 15
     99e:	bb 27       	eor	r27, r27
     9a0:	a6 5d       	subi	r26, 0xD6	; 214
     9a2:	ba 4f       	sbci	r27, 0xFA	; 250
     9a4:	2c 91       	ld	r18, X
     9a6:	30 e0       	ldi	r19, 0x00	; 0
     9a8:	21 93       	st	Z+, r18
     9aa:	31 93       	st	Z+, r19
     9ac:	01 96       	adiw	r24, 0x01	; 1
     9ae:	f2 cf       	rjmp	.-28     	; 0x994 <lufa_hook_usb_serialnumber_randomize+0x4e>
     9b0:	df 91       	pop	r29
     9b2:	cf 91       	pop	r28
     9b4:	1f 91       	pop	r17
     9b6:	0f 91       	pop	r16
     9b8:	ff 90       	pop	r15
     9ba:	ef 90       	pop	r14
     9bc:	df 90       	pop	r13
     9be:	08 95       	ret

000009c0 <SetupHardware>:
     9c0:	84 b7       	in	r24, 0x34	; 52
     9c2:	87 7f       	andi	r24, 0xF7	; 247
     9c4:	84 bf       	out	0x34, r24	; 52
     9c6:	0f b6       	in	r0, 0x3f	; 63
     9c8:	f8 94       	cli
     9ca:	a8 95       	wdr
     9cc:	80 91 60 00 	lds	r24, 0x0060	; 0x800060 <__TEXT_REGION_LENGTH__+0x7e0060>
     9d0:	88 61       	ori	r24, 0x18	; 24
     9d2:	80 93 60 00 	sts	0x0060, r24	; 0x800060 <__TEXT_REGION_LENGTH__+0x7e0060>
     9d6:	10 92 60 00 	sts	0x0060, r1	; 0x800060 <__TEXT_REGION_LENGTH__+0x7e0060>
     9da:	0f be       	out	0x3f, r0	; 63
     9dc:	90 e0       	ldi	r25, 0x00	; 0
     9de:	80 e8       	ldi	r24, 0x80	; 128
     9e0:	0f b6       	in	r0, 0x3f	; 63
     9e2:	f8 94       	cli
     9e4:	80 93 61 00 	sts	0x0061, r24	; 0x800061 <__TEXT_REGION_LENGTH__+0x7e0061>
     9e8:	90 93 61 00 	sts	0x0061, r25	; 0x800061 <__TEXT_REGION_LENGTH__+0x7e0061>
     9ec:	0f be       	out	0x3f, r0	; 63
     9ee:	8f ef       	ldi	r24, 0xFF	; 255
     9f0:	82 b9       	out	0x02, r24	; 2
     9f2:	85 b9       	out	0x05, r24	; 5
     9f4:	88 b9       	out	0x08, r24	; 8
     9f6:	8b b9       	out	0x0b, r24	; 11
     9f8:	81 bb       	out	0x11, r24	; 17
     9fa:	78 94       	sei
     9fc:	87 e6       	ldi	r24, 0x67	; 103
     9fe:	90 e0       	ldi	r25, 0x00	; 0
     a00:	90 93 cd 00 	sts	0x00CD, r25	; 0x8000cd <__TEXT_REGION_LENGTH__+0x7e00cd>
     a04:	80 93 cc 00 	sts	0x00CC, r24	; 0x8000cc <__TEXT_REGION_LENGTH__+0x7e00cc>
     a08:	86 e0       	ldi	r24, 0x06	; 6
     a0a:	80 93 ca 00 	sts	0x00CA, r24	; 0x8000ca <__TEXT_REGION_LENGTH__+0x7e00ca>
     a0e:	10 92 c8 00 	sts	0x00C8, r1	; 0x8000c8 <__TEXT_REGION_LENGTH__+0x7e00c8>
     a12:	88 e1       	ldi	r24, 0x18	; 24
     a14:	80 93 c9 00 	sts	0x00C9, r24	; 0x8000c9 <__TEXT_REGION_LENGTH__+0x7e00c9>
     a18:	53 9a       	sbi	0x0a, 3	; 10
     a1a:	5a 9a       	sbi	0x0b, 2	; 11
     a1c:	80 e9       	ldi	r24, 0x90	; 144
     a1e:	93 e0       	ldi	r25, 0x03	; 3
     a20:	24 d5       	rcall	.+2632   	; 0x146a <Serial_SendString>
     a22:	80 e0       	ldi	r24, 0x00	; 0
     a24:	90 e0       	ldi	r25, 0x00	; 0
     a26:	2d d5       	rcall	.+2650   	; 0x1482 <Serial_CreateStream>
     a28:	8e e1       	ldi	r24, 0x1E	; 30
     a2a:	94 e0       	ldi	r25, 0x04	; 4
     a2c:	0e 94 c5 15 	call	0x2b8a	; 0x2b8a <puts>
     a30:	87 eb       	ldi	r24, 0xB7	; 183
     a32:	90 e0       	ldi	r25, 0x00	; 0
     a34:	9f 93       	push	r25
     a36:	8f 93       	push	r24
     a38:	0e 94 9e 15 	call	0x2b3c	; 0x2b3c <printf_P>
     a3c:	95 db       	rcall	.-2262   	; 0x168 <on_sd>
     a3e:	70 d3       	rcall	.+1760   	; 0x1120 <sdcard_Init>
     a40:	8a b1       	in	r24, 0x0a	; 10
     a42:	80 6c       	ori	r24, 0xC0	; 192
     a44:	8a b9       	out	0x0a, r24	; 10
     a46:	8b b1       	in	r24, 0x0b	; 11
     a48:	8f 73       	andi	r24, 0x3F	; 63
     a4a:	8b b9       	out	0x0b, r24	; 11
     a4c:	55 98       	cbi	0x0a, 5	; 10
     a4e:	5d 9a       	sbi	0x0b, 5	; 11
     a50:	6a 98       	cbi	0x0d, 2	; 13
     a52:	72 9a       	sbi	0x0e, 2	; 14
     a54:	0f 90       	pop	r0
     a56:	0f 90       	pop	r0
     a58:	0c 94 57 12 	jmp	0x24ae	; 0x24ae <USB_Init>

00000a5c <main>:
     a5c:	cf 93       	push	r28
     a5e:	df 93       	push	r29
     a60:	cd b7       	in	r28, 0x3d	; 61
     a62:	de b7       	in	r29, 0x3e	; 62
     a64:	c4 56       	subi	r28, 0x64	; 100
     a66:	d1 09       	sbc	r29, r1
     a68:	0f b6       	in	r0, 0x3f	; 63
     a6a:	f8 94       	cli
     a6c:	de bf       	out	0x3e, r29	; 62
     a6e:	0f be       	out	0x3f, r0	; 63
     a70:	cd bf       	out	0x3d, r28	; 61
     a72:	a6 df       	rcall	.-180    	; 0x9c0 <SetupHardware>
     a74:	6c e3       	ldi	r22, 0x3C	; 60
     a76:	75 e0       	ldi	r23, 0x05	; 5
     a78:	80 e3       	ldi	r24, 0x30	; 48
     a7a:	91 e0       	ldi	r25, 0x01	; 1
     a7c:	1c d6       	rcall	.+3128   	; 0x16b6 <CDC_Device_CreateStream>
     a7e:	80 e4       	ldi	r24, 0x40	; 64
     a80:	34 df       	rcall	.-408    	; 0x8ea <LEDs_SetAllLEDs>
     a82:	78 94       	sei
     a84:	31 2c       	mov	r3, r1
     a86:	01 e0       	ldi	r16, 0x01	; 1
     a88:	10 e0       	ldi	r17, 0x00	; 0
     a8a:	44 24       	eor	r4, r4
     a8c:	4a 94       	dec	r4
     a8e:	8f e9       	ldi	r24, 0x9F	; 159
     a90:	58 2e       	mov	r5, r24
     a92:	94 e6       	ldi	r25, 0x64	; 100
     a94:	29 2e       	mov	r2, r25
     a96:	ce 01       	movw	r24, r28
     a98:	01 96       	adiw	r24, 0x01	; 1
     a9a:	7c 01       	movw	r14, r24
     a9c:	2e e4       	ldi	r18, 0x4E	; 78
     a9e:	62 2e       	mov	r6, r18
     aa0:	24 e0       	ldi	r18, 0x04	; 4
     aa2:	72 2e       	mov	r7, r18
     aa4:	36 e3       	ldi	r19, 0x36	; 54
     aa6:	a3 2e       	mov	r10, r19
     aa8:	34 e0       	ldi	r19, 0x04	; 4
     aaa:	b3 2e       	mov	r11, r19
     aac:	4c e3       	ldi	r20, 0x3C	; 60
     aae:	84 2e       	mov	r8, r20
     ab0:	45 e0       	ldi	r20, 0x05	; 5
     ab2:	94 2e       	mov	r9, r20
     ab4:	8b e5       	ldi	r24, 0x5B	; 91
     ab6:	91 e0       	ldi	r25, 0x01	; 1
     ab8:	0e 94 7e 0e 	call	0x1cfc	; 0x1cfc <MS_Device_USBTask>
     abc:	8b e4       	ldi	r24, 0x4B	; 75
     abe:	91 e0       	ldi	r25, 0x01	; 1
     ac0:	0e 94 67 0d 	call	0x1ace	; 0x1ace <HID_Device_USBTask>
     ac4:	80 e3       	ldi	r24, 0x30	; 48
     ac6:	91 e0       	ldi	r25, 0x01	; 1
     ac8:	bc d5       	rcall	.+2936   	; 0x1642 <CDC_Device_ReceiveByte>
     aca:	6c 01       	movw	r12, r24
     acc:	97 fd       	sbrc	r25, 7
     ace:	0b c0       	rjmp	.+22     	; 0xae6 <main+0x8a>
     ad0:	80 91 2d 01 	lds	r24, 0x012D	; 0x80012d <first_char_typ.4502>
     ad4:	80 32       	cpi	r24, 0x20	; 32
     ad6:	39 f4       	brne	.+14     	; 0xae6 <main+0x8a>
     ad8:	c6 01       	movw	r24, r12
     ada:	0e 94 59 15 	call	0x2ab2	; 0x2ab2 <isprint>
     ade:	89 2b       	or	r24, r25
     ae0:	11 f0       	breq	.+4      	; 0xae6 <main+0x8a>
     ae2:	c0 92 2d 01 	sts	0x012D, r12	; 0x80012d <first_char_typ.4502>
     ae6:	68 01       	movw	r12, r16
     ae8:	9f ef       	ldi	r25, 0xFF	; 255
     aea:	c9 1a       	sub	r12, r25
     aec:	d9 0a       	sbc	r13, r25
     aee:	81 e0       	ldi	r24, 0x01	; 1
     af0:	90 e0       	ldi	r25, 0x00	; 0
     af2:	0f 3f       	cpi	r16, 0xFF	; 255
     af4:	ef e9       	ldi	r30, 0x9F	; 159
     af6:	1e 07       	cpc	r17, r30
     af8:	10 f4       	brcc	.+4      	; 0xafe <main+0xa2>
     afa:	80 e0       	ldi	r24, 0x00	; 0
     afc:	90 e0       	ldi	r25, 0x00	; 0
     afe:	84 9d       	mul	r24, r4
     b00:	90 01       	movw	r18, r0
     b02:	85 9d       	mul	r24, r5
     b04:	30 0d       	add	r19, r0
     b06:	94 9d       	mul	r25, r4
     b08:	30 0d       	add	r19, r0
     b0a:	11 24       	eor	r1, r1
     b0c:	02 17       	cp	r16, r18
     b0e:	13 07       	cpc	r17, r19
     b10:	e1 f5       	brne	.+120    	; 0xb8a <main+0x12e>
     b12:	f7 01       	movw	r30, r14
     b14:	22 2d       	mov	r18, r2
     b16:	11 92       	st	Z+, r1
     b18:	2a 95       	dec	r18
     b1a:	e9 f7       	brne	.-6      	; 0xb16 <main+0xba>
     b1c:	80 91 29 05 	lds	r24, 0x0529	; 0x800529 <gh.4504>
     b20:	82 33       	cpi	r24, 0x32	; 50
     b22:	a1 f4       	brne	.+40     	; 0xb4c <main+0xf0>
     b24:	d4 de       	rcall	.-600    	; 0x8ce <guess_host_os_string>
     b26:	9f 93       	push	r25
     b28:	8f 93       	push	r24
     b2a:	bf 92       	push	r11
     b2c:	af 92       	push	r10
     b2e:	9f 92       	push	r9
     b30:	8f 92       	push	r8
     b32:	0e 94 7c 15 	call	0x2af8	; 0x2af8 <fprintf>
     b36:	80 91 29 05 	lds	r24, 0x0529	; 0x800529 <gh.4504>
     b3a:	8f 5f       	subi	r24, 0xFF	; 255
     b3c:	80 93 29 05 	sts	0x0529, r24	; 0x800529 <gh.4504>
     b40:	0f 90       	pop	r0
     b42:	0f 90       	pop	r0
     b44:	0f 90       	pop	r0
     b46:	0f 90       	pop	r0
     b48:	0f 90       	pop	r0
     b4a:	0f 90       	pop	r0
     b4c:	80 91 29 05 	lds	r24, 0x0529	; 0x800529 <gh.4504>
     b50:	82 33       	cpi	r24, 0x32	; 50
     b52:	18 f4       	brcc	.+6      	; 0xb5a <main+0xfe>
     b54:	8f 5f       	subi	r24, 0xFF	; 255
     b56:	80 93 29 05 	sts	0x0529, r24	; 0x800529 <gh.4504>
     b5a:	11 e0       	ldi	r17, 0x01	; 1
     b5c:	13 0d       	add	r17, r3
     b5e:	1f 92       	push	r1
     b60:	3f 92       	push	r3
     b62:	80 91 2d 01 	lds	r24, 0x012D	; 0x80012d <first_char_typ.4502>
     b66:	1f 92       	push	r1
     b68:	8f 93       	push	r24
     b6a:	7f 92       	push	r7
     b6c:	6f 92       	push	r6
     b6e:	ff 92       	push	r15
     b70:	ef 92       	push	r14
     b72:	0e 94 f5 15 	call	0x2bea	; 0x2bea <sprintf>
     b76:	b7 01       	movw	r22, r14
     b78:	80 e3       	ldi	r24, 0x30	; 48
     b7a:	91 e0       	ldi	r25, 0x01	; 1
     b7c:	c5 d4       	rcall	.+2442   	; 0x1508 <CDC_Device_SendString>
     b7e:	0f b6       	in	r0, 0x3f	; 63
     b80:	f8 94       	cli
     b82:	de bf       	out	0x3e, r29	; 62
     b84:	0f be       	out	0x3f, r0	; 63
     b86:	cd bf       	out	0x3d, r28	; 61
     b88:	31 2e       	mov	r3, r17
     b8a:	80 e3       	ldi	r24, 0x30	; 48
     b8c:	91 e0       	ldi	r25, 0x01	; 1
     b8e:	43 d5       	rcall	.+2694   	; 0x1616 <CDC_Device_USBTask>
     b90:	0e 94 fb 14 	call	0x29f6	; 0x29f6 <USB_USBTask>
     b94:	86 01       	movw	r16, r12
     b96:	8e cf       	rjmp	.-228    	; 0xab4 <main+0x58>

00000b98 <EVENT_USB_Device_Connect>:
     b98:	8d ea       	ldi	r24, 0xAD	; 173
     b9a:	90 e0       	ldi	r25, 0x00	; 0
     b9c:	9f 93       	push	r25
     b9e:	8f 93       	push	r24
     ba0:	0e 94 9e 15 	call	0x2b3c	; 0x2b3c <printf_P>
     ba4:	0f 90       	pop	r0
     ba6:	0f 90       	pop	r0
     ba8:	80 e8       	ldi	r24, 0x80	; 128
     baa:	9f ce       	rjmp	.-706    	; 0x8ea <LEDs_SetAllLEDs>

00000bac <EVENT_USB_Device_Disconnect>:
     bac:	80 ea       	ldi	r24, 0xA0	; 160
     bae:	90 e0       	ldi	r25, 0x00	; 0
     bb0:	9f 93       	push	r25
     bb2:	8f 93       	push	r24
     bb4:	0e 94 9e 15 	call	0x2b3c	; 0x2b3c <printf_P>
     bb8:	0f 90       	pop	r0
     bba:	0f 90       	pop	r0
     bbc:	80 e4       	ldi	r24, 0x40	; 64
     bbe:	95 ce       	rjmp	.-726    	; 0x8ea <LEDs_SetAllLEDs>

00000bc0 <EVENT_USB_Device_ConfigurationChanged>:
     bc0:	cf 93       	push	r28
     bc2:	88 e9       	ldi	r24, 0x98	; 152
     bc4:	90 e0       	ldi	r25, 0x00	; 0
     bc6:	9f 93       	push	r25
     bc8:	8f 93       	push	r24
     bca:	0e 94 9e 15 	call	0x2b3c	; 0x2b3c <printf_P>
     bce:	8b e4       	ldi	r24, 0x4B	; 75
     bd0:	91 e0       	ldi	r25, 0x01	; 1
     bd2:	6a d7       	rcall	.+3796   	; 0x1aa8 <HID_Device_ConfigureEndpoints>
     bd4:	c8 2f       	mov	r28, r24
     bd6:	8b e5       	ldi	r24, 0x5B	; 91
     bd8:	91 e0       	ldi	r25, 0x01	; 1
     bda:	0e 94 61 0e 	call	0x1cc2	; 0x1cc2 <MS_Device_ConfigureEndpoints>
     bde:	c8 23       	and	r28, r24
     be0:	80 e3       	ldi	r24, 0x30	; 48
     be2:	91 e0       	ldi	r25, 0x01	; 1
     be4:	6c d4       	rcall	.+2264   	; 0x14be <CDC_Device_ConfigureEndpoints>
     be6:	90 91 e2 00 	lds	r25, 0x00E2	; 0x8000e2 <__TEXT_REGION_LENGTH__+0x7e00e2>
     bea:	94 60       	ori	r25, 0x04	; 4
     bec:	90 93 e2 00 	sts	0x00E2, r25	; 0x8000e2 <__TEXT_REGION_LENGTH__+0x7e00e2>
     bf0:	0f 90       	pop	r0
     bf2:	0f 90       	pop	r0
     bf4:	cc 23       	and	r28, r28
     bf6:	11 f0       	breq	.+4      	; 0xbfc <EVENT_USB_Device_ConfigurationChanged+0x3c>
     bf8:	81 11       	cpse	r24, r1
     bfa:	02 c0       	rjmp	.+4      	; 0xc00 <EVENT_USB_Device_ConfigurationChanged+0x40>
     bfc:	80 e4       	ldi	r24, 0x40	; 64
     bfe:	01 c0       	rjmp	.+2      	; 0xc02 <EVENT_USB_Device_ConfigurationChanged+0x42>
     c00:	80 ec       	ldi	r24, 0xC0	; 192
     c02:	cf 91       	pop	r28
     c04:	72 ce       	rjmp	.-796    	; 0x8ea <LEDs_SetAllLEDs>

00000c06 <EVENT_USB_Device_ControlRequest>:
     c06:	8b e5       	ldi	r24, 0x5B	; 91
     c08:	91 e0       	ldi	r25, 0x01	; 1
     c0a:	0e 94 20 0e 	call	0x1c40	; 0x1c40 <MS_Device_ProcessControlRequest>
     c0e:	8b e4       	ldi	r24, 0x4B	; 75
     c10:	91 e0       	ldi	r25, 0x01	; 1
     c12:	15 d6       	rcall	.+3114   	; 0x183e <HID_Device_ProcessControlRequest>
     c14:	80 e3       	ldi	r24, 0x30	; 48
     c16:	91 e0       	ldi	r25, 0x01	; 1
     c18:	62 c5       	rjmp	.+2756   	; 0x16de <CDC_Device_ProcessControlRequest>

00000c1a <CALLBACK_MS_Device_SCSICommandReceived>:
     c1a:	cf 93       	push	r28
     c1c:	df 93       	push	r29
     c1e:	ec 01       	movw	r28, r24
     c20:	80 91 28 05 	lds	r24, 0x0528	; 0x800528 <show_os.4774>
     c24:	81 11       	cpse	r24, r1
     c26:	10 c0       	rjmp	.+32     	; 0xc48 <CALLBACK_MS_Device_SCSICommandReceived+0x2e>
     c28:	81 e0       	ldi	r24, 0x01	; 1
     c2a:	80 93 28 05 	sts	0x0528, r24	; 0x800528 <show_os.4774>
     c2e:	4f de       	rcall	.-866    	; 0x8ce <guess_host_os_string>
     c30:	9f 93       	push	r25
     c32:	8f 93       	push	r24
     c34:	86 e9       	ldi	r24, 0x96	; 150
     c36:	94 e0       	ldi	r25, 0x04	; 4
     c38:	9f 93       	push	r25
     c3a:	8f 93       	push	r24
     c3c:	0e 94 8b 15 	call	0x2b16	; 0x2b16 <printf>
     c40:	0f 90       	pop	r0
     c42:	0f 90       	pop	r0
     c44:	0f 90       	pop	r0
     c46:	0f 90       	pop	r0
     c48:	80 91 52 05 	lds	r24, 0x0552	; 0x800552 <last_led>
     c4c:	81 11       	cpse	r24, r1
     c4e:	02 c0       	rjmp	.+4      	; 0xc54 <CALLBACK_MS_Device_SCSICommandReceived+0x3a>
     c50:	80 e8       	ldi	r24, 0x80	; 128
     c52:	4b de       	rcall	.-874    	; 0x8ea <LEDs_SetAllLEDs>
     c54:	ce 01       	movw	r24, r28
     c56:	fe d0       	rcall	.+508    	; 0xe54 <SCSI_DecodeSCSICommand>
     c58:	c8 2f       	mov	r28, r24
     c5a:	80 91 52 05 	lds	r24, 0x0552	; 0x800552 <last_led>
     c5e:	81 11       	cpse	r24, r1
     c60:	02 c0       	rjmp	.+4      	; 0xc66 <CALLBACK_MS_Device_SCSICommandReceived+0x4c>
     c62:	80 ec       	ldi	r24, 0xC0	; 192
     c64:	42 de       	rcall	.-892    	; 0x8ea <LEDs_SetAllLEDs>
     c66:	8c 2f       	mov	r24, r28
     c68:	df 91       	pop	r29
     c6a:	cf 91       	pop	r28
     c6c:	08 95       	ret

00000c6e <EVENT_USB_Device_StartOfFrame>:
     c6e:	80 91 59 01 	lds	r24, 0x0159	; 0x800159 <Keyboard_HID_Interface+0xe>
     c72:	90 91 5a 01 	lds	r25, 0x015A	; 0x80015a <Keyboard_HID_Interface+0xf>
     c76:	00 97       	sbiw	r24, 0x00	; 0
     c78:	29 f0       	breq	.+10     	; 0xc84 <EVENT_USB_Device_StartOfFrame+0x16>
     c7a:	01 97       	sbiw	r24, 0x01	; 1
     c7c:	90 93 5a 01 	sts	0x015A, r25	; 0x80015a <Keyboard_HID_Interface+0xf>
     c80:	80 93 59 01 	sts	0x0159, r24	; 0x800159 <Keyboard_HID_Interface+0xe>
     c84:	08 95       	ret

00000c86 <CALLBACK_HID_Device_CreateHIDReport>:
     c86:	0f 93       	push	r16
     c88:	1f 93       	push	r17
     c8a:	cf 93       	push	r28
     c8c:	df 93       	push	r29
     c8e:	e9 01       	movw	r28, r18
     c90:	29 b1       	in	r18, 0x09	; 9
     c92:	8c b1       	in	r24, 0x0c	; 12
     c94:	20 95       	com	r18
     c96:	20 72       	andi	r18, 0x20	; 32
     c98:	80 95       	com	r24
     c9a:	84 70       	andi	r24, 0x04	; 4
     c9c:	28 2b       	or	r18, r24
     c9e:	e0 91 26 05 	lds	r30, 0x0526	; 0x800526 <i.4791>
     ca2:	f0 91 27 05 	lds	r31, 0x0527	; 0x800527 <i.4791+0x1>
     ca6:	31 96       	adiw	r30, 0x01	; 1
     ca8:	cf 01       	movw	r24, r30
     caa:	6f e8       	ldi	r22, 0x8F	; 143
     cac:	70 e0       	ldi	r23, 0x00	; 0
     cae:	0e 94 21 15 	call	0x2a42	; 0x2a42 <__udivmodhi4>
     cb2:	89 2b       	or	r24, r25
     cb4:	29 f0       	breq	.+10     	; 0xcc0 <CALLBACK_HID_Device_CreateHIDReport+0x3a>
     cb6:	f0 93 27 05 	sts	0x0527, r31	; 0x800527 <i.4791+0x1>
     cba:	e0 93 26 05 	sts	0x0526, r30	; 0x800526 <i.4791>
     cbe:	04 c0       	rjmp	.+8      	; 0xcc8 <CALLBACK_HID_Device_CreateHIDReport+0x42>
     cc0:	10 92 27 05 	sts	0x0527, r1	; 0x800527 <i.4791+0x1>
     cc4:	10 92 26 05 	sts	0x0526, r1	; 0x800526 <i.4791>
     cc8:	80 91 25 05 	lds	r24, 0x0525	; 0x800525 <last_shift.4786>
     ccc:	88 23       	and	r24, r24
     cce:	19 f0       	breq	.+6      	; 0xcd6 <CALLBACK_HID_Device_CreateHIDReport+0x50>
     cd0:	18 82       	st	Y, r1
     cd2:	10 92 25 05 	sts	0x0525, r1	; 0x800525 <last_shift.4786>
     cd6:	82 2f       	mov	r24, r18
     cd8:	84 70       	andi	r24, 0x04	; 4
     cda:	24 32       	cpi	r18, 0x24	; 36
     cdc:	f1 f4       	brne	.+60     	; 0xd1a <CALLBACK_HID_Device_CreateHIDReport+0x94>
     cde:	82 e0       	ldi	r24, 0x02	; 2
     ce0:	88 83       	st	Y, r24
     ce2:	87 e0       	ldi	r24, 0x07	; 7
     ce4:	8a 83       	std	Y+2, r24	; 0x02
     ce6:	c1 e0       	ldi	r28, 0x01	; 1
     ce8:	c0 93 25 05 	sts	0x0525, r28	; 0x800525 <last_shift.4786>
     cec:	80 ec       	ldi	r24, 0xC0	; 192
     cee:	fd dd       	rcall	.-1030   	; 0x8ea <LEDs_SetAllLEDs>
     cf0:	c0 93 52 05 	sts	0x0552, r28	; 0x800552 <last_led>
     cf4:	da dd       	rcall	.-1100   	; 0x8aa <guess_host_os>
     cf6:	81 30       	cpi	r24, 0x01	; 1
     cf8:	31 f0       	breq	.+12     	; 0xd06 <CALLBACK_HID_Device_CreateHIDReport+0x80>
     cfa:	40 f0       	brcs	.+16     	; 0xd0c <CALLBACK_HID_Device_CreateHIDReport+0x86>
     cfc:	82 30       	cpi	r24, 0x02	; 2
     cfe:	31 f4       	brne	.+12     	; 0xd0c <CALLBACK_HID_Device_CreateHIDReport+0x86>
     d00:	80 e0       	ldi	r24, 0x00	; 0
     d02:	91 e0       	ldi	r25, 0x01	; 1
     d04:	05 c0       	rjmp	.+10     	; 0xd10 <CALLBACK_HID_Device_CreateHIDReport+0x8a>
     d06:	8d e0       	ldi	r24, 0x0D	; 13
     d08:	91 e0       	ldi	r25, 0x01	; 1
     d0a:	02 c0       	rjmp	.+4      	; 0xd10 <CALLBACK_HID_Device_CreateHIDReport+0x8a>
     d0c:	8c e1       	ldi	r24, 0x1C	; 28
     d0e:	91 e0       	ldi	r25, 0x01	; 1
     d10:	90 93 24 05 	sts	0x0524, r25	; 0x800524 <str_to_print.4787+0x1>
     d14:	80 93 23 05 	sts	0x0523, r24	; 0x800523 <str_to_print.4787>
     d18:	30 c0       	rjmp	.+96     	; 0xd7a <CALLBACK_HID_Device_CreateHIDReport+0xf4>
     d1a:	88 23       	and	r24, r24
     d1c:	21 f0       	breq	.+8      	; 0xd26 <CALLBACK_HID_Device_CreateHIDReport+0xa0>
     d1e:	85 e1       	ldi	r24, 0x15	; 21
     d20:	8a 83       	std	Y+2, r24	; 0x02
     d22:	80 e4       	ldi	r24, 0x40	; 64
     d24:	05 c0       	rjmp	.+10     	; 0xd30 <CALLBACK_HID_Device_CreateHIDReport+0xaa>
     d26:	20 72       	andi	r18, 0x20	; 32
     d28:	41 f0       	breq	.+16     	; 0xd3a <CALLBACK_HID_Device_CreateHIDReport+0xb4>
     d2a:	8a e0       	ldi	r24, 0x0A	; 10
     d2c:	8a 83       	std	Y+2, r24	; 0x02
     d2e:	80 e8       	ldi	r24, 0x80	; 128
     d30:	dc dd       	rcall	.-1096   	; 0x8ea <LEDs_SetAllLEDs>
     d32:	81 e0       	ldi	r24, 0x01	; 1
     d34:	80 93 52 05 	sts	0x0552, r24	; 0x800552 <last_led>
     d38:	20 c0       	rjmp	.+64     	; 0xd7a <CALLBACK_HID_Device_CreateHIDReport+0xf4>
     d3a:	80 91 52 05 	lds	r24, 0x0552	; 0x800552 <last_led>
     d3e:	88 23       	and	r24, r24
     d40:	21 f0       	breq	.+8      	; 0xd4a <CALLBACK_HID_Device_CreateHIDReport+0xc4>
     d42:	10 92 52 05 	sts	0x0552, r1	; 0x800552 <last_led>
     d46:	80 e0       	ldi	r24, 0x00	; 0
     d48:	d0 dd       	rcall	.-1120   	; 0x8ea <LEDs_SetAllLEDs>
     d4a:	e0 91 23 05 	lds	r30, 0x0523	; 0x800523 <str_to_print.4787>
     d4e:	f0 91 24 05 	lds	r31, 0x0524	; 0x800524 <str_to_print.4787+0x1>
     d52:	80 81       	ld	r24, Z
     d54:	81 11       	cpse	r24, r1
     d56:	05 c0       	rjmp	.+10     	; 0xd62 <CALLBACK_HID_Device_CreateHIDReport+0xdc>
     d58:	10 92 24 05 	sts	0x0524, r1	; 0x800524 <str_to_print.4787+0x1>
     d5c:	10 92 23 05 	sts	0x0523, r1	; 0x800523 <str_to_print.4787>
     d60:	0c c0       	rjmp	.+24     	; 0xd7a <CALLBACK_HID_Device_CreateHIDReport+0xf4>
     d62:	20 91 26 05 	lds	r18, 0x0526	; 0x800526 <i.4791>
     d66:	30 91 27 05 	lds	r19, 0x0527	; 0x800527 <i.4791+0x1>
     d6a:	23 2b       	or	r18, r19
     d6c:	31 f4       	brne	.+12     	; 0xd7a <CALLBACK_HID_Device_CreateHIDReport+0xf4>
     d6e:	8a 83       	std	Y+2, r24	; 0x02
     d70:	31 96       	adiw	r30, 0x01	; 1
     d72:	f0 93 24 05 	sts	0x0524, r31	; 0x800524 <str_to_print.4787+0x1>
     d76:	e0 93 23 05 	sts	0x0523, r30	; 0x800523 <str_to_print.4787>
     d7a:	88 e0       	ldi	r24, 0x08	; 8
     d7c:	90 e0       	ldi	r25, 0x00	; 0
     d7e:	f8 01       	movw	r30, r16
     d80:	91 83       	std	Z+1, r25	; 0x01
     d82:	80 83       	st	Z, r24
     d84:	80 e0       	ldi	r24, 0x00	; 0
     d86:	df 91       	pop	r29
     d88:	cf 91       	pop	r28
     d8a:	1f 91       	pop	r17
     d8c:	0f 91       	pop	r16
     d8e:	08 95       	ret

00000d90 <CALLBACK_HID_Device_ProcessHIDReport>:
     d90:	80 91 52 05 	lds	r24, 0x0552	; 0x800552 <last_led>
     d94:	81 11       	cpse	r24, r1
     d96:	0c c0       	rjmp	.+24     	; 0xdb0 <CALLBACK_HID_Device_ProcessHIDReport+0x20>
     d98:	f9 01       	movw	r30, r18
     d9a:	90 81       	ld	r25, Z
     d9c:	90 ff       	sbrs	r25, 0
     d9e:	02 c0       	rjmp	.+4      	; 0xda4 <CALLBACK_HID_Device_ProcessHIDReport+0x14>
     da0:	80 e4       	ldi	r24, 0x40	; 64
     da2:	01 c0       	rjmp	.+2      	; 0xda6 <CALLBACK_HID_Device_ProcessHIDReport+0x16>
     da4:	80 e0       	ldi	r24, 0x00	; 0
     da6:	91 fd       	sbrc	r25, 1
     da8:	80 68       	ori	r24, 0x80	; 128
     daa:	92 fd       	sbrc	r25, 2
     dac:	80 ec       	ldi	r24, 0xC0	; 192
     dae:	9d cd       	rjmp	.-1222   	; 0x8ea <LEDs_SetAllLEDs>
     db0:	08 95       	ret

00000db2 <EVENT_CDC_Device_ControLineStateChanged>:
     db2:	08 95       	ret

00000db4 <SCSI_Command_ReadWrite_10>:
     db4:	bf 92       	push	r11
     db6:	cf 92       	push	r12
     db8:	df 92       	push	r13
     dba:	ef 92       	push	r14
     dbc:	ff 92       	push	r15
     dbe:	0f 93       	push	r16
     dc0:	1f 93       	push	r17
     dc2:	cf 93       	push	r28
     dc4:	df 93       	push	r29
     dc6:	ec 01       	movw	r28, r24
     dc8:	b6 2e       	mov	r11, r22
     dca:	c8 a0       	ldd	r12, Y+32	; 0x20
     dcc:	df 8c       	ldd	r13, Y+31	; 0x1f
     dce:	ee 8c       	ldd	r14, Y+30	; 0x1e
     dd0:	fd 8c       	ldd	r15, Y+29	; 0x1d
     dd2:	0b a1       	ldd	r16, Y+35	; 0x23
     dd4:	1a a1       	ldd	r17, Y+34	; 0x22
     dd6:	62 d1       	rcall	.+708    	; 0x109c <sdcard_GetNbBlocks>
     dd8:	c6 16       	cp	r12, r22
     dda:	d7 06       	cpc	r13, r23
     ddc:	e8 06       	cpc	r14, r24
     dde:	f9 06       	cpc	r15, r25
     de0:	68 f0       	brcs	.+26     	; 0xdfc <SCSI_Command_ReadWrite_10+0x48>
     de2:	80 91 96 01 	lds	r24, 0x0196	; 0x800196 <SenseData+0x2>
     de6:	80 7f       	andi	r24, 0xF0	; 240
     de8:	85 60       	ori	r24, 0x05	; 5
     dea:	80 93 96 01 	sts	0x0196, r24	; 0x800196 <SenseData+0x2>
     dee:	81 e2       	ldi	r24, 0x21	; 33
     df0:	80 93 a0 01 	sts	0x01A0, r24	; 0x8001a0 <SenseData+0xc>
     df4:	10 92 a1 01 	sts	0x01A1, r1	; 0x8001a1 <SenseData+0xd>
     df8:	80 e0       	ldi	r24, 0x00	; 0
     dfa:	22 c0       	rjmp	.+68     	; 0xe40 <SCSI_Command_ReadWrite_10+0x8c>
     dfc:	98 01       	movw	r18, r16
     dfe:	b7 01       	movw	r22, r14
     e00:	a6 01       	movw	r20, r12
     e02:	ce 01       	movw	r24, r28
     e04:	bb 20       	and	r11, r11
     e06:	11 f0       	breq	.+4      	; 0xe0c <SCSI_Command_ReadWrite_10+0x58>
     e08:	80 d2       	rcall	.+1280   	; 0x130a <sdcard_ReadBlocks>
     e0a:	01 c0       	rjmp	.+2      	; 0xe0e <SCSI_Command_ReadWrite_10+0x5a>
     e0c:	1d d2       	rcall	.+1082   	; 0x1248 <sdcard_WriteBlocks>
     e0e:	c8 01       	movw	r24, r16
     e10:	a0 e0       	ldi	r26, 0x00	; 0
     e12:	b0 e0       	ldi	r27, 0x00	; 0
     e14:	29 e0       	ldi	r18, 0x09	; 9
     e16:	88 0f       	add	r24, r24
     e18:	99 1f       	adc	r25, r25
     e1a:	aa 1f       	adc	r26, r26
     e1c:	bb 1f       	adc	r27, r27
     e1e:	2a 95       	dec	r18
     e20:	d1 f7       	brne	.-12     	; 0xe16 <SCSI_Command_ReadWrite_10+0x62>
     e22:	4c 89       	ldd	r20, Y+20	; 0x14
     e24:	5d 89       	ldd	r21, Y+21	; 0x15
     e26:	6e 89       	ldd	r22, Y+22	; 0x16
     e28:	7f 89       	ldd	r23, Y+23	; 0x17
     e2a:	8a 01       	movw	r16, r20
     e2c:	9b 01       	movw	r18, r22
     e2e:	08 1b       	sub	r16, r24
     e30:	19 0b       	sbc	r17, r25
     e32:	2a 0b       	sbc	r18, r26
     e34:	3b 0b       	sbc	r19, r27
     e36:	0c 8b       	std	Y+20, r16	; 0x14
     e38:	1d 8b       	std	Y+21, r17	; 0x15
     e3a:	2e 8b       	std	Y+22, r18	; 0x16
     e3c:	3f 8b       	std	Y+23, r19	; 0x17
     e3e:	81 e0       	ldi	r24, 0x01	; 1
     e40:	df 91       	pop	r29
     e42:	cf 91       	pop	r28
     e44:	1f 91       	pop	r17
     e46:	0f 91       	pop	r16
     e48:	ff 90       	pop	r15
     e4a:	ef 90       	pop	r14
     e4c:	df 90       	pop	r13
     e4e:	cf 90       	pop	r12
     e50:	bf 90       	pop	r11
     e52:	08 95       	ret

00000e54 <SCSI_DecodeSCSICommand>:
     e54:	cf 92       	push	r12
     e56:	df 92       	push	r13
     e58:	ef 92       	push	r14
     e5a:	ff 92       	push	r15
     e5c:	0f 93       	push	r16
     e5e:	1f 93       	push	r17
     e60:	cf 93       	push	r28
     e62:	df 93       	push	r29
     e64:	cd b7       	in	r28, 0x3d	; 61
     e66:	de b7       	in	r29, 0x3e	; 62
     e68:	28 97       	sbiw	r28, 0x08	; 8
     e6a:	0f b6       	in	r0, 0x3f	; 63
     e6c:	f8 94       	cli
     e6e:	de bf       	out	0x3e, r29	; 62
     e70:	0f be       	out	0x3f, r0	; 63
     e72:	cd bf       	out	0x3d, r28	; 61
     e74:	8c 01       	movw	r16, r24
     e76:	fc 01       	movw	r30, r24
     e78:	83 8d       	ldd	r24, Z+27	; 0x1b
     e7a:	8d 31       	cpi	r24, 0x1D	; 29
     e7c:	09 f4       	brne	.+2      	; 0xe80 <SCSI_DecodeSCSICommand+0x2c>
     e7e:	af c0       	rjmp	.+350    	; 0xfde <SCSI_DecodeSCSICommand+0x18a>
     e80:	90 f4       	brcc	.+36     	; 0xea6 <SCSI_DecodeSCSICommand+0x52>
     e82:	82 31       	cpi	r24, 0x12	; 18
     e84:	09 f4       	brne	.+2      	; 0xe88 <SCSI_DecodeSCSICommand+0x34>
     e86:	50 c0       	rjmp	.+160    	; 0xf28 <SCSI_DecodeSCSICommand+0xd4>
     e88:	38 f4       	brcc	.+14     	; 0xe98 <SCSI_DecodeSCSICommand+0x44>
     e8a:	88 23       	and	r24, r24
     e8c:	09 f4       	brne	.+2      	; 0xe90 <SCSI_DecodeSCSICommand+0x3c>
     e8e:	db c0       	rjmp	.+438    	; 0x1046 <SCSI_DecodeSCSICommand+0x1f2>
     e90:	83 30       	cpi	r24, 0x03	; 3
     e92:	09 f4       	brne	.+2      	; 0xe96 <SCSI_DecodeSCSICommand+0x42>
     e94:	7e c0       	rjmp	.+252    	; 0xf92 <SCSI_DecodeSCSICommand+0x13e>
     e96:	dd c0       	rjmp	.+442    	; 0x1052 <SCSI_DecodeSCSICommand+0x1fe>
     e98:	8a 31       	cpi	r24, 0x1A	; 26
     e9a:	09 f4       	brne	.+2      	; 0xe9e <SCSI_DecodeSCSICommand+0x4a>
     e9c:	ba c0       	rjmp	.+372    	; 0x1012 <SCSI_DecodeSCSICommand+0x1be>
     e9e:	8b 31       	cpi	r24, 0x1B	; 27
     ea0:	09 f4       	brne	.+2      	; 0xea4 <SCSI_DecodeSCSICommand+0x50>
     ea2:	d1 c0       	rjmp	.+418    	; 0x1046 <SCSI_DecodeSCSICommand+0x1f2>
     ea4:	d6 c0       	rjmp	.+428    	; 0x1052 <SCSI_DecodeSCSICommand+0x1fe>
     ea6:	88 32       	cpi	r24, 0x28	; 40
     ea8:	09 f4       	brne	.+2      	; 0xeac <SCSI_DecodeSCSICommand+0x58>
     eaa:	ad c0       	rjmp	.+346    	; 0x1006 <SCSI_DecodeSCSICommand+0x1b2>
     eac:	b0 f5       	brcc	.+108    	; 0xf1a <SCSI_DecodeSCSICommand+0xc6>
     eae:	8e 31       	cpi	r24, 0x1E	; 30
     eb0:	09 f4       	brne	.+2      	; 0xeb4 <SCSI_DecodeSCSICommand+0x60>
     eb2:	c9 c0       	rjmp	.+402    	; 0x1046 <SCSI_DecodeSCSICommand+0x1f2>
     eb4:	85 32       	cpi	r24, 0x25	; 37
     eb6:	09 f0       	breq	.+2      	; 0xeba <SCSI_DecodeSCSICommand+0x66>
     eb8:	cc c0       	rjmp	.+408    	; 0x1052 <SCSI_DecodeSCSICommand+0x1fe>
     eba:	f0 d0       	rcall	.+480    	; 0x109c <sdcard_GetNbBlocks>
     ebc:	dc 01       	movw	r26, r24
     ebe:	cb 01       	movw	r24, r22
     ec0:	01 97       	sbiw	r24, 0x01	; 1
     ec2:	a1 09       	sbc	r26, r1
     ec4:	b1 09       	sbc	r27, r1
     ec6:	8d 83       	std	Y+5, r24	; 0x05
     ec8:	9e 83       	std	Y+6, r25	; 0x06
     eca:	af 83       	std	Y+7, r26	; 0x07
     ecc:	b8 87       	std	Y+8, r27	; 0x08
     ece:	80 e0       	ldi	r24, 0x00	; 0
     ed0:	92 e0       	ldi	r25, 0x02	; 2
     ed2:	a0 e0       	ldi	r26, 0x00	; 0
     ed4:	b0 e0       	ldi	r27, 0x00	; 0
     ed6:	89 83       	std	Y+1, r24	; 0x01
     ed8:	9a 83       	std	Y+2, r25	; 0x02
     eda:	ab 83       	std	Y+3, r26	; 0x03
     edc:	bc 83       	std	Y+4, r27	; 0x04
     ede:	40 e0       	ldi	r20, 0x00	; 0
     ee0:	50 e0       	ldi	r21, 0x00	; 0
     ee2:	64 e0       	ldi	r22, 0x04	; 4
     ee4:	70 e0       	ldi	r23, 0x00	; 0
     ee6:	ce 01       	movw	r24, r28
     ee8:	05 96       	adiw	r24, 0x05	; 5
     eea:	0e 94 1d 10 	call	0x203a	; 0x203a <Endpoint_Write_Stream_BE>
     eee:	40 e0       	ldi	r20, 0x00	; 0
     ef0:	50 e0       	ldi	r21, 0x00	; 0
     ef2:	64 e0       	ldi	r22, 0x04	; 4
     ef4:	70 e0       	ldi	r23, 0x00	; 0
     ef6:	ce 01       	movw	r24, r28
     ef8:	01 96       	adiw	r24, 0x01	; 1
     efa:	0e 94 1d 10 	call	0x203a	; 0x203a <Endpoint_Write_Stream_BE>
     efe:	80 91 e8 00 	lds	r24, 0x00E8	; 0x8000e8 <__TEXT_REGION_LENGTH__+0x7e00e8>
     f02:	8e 77       	andi	r24, 0x7E	; 126
     f04:	80 93 e8 00 	sts	0x00E8, r24	; 0x8000e8 <__TEXT_REGION_LENGTH__+0x7e00e8>
     f08:	f8 01       	movw	r30, r16
     f0a:	84 89       	ldd	r24, Z+20	; 0x14
     f0c:	95 89       	ldd	r25, Z+21	; 0x15
     f0e:	a6 89       	ldd	r26, Z+22	; 0x16
     f10:	b7 89       	ldd	r27, Z+23	; 0x17
     f12:	08 97       	sbiw	r24, 0x08	; 8
     f14:	a1 09       	sbc	r26, r1
     f16:	b1 09       	sbc	r27, r1
     f18:	91 c0       	rjmp	.+290    	; 0x103c <SCSI_DecodeSCSICommand+0x1e8>
     f1a:	8a 32       	cpi	r24, 0x2A	; 42
     f1c:	09 f4       	brne	.+2      	; 0xf20 <SCSI_DecodeSCSICommand+0xcc>
     f1e:	71 c0       	rjmp	.+226    	; 0x1002 <SCSI_DecodeSCSICommand+0x1ae>
     f20:	8f 32       	cpi	r24, 0x2F	; 47
     f22:	09 f4       	brne	.+2      	; 0xf26 <SCSI_DecodeSCSICommand+0xd2>
     f24:	90 c0       	rjmp	.+288    	; 0x1046 <SCSI_DecodeSCSICommand+0x1f2>
     f26:	95 c0       	rjmp	.+298    	; 0x1052 <SCSI_DecodeSCSICommand+0x1fe>
     f28:	f8 01       	movw	r30, r16
     f2a:	e7 8c       	ldd	r14, Z+31	; 0x1f
     f2c:	f6 8c       	ldd	r15, Z+30	; 0x1e
     f2e:	84 8d       	ldd	r24, Z+28	; 0x1c
     f30:	83 70       	andi	r24, 0x03	; 3
     f32:	19 f4       	brne	.+6      	; 0xf3a <SCSI_DecodeSCSICommand+0xe6>
     f34:	85 8d       	ldd	r24, Z+29	; 0x1d
     f36:	88 23       	and	r24, r24
     f38:	41 f0       	breq	.+16     	; 0xf4a <SCSI_DecodeSCSICommand+0xf6>
     f3a:	80 91 96 01 	lds	r24, 0x0196	; 0x800196 <SenseData+0x2>
     f3e:	80 7f       	andi	r24, 0xF0	; 240
     f40:	85 60       	ori	r24, 0x05	; 5
     f42:	80 93 96 01 	sts	0x0196, r24	; 0x800196 <SenseData+0x2>
     f46:	84 e2       	ldi	r24, 0x24	; 36
     f48:	8b c0       	rjmp	.+278    	; 0x1060 <SCSI_DecodeSCSICommand+0x20c>
     f4a:	67 01       	movw	r12, r14
     f4c:	f5 e2       	ldi	r31, 0x25	; 37
     f4e:	ef 16       	cp	r14, r31
     f50:	f1 04       	cpc	r15, r1
     f52:	18 f0       	brcs	.+6      	; 0xf5a <SCSI_DecodeSCSICommand+0x106>
     f54:	94 e2       	ldi	r25, 0x24	; 36
     f56:	c9 2e       	mov	r12, r25
     f58:	d1 2c       	mov	r13, r1
     f5a:	40 e0       	ldi	r20, 0x00	; 0
     f5c:	50 e0       	ldi	r21, 0x00	; 0
     f5e:	b6 01       	movw	r22, r12
     f60:	8c ea       	ldi	r24, 0xAC	; 172
     f62:	94 e0       	ldi	r25, 0x04	; 4
     f64:	0e 94 d4 0f 	call	0x1fa8	; 0x1fa8 <Endpoint_Write_Stream_LE>
     f68:	60 e0       	ldi	r22, 0x00	; 0
     f6a:	70 e0       	ldi	r23, 0x00	; 0
     f6c:	c7 01       	movw	r24, r14
     f6e:	8c 19       	sub	r24, r12
     f70:	9d 09       	sbc	r25, r13
     f72:	db d7       	rcall	.+4022   	; 0x1f2a <Endpoint_Null_Stream>
     f74:	80 91 e8 00 	lds	r24, 0x00E8	; 0x8000e8 <__TEXT_REGION_LENGTH__+0x7e00e8>
     f78:	8e 77       	andi	r24, 0x7E	; 126
     f7a:	80 93 e8 00 	sts	0x00E8, r24	; 0x8000e8 <__TEXT_REGION_LENGTH__+0x7e00e8>
     f7e:	f8 01       	movw	r30, r16
     f80:	84 89       	ldd	r24, Z+20	; 0x14
     f82:	95 89       	ldd	r25, Z+21	; 0x15
     f84:	a6 89       	ldd	r26, Z+22	; 0x16
     f86:	b7 89       	ldd	r27, Z+23	; 0x17
     f88:	8c 19       	sub	r24, r12
     f8a:	9d 09       	sbc	r25, r13
     f8c:	a1 09       	sbc	r26, r1
     f8e:	b1 09       	sbc	r27, r1
     f90:	55 c0       	rjmp	.+170    	; 0x103c <SCSI_DecodeSCSICommand+0x1e8>
     f92:	f8 01       	movw	r30, r16
     f94:	f7 8c       	ldd	r15, Z+31	; 0x1f
     f96:	ef 2c       	mov	r14, r15
     f98:	f2 e1       	ldi	r31, 0x12	; 18
     f9a:	ff 15       	cp	r31, r15
     f9c:	10 f4       	brcc	.+4      	; 0xfa2 <SCSI_DecodeSCSICommand+0x14e>
     f9e:	82 e1       	ldi	r24, 0x12	; 18
     fa0:	e8 2e       	mov	r14, r24
     fa2:	ce 2c       	mov	r12, r14
     fa4:	d1 2c       	mov	r13, r1
     fa6:	40 e0       	ldi	r20, 0x00	; 0
     fa8:	50 e0       	ldi	r21, 0x00	; 0
     faa:	b6 01       	movw	r22, r12
     fac:	84 e9       	ldi	r24, 0x94	; 148
     fae:	91 e0       	ldi	r25, 0x01	; 1
     fb0:	fb d7       	rcall	.+4086   	; 0x1fa8 <Endpoint_Write_Stream_LE>
     fb2:	8f 2d       	mov	r24, r15
     fb4:	90 e0       	ldi	r25, 0x00	; 0
     fb6:	60 e0       	ldi	r22, 0x00	; 0
     fb8:	70 e0       	ldi	r23, 0x00	; 0
     fba:	8c 19       	sub	r24, r12
     fbc:	9d 09       	sbc	r25, r13
     fbe:	b5 d7       	rcall	.+3946   	; 0x1f2a <Endpoint_Null_Stream>
     fc0:	80 91 e8 00 	lds	r24, 0x00E8	; 0x8000e8 <__TEXT_REGION_LENGTH__+0x7e00e8>
     fc4:	8e 77       	andi	r24, 0x7E	; 126
     fc6:	80 93 e8 00 	sts	0x00E8, r24	; 0x8000e8 <__TEXT_REGION_LENGTH__+0x7e00e8>
     fca:	f8 01       	movw	r30, r16
     fcc:	84 89       	ldd	r24, Z+20	; 0x14
     fce:	95 89       	ldd	r25, Z+21	; 0x15
     fd0:	a6 89       	ldd	r26, Z+22	; 0x16
     fd2:	b7 89       	ldd	r27, Z+23	; 0x17
     fd4:	8e 19       	sub	r24, r14
     fd6:	91 09       	sbc	r25, r1
     fd8:	a1 09       	sbc	r26, r1
     fda:	b1 09       	sbc	r27, r1
     fdc:	2f c0       	rjmp	.+94     	; 0x103c <SCSI_DecodeSCSICommand+0x1e8>
     fde:	f8 01       	movw	r30, r16
     fe0:	84 8d       	ldd	r24, Z+28	; 0x1c
     fe2:	82 ff       	sbrs	r24, 2
     fe4:	aa cf       	rjmp	.-172    	; 0xf3a <SCSI_DecodeSCSICommand+0xe6>
     fe6:	24 d2       	rcall	.+1096   	; 0x1430 <sdcard_CheckDataflashOperation>
     fe8:	81 11       	cpse	r24, r1
     fea:	2d c0       	rjmp	.+90     	; 0x1046 <SCSI_DecodeSCSICommand+0x1f2>
     fec:	80 91 96 01 	lds	r24, 0x0196	; 0x800196 <SenseData+0x2>
     ff0:	80 7f       	andi	r24, 0xF0	; 240
     ff2:	84 60       	ori	r24, 0x04	; 4
     ff4:	80 93 96 01 	sts	0x0196, r24	; 0x800196 <SenseData+0x2>
     ff8:	10 92 a0 01 	sts	0x01A0, r1	; 0x8001a0 <SenseData+0xc>
     ffc:	10 92 a1 01 	sts	0x01A1, r1	; 0x8001a1 <SenseData+0xd>
    1000:	3d c0       	rjmp	.+122    	; 0x107c <SCSI_DecodeSCSICommand+0x228>
    1002:	60 e0       	ldi	r22, 0x00	; 0
    1004:	01 c0       	rjmp	.+2      	; 0x1008 <SCSI_DecodeSCSICommand+0x1b4>
    1006:	61 e0       	ldi	r22, 0x01	; 1
    1008:	c8 01       	movw	r24, r16
    100a:	d4 de       	rcall	.-600    	; 0xdb4 <SCSI_Command_ReadWrite_10>
    100c:	81 11       	cpse	r24, r1
    100e:	2b c0       	rjmp	.+86     	; 0x1066 <SCSI_DecodeSCSICommand+0x212>
    1010:	35 c0       	rjmp	.+106    	; 0x107c <SCSI_DecodeSCSICommand+0x228>
    1012:	10 92 f1 00 	sts	0x00F1, r1	; 0x8000f1 <__TEXT_REGION_LENGTH__+0x7e00f1>
    1016:	10 92 f1 00 	sts	0x00F1, r1	; 0x8000f1 <__TEXT_REGION_LENGTH__+0x7e00f1>
    101a:	10 92 f1 00 	sts	0x00F1, r1	; 0x8000f1 <__TEXT_REGION_LENGTH__+0x7e00f1>
    101e:	10 92 f1 00 	sts	0x00F1, r1	; 0x8000f1 <__TEXT_REGION_LENGTH__+0x7e00f1>
    1022:	80 91 e8 00 	lds	r24, 0x00E8	; 0x8000e8 <__TEXT_REGION_LENGTH__+0x7e00e8>
    1026:	8e 77       	andi	r24, 0x7E	; 126
    1028:	80 93 e8 00 	sts	0x00E8, r24	; 0x8000e8 <__TEXT_REGION_LENGTH__+0x7e00e8>
    102c:	f8 01       	movw	r30, r16
    102e:	84 89       	ldd	r24, Z+20	; 0x14
    1030:	95 89       	ldd	r25, Z+21	; 0x15
    1032:	a6 89       	ldd	r26, Z+22	; 0x16
    1034:	b7 89       	ldd	r27, Z+23	; 0x17
    1036:	04 97       	sbiw	r24, 0x04	; 4
    1038:	a1 09       	sbc	r26, r1
    103a:	b1 09       	sbc	r27, r1
    103c:	84 8b       	std	Z+20, r24	; 0x14
    103e:	95 8b       	std	Z+21, r25	; 0x15
    1040:	a6 8b       	std	Z+22, r26	; 0x16
    1042:	b7 8b       	std	Z+23, r27	; 0x17
    1044:	10 c0       	rjmp	.+32     	; 0x1066 <SCSI_DecodeSCSICommand+0x212>
    1046:	f8 01       	movw	r30, r16
    1048:	14 8a       	std	Z+20, r1	; 0x14
    104a:	15 8a       	std	Z+21, r1	; 0x15
    104c:	16 8a       	std	Z+22, r1	; 0x16
    104e:	17 8a       	std	Z+23, r1	; 0x17
    1050:	0a c0       	rjmp	.+20     	; 0x1066 <SCSI_DecodeSCSICommand+0x212>
    1052:	80 91 96 01 	lds	r24, 0x0196	; 0x800196 <SenseData+0x2>
    1056:	80 7f       	andi	r24, 0xF0	; 240
    1058:	85 60       	ori	r24, 0x05	; 5
    105a:	80 93 96 01 	sts	0x0196, r24	; 0x800196 <SenseData+0x2>
    105e:	80 e2       	ldi	r24, 0x20	; 32
    1060:	80 93 a0 01 	sts	0x01A0, r24	; 0x8001a0 <SenseData+0xc>
    1064:	cb cf       	rjmp	.-106    	; 0xffc <SCSI_DecodeSCSICommand+0x1a8>
    1066:	80 91 96 01 	lds	r24, 0x0196	; 0x800196 <SenseData+0x2>
    106a:	80 7f       	andi	r24, 0xF0	; 240
    106c:	80 93 96 01 	sts	0x0196, r24	; 0x800196 <SenseData+0x2>
    1070:	10 92 a0 01 	sts	0x01A0, r1	; 0x8001a0 <SenseData+0xc>
    1074:	10 92 a1 01 	sts	0x01A1, r1	; 0x8001a1 <SenseData+0xd>
    1078:	81 e0       	ldi	r24, 0x01	; 1
    107a:	01 c0       	rjmp	.+2      	; 0x107e <SCSI_DecodeSCSICommand+0x22a>
    107c:	80 e0       	ldi	r24, 0x00	; 0
    107e:	28 96       	adiw	r28, 0x08	; 8
    1080:	0f b6       	in	r0, 0x3f	; 63
    1082:	f8 94       	cli
    1084:	de bf       	out	0x3e, r29	; 62
    1086:	0f be       	out	0x3f, r0	; 63
    1088:	cd bf       	out	0x3d, r28	; 61
    108a:	df 91       	pop	r29
    108c:	cf 91       	pop	r28
    108e:	1f 91       	pop	r17
    1090:	0f 91       	pop	r16
    1092:	ff 90       	pop	r15
    1094:	ef 90       	pop	r14
    1096:	df 90       	pop	r13
    1098:	cf 90       	pop	r12
    109a:	08 95       	ret

0000109c <sdcard_GetNbBlocks>:
    109c:	60 91 53 09 	lds	r22, 0x0953	; 0x800953 <CachedTotalBlocks.4686>
    10a0:	70 91 54 09 	lds	r23, 0x0954	; 0x800954 <CachedTotalBlocks.4686+0x1>
    10a4:	80 91 55 09 	lds	r24, 0x0955	; 0x800955 <CachedTotalBlocks.4686+0x2>
    10a8:	90 91 56 09 	lds	r25, 0x0956	; 0x800956 <CachedTotalBlocks.4686+0x3>
    10ac:	61 15       	cp	r22, r1
    10ae:	71 05       	cpc	r23, r1
    10b0:	81 05       	cpc	r24, r1
    10b2:	91 05       	cpc	r25, r1
    10b4:	a1 f5       	brne	.+104    	; 0x111e <sdcard_GetNbBlocks+0x82>
    10b6:	83 e5       	ldi	r24, 0x53	; 83
    10b8:	99 e0       	ldi	r25, 0x09	; 9
    10ba:	ed da       	rcall	.-2598   	; 0x696 <sd_get_number_of_sectors>
    10bc:	81 11       	cpse	r24, r1
    10be:	0f c0       	rjmp	.+30     	; 0x10de <sdcard_GetNbBlocks+0x42>
    10c0:	80 ed       	ldi	r24, 0xD0	; 208
    10c2:	94 e0       	ldi	r25, 0x04	; 4
    10c4:	5b d8       	rcall	.-3914   	; 0x17c <uart_puts>
    10c6:	80 e0       	ldi	r24, 0x00	; 0
    10c8:	98 ed       	ldi	r25, 0xD8	; 216
    10ca:	ab e3       	ldi	r26, 0x3B	; 59
    10cc:	b0 e0       	ldi	r27, 0x00	; 0
    10ce:	80 93 53 09 	sts	0x0953, r24	; 0x800953 <CachedTotalBlocks.4686>
    10d2:	90 93 54 09 	sts	0x0954, r25	; 0x800954 <CachedTotalBlocks.4686+0x1>
    10d6:	a0 93 55 09 	sts	0x0955, r26	; 0x800955 <CachedTotalBlocks.4686+0x2>
    10da:	b0 93 56 09 	sts	0x0956, r27	; 0x800956 <CachedTotalBlocks.4686+0x3>
    10de:	80 91 56 09 	lds	r24, 0x0956	; 0x800956 <CachedTotalBlocks.4686+0x3>
    10e2:	8f 93       	push	r24
    10e4:	80 91 55 09 	lds	r24, 0x0955	; 0x800955 <CachedTotalBlocks.4686+0x2>
    10e8:	8f 93       	push	r24
    10ea:	80 91 54 09 	lds	r24, 0x0954	; 0x800954 <CachedTotalBlocks.4686+0x1>
    10ee:	8f 93       	push	r24
    10f0:	80 91 53 09 	lds	r24, 0x0953	; 0x800953 <CachedTotalBlocks.4686>
    10f4:	8f 93       	push	r24
    10f6:	8e ef       	ldi	r24, 0xFE	; 254
    10f8:	90 e0       	ldi	r25, 0x00	; 0
    10fa:	9f 93       	push	r25
    10fc:	8f 93       	push	r24
    10fe:	0e 94 9e 15 	call	0x2b3c	; 0x2b3c <printf_P>
    1102:	60 91 53 09 	lds	r22, 0x0953	; 0x800953 <CachedTotalBlocks.4686>
    1106:	70 91 54 09 	lds	r23, 0x0954	; 0x800954 <CachedTotalBlocks.4686+0x1>
    110a:	80 91 55 09 	lds	r24, 0x0955	; 0x800955 <CachedTotalBlocks.4686+0x2>
    110e:	90 91 56 09 	lds	r25, 0x0956	; 0x800956 <CachedTotalBlocks.4686+0x3>
    1112:	0f 90       	pop	r0
    1114:	0f 90       	pop	r0
    1116:	0f 90       	pop	r0
    1118:	0f 90       	pop	r0
    111a:	0f 90       	pop	r0
    111c:	0f 90       	pop	r0
    111e:	08 95       	ret

00001120 <sdcard_Init>:
    1120:	0f 93       	push	r16
    1122:	1f 93       	push	r17
    1124:	cf 93       	push	r28
    1126:	df 93       	push	r29
    1128:	cd b7       	in	r28, 0x3d	; 61
    112a:	de b7       	in	r29, 0x3e	; 62
    112c:	d2 50       	subi	r29, 0x02	; 2
    112e:	0f b6       	in	r0, 0x3f	; 63
    1130:	f8 94       	cli
    1132:	de bf       	out	0x3e, r29	; 62
    1134:	0f be       	out	0x3f, r0	; 63
    1136:	cd bf       	out	0x3d, r28	; 61
    1138:	ca d8       	rcall	.-3692   	; 0x2ce <SPI_init>
    113a:	9b d9       	rcall	.-3274   	; 0x472 <SD_init>
    113c:	18 2f       	mov	r17, r24
    113e:	88 23       	and	r24, r24
    1140:	39 f0       	breq	.+14     	; 0x1150 <sdcard_Init+0x30>
    1142:	86 e0       	ldi	r24, 0x06	; 6
    1144:	95 e0       	ldi	r25, 0x05	; 5
    1146:	1a d8       	rcall	.-4044   	; 0x17c <uart_puts>
    1148:	81 2f       	mov	r24, r17
    114a:	33 d8       	rcall	.-3994   	; 0x1b2 <uart_printhexchar>
    114c:	80 e0       	ldi	r24, 0x00	; 0
    114e:	29 c0       	rjmp	.+82     	; 0x11a2 <sdcard_Init+0x82>
    1150:	8f e0       	ldi	r24, 0x0F	; 15
    1152:	95 e0       	ldi	r25, 0x05	; 5
    1154:	13 d8       	rcall	.-4058   	; 0x17c <uart_puts>
    1156:	a2 df       	rcall	.-188    	; 0x109c <sdcard_GetNbBlocks>
    1158:	8e 01       	movw	r16, r28
    115a:	0f 5f       	subi	r16, 0xFF	; 255
    115c:	1f 4f       	sbci	r17, 0xFF	; 255
    115e:	80 e0       	ldi	r24, 0x00	; 0
    1160:	92 e0       	ldi	r25, 0x02	; 2
    1162:	f8 01       	movw	r30, r16
    1164:	9c 01       	movw	r18, r24
    1166:	11 92       	st	Z+, r1
    1168:	21 50       	subi	r18, 0x01	; 1
    116a:	30 40       	sbci	r19, 0x00	; 0
    116c:	e1 f7       	brne	.-8      	; 0x1166 <sdcard_Init+0x46>
    116e:	a8 01       	movw	r20, r16
    1170:	60 e0       	ldi	r22, 0x00	; 0
    1172:	70 e0       	ldi	r23, 0x00	; 0
    1174:	cb 01       	movw	r24, r22
    1176:	d8 d9       	rcall	.-3152   	; 0x528 <SD_read_sector>
    1178:	86 e1       	ldi	r24, 0x16	; 22
    117a:	91 e0       	ldi	r25, 0x01	; 1
    117c:	9f 93       	push	r25
    117e:	8f 93       	push	r24
    1180:	0e 94 9e 15 	call	0x2b3c	; 0x2b3c <printf_P>
    1184:	60 e0       	ldi	r22, 0x00	; 0
    1186:	72 e0       	ldi	r23, 0x02	; 2
    1188:	c8 01       	movw	r24, r16
    118a:	45 d8       	rcall	.-3958   	; 0x216 <uart_printhexdump>
    118c:	81 e1       	ldi	r24, 0x11	; 17
    118e:	91 e0       	ldi	r25, 0x01	; 1
    1190:	9f 93       	push	r25
    1192:	8f 93       	push	r24
    1194:	0e 94 9e 15 	call	0x2b3c	; 0x2b3c <printf_P>
    1198:	0f 90       	pop	r0
    119a:	0f 90       	pop	r0
    119c:	0f 90       	pop	r0
    119e:	0f 90       	pop	r0
    11a0:	81 e0       	ldi	r24, 0x01	; 1
    11a2:	de 5f       	subi	r29, 0xFE	; 254
    11a4:	0f b6       	in	r0, 0x3f	; 63
    11a6:	f8 94       	cli
    11a8:	de bf       	out	0x3e, r29	; 62
    11aa:	0f be       	out	0x3f, r0	; 63
    11ac:	cd bf       	out	0x3d, r28	; 61
    11ae:	df 91       	pop	r29
    11b0:	cf 91       	pop	r28
    11b2:	1f 91       	pop	r17
    11b4:	0f 91       	pop	r16
    11b6:	08 95       	ret

000011b8 <sdcard_WriteBlockHandler>:
    11b8:	cf 93       	push	r28
    11ba:	df 93       	push	r29
    11bc:	ec 01       	movw	r28, r24
    11be:	80 91 e8 00 	lds	r24, 0x00E8	; 0x8000e8 <__TEXT_REGION_LENGTH__+0x7e00e8>
    11c2:	85 ff       	sbrs	r24, 5
    11c4:	33 c0       	rjmp	.+102    	; 0x122c <sdcard_WriteBlockHandler+0x74>
    11c6:	80 91 f1 00 	lds	r24, 0x00F1	; 0x8000f1 <__TEXT_REGION_LENGTH__+0x7e00f1>
    11ca:	88 83       	st	Y, r24
    11cc:	80 91 f1 00 	lds	r24, 0x00F1	; 0x8000f1 <__TEXT_REGION_LENGTH__+0x7e00f1>
    11d0:	89 83       	std	Y+1, r24	; 0x01
    11d2:	80 91 f1 00 	lds	r24, 0x00F1	; 0x8000f1 <__TEXT_REGION_LENGTH__+0x7e00f1>
    11d6:	8a 83       	std	Y+2, r24	; 0x02
    11d8:	80 91 f1 00 	lds	r24, 0x00F1	; 0x8000f1 <__TEXT_REGION_LENGTH__+0x7e00f1>
    11dc:	8b 83       	std	Y+3, r24	; 0x03
    11de:	80 91 f1 00 	lds	r24, 0x00F1	; 0x8000f1 <__TEXT_REGION_LENGTH__+0x7e00f1>
    11e2:	8c 83       	std	Y+4, r24	; 0x04
    11e4:	80 91 f1 00 	lds	r24, 0x00F1	; 0x8000f1 <__TEXT_REGION_LENGTH__+0x7e00f1>
    11e8:	8d 83       	std	Y+5, r24	; 0x05
    11ea:	80 91 f1 00 	lds	r24, 0x00F1	; 0x8000f1 <__TEXT_REGION_LENGTH__+0x7e00f1>
    11ee:	8e 83       	std	Y+6, r24	; 0x06
    11f0:	80 91 f1 00 	lds	r24, 0x00F1	; 0x8000f1 <__TEXT_REGION_LENGTH__+0x7e00f1>
    11f4:	8f 83       	std	Y+7, r24	; 0x07
    11f6:	80 91 f1 00 	lds	r24, 0x00F1	; 0x8000f1 <__TEXT_REGION_LENGTH__+0x7e00f1>
    11fa:	88 87       	std	Y+8, r24	; 0x08
    11fc:	80 91 f1 00 	lds	r24, 0x00F1	; 0x8000f1 <__TEXT_REGION_LENGTH__+0x7e00f1>
    1200:	89 87       	std	Y+9, r24	; 0x09
    1202:	80 91 f1 00 	lds	r24, 0x00F1	; 0x8000f1 <__TEXT_REGION_LENGTH__+0x7e00f1>
    1206:	8a 87       	std	Y+10, r24	; 0x0a
    1208:	80 91 f1 00 	lds	r24, 0x00F1	; 0x8000f1 <__TEXT_REGION_LENGTH__+0x7e00f1>
    120c:	8b 87       	std	Y+11, r24	; 0x0b
    120e:	80 91 f1 00 	lds	r24, 0x00F1	; 0x8000f1 <__TEXT_REGION_LENGTH__+0x7e00f1>
    1212:	8c 87       	std	Y+12, r24	; 0x0c
    1214:	80 91 f1 00 	lds	r24, 0x00F1	; 0x8000f1 <__TEXT_REGION_LENGTH__+0x7e00f1>
    1218:	8d 87       	std	Y+13, r24	; 0x0d
    121a:	80 91 f1 00 	lds	r24, 0x00F1	; 0x8000f1 <__TEXT_REGION_LENGTH__+0x7e00f1>
    121e:	8e 87       	std	Y+14, r24	; 0x0e
    1220:	80 91 f1 00 	lds	r24, 0x00F1	; 0x8000f1 <__TEXT_REGION_LENGTH__+0x7e00f1>
    1224:	8f 87       	std	Y+15, r24	; 0x0f
    1226:	80 e1       	ldi	r24, 0x10	; 16
    1228:	90 e0       	ldi	r25, 0x00	; 0
    122a:	0b c0       	rjmp	.+22     	; 0x1242 <sdcard_WriteBlockHandler+0x8a>
    122c:	80 91 e8 00 	lds	r24, 0x00E8	; 0x8000e8 <__TEXT_REGION_LENGTH__+0x7e00e8>
    1230:	8b 77       	andi	r24, 0x7B	; 123
    1232:	80 93 e8 00 	sts	0x00E8, r24	; 0x8000e8 <__TEXT_REGION_LENGTH__+0x7e00e8>
    1236:	0e 94 df 11 	call	0x23be	; 0x23be <Endpoint_WaitUntilReady>
    123a:	88 23       	and	r24, r24
    123c:	21 f2       	breq	.-120    	; 0x11c6 <sdcard_WriteBlockHandler+0xe>
    123e:	80 e0       	ldi	r24, 0x00	; 0
    1240:	90 e0       	ldi	r25, 0x00	; 0
    1242:	df 91       	pop	r29
    1244:	cf 91       	pop	r28
    1246:	08 95       	ret

00001248 <sdcard_WriteBlocks>:
    1248:	8f 92       	push	r8
    124a:	9f 92       	push	r9
    124c:	af 92       	push	r10
    124e:	bf 92       	push	r11
    1250:	cf 92       	push	r12
    1252:	df 92       	push	r13
    1254:	ef 92       	push	r14
    1256:	ff 92       	push	r15
    1258:	0f 93       	push	r16
    125a:	1f 93       	push	r17
    125c:	cf 93       	push	r28
    125e:	df 93       	push	r29
    1260:	7c 01       	movw	r14, r24
    1262:	4a 01       	movw	r8, r20
    1264:	5b 01       	movw	r10, r22
    1266:	e9 01       	movw	r28, r18
    1268:	df 93       	push	r29
    126a:	cf 93       	push	r28
    126c:	bf 92       	push	r11
    126e:	af 92       	push	r10
    1270:	9f 92       	push	r9
    1272:	4f 93       	push	r20
    1274:	83 ef       	ldi	r24, 0xF3	; 243
    1276:	90 e0       	ldi	r25, 0x00	; 0
    1278:	9f 93       	push	r25
    127a:	8f 93       	push	r24
    127c:	0e 94 9e 15 	call	0x2b3c	; 0x2b3c <printf_P>
    1280:	0e 94 df 11 	call	0x23be	; 0x23be <Endpoint_WaitUntilReady>
    1284:	ed b7       	in	r30, 0x3d	; 61
    1286:	fe b7       	in	r31, 0x3e	; 62
    1288:	38 96       	adiw	r30, 0x08	; 8
    128a:	0f b6       	in	r0, 0x3f	; 63
    128c:	f8 94       	cli
    128e:	fe bf       	out	0x3e, r31	; 62
    1290:	0f be       	out	0x3f, r0	; 63
    1292:	ed bf       	out	0x3d, r30	; 61
    1294:	81 11       	cpse	r24, r1
    1296:	2c c0       	rjmp	.+88     	; 0x12f0 <sdcard_WriteBlocks+0xa8>
    1298:	83 e5       	ldi	r24, 0x53	; 83
    129a:	c8 2e       	mov	r12, r24
    129c:	89 e0       	ldi	r24, 0x09	; 9
    129e:	d8 2e       	mov	r13, r24
    12a0:	20 97       	sbiw	r28, 0x00	; 0
    12a2:	e9 f0       	breq	.+58     	; 0x12de <sdcard_WriteBlocks+0x96>
    12a4:	03 e5       	ldi	r16, 0x53	; 83
    12a6:	17 e0       	ldi	r17, 0x07	; 7
    12a8:	40 e0       	ldi	r20, 0x00	; 0
    12aa:	50 e0       	ldi	r21, 0x00	; 0
    12ac:	60 e0       	ldi	r22, 0x00	; 0
    12ae:	70 e0       	ldi	r23, 0x00	; 0
    12b0:	c8 01       	movw	r24, r16
    12b2:	82 df       	rcall	.-252    	; 0x11b8 <sdcard_WriteBlockHandler>
    12b4:	00 5f       	subi	r16, 0xF0	; 240
    12b6:	1f 4f       	sbci	r17, 0xFF	; 255
    12b8:	c0 16       	cp	r12, r16
    12ba:	d1 06       	cpc	r13, r17
    12bc:	a9 f7       	brne	.-22     	; 0x12a8 <sdcard_WriteBlocks+0x60>
    12be:	43 e5       	ldi	r20, 0x53	; 83
    12c0:	57 e0       	ldi	r21, 0x07	; 7
    12c2:	c5 01       	movw	r24, r10
    12c4:	b4 01       	movw	r22, r8
    12c6:	85 d9       	rcall	.-3318   	; 0x5d2 <SD_write_sector>
    12c8:	f7 01       	movw	r30, r14
    12ca:	80 ad       	ldd	r24, Z+56	; 0x38
    12cc:	81 11       	cpse	r24, r1
    12ce:	10 c0       	rjmp	.+32     	; 0x12f0 <sdcard_WriteBlocks+0xa8>
    12d0:	ff ef       	ldi	r31, 0xFF	; 255
    12d2:	8f 1a       	sub	r8, r31
    12d4:	9f 0a       	sbc	r9, r31
    12d6:	af 0a       	sbc	r10, r31
    12d8:	bf 0a       	sbc	r11, r31
    12da:	21 97       	sbiw	r28, 0x01	; 1
    12dc:	e1 cf       	rjmp	.-62     	; 0x12a0 <sdcard_WriteBlocks+0x58>
    12de:	80 91 e8 00 	lds	r24, 0x00E8	; 0x8000e8 <__TEXT_REGION_LENGTH__+0x7e00e8>
    12e2:	85 fd       	sbrc	r24, 5
    12e4:	05 c0       	rjmp	.+10     	; 0x12f0 <sdcard_WriteBlocks+0xa8>
    12e6:	80 91 e8 00 	lds	r24, 0x00E8	; 0x8000e8 <__TEXT_REGION_LENGTH__+0x7e00e8>
    12ea:	8b 77       	andi	r24, 0x7B	; 123
    12ec:	80 93 e8 00 	sts	0x00E8, r24	; 0x8000e8 <__TEXT_REGION_LENGTH__+0x7e00e8>
    12f0:	df 91       	pop	r29
    12f2:	cf 91       	pop	r28
    12f4:	1f 91       	pop	r17
    12f6:	0f 91       	pop	r16
    12f8:	ff 90       	pop	r15
    12fa:	ef 90       	pop	r14
    12fc:	df 90       	pop	r13
    12fe:	cf 90       	pop	r12
    1300:	bf 90       	pop	r11
    1302:	af 90       	pop	r10
    1304:	9f 90       	pop	r9
    1306:	8f 90       	pop	r8
    1308:	08 95       	ret

0000130a <sdcard_ReadBlocks>:
    130a:	af 92       	push	r10
    130c:	bf 92       	push	r11
    130e:	cf 92       	push	r12
    1310:	df 92       	push	r13
    1312:	ef 92       	push	r14
    1314:	ff 92       	push	r15
    1316:	0f 93       	push	r16
    1318:	1f 93       	push	r17
    131a:	cf 93       	push	r28
    131c:	df 93       	push	r29
    131e:	6a 01       	movw	r12, r20
    1320:	7b 01       	movw	r14, r22
    1322:	89 01       	movw	r16, r18
    1324:	1f 93       	push	r17
    1326:	2f 93       	push	r18
    1328:	ff 92       	push	r15
    132a:	ef 92       	push	r14
    132c:	df 92       	push	r13
    132e:	4f 93       	push	r20
    1330:	88 ee       	ldi	r24, 0xE8	; 232
    1332:	90 e0       	ldi	r25, 0x00	; 0
    1334:	9f 93       	push	r25
    1336:	8f 93       	push	r24
    1338:	0e 94 9e 15 	call	0x2b3c	; 0x2b3c <printf_P>
    133c:	0e 94 df 11 	call	0x23be	; 0x23be <Endpoint_WaitUntilReady>
    1340:	2d b7       	in	r18, 0x3d	; 61
    1342:	3e b7       	in	r19, 0x3e	; 62
    1344:	28 5f       	subi	r18, 0xF8	; 248
    1346:	3f 4f       	sbci	r19, 0xFF	; 255
    1348:	0f b6       	in	r0, 0x3f	; 63
    134a:	f8 94       	cli
    134c:	3e bf       	out	0x3e, r19	; 62
    134e:	0f be       	out	0x3f, r0	; 63
    1350:	2d bf       	out	0x3d, r18	; 61
    1352:	81 11       	cpse	r24, r1
    1354:	62 c0       	rjmp	.+196    	; 0x141a <sdcard_ReadBlocks+0x110>
    1356:	83 e5       	ldi	r24, 0x53	; 83
    1358:	a8 2e       	mov	r10, r24
    135a:	87 e0       	ldi	r24, 0x07	; 7
    135c:	b8 2e       	mov	r11, r24
    135e:	01 15       	cp	r16, r1
    1360:	11 05       	cpc	r17, r1
    1362:	09 f4       	brne	.+2      	; 0x1366 <sdcard_ReadBlocks+0x5c>
    1364:	51 c0       	rjmp	.+162    	; 0x1408 <sdcard_ReadBlocks+0xfe>
    1366:	43 e5       	ldi	r20, 0x53	; 83
    1368:	55 e0       	ldi	r21, 0x05	; 5
    136a:	c7 01       	movw	r24, r14
    136c:	b6 01       	movw	r22, r12
    136e:	dc d8       	rcall	.-3656   	; 0x528 <SD_read_sector>
    1370:	c3 e5       	ldi	r28, 0x53	; 83
    1372:	d5 e0       	ldi	r29, 0x05	; 5
    1374:	80 91 e8 00 	lds	r24, 0x00E8	; 0x8000e8 <__TEXT_REGION_LENGTH__+0x7e00e8>
    1378:	85 ff       	sbrs	r24, 5
    137a:	31 c0       	rjmp	.+98     	; 0x13de <sdcard_ReadBlocks+0xd4>
    137c:	88 81       	ld	r24, Y
    137e:	80 93 f1 00 	sts	0x00F1, r24	; 0x8000f1 <__TEXT_REGION_LENGTH__+0x7e00f1>
    1382:	89 81       	ldd	r24, Y+1	; 0x01
    1384:	80 93 f1 00 	sts	0x00F1, r24	; 0x8000f1 <__TEXT_REGION_LENGTH__+0x7e00f1>
    1388:	8a 81       	ldd	r24, Y+2	; 0x02
    138a:	80 93 f1 00 	sts	0x00F1, r24	; 0x8000f1 <__TEXT_REGION_LENGTH__+0x7e00f1>
    138e:	8b 81       	ldd	r24, Y+3	; 0x03
    1390:	80 93 f1 00 	sts	0x00F1, r24	; 0x8000f1 <__TEXT_REGION_LENGTH__+0x7e00f1>
    1394:	8c 81       	ldd	r24, Y+4	; 0x04
    1396:	80 93 f1 00 	sts	0x00F1, r24	; 0x8000f1 <__TEXT_REGION_LENGTH__+0x7e00f1>
    139a:	8d 81       	ldd	r24, Y+5	; 0x05
    139c:	80 93 f1 00 	sts	0x00F1, r24	; 0x8000f1 <__TEXT_REGION_LENGTH__+0x7e00f1>
    13a0:	8e 81       	ldd	r24, Y+6	; 0x06
    13a2:	80 93 f1 00 	sts	0x00F1, r24	; 0x8000f1 <__TEXT_REGION_LENGTH__+0x7e00f1>
    13a6:	8f 81       	ldd	r24, Y+7	; 0x07
    13a8:	80 93 f1 00 	sts	0x00F1, r24	; 0x8000f1 <__TEXT_REGION_LENGTH__+0x7e00f1>
    13ac:	88 85       	ldd	r24, Y+8	; 0x08
    13ae:	80 93 f1 00 	sts	0x00F1, r24	; 0x8000f1 <__TEXT_REGION_LENGTH__+0x7e00f1>
    13b2:	89 85       	ldd	r24, Y+9	; 0x09
    13b4:	80 93 f1 00 	sts	0x00F1, r24	; 0x8000f1 <__TEXT_REGION_LENGTH__+0x7e00f1>
    13b8:	8a 85       	ldd	r24, Y+10	; 0x0a
    13ba:	80 93 f1 00 	sts	0x00F1, r24	; 0x8000f1 <__TEXT_REGION_LENGTH__+0x7e00f1>
    13be:	8b 85       	ldd	r24, Y+11	; 0x0b
    13c0:	80 93 f1 00 	sts	0x00F1, r24	; 0x8000f1 <__TEXT_REGION_LENGTH__+0x7e00f1>
    13c4:	8c 85       	ldd	r24, Y+12	; 0x0c
    13c6:	80 93 f1 00 	sts	0x00F1, r24	; 0x8000f1 <__TEXT_REGION_LENGTH__+0x7e00f1>
    13ca:	8d 85       	ldd	r24, Y+13	; 0x0d
    13cc:	80 93 f1 00 	sts	0x00F1, r24	; 0x8000f1 <__TEXT_REGION_LENGTH__+0x7e00f1>
    13d0:	8e 85       	ldd	r24, Y+14	; 0x0e
    13d2:	80 93 f1 00 	sts	0x00F1, r24	; 0x8000f1 <__TEXT_REGION_LENGTH__+0x7e00f1>
    13d6:	8f 85       	ldd	r24, Y+15	; 0x0f
    13d8:	80 93 f1 00 	sts	0x00F1, r24	; 0x8000f1 <__TEXT_REGION_LENGTH__+0x7e00f1>
    13dc:	08 c0       	rjmp	.+16     	; 0x13ee <sdcard_ReadBlocks+0xe4>
    13de:	80 91 e8 00 	lds	r24, 0x00E8	; 0x8000e8 <__TEXT_REGION_LENGTH__+0x7e00e8>
    13e2:	8e 77       	andi	r24, 0x7E	; 126
    13e4:	80 93 e8 00 	sts	0x00E8, r24	; 0x8000e8 <__TEXT_REGION_LENGTH__+0x7e00e8>
    13e8:	ea d7       	rcall	.+4052   	; 0x23be <Endpoint_WaitUntilReady>
    13ea:	88 23       	and	r24, r24
    13ec:	39 f2       	breq	.-114    	; 0x137c <sdcard_ReadBlocks+0x72>
    13ee:	60 96       	adiw	r28, 0x10	; 16
    13f0:	ac 16       	cp	r10, r28
    13f2:	bd 06       	cpc	r11, r29
    13f4:	09 f0       	breq	.+2      	; 0x13f8 <sdcard_ReadBlocks+0xee>
    13f6:	be cf       	rjmp	.-132    	; 0x1374 <sdcard_ReadBlocks+0x6a>
    13f8:	3f ef       	ldi	r19, 0xFF	; 255
    13fa:	c3 1a       	sub	r12, r19
    13fc:	d3 0a       	sbc	r13, r19
    13fe:	e3 0a       	sbc	r14, r19
    1400:	f3 0a       	sbc	r15, r19
    1402:	01 50       	subi	r16, 0x01	; 1
    1404:	11 09       	sbc	r17, r1
    1406:	ab cf       	rjmp	.-170    	; 0x135e <sdcard_ReadBlocks+0x54>
    1408:	80 91 e8 00 	lds	r24, 0x00E8	; 0x8000e8 <__TEXT_REGION_LENGTH__+0x7e00e8>
    140c:	85 fd       	sbrc	r24, 5
    140e:	05 c0       	rjmp	.+10     	; 0x141a <sdcard_ReadBlocks+0x110>
    1410:	80 91 e8 00 	lds	r24, 0x00E8	; 0x8000e8 <__TEXT_REGION_LENGTH__+0x7e00e8>
    1414:	8e 77       	andi	r24, 0x7E	; 126
    1416:	80 93 e8 00 	sts	0x00E8, r24	; 0x8000e8 <__TEXT_REGION_LENGTH__+0x7e00e8>
    141a:	df 91       	pop	r29
    141c:	cf 91       	pop	r28
    141e:	1f 91       	pop	r17
    1420:	0f 91       	pop	r16
    1422:	ff 90       	pop	r15
    1424:	ef 90       	pop	r14
    1426:	df 90       	pop	r13
    1428:	cf 90       	pop	r12
    142a:	bf 90       	pop	r11
    142c:	af 90       	pop	r10
    142e:	08 95       	ret

00001430 <sdcard_CheckDataflashOperation>:
    1430:	81 e0       	ldi	r24, 0x01	; 1
    1432:	08 95       	ret

00001434 <Serial_putchar>:
    1434:	90 91 c8 00 	lds	r25, 0x00C8	; 0x8000c8 <__TEXT_REGION_LENGTH__+0x7e00c8>
    1438:	95 ff       	sbrs	r25, 5
    143a:	fc cf       	rjmp	.-8      	; 0x1434 <Serial_putchar>
    143c:	80 93 ce 00 	sts	0x00CE, r24	; 0x8000ce <__TEXT_REGION_LENGTH__+0x7e00ce>
    1440:	80 e0       	ldi	r24, 0x00	; 0
    1442:	90 e0       	ldi	r25, 0x00	; 0
    1444:	08 95       	ret

00001446 <Serial_getchar>:
    1446:	80 91 c8 00 	lds	r24, 0x00C8	; 0x8000c8 <__TEXT_REGION_LENGTH__+0x7e00c8>
    144a:	87 ff       	sbrs	r24, 7
    144c:	08 c0       	rjmp	.+16     	; 0x145e <Serial_getchar+0x18>
    144e:	80 91 c8 00 	lds	r24, 0x00C8	; 0x8000c8 <__TEXT_REGION_LENGTH__+0x7e00c8>
    1452:	87 ff       	sbrs	r24, 7
    1454:	07 c0       	rjmp	.+14     	; 0x1464 <Serial_getchar+0x1e>
    1456:	80 91 ce 00 	lds	r24, 0x00CE	; 0x8000ce <__TEXT_REGION_LENGTH__+0x7e00ce>
    145a:	90 e0       	ldi	r25, 0x00	; 0
    145c:	08 95       	ret
    145e:	8e ef       	ldi	r24, 0xFE	; 254
    1460:	9f ef       	ldi	r25, 0xFF	; 255
    1462:	08 95       	ret
    1464:	8f ef       	ldi	r24, 0xFF	; 255
    1466:	9f ef       	ldi	r25, 0xFF	; 255
    1468:	08 95       	ret

0000146a <Serial_SendString>:
    146a:	fc 01       	movw	r30, r24
    146c:	91 91       	ld	r25, Z+
    146e:	99 23       	and	r25, r25
    1470:	39 f0       	breq	.+14     	; 0x1480 <Serial_SendString+0x16>
    1472:	80 91 c8 00 	lds	r24, 0x00C8	; 0x8000c8 <__TEXT_REGION_LENGTH__+0x7e00c8>
    1476:	85 ff       	sbrs	r24, 5
    1478:	fc cf       	rjmp	.-8      	; 0x1472 <Serial_SendString+0x8>
    147a:	90 93 ce 00 	sts	0x00CE, r25	; 0x8000ce <__TEXT_REGION_LENGTH__+0x7e00ce>
    147e:	f6 cf       	rjmp	.-20     	; 0x146c <Serial_SendString+0x2>
    1480:	08 95       	ret

00001482 <Serial_CreateStream>:
    1482:	fc 01       	movw	r30, r24
    1484:	89 2b       	or	r24, r25
    1486:	59 f4       	brne	.+22     	; 0x149e <Serial_CreateStream+0x1c>
    1488:	88 e5       	ldi	r24, 0x58	; 88
    148a:	99 e0       	ldi	r25, 0x09	; 9
    148c:	90 93 74 09 	sts	0x0974, r25	; 0x800974 <__iob+0x1>
    1490:	80 93 73 09 	sts	0x0973, r24	; 0x800973 <__iob>
    1494:	90 93 76 09 	sts	0x0976, r25	; 0x800976 <__iob+0x3>
    1498:	80 93 75 09 	sts	0x0975, r24	; 0x800975 <__iob+0x2>
    149c:	fc 01       	movw	r30, r24
    149e:	8e e0       	ldi	r24, 0x0E	; 14
    14a0:	df 01       	movw	r26, r30
    14a2:	1d 92       	st	X+, r1
    14a4:	8a 95       	dec	r24
    14a6:	e9 f7       	brne	.-6      	; 0x14a2 <Serial_CreateStream+0x20>
    14a8:	83 e0       	ldi	r24, 0x03	; 3
    14aa:	83 83       	std	Z+3, r24	; 0x03
    14ac:	8a e1       	ldi	r24, 0x1A	; 26
    14ae:	9a e0       	ldi	r25, 0x0A	; 10
    14b0:	91 87       	std	Z+9, r25	; 0x09
    14b2:	80 87       	std	Z+8, r24	; 0x08
    14b4:	83 e2       	ldi	r24, 0x23	; 35
    14b6:	9a e0       	ldi	r25, 0x0A	; 10
    14b8:	93 87       	std	Z+11, r25	; 0x0b
    14ba:	82 87       	std	Z+10, r24	; 0x0a
    14bc:	08 95       	ret

000014be <CDC_Device_ConfigureEndpoints>:
    14be:	cf 93       	push	r28
    14c0:	df 93       	push	r29
    14c2:	ec 01       	movw	r28, r24
    14c4:	fc 01       	movw	r30, r24
    14c6:	70 96       	adiw	r30, 0x10	; 16
    14c8:	8b e0       	ldi	r24, 0x0B	; 11
    14ca:	df 01       	movw	r26, r30
    14cc:	1d 92       	st	X+, r1
    14ce:	8a 95       	dec	r24
    14d0:	e9 f7       	brne	.-6      	; 0x14cc <CDC_Device_ConfigureEndpoints+0xe>
    14d2:	82 e0       	ldi	r24, 0x02	; 2
    14d4:	8c 83       	std	Y+4, r24	; 0x04
    14d6:	89 87       	std	Y+9, r24	; 0x09
    14d8:	83 e0       	ldi	r24, 0x03	; 3
    14da:	8e 87       	std	Y+14, r24	; 0x0e
    14dc:	61 e0       	ldi	r22, 0x01	; 1
    14de:	ce 01       	movw	r24, r28
    14e0:	01 96       	adiw	r24, 0x01	; 1
    14e2:	11 d7       	rcall	.+3618   	; 0x2306 <Endpoint_ConfigureEndpointTable>
    14e4:	88 23       	and	r24, r24
    14e6:	61 f0       	breq	.+24     	; 0x1500 <CDC_Device_ConfigureEndpoints+0x42>
    14e8:	61 e0       	ldi	r22, 0x01	; 1
    14ea:	ce 01       	movw	r24, r28
    14ec:	06 96       	adiw	r24, 0x06	; 6
    14ee:	0b d7       	rcall	.+3606   	; 0x2306 <Endpoint_ConfigureEndpointTable>
    14f0:	88 23       	and	r24, r24
    14f2:	31 f0       	breq	.+12     	; 0x1500 <CDC_Device_ConfigureEndpoints+0x42>
    14f4:	61 e0       	ldi	r22, 0x01	; 1
    14f6:	ce 01       	movw	r24, r28
    14f8:	0b 96       	adiw	r24, 0x0b	; 11
    14fa:	df 91       	pop	r29
    14fc:	cf 91       	pop	r28
    14fe:	03 c7       	rjmp	.+3590   	; 0x2306 <Endpoint_ConfigureEndpointTable>
    1500:	80 e0       	ldi	r24, 0x00	; 0
    1502:	df 91       	pop	r29
    1504:	cf 91       	pop	r28
    1506:	08 95       	ret

00001508 <CDC_Device_SendString>:
    1508:	db 01       	movw	r26, r22
    150a:	20 91 6a 09 	lds	r18, 0x096A	; 0x80096a <USB_DeviceState>
    150e:	24 30       	cpi	r18, 0x04	; 4
    1510:	c9 f4       	brne	.+50     	; 0x1544 <CDC_Device_SendString+0x3c>
    1512:	fc 01       	movw	r30, r24
    1514:	44 89       	ldd	r20, Z+20	; 0x14
    1516:	55 89       	ldd	r21, Z+21	; 0x15
    1518:	66 89       	ldd	r22, Z+22	; 0x16
    151a:	77 89       	ldd	r23, Z+23	; 0x17
    151c:	45 2b       	or	r20, r21
    151e:	46 2b       	or	r20, r22
    1520:	47 2b       	or	r20, r23
    1522:	81 f0       	breq	.+32     	; 0x1544 <CDC_Device_SendString+0x3c>
    1524:	81 81       	ldd	r24, Z+1	; 0x01
    1526:	8f 70       	andi	r24, 0x0F	; 15
    1528:	80 93 e9 00 	sts	0x00E9, r24	; 0x8000e9 <__TEXT_REGION_LENGTH__+0x7e00e9>
    152c:	fd 01       	movw	r30, r26
    152e:	01 90       	ld	r0, Z+
    1530:	00 20       	and	r0, r0
    1532:	e9 f7       	brne	.-6      	; 0x152e <CDC_Device_SendString+0x26>
    1534:	31 97       	sbiw	r30, 0x01	; 1
    1536:	bf 01       	movw	r22, r30
    1538:	6a 1b       	sub	r22, r26
    153a:	7b 0b       	sbc	r23, r27
    153c:	40 e0       	ldi	r20, 0x00	; 0
    153e:	50 e0       	ldi	r21, 0x00	; 0
    1540:	cd 01       	movw	r24, r26
    1542:	32 c5       	rjmp	.+2660   	; 0x1fa8 <Endpoint_Write_Stream_LE>
    1544:	82 e0       	ldi	r24, 0x02	; 2
    1546:	08 95       	ret

00001548 <CDC_Device_SendByte>:
    1548:	0f 93       	push	r16
    154a:	1f 93       	push	r17
    154c:	cf 93       	push	r28
    154e:	20 91 6a 09 	lds	r18, 0x096A	; 0x80096a <USB_DeviceState>
    1552:	24 30       	cpi	r18, 0x04	; 4
    1554:	f9 f4       	brne	.+62     	; 0x1594 <CDC_Device_SendByte+0x4c>
    1556:	fc 01       	movw	r30, r24
    1558:	04 89       	ldd	r16, Z+20	; 0x14
    155a:	15 89       	ldd	r17, Z+21	; 0x15
    155c:	26 89       	ldd	r18, Z+22	; 0x16
    155e:	37 89       	ldd	r19, Z+23	; 0x17
    1560:	01 2b       	or	r16, r17
    1562:	02 2b       	or	r16, r18
    1564:	03 2b       	or	r16, r19
    1566:	b1 f0       	breq	.+44     	; 0x1594 <CDC_Device_SendByte+0x4c>
    1568:	c6 2f       	mov	r28, r22
    156a:	81 81       	ldd	r24, Z+1	; 0x01
    156c:	8f 70       	andi	r24, 0x0F	; 15
    156e:	80 93 e9 00 	sts	0x00E9, r24	; 0x8000e9 <__TEXT_REGION_LENGTH__+0x7e00e9>
    1572:	80 91 e8 00 	lds	r24, 0x00E8	; 0x8000e8 <__TEXT_REGION_LENGTH__+0x7e00e8>
    1576:	85 ff       	sbrs	r24, 5
    1578:	04 c0       	rjmp	.+8      	; 0x1582 <CDC_Device_SendByte+0x3a>
    157a:	c0 93 f1 00 	sts	0x00F1, r28	; 0x8000f1 <__TEXT_REGION_LENGTH__+0x7e00f1>
    157e:	80 e0       	ldi	r24, 0x00	; 0
    1580:	0a c0       	rjmp	.+20     	; 0x1596 <CDC_Device_SendByte+0x4e>
    1582:	80 91 e8 00 	lds	r24, 0x00E8	; 0x8000e8 <__TEXT_REGION_LENGTH__+0x7e00e8>
    1586:	8e 77       	andi	r24, 0x7E	; 126
    1588:	80 93 e8 00 	sts	0x00E8, r24	; 0x8000e8 <__TEXT_REGION_LENGTH__+0x7e00e8>
    158c:	18 d7       	rcall	.+3632   	; 0x23be <Endpoint_WaitUntilReady>
    158e:	88 23       	and	r24, r24
    1590:	a1 f3       	breq	.-24     	; 0x157a <CDC_Device_SendByte+0x32>
    1592:	01 c0       	rjmp	.+2      	; 0x1596 <CDC_Device_SendByte+0x4e>
    1594:	82 e0       	ldi	r24, 0x02	; 2
    1596:	cf 91       	pop	r28
    1598:	1f 91       	pop	r17
    159a:	0f 91       	pop	r16
    159c:	08 95       	ret

0000159e <CDC_Device_putchar>:
    159e:	fb 01       	movw	r30, r22
    15a0:	68 2f       	mov	r22, r24
    15a2:	84 85       	ldd	r24, Z+12	; 0x0c
    15a4:	95 85       	ldd	r25, Z+13	; 0x0d
    15a6:	d0 df       	rcall	.-96     	; 0x1548 <CDC_Device_SendByte>
    15a8:	21 e0       	ldi	r18, 0x01	; 1
    15aa:	30 e0       	ldi	r19, 0x00	; 0
    15ac:	81 11       	cpse	r24, r1
    15ae:	02 c0       	rjmp	.+4      	; 0x15b4 <CDC_Device_putchar+0x16>
    15b0:	20 e0       	ldi	r18, 0x00	; 0
    15b2:	30 e0       	ldi	r19, 0x00	; 0
    15b4:	88 27       	eor	r24, r24
    15b6:	99 27       	eor	r25, r25
    15b8:	82 1b       	sub	r24, r18
    15ba:	93 0b       	sbc	r25, r19
    15bc:	08 95       	ret

000015be <CDC_Device_Flush>:
    15be:	20 91 6a 09 	lds	r18, 0x096A	; 0x80096a <USB_DeviceState>
    15c2:	24 30       	cpi	r18, 0x04	; 4
    15c4:	31 f5       	brne	.+76     	; 0x1612 <CDC_Device_Flush+0x54>
    15c6:	fc 01       	movw	r30, r24
    15c8:	44 89       	ldd	r20, Z+20	; 0x14
    15ca:	55 89       	ldd	r21, Z+21	; 0x15
    15cc:	66 89       	ldd	r22, Z+22	; 0x16
    15ce:	77 89       	ldd	r23, Z+23	; 0x17
    15d0:	45 2b       	or	r20, r21
    15d2:	46 2b       	or	r20, r22
    15d4:	47 2b       	or	r20, r23
    15d6:	e9 f0       	breq	.+58     	; 0x1612 <CDC_Device_Flush+0x54>
    15d8:	81 81       	ldd	r24, Z+1	; 0x01
    15da:	8f 70       	andi	r24, 0x0F	; 15
    15dc:	80 93 e9 00 	sts	0x00E9, r24	; 0x8000e9 <__TEXT_REGION_LENGTH__+0x7e00e9>
    15e0:	80 91 f2 00 	lds	r24, 0x00F2	; 0x8000f2 <__TEXT_REGION_LENGTH__+0x7e00f2>
    15e4:	90 91 f3 00 	lds	r25, 0x00F3	; 0x8000f3 <__TEXT_REGION_LENGTH__+0x7e00f3>
    15e8:	89 2b       	or	r24, r25
    15ea:	89 f0       	breq	.+34     	; 0x160e <CDC_Device_Flush+0x50>
    15ec:	90 91 e8 00 	lds	r25, 0x00E8	; 0x8000e8 <__TEXT_REGION_LENGTH__+0x7e00e8>
    15f0:	80 91 e8 00 	lds	r24, 0x00E8	; 0x8000e8 <__TEXT_REGION_LENGTH__+0x7e00e8>
    15f4:	8e 77       	andi	r24, 0x7E	; 126
    15f6:	80 93 e8 00 	sts	0x00E8, r24	; 0x8000e8 <__TEXT_REGION_LENGTH__+0x7e00e8>
    15fa:	95 fd       	sbrc	r25, 5
    15fc:	08 c0       	rjmp	.+16     	; 0x160e <CDC_Device_Flush+0x50>
    15fe:	df d6       	rcall	.+3518   	; 0x23be <Endpoint_WaitUntilReady>
    1600:	81 11       	cpse	r24, r1
    1602:	08 c0       	rjmp	.+16     	; 0x1614 <CDC_Device_Flush+0x56>
    1604:	80 91 e8 00 	lds	r24, 0x00E8	; 0x8000e8 <__TEXT_REGION_LENGTH__+0x7e00e8>
    1608:	8e 77       	andi	r24, 0x7E	; 126
    160a:	80 93 e8 00 	sts	0x00E8, r24	; 0x8000e8 <__TEXT_REGION_LENGTH__+0x7e00e8>
    160e:	80 e0       	ldi	r24, 0x00	; 0
    1610:	08 95       	ret
    1612:	82 e0       	ldi	r24, 0x02	; 2
    1614:	08 95       	ret

00001616 <CDC_Device_USBTask>:
    1616:	20 91 6a 09 	lds	r18, 0x096A	; 0x80096a <USB_DeviceState>
    161a:	24 30       	cpi	r18, 0x04	; 4
    161c:	89 f4       	brne	.+34     	; 0x1640 <CDC_Device_USBTask+0x2a>
    161e:	fc 01       	movw	r30, r24
    1620:	44 89       	ldd	r20, Z+20	; 0x14
    1622:	55 89       	ldd	r21, Z+21	; 0x15
    1624:	66 89       	ldd	r22, Z+22	; 0x16
    1626:	77 89       	ldd	r23, Z+23	; 0x17
    1628:	45 2b       	or	r20, r21
    162a:	46 2b       	or	r20, r22
    162c:	47 2b       	or	r20, r23
    162e:	41 f0       	breq	.+16     	; 0x1640 <CDC_Device_USBTask+0x2a>
    1630:	21 81       	ldd	r18, Z+1	; 0x01
    1632:	2f 70       	andi	r18, 0x0F	; 15
    1634:	20 93 e9 00 	sts	0x00E9, r18	; 0x8000e9 <__TEXT_REGION_LENGTH__+0x7e00e9>
    1638:	20 91 e8 00 	lds	r18, 0x00E8	; 0x8000e8 <__TEXT_REGION_LENGTH__+0x7e00e8>
    163c:	20 fd       	sbrc	r18, 0
    163e:	bf cf       	rjmp	.-130    	; 0x15be <CDC_Device_Flush>
    1640:	08 95       	ret

00001642 <CDC_Device_ReceiveByte>:
    1642:	20 91 6a 09 	lds	r18, 0x096A	; 0x80096a <USB_DeviceState>
    1646:	24 30       	cpi	r18, 0x04	; 4
    1648:	19 f0       	breq	.+6      	; 0x1650 <CDC_Device_ReceiveByte+0xe>
    164a:	8f ef       	ldi	r24, 0xFF	; 255
    164c:	9f ef       	ldi	r25, 0xFF	; 255
    164e:	08 95       	ret
    1650:	fc 01       	movw	r30, r24
    1652:	44 89       	ldd	r20, Z+20	; 0x14
    1654:	55 89       	ldd	r21, Z+21	; 0x15
    1656:	66 89       	ldd	r22, Z+22	; 0x16
    1658:	77 89       	ldd	r23, Z+23	; 0x17
    165a:	45 2b       	or	r20, r21
    165c:	46 2b       	or	r20, r22
    165e:	47 2b       	or	r20, r23
    1660:	a1 f3       	breq	.-24     	; 0x164a <CDC_Device_ReceiveByte+0x8>
    1662:	86 81       	ldd	r24, Z+6	; 0x06
    1664:	8f 70       	andi	r24, 0x0F	; 15
    1666:	80 93 e9 00 	sts	0x00E9, r24	; 0x8000e9 <__TEXT_REGION_LENGTH__+0x7e00e9>
    166a:	80 91 e8 00 	lds	r24, 0x00E8	; 0x8000e8 <__TEXT_REGION_LENGTH__+0x7e00e8>
    166e:	82 ff       	sbrs	r24, 2
    1670:	ec cf       	rjmp	.-40     	; 0x164a <CDC_Device_ReceiveByte+0x8>
    1672:	80 91 f2 00 	lds	r24, 0x00F2	; 0x8000f2 <__TEXT_REGION_LENGTH__+0x7e00f2>
    1676:	90 91 f3 00 	lds	r25, 0x00F3	; 0x8000f3 <__TEXT_REGION_LENGTH__+0x7e00f3>
    167a:	89 2b       	or	r24, r25
    167c:	21 f0       	breq	.+8      	; 0x1686 <CDC_Device_ReceiveByte+0x44>
    167e:	20 91 f1 00 	lds	r18, 0x00F1	; 0x8000f1 <__TEXT_REGION_LENGTH__+0x7e00f1>
    1682:	30 e0       	ldi	r19, 0x00	; 0
    1684:	02 c0       	rjmp	.+4      	; 0x168a <CDC_Device_ReceiveByte+0x48>
    1686:	2f ef       	ldi	r18, 0xFF	; 255
    1688:	3f ef       	ldi	r19, 0xFF	; 255
    168a:	80 91 f2 00 	lds	r24, 0x00F2	; 0x8000f2 <__TEXT_REGION_LENGTH__+0x7e00f2>
    168e:	90 91 f3 00 	lds	r25, 0x00F3	; 0x8000f3 <__TEXT_REGION_LENGTH__+0x7e00f3>
    1692:	89 2b       	or	r24, r25
    1694:	29 f4       	brne	.+10     	; 0x16a0 <CDC_Device_ReceiveByte+0x5e>
    1696:	80 91 e8 00 	lds	r24, 0x00E8	; 0x8000e8 <__TEXT_REGION_LENGTH__+0x7e00e8>
    169a:	8b 77       	andi	r24, 0x7B	; 123
    169c:	80 93 e8 00 	sts	0x00E8, r24	; 0x8000e8 <__TEXT_REGION_LENGTH__+0x7e00e8>
    16a0:	c9 01       	movw	r24, r18
    16a2:	08 95       	ret

000016a4 <CDC_Device_getchar>:
    16a4:	fc 01       	movw	r30, r24
    16a6:	84 85       	ldd	r24, Z+12	; 0x0c
    16a8:	95 85       	ldd	r25, Z+13	; 0x0d
    16aa:	cb df       	rcall	.-106    	; 0x1642 <CDC_Device_ReceiveByte>
    16ac:	97 ff       	sbrs	r25, 7
    16ae:	02 c0       	rjmp	.+4      	; 0x16b4 <CDC_Device_getchar+0x10>
    16b0:	8e ef       	ldi	r24, 0xFE	; 254
    16b2:	9f ef       	ldi	r25, 0xFF	; 255
    16b4:	08 95       	ret

000016b6 <CDC_Device_CreateStream>:
    16b6:	fb 01       	movw	r30, r22
    16b8:	2e e0       	ldi	r18, 0x0E	; 14
    16ba:	db 01       	movw	r26, r22
    16bc:	1d 92       	st	X+, r1
    16be:	2a 95       	dec	r18
    16c0:	e9 f7       	brne	.-6      	; 0x16bc <CDC_Device_CreateStream+0x6>
    16c2:	23 e0       	ldi	r18, 0x03	; 3
    16c4:	23 83       	std	Z+3, r18	; 0x03
    16c6:	2f ec       	ldi	r18, 0xCF	; 207
    16c8:	3a e0       	ldi	r19, 0x0A	; 10
    16ca:	31 87       	std	Z+9, r19	; 0x09
    16cc:	20 87       	std	Z+8, r18	; 0x08
    16ce:	22 e5       	ldi	r18, 0x52	; 82
    16d0:	3b e0       	ldi	r19, 0x0B	; 11
    16d2:	33 87       	std	Z+11, r19	; 0x0b
    16d4:	22 87       	std	Z+10, r18	; 0x0a
    16d6:	95 87       	std	Z+13, r25	; 0x0d
    16d8:	84 87       	std	Z+12, r24	; 0x0c
    16da:	08 95       	ret

000016dc <CDC_Device_Event_Stub>:
    16dc:	08 95       	ret

000016de <CDC_Device_ProcessControlRequest>:
    16de:	cf 93       	push	r28
    16e0:	df 93       	push	r29
    16e2:	ec 01       	movw	r28, r24
    16e4:	80 91 e8 00 	lds	r24, 0x00E8	; 0x8000e8 <__TEXT_REGION_LENGTH__+0x7e00e8>
    16e8:	83 ff       	sbrs	r24, 3
    16ea:	a6 c0       	rjmp	.+332    	; 0x1838 <CDC_Device_ProcessControlRequest+0x15a>
    16ec:	88 81       	ld	r24, Y
    16ee:	90 e0       	ldi	r25, 0x00	; 0
    16f0:	20 91 6f 09 	lds	r18, 0x096F	; 0x80096f <USB_ControlRequest+0x4>
    16f4:	30 91 70 09 	lds	r19, 0x0970	; 0x800970 <USB_ControlRequest+0x5>
    16f8:	28 17       	cp	r18, r24
    16fa:	39 07       	cpc	r19, r25
    16fc:	09 f0       	breq	.+2      	; 0x1700 <CDC_Device_ProcessControlRequest+0x22>
    16fe:	9c c0       	rjmp	.+312    	; 0x1838 <CDC_Device_ProcessControlRequest+0x15a>
    1700:	80 91 6c 09 	lds	r24, 0x096C	; 0x80096c <USB_ControlRequest+0x1>
    1704:	81 32       	cpi	r24, 0x21	; 33
    1706:	61 f0       	breq	.+24     	; 0x1720 <CDC_Device_ProcessControlRequest+0x42>
    1708:	20 f4       	brcc	.+8      	; 0x1712 <CDC_Device_ProcessControlRequest+0x34>
    170a:	80 32       	cpi	r24, 0x20	; 32
    170c:	09 f4       	brne	.+2      	; 0x1710 <CDC_Device_ProcessControlRequest+0x32>
    170e:	3e c0       	rjmp	.+124    	; 0x178c <CDC_Device_ProcessControlRequest+0xae>
    1710:	93 c0       	rjmp	.+294    	; 0x1838 <CDC_Device_ProcessControlRequest+0x15a>
    1712:	82 32       	cpi	r24, 0x22	; 34
    1714:	09 f4       	brne	.+2      	; 0x1718 <CDC_Device_ProcessControlRequest+0x3a>
    1716:	6c c0       	rjmp	.+216    	; 0x17f0 <CDC_Device_ProcessControlRequest+0x112>
    1718:	83 32       	cpi	r24, 0x23	; 35
    171a:	09 f4       	brne	.+2      	; 0x171e <CDC_Device_ProcessControlRequest+0x40>
    171c:	7d c0       	rjmp	.+250    	; 0x1818 <CDC_Device_ProcessControlRequest+0x13a>
    171e:	8c c0       	rjmp	.+280    	; 0x1838 <CDC_Device_ProcessControlRequest+0x15a>
    1720:	80 91 6b 09 	lds	r24, 0x096B	; 0x80096b <USB_ControlRequest>
    1724:	81 3a       	cpi	r24, 0xA1	; 161
    1726:	09 f0       	breq	.+2      	; 0x172a <CDC_Device_ProcessControlRequest+0x4c>
    1728:	87 c0       	rjmp	.+270    	; 0x1838 <CDC_Device_ProcessControlRequest+0x15a>
    172a:	80 91 e8 00 	lds	r24, 0x00E8	; 0x8000e8 <__TEXT_REGION_LENGTH__+0x7e00e8>
    172e:	87 7f       	andi	r24, 0xF7	; 247
    1730:	80 93 e8 00 	sts	0x00E8, r24	; 0x8000e8 <__TEXT_REGION_LENGTH__+0x7e00e8>
    1734:	80 91 e8 00 	lds	r24, 0x00E8	; 0x8000e8 <__TEXT_REGION_LENGTH__+0x7e00e8>
    1738:	80 ff       	sbrs	r24, 0
    173a:	fc cf       	rjmp	.-8      	; 0x1734 <CDC_Device_ProcessControlRequest+0x56>
    173c:	8c 89       	ldd	r24, Y+20	; 0x14
    173e:	9d 89       	ldd	r25, Y+21	; 0x15
    1740:	ae 89       	ldd	r26, Y+22	; 0x16
    1742:	bf 89       	ldd	r27, Y+23	; 0x17
    1744:	80 93 f1 00 	sts	0x00F1, r24	; 0x8000f1 <__TEXT_REGION_LENGTH__+0x7e00f1>
    1748:	49 2f       	mov	r20, r25
    174a:	5a 2f       	mov	r21, r26
    174c:	6b 2f       	mov	r22, r27
    174e:	77 27       	eor	r23, r23
    1750:	40 93 f1 00 	sts	0x00F1, r20	; 0x8000f1 <__TEXT_REGION_LENGTH__+0x7e00f1>
    1754:	ad 01       	movw	r20, r26
    1756:	66 27       	eor	r22, r22
    1758:	77 27       	eor	r23, r23
    175a:	40 93 f1 00 	sts	0x00F1, r20	; 0x8000f1 <__TEXT_REGION_LENGTH__+0x7e00f1>
    175e:	8b 2f       	mov	r24, r27
    1760:	99 27       	eor	r25, r25
    1762:	aa 27       	eor	r26, r26
    1764:	bb 27       	eor	r27, r27
    1766:	80 93 f1 00 	sts	0x00F1, r24	; 0x8000f1 <__TEXT_REGION_LENGTH__+0x7e00f1>
    176a:	88 8d       	ldd	r24, Y+24	; 0x18
    176c:	80 93 f1 00 	sts	0x00F1, r24	; 0x8000f1 <__TEXT_REGION_LENGTH__+0x7e00f1>
    1770:	89 8d       	ldd	r24, Y+25	; 0x19
    1772:	80 93 f1 00 	sts	0x00F1, r24	; 0x8000f1 <__TEXT_REGION_LENGTH__+0x7e00f1>
    1776:	8a 8d       	ldd	r24, Y+26	; 0x1a
    1778:	80 93 f1 00 	sts	0x00F1, r24	; 0x8000f1 <__TEXT_REGION_LENGTH__+0x7e00f1>
    177c:	80 91 e8 00 	lds	r24, 0x00E8	; 0x8000e8 <__TEXT_REGION_LENGTH__+0x7e00e8>
    1780:	8e 77       	andi	r24, 0x7E	; 126
    1782:	80 93 e8 00 	sts	0x00E8, r24	; 0x8000e8 <__TEXT_REGION_LENGTH__+0x7e00e8>
    1786:	df 91       	pop	r29
    1788:	cf 91       	pop	r28
    178a:	fa c5       	rjmp	.+3060   	; 0x2380 <Endpoint_ClearStatusStage>
    178c:	80 91 6b 09 	lds	r24, 0x096B	; 0x80096b <USB_ControlRequest>
    1790:	81 32       	cpi	r24, 0x21	; 33
    1792:	09 f0       	breq	.+2      	; 0x1796 <CDC_Device_ProcessControlRequest+0xb8>
    1794:	51 c0       	rjmp	.+162    	; 0x1838 <CDC_Device_ProcessControlRequest+0x15a>
    1796:	80 91 e8 00 	lds	r24, 0x00E8	; 0x8000e8 <__TEXT_REGION_LENGTH__+0x7e00e8>
    179a:	87 7f       	andi	r24, 0xF7	; 247
    179c:	80 93 e8 00 	sts	0x00E8, r24	; 0x8000e8 <__TEXT_REGION_LENGTH__+0x7e00e8>
    17a0:	80 91 e8 00 	lds	r24, 0x00E8	; 0x8000e8 <__TEXT_REGION_LENGTH__+0x7e00e8>
    17a4:	82 fd       	sbrc	r24, 2
    17a6:	05 c0       	rjmp	.+10     	; 0x17b2 <CDC_Device_ProcessControlRequest+0xd4>
    17a8:	80 91 6a 09 	lds	r24, 0x096A	; 0x80096a <USB_DeviceState>
    17ac:	81 11       	cpse	r24, r1
    17ae:	f8 cf       	rjmp	.-16     	; 0x17a0 <CDC_Device_ProcessControlRequest+0xc2>
    17b0:	43 c0       	rjmp	.+134    	; 0x1838 <CDC_Device_ProcessControlRequest+0x15a>
    17b2:	30 91 f1 00 	lds	r19, 0x00F1	; 0x8000f1 <__TEXT_REGION_LENGTH__+0x7e00f1>
    17b6:	20 91 f1 00 	lds	r18, 0x00F1	; 0x8000f1 <__TEXT_REGION_LENGTH__+0x7e00f1>
    17ba:	90 91 f1 00 	lds	r25, 0x00F1	; 0x8000f1 <__TEXT_REGION_LENGTH__+0x7e00f1>
    17be:	80 91 f1 00 	lds	r24, 0x00F1	; 0x8000f1 <__TEXT_REGION_LENGTH__+0x7e00f1>
    17c2:	3c 8b       	std	Y+20, r19	; 0x14
    17c4:	2d 8b       	std	Y+21, r18	; 0x15
    17c6:	9e 8b       	std	Y+22, r25	; 0x16
    17c8:	8f 8b       	std	Y+23, r24	; 0x17
    17ca:	80 91 f1 00 	lds	r24, 0x00F1	; 0x8000f1 <__TEXT_REGION_LENGTH__+0x7e00f1>
    17ce:	88 8f       	std	Y+24, r24	; 0x18
    17d0:	80 91 f1 00 	lds	r24, 0x00F1	; 0x8000f1 <__TEXT_REGION_LENGTH__+0x7e00f1>
    17d4:	89 8f       	std	Y+25, r24	; 0x19
    17d6:	80 91 f1 00 	lds	r24, 0x00F1	; 0x8000f1 <__TEXT_REGION_LENGTH__+0x7e00f1>
    17da:	8a 8f       	std	Y+26, r24	; 0x1a
    17dc:	80 91 e8 00 	lds	r24, 0x00E8	; 0x8000e8 <__TEXT_REGION_LENGTH__+0x7e00e8>
    17e0:	8b 77       	andi	r24, 0x7B	; 123
    17e2:	80 93 e8 00 	sts	0x00E8, r24	; 0x8000e8 <__TEXT_REGION_LENGTH__+0x7e00e8>
    17e6:	cc d5       	rcall	.+2968   	; 0x2380 <Endpoint_ClearStatusStage>
    17e8:	ce 01       	movw	r24, r28
    17ea:	df 91       	pop	r29
    17ec:	cf 91       	pop	r28
    17ee:	76 cf       	rjmp	.-276    	; 0x16dc <CDC_Device_Event_Stub>
    17f0:	80 91 6b 09 	lds	r24, 0x096B	; 0x80096b <USB_ControlRequest>
    17f4:	81 32       	cpi	r24, 0x21	; 33
    17f6:	01 f5       	brne	.+64     	; 0x1838 <CDC_Device_ProcessControlRequest+0x15a>
    17f8:	80 91 e8 00 	lds	r24, 0x00E8	; 0x8000e8 <__TEXT_REGION_LENGTH__+0x7e00e8>
    17fc:	87 7f       	andi	r24, 0xF7	; 247
    17fe:	80 93 e8 00 	sts	0x00E8, r24	; 0x8000e8 <__TEXT_REGION_LENGTH__+0x7e00e8>
    1802:	be d5       	rcall	.+2940   	; 0x2380 <Endpoint_ClearStatusStage>
    1804:	80 91 6d 09 	lds	r24, 0x096D	; 0x80096d <USB_ControlRequest+0x2>
    1808:	90 91 6e 09 	lds	r25, 0x096E	; 0x80096e <USB_ControlRequest+0x3>
    180c:	99 8b       	std	Y+17, r25	; 0x11
    180e:	88 8b       	std	Y+16, r24	; 0x10
    1810:	ce 01       	movw	r24, r28
    1812:	df 91       	pop	r29
    1814:	cf 91       	pop	r28
    1816:	cd ca       	rjmp	.-2662   	; 0xdb2 <EVENT_CDC_Device_ControLineStateChanged>
    1818:	80 91 6b 09 	lds	r24, 0x096B	; 0x80096b <USB_ControlRequest>
    181c:	81 32       	cpi	r24, 0x21	; 33
    181e:	61 f4       	brne	.+24     	; 0x1838 <CDC_Device_ProcessControlRequest+0x15a>
    1820:	80 91 e8 00 	lds	r24, 0x00E8	; 0x8000e8 <__TEXT_REGION_LENGTH__+0x7e00e8>
    1824:	87 7f       	andi	r24, 0xF7	; 247
    1826:	80 93 e8 00 	sts	0x00E8, r24	; 0x8000e8 <__TEXT_REGION_LENGTH__+0x7e00e8>
    182a:	aa d5       	rcall	.+2900   	; 0x2380 <Endpoint_ClearStatusStage>
    182c:	60 91 6d 09 	lds	r22, 0x096D	; 0x80096d <USB_ControlRequest+0x2>
    1830:	ce 01       	movw	r24, r28
    1832:	df 91       	pop	r29
    1834:	cf 91       	pop	r28
    1836:	52 cf       	rjmp	.-348    	; 0x16dc <CDC_Device_Event_Stub>
    1838:	df 91       	pop	r29
    183a:	cf 91       	pop	r28
    183c:	08 95       	ret

0000183e <HID_Device_ProcessControlRequest>:
    183e:	6f 92       	push	r6
    1840:	7f 92       	push	r7
    1842:	8f 92       	push	r8
    1844:	9f 92       	push	r9
    1846:	af 92       	push	r10
    1848:	bf 92       	push	r11
    184a:	cf 92       	push	r12
    184c:	df 92       	push	r13
    184e:	ef 92       	push	r14
    1850:	ff 92       	push	r15
    1852:	0f 93       	push	r16
    1854:	1f 93       	push	r17
    1856:	cf 93       	push	r28
    1858:	df 93       	push	r29
    185a:	00 d0       	rcall	.+0      	; 0x185c <HID_Device_ProcessControlRequest+0x1e>
    185c:	1f 92       	push	r1
    185e:	cd b7       	in	r28, 0x3d	; 61
    1860:	de b7       	in	r29, 0x3e	; 62
    1862:	7c 01       	movw	r14, r24
    1864:	ad b6       	in	r10, 0x3d	; 61
    1866:	be b6       	in	r11, 0x3e	; 62
    1868:	80 91 e8 00 	lds	r24, 0x00E8	; 0x8000e8 <__TEXT_REGION_LENGTH__+0x7e00e8>
    186c:	83 ff       	sbrs	r24, 3
    186e:	05 c1       	rjmp	.+522    	; 0x1a7a <HID_Device_ProcessControlRequest+0x23c>
    1870:	f7 01       	movw	r30, r14
    1872:	80 81       	ld	r24, Z
    1874:	90 e0       	ldi	r25, 0x00	; 0
    1876:	20 91 6f 09 	lds	r18, 0x096F	; 0x80096f <USB_ControlRequest+0x4>
    187a:	30 91 70 09 	lds	r19, 0x0970	; 0x800970 <USB_ControlRequest+0x5>
    187e:	28 17       	cp	r18, r24
    1880:	39 07       	cpc	r19, r25
    1882:	09 f0       	breq	.+2      	; 0x1886 <HID_Device_ProcessControlRequest+0x48>
    1884:	fa c0       	rjmp	.+500    	; 0x1a7a <HID_Device_ProcessControlRequest+0x23c>
    1886:	80 91 6c 09 	lds	r24, 0x096C	; 0x80096c <USB_ControlRequest+0x1>
    188a:	83 30       	cpi	r24, 0x03	; 3
    188c:	09 f4       	brne	.+2      	; 0x1890 <HID_Device_ProcessControlRequest+0x52>
    188e:	9c c0       	rjmp	.+312    	; 0x19c8 <HID_Device_ProcessControlRequest+0x18a>
    1890:	30 f4       	brcc	.+12     	; 0x189e <HID_Device_ProcessControlRequest+0x60>
    1892:	81 30       	cpi	r24, 0x01	; 1
    1894:	71 f0       	breq	.+28     	; 0x18b2 <HID_Device_ProcessControlRequest+0x74>
    1896:	82 30       	cpi	r24, 0x02	; 2
    1898:	09 f4       	brne	.+2      	; 0x189c <HID_Device_ProcessControlRequest+0x5e>
    189a:	d3 c0       	rjmp	.+422    	; 0x1a42 <HID_Device_ProcessControlRequest+0x204>
    189c:	ee c0       	rjmp	.+476    	; 0x1a7a <HID_Device_ProcessControlRequest+0x23c>
    189e:	8a 30       	cpi	r24, 0x0A	; 10
    18a0:	09 f4       	brne	.+2      	; 0x18a4 <HID_Device_ProcessControlRequest+0x66>
    18a2:	b7 c0       	rjmp	.+366    	; 0x1a12 <HID_Device_ProcessControlRequest+0x1d4>
    18a4:	8b 30       	cpi	r24, 0x0B	; 11
    18a6:	09 f4       	brne	.+2      	; 0x18aa <HID_Device_ProcessControlRequest+0x6c>
    18a8:	a0 c0       	rjmp	.+320    	; 0x19ea <HID_Device_ProcessControlRequest+0x1ac>
    18aa:	89 30       	cpi	r24, 0x09	; 9
    18ac:	09 f0       	breq	.+2      	; 0x18b0 <HID_Device_ProcessControlRequest+0x72>
    18ae:	e5 c0       	rjmp	.+458    	; 0x1a7a <HID_Device_ProcessControlRequest+0x23c>
    18b0:	4e c0       	rjmp	.+156    	; 0x194e <HID_Device_ProcessControlRequest+0x110>
    18b2:	80 91 6b 09 	lds	r24, 0x096B	; 0x80096b <USB_ControlRequest>
    18b6:	81 3a       	cpi	r24, 0xA1	; 161
    18b8:	09 f0       	breq	.+2      	; 0x18bc <HID_Device_ProcessControlRequest+0x7e>
    18ba:	df c0       	rjmp	.+446    	; 0x1a7a <HID_Device_ProcessControlRequest+0x23c>
    18bc:	8d b6       	in	r8, 0x3d	; 61
    18be:	9e b6       	in	r9, 0x3e	; 62
    18c0:	1a 82       	std	Y+2, r1	; 0x02
    18c2:	19 82       	std	Y+1, r1	; 0x01
    18c4:	80 91 6d 09 	lds	r24, 0x096D	; 0x80096d <USB_ControlRequest+0x2>
    18c8:	10 91 6e 09 	lds	r17, 0x096E	; 0x80096e <USB_ControlRequest+0x3>
    18cc:	8b 83       	std	Y+3, r24	; 0x03
    18ce:	f7 01       	movw	r30, r14
    18d0:	80 85       	ldd	r24, Z+8	; 0x08
    18d2:	48 2f       	mov	r20, r24
    18d4:	50 e0       	ldi	r21, 0x00	; 0
    18d6:	8d b7       	in	r24, 0x3d	; 61
    18d8:	9e b7       	in	r25, 0x3e	; 62
    18da:	84 1b       	sub	r24, r20
    18dc:	95 0b       	sbc	r25, r21
    18de:	0f b6       	in	r0, 0x3f	; 63
    18e0:	f8 94       	cli
    18e2:	9e bf       	out	0x3e, r25	; 62
    18e4:	0f be       	out	0x3f, r0	; 63
    18e6:	8d bf       	out	0x3d, r24	; 61
    18e8:	ed b7       	in	r30, 0x3d	; 61
    18ea:	fe b7       	in	r31, 0x3e	; 62
    18ec:	31 96       	adiw	r30, 0x01	; 1
    18ee:	6f 01       	movw	r12, r30
    18f0:	60 e0       	ldi	r22, 0x00	; 0
    18f2:	70 e0       	ldi	r23, 0x00	; 0
    18f4:	cf 01       	movw	r24, r30
    18f6:	0e 94 75 15 	call	0x2aea	; 0x2aea <memset>
    18fa:	4f ef       	ldi	r20, 0xFF	; 255
    18fc:	41 0f       	add	r20, r17
    18fe:	8e 01       	movw	r16, r28
    1900:	0f 5f       	subi	r16, 0xFF	; 255
    1902:	1f 4f       	sbci	r17, 0xFF	; 255
    1904:	96 01       	movw	r18, r12
    1906:	be 01       	movw	r22, r28
    1908:	6d 5f       	subi	r22, 0xFD	; 253
    190a:	7f 4f       	sbci	r23, 0xFF	; 255
    190c:	c7 01       	movw	r24, r14
    190e:	bb d9       	rcall	.-3210   	; 0xc86 <CALLBACK_HID_Device_CreateHIDReport>
    1910:	f7 01       	movw	r30, r14
    1912:	86 81       	ldd	r24, Z+6	; 0x06
    1914:	97 81       	ldd	r25, Z+7	; 0x07
    1916:	00 97       	sbiw	r24, 0x00	; 0
    1918:	29 f0       	breq	.+10     	; 0x1924 <HID_Device_ProcessControlRequest+0xe6>
    191a:	40 85       	ldd	r20, Z+8	; 0x08
    191c:	50 e0       	ldi	r21, 0x00	; 0
    191e:	b6 01       	movw	r22, r12
    1920:	0e 94 6c 15 	call	0x2ad8	; 0x2ad8 <memcpy>
    1924:	10 92 e9 00 	sts	0x00E9, r1	; 0x8000e9 <__TEXT_REGION_LENGTH__+0x7e00e9>
    1928:	80 91 e8 00 	lds	r24, 0x00E8	; 0x8000e8 <__TEXT_REGION_LENGTH__+0x7e00e8>
    192c:	87 7f       	andi	r24, 0xF7	; 247
    192e:	80 93 e8 00 	sts	0x00E8, r24	; 0x8000e8 <__TEXT_REGION_LENGTH__+0x7e00e8>
    1932:	8b 81       	ldd	r24, Y+3	; 0x03
    1934:	81 11       	cpse	r24, r1
    1936:	80 93 f1 00 	sts	0x00F1, r24	; 0x8000f1 <__TEXT_REGION_LENGTH__+0x7e00f1>
    193a:	69 81       	ldd	r22, Y+1	; 0x01
    193c:	7a 81       	ldd	r23, Y+2	; 0x02
    193e:	c6 01       	movw	r24, r12
    1940:	13 d4       	rcall	.+2086   	; 0x2168 <Endpoint_Write_Control_Stream_LE>
    1942:	80 91 e8 00 	lds	r24, 0x00E8	; 0x8000e8 <__TEXT_REGION_LENGTH__+0x7e00e8>
    1946:	8b 77       	andi	r24, 0x7B	; 123
    1948:	80 93 e8 00 	sts	0x00E8, r24	; 0x8000e8 <__TEXT_REGION_LENGTH__+0x7e00e8>
    194c:	37 c0       	rjmp	.+110    	; 0x19bc <HID_Device_ProcessControlRequest+0x17e>
    194e:	80 91 6b 09 	lds	r24, 0x096B	; 0x80096b <USB_ControlRequest>
    1952:	81 32       	cpi	r24, 0x21	; 33
    1954:	09 f0       	breq	.+2      	; 0x1958 <HID_Device_ProcessControlRequest+0x11a>
    1956:	91 c0       	rjmp	.+290    	; 0x1a7a <HID_Device_ProcessControlRequest+0x23c>
    1958:	8d b6       	in	r8, 0x3d	; 61
    195a:	9e b6       	in	r9, 0x3e	; 62
    195c:	00 91 71 09 	lds	r16, 0x0971	; 0x800971 <USB_ControlRequest+0x6>
    1960:	10 91 72 09 	lds	r17, 0x0972	; 0x800972 <USB_ControlRequest+0x7>
    1964:	70 90 6d 09 	lds	r7, 0x096D	; 0x80096d <USB_ControlRequest+0x2>
    1968:	60 90 6e 09 	lds	r6, 0x096E	; 0x80096e <USB_ControlRequest+0x3>
    196c:	8d b7       	in	r24, 0x3d	; 61
    196e:	9e b7       	in	r25, 0x3e	; 62
    1970:	80 1b       	sub	r24, r16
    1972:	91 0b       	sbc	r25, r17
    1974:	0f b6       	in	r0, 0x3f	; 63
    1976:	f8 94       	cli
    1978:	9e bf       	out	0x3e, r25	; 62
    197a:	0f be       	out	0x3f, r0	; 63
    197c:	8d bf       	out	0x3d, r24	; 61
    197e:	ed b7       	in	r30, 0x3d	; 61
    1980:	fe b7       	in	r31, 0x3e	; 62
    1982:	31 96       	adiw	r30, 0x01	; 1
    1984:	6f 01       	movw	r12, r30
    1986:	80 91 e8 00 	lds	r24, 0x00E8	; 0x8000e8 <__TEXT_REGION_LENGTH__+0x7e00e8>
    198a:	87 7f       	andi	r24, 0xF7	; 247
    198c:	80 93 e8 00 	sts	0x00E8, r24	; 0x8000e8 <__TEXT_REGION_LENGTH__+0x7e00e8>
    1990:	b8 01       	movw	r22, r16
    1992:	cf 01       	movw	r24, r30
    1994:	45 d4       	rcall	.+2186   	; 0x2220 <Endpoint_Read_Control_Stream_LE>
    1996:	80 91 e8 00 	lds	r24, 0x00E8	; 0x8000e8 <__TEXT_REGION_LENGTH__+0x7e00e8>
    199a:	8e 77       	andi	r24, 0x7E	; 126
    199c:	80 93 e8 00 	sts	0x00E8, r24	; 0x8000e8 <__TEXT_REGION_LENGTH__+0x7e00e8>
    19a0:	21 e0       	ldi	r18, 0x01	; 1
    19a2:	71 10       	cpse	r7, r1
    19a4:	01 c0       	rjmp	.+2      	; 0x19a8 <HID_Device_ProcessControlRequest+0x16a>
    19a6:	20 e0       	ldi	r18, 0x00	; 0
    19a8:	30 e0       	ldi	r19, 0x00	; 0
    19aa:	02 1b       	sub	r16, r18
    19ac:	13 0b       	sbc	r17, r19
    19ae:	2c 0d       	add	r18, r12
    19b0:	3d 1d       	adc	r19, r13
    19b2:	4f ef       	ldi	r20, 0xFF	; 255
    19b4:	46 0d       	add	r20, r6
    19b6:	67 2d       	mov	r22, r7
    19b8:	c7 01       	movw	r24, r14
    19ba:	ea d9       	rcall	.-3116   	; 0xd90 <CALLBACK_HID_Device_ProcessHIDReport>
    19bc:	0f b6       	in	r0, 0x3f	; 63
    19be:	f8 94       	cli
    19c0:	9e be       	out	0x3e, r9	; 62
    19c2:	0f be       	out	0x3f, r0	; 63
    19c4:	8d be       	out	0x3d, r8	; 61
    19c6:	59 c0       	rjmp	.+178    	; 0x1a7a <HID_Device_ProcessControlRequest+0x23c>
    19c8:	80 91 6b 09 	lds	r24, 0x096B	; 0x80096b <USB_ControlRequest>
    19cc:	81 3a       	cpi	r24, 0xA1	; 161
    19ce:	09 f0       	breq	.+2      	; 0x19d2 <HID_Device_ProcessControlRequest+0x194>
    19d0:	54 c0       	rjmp	.+168    	; 0x1a7a <HID_Device_ProcessControlRequest+0x23c>
    19d2:	80 91 e8 00 	lds	r24, 0x00E8	; 0x8000e8 <__TEXT_REGION_LENGTH__+0x7e00e8>
    19d6:	87 7f       	andi	r24, 0xF7	; 247
    19d8:	80 93 e8 00 	sts	0x00E8, r24	; 0x8000e8 <__TEXT_REGION_LENGTH__+0x7e00e8>
    19dc:	80 91 e8 00 	lds	r24, 0x00E8	; 0x8000e8 <__TEXT_REGION_LENGTH__+0x7e00e8>
    19e0:	80 ff       	sbrs	r24, 0
    19e2:	fc cf       	rjmp	.-8      	; 0x19dc <HID_Device_ProcessControlRequest+0x19e>
    19e4:	f7 01       	movw	r30, r14
    19e6:	81 85       	ldd	r24, Z+9	; 0x09
    19e8:	40 c0       	rjmp	.+128    	; 0x1a6a <HID_Device_ProcessControlRequest+0x22c>
    19ea:	80 91 6b 09 	lds	r24, 0x096B	; 0x80096b <USB_ControlRequest>
    19ee:	81 32       	cpi	r24, 0x21	; 33
    19f0:	09 f0       	breq	.+2      	; 0x19f4 <HID_Device_ProcessControlRequest+0x1b6>
    19f2:	43 c0       	rjmp	.+134    	; 0x1a7a <HID_Device_ProcessControlRequest+0x23c>
    19f4:	80 91 e8 00 	lds	r24, 0x00E8	; 0x8000e8 <__TEXT_REGION_LENGTH__+0x7e00e8>
    19f8:	87 7f       	andi	r24, 0xF7	; 247
    19fa:	80 93 e8 00 	sts	0x00E8, r24	; 0x8000e8 <__TEXT_REGION_LENGTH__+0x7e00e8>
    19fe:	c0 d4       	rcall	.+2432   	; 0x2380 <Endpoint_ClearStatusStage>
    1a00:	90 91 6d 09 	lds	r25, 0x096D	; 0x80096d <USB_ControlRequest+0x2>
    1a04:	81 e0       	ldi	r24, 0x01	; 1
    1a06:	91 11       	cpse	r25, r1
    1a08:	01 c0       	rjmp	.+2      	; 0x1a0c <HID_Device_ProcessControlRequest+0x1ce>
    1a0a:	80 e0       	ldi	r24, 0x00	; 0
    1a0c:	f7 01       	movw	r30, r14
    1a0e:	81 87       	std	Z+9, r24	; 0x09
    1a10:	34 c0       	rjmp	.+104    	; 0x1a7a <HID_Device_ProcessControlRequest+0x23c>
    1a12:	80 91 6b 09 	lds	r24, 0x096B	; 0x80096b <USB_ControlRequest>
    1a16:	81 32       	cpi	r24, 0x21	; 33
    1a18:	81 f5       	brne	.+96     	; 0x1a7a <HID_Device_ProcessControlRequest+0x23c>
    1a1a:	80 91 e8 00 	lds	r24, 0x00E8	; 0x8000e8 <__TEXT_REGION_LENGTH__+0x7e00e8>
    1a1e:	87 7f       	andi	r24, 0xF7	; 247
    1a20:	80 93 e8 00 	sts	0x00E8, r24	; 0x8000e8 <__TEXT_REGION_LENGTH__+0x7e00e8>
    1a24:	ad d4       	rcall	.+2394   	; 0x2380 <Endpoint_ClearStatusStage>
    1a26:	80 91 6d 09 	lds	r24, 0x096D	; 0x80096d <USB_ControlRequest+0x2>
    1a2a:	90 91 6e 09 	lds	r25, 0x096E	; 0x80096e <USB_ControlRequest+0x3>
    1a2e:	88 27       	eor	r24, r24
    1a30:	36 e0       	ldi	r19, 0x06	; 6
    1a32:	96 95       	lsr	r25
    1a34:	87 95       	ror	r24
    1a36:	3a 95       	dec	r19
    1a38:	e1 f7       	brne	.-8      	; 0x1a32 <HID_Device_ProcessControlRequest+0x1f4>
    1a3a:	f7 01       	movw	r30, r14
    1a3c:	95 87       	std	Z+13, r25	; 0x0d
    1a3e:	84 87       	std	Z+12, r24	; 0x0c
    1a40:	1c c0       	rjmp	.+56     	; 0x1a7a <HID_Device_ProcessControlRequest+0x23c>
    1a42:	80 91 6b 09 	lds	r24, 0x096B	; 0x80096b <USB_ControlRequest>
    1a46:	81 3a       	cpi	r24, 0xA1	; 161
    1a48:	c1 f4       	brne	.+48     	; 0x1a7a <HID_Device_ProcessControlRequest+0x23c>
    1a4a:	80 91 e8 00 	lds	r24, 0x00E8	; 0x8000e8 <__TEXT_REGION_LENGTH__+0x7e00e8>
    1a4e:	87 7f       	andi	r24, 0xF7	; 247
    1a50:	80 93 e8 00 	sts	0x00E8, r24	; 0x8000e8 <__TEXT_REGION_LENGTH__+0x7e00e8>
    1a54:	80 91 e8 00 	lds	r24, 0x00E8	; 0x8000e8 <__TEXT_REGION_LENGTH__+0x7e00e8>
    1a58:	80 ff       	sbrs	r24, 0
    1a5a:	fc cf       	rjmp	.-8      	; 0x1a54 <HID_Device_ProcessControlRequest+0x216>
    1a5c:	f7 01       	movw	r30, r14
    1a5e:	84 85       	ldd	r24, Z+12	; 0x0c
    1a60:	95 85       	ldd	r25, Z+13	; 0x0d
    1a62:	96 95       	lsr	r25
    1a64:	87 95       	ror	r24
    1a66:	96 95       	lsr	r25
    1a68:	87 95       	ror	r24
    1a6a:	80 93 f1 00 	sts	0x00F1, r24	; 0x8000f1 <__TEXT_REGION_LENGTH__+0x7e00f1>
    1a6e:	80 91 e8 00 	lds	r24, 0x00E8	; 0x8000e8 <__TEXT_REGION_LENGTH__+0x7e00e8>
    1a72:	8e 77       	andi	r24, 0x7E	; 126
    1a74:	80 93 e8 00 	sts	0x00E8, r24	; 0x8000e8 <__TEXT_REGION_LENGTH__+0x7e00e8>
    1a78:	83 d4       	rcall	.+2310   	; 0x2380 <Endpoint_ClearStatusStage>
    1a7a:	0f b6       	in	r0, 0x3f	; 63
    1a7c:	f8 94       	cli
    1a7e:	be be       	out	0x3e, r11	; 62
    1a80:	0f be       	out	0x3f, r0	; 63
    1a82:	ad be       	out	0x3d, r10	; 61
    1a84:	0f 90       	pop	r0
    1a86:	0f 90       	pop	r0
    1a88:	0f 90       	pop	r0
    1a8a:	df 91       	pop	r29
    1a8c:	cf 91       	pop	r28
    1a8e:	1f 91       	pop	r17
    1a90:	0f 91       	pop	r16
    1a92:	ff 90       	pop	r15
    1a94:	ef 90       	pop	r14
    1a96:	df 90       	pop	r13
    1a98:	cf 90       	pop	r12
    1a9a:	bf 90       	pop	r11
    1a9c:	af 90       	pop	r10
    1a9e:	9f 90       	pop	r9
    1aa0:	8f 90       	pop	r8
    1aa2:	7f 90       	pop	r7
    1aa4:	6f 90       	pop	r6
    1aa6:	08 95       	ret

00001aa8 <HID_Device_ConfigureEndpoints>:
    1aa8:	fc 01       	movw	r30, r24
    1aaa:	39 96       	adiw	r30, 0x09	; 9
    1aac:	27 e0       	ldi	r18, 0x07	; 7
    1aae:	df 01       	movw	r26, r30
    1ab0:	1d 92       	st	X+, r1
    1ab2:	2a 95       	dec	r18
    1ab4:	e9 f7       	brne	.-6      	; 0x1ab0 <HID_Device_ConfigureEndpoints+0x8>
    1ab6:	21 e0       	ldi	r18, 0x01	; 1
    1ab8:	fc 01       	movw	r30, r24
    1aba:	21 87       	std	Z+9, r18	; 0x09
    1abc:	24 ef       	ldi	r18, 0xF4	; 244
    1abe:	31 e0       	ldi	r19, 0x01	; 1
    1ac0:	35 87       	std	Z+13, r19	; 0x0d
    1ac2:	24 87       	std	Z+12, r18	; 0x0c
    1ac4:	23 e0       	ldi	r18, 0x03	; 3
    1ac6:	24 83       	std	Z+4, r18	; 0x04
    1ac8:	61 e0       	ldi	r22, 0x01	; 1
    1aca:	01 96       	adiw	r24, 0x01	; 1
    1acc:	1c c4       	rjmp	.+2104   	; 0x2306 <Endpoint_ConfigureEndpointTable>

00001ace <HID_Device_USBTask>:
    1ace:	5f 92       	push	r5
    1ad0:	6f 92       	push	r6
    1ad2:	7f 92       	push	r7
    1ad4:	8f 92       	push	r8
    1ad6:	9f 92       	push	r9
    1ad8:	af 92       	push	r10
    1ada:	bf 92       	push	r11
    1adc:	cf 92       	push	r12
    1ade:	df 92       	push	r13
    1ae0:	ef 92       	push	r14
    1ae2:	ff 92       	push	r15
    1ae4:	0f 93       	push	r16
    1ae6:	1f 93       	push	r17
    1ae8:	cf 93       	push	r28
    1aea:	df 93       	push	r29
    1aec:	00 d0       	rcall	.+0      	; 0x1aee <HID_Device_USBTask+0x20>
    1aee:	1f 92       	push	r1
    1af0:	cd b7       	in	r28, 0x3d	; 61
    1af2:	de b7       	in	r29, 0x3e	; 62
    1af4:	7c 01       	movw	r14, r24
    1af6:	ad b6       	in	r10, 0x3d	; 61
    1af8:	be b6       	in	r11, 0x3e	; 62
    1afa:	80 91 6a 09 	lds	r24, 0x096A	; 0x80096a <USB_DeviceState>
    1afe:	84 30       	cpi	r24, 0x04	; 4
    1b00:	09 f0       	breq	.+2      	; 0x1b04 <HID_Device_USBTask+0x36>
    1b02:	86 c0       	rjmp	.+268    	; 0x1c10 <HID_Device_USBTask+0x142>
    1b04:	80 91 e4 00 	lds	r24, 0x00E4	; 0x8000e4 <__TEXT_REGION_LENGTH__+0x7e00e4>
    1b08:	90 91 e5 00 	lds	r25, 0x00E5	; 0x8000e5 <__TEXT_REGION_LENGTH__+0x7e00e5>
    1b0c:	f7 01       	movw	r30, r14
    1b0e:	22 85       	ldd	r18, Z+10	; 0x0a
    1b10:	33 85       	ldd	r19, Z+11	; 0x0b
    1b12:	28 17       	cp	r18, r24
    1b14:	39 07       	cpc	r19, r25
    1b16:	09 f4       	brne	.+2      	; 0x1b1a <HID_Device_USBTask+0x4c>
    1b18:	7b c0       	rjmp	.+246    	; 0x1c10 <HID_Device_USBTask+0x142>
    1b1a:	81 81       	ldd	r24, Z+1	; 0x01
    1b1c:	8f 70       	andi	r24, 0x0F	; 15
    1b1e:	80 93 e9 00 	sts	0x00E9, r24	; 0x8000e9 <__TEXT_REGION_LENGTH__+0x7e00e9>
    1b22:	80 91 e8 00 	lds	r24, 0x00E8	; 0x8000e8 <__TEXT_REGION_LENGTH__+0x7e00e8>
    1b26:	85 ff       	sbrs	r24, 5
    1b28:	73 c0       	rjmp	.+230    	; 0x1c10 <HID_Device_USBTask+0x142>
    1b2a:	8d b6       	in	r8, 0x3d	; 61
    1b2c:	9e b6       	in	r9, 0x3e	; 62
    1b2e:	40 85       	ldd	r20, Z+8	; 0x08
    1b30:	50 e0       	ldi	r21, 0x00	; 0
    1b32:	8d b7       	in	r24, 0x3d	; 61
    1b34:	9e b7       	in	r25, 0x3e	; 62
    1b36:	84 1b       	sub	r24, r20
    1b38:	95 0b       	sbc	r25, r21
    1b3a:	0f b6       	in	r0, 0x3f	; 63
    1b3c:	f8 94       	cli
    1b3e:	9e bf       	out	0x3e, r25	; 62
    1b40:	0f be       	out	0x3f, r0	; 63
    1b42:	8d bf       	out	0x3d, r24	; 61
    1b44:	ed b7       	in	r30, 0x3d	; 61
    1b46:	fe b7       	in	r31, 0x3e	; 62
    1b48:	31 96       	adiw	r30, 0x01	; 1
    1b4a:	6f 01       	movw	r12, r30
    1b4c:	1b 82       	std	Y+3, r1	; 0x03
    1b4e:	1a 82       	std	Y+2, r1	; 0x02
    1b50:	19 82       	std	Y+1, r1	; 0x01
    1b52:	60 e0       	ldi	r22, 0x00	; 0
    1b54:	70 e0       	ldi	r23, 0x00	; 0
    1b56:	cf 01       	movw	r24, r30
    1b58:	c8 d7       	rcall	.+3984   	; 0x2aea <memset>
    1b5a:	8e 01       	movw	r16, r28
    1b5c:	0f 5f       	subi	r16, 0xFF	; 255
    1b5e:	1f 4f       	sbci	r17, 0xFF	; 255
    1b60:	96 01       	movw	r18, r12
    1b62:	40 e0       	ldi	r20, 0x00	; 0
    1b64:	be 01       	movw	r22, r28
    1b66:	6d 5f       	subi	r22, 0xFD	; 253
    1b68:	7f 4f       	sbci	r23, 0xFF	; 255
    1b6a:	c7 01       	movw	r24, r14
    1b6c:	8c d8       	rcall	.-3816   	; 0xc86 <CALLBACK_HID_Device_CreateHIDReport>
    1b6e:	58 2e       	mov	r5, r24
    1b70:	f7 01       	movw	r30, r14
    1b72:	84 85       	ldd	r24, Z+12	; 0x0c
    1b74:	95 85       	ldd	r25, Z+13	; 0x0d
    1b76:	89 2b       	or	r24, r25
    1b78:	29 f0       	breq	.+10     	; 0x1b84 <HID_Device_USBTask+0xb6>
    1b7a:	11 e0       	ldi	r17, 0x01	; 1
    1b7c:	86 85       	ldd	r24, Z+14	; 0x0e
    1b7e:	97 85       	ldd	r25, Z+15	; 0x0f
    1b80:	89 2b       	or	r24, r25
    1b82:	09 f0       	breq	.+2      	; 0x1b86 <HID_Device_USBTask+0xb8>
    1b84:	10 e0       	ldi	r17, 0x00	; 0
    1b86:	f7 01       	movw	r30, r14
    1b88:	66 80       	ldd	r6, Z+6	; 0x06
    1b8a:	77 80       	ldd	r7, Z+7	; 0x07
    1b8c:	61 14       	cp	r6, r1
    1b8e:	71 04       	cpc	r7, r1
    1b90:	81 f0       	breq	.+32     	; 0x1bb2 <HID_Device_USBTask+0xe4>
    1b92:	49 81       	ldd	r20, Y+1	; 0x01
    1b94:	5a 81       	ldd	r21, Y+2	; 0x02
    1b96:	b3 01       	movw	r22, r6
    1b98:	c6 01       	movw	r24, r12
    1b9a:	91 d7       	rcall	.+3874   	; 0x2abe <memcmp>
    1b9c:	01 e0       	ldi	r16, 0x01	; 1
    1b9e:	89 2b       	or	r24, r25
    1ba0:	09 f4       	brne	.+2      	; 0x1ba4 <HID_Device_USBTask+0xd6>
    1ba2:	00 e0       	ldi	r16, 0x00	; 0
    1ba4:	f7 01       	movw	r30, r14
    1ba6:	40 85       	ldd	r20, Z+8	; 0x08
    1ba8:	50 e0       	ldi	r21, 0x00	; 0
    1baa:	b6 01       	movw	r22, r12
    1bac:	c3 01       	movw	r24, r6
    1bae:	94 d7       	rcall	.+3880   	; 0x2ad8 <memcpy>
    1bb0:	01 c0       	rjmp	.+2      	; 0x1bb4 <HID_Device_USBTask+0xe6>
    1bb2:	00 e0       	ldi	r16, 0x00	; 0
    1bb4:	89 81       	ldd	r24, Y+1	; 0x01
    1bb6:	9a 81       	ldd	r25, Y+2	; 0x02
    1bb8:	89 2b       	or	r24, r25
    1bba:	f1 f0       	breq	.+60     	; 0x1bf8 <HID_Device_USBTask+0x12a>
    1bbc:	51 10       	cpse	r5, r1
    1bbe:	04 c0       	rjmp	.+8      	; 0x1bc8 <HID_Device_USBTask+0xfa>
    1bc0:	01 11       	cpse	r16, r1
    1bc2:	02 c0       	rjmp	.+4      	; 0x1bc8 <HID_Device_USBTask+0xfa>
    1bc4:	10 ff       	sbrs	r17, 0
    1bc6:	18 c0       	rjmp	.+48     	; 0x1bf8 <HID_Device_USBTask+0x12a>
    1bc8:	f7 01       	movw	r30, r14
    1bca:	84 85       	ldd	r24, Z+12	; 0x0c
    1bcc:	95 85       	ldd	r25, Z+13	; 0x0d
    1bce:	97 87       	std	Z+15, r25	; 0x0f
    1bd0:	86 87       	std	Z+14, r24	; 0x0e
    1bd2:	81 81       	ldd	r24, Z+1	; 0x01
    1bd4:	8f 70       	andi	r24, 0x0F	; 15
    1bd6:	80 93 e9 00 	sts	0x00E9, r24	; 0x8000e9 <__TEXT_REGION_LENGTH__+0x7e00e9>
    1bda:	8b 81       	ldd	r24, Y+3	; 0x03
    1bdc:	81 11       	cpse	r24, r1
    1bde:	80 93 f1 00 	sts	0x00F1, r24	; 0x8000f1 <__TEXT_REGION_LENGTH__+0x7e00f1>
    1be2:	69 81       	ldd	r22, Y+1	; 0x01
    1be4:	7a 81       	ldd	r23, Y+2	; 0x02
    1be6:	40 e0       	ldi	r20, 0x00	; 0
    1be8:	50 e0       	ldi	r21, 0x00	; 0
    1bea:	c6 01       	movw	r24, r12
    1bec:	dd d1       	rcall	.+954    	; 0x1fa8 <Endpoint_Write_Stream_LE>
    1bee:	80 91 e8 00 	lds	r24, 0x00E8	; 0x8000e8 <__TEXT_REGION_LENGTH__+0x7e00e8>
    1bf2:	8e 77       	andi	r24, 0x7E	; 126
    1bf4:	80 93 e8 00 	sts	0x00E8, r24	; 0x8000e8 <__TEXT_REGION_LENGTH__+0x7e00e8>
    1bf8:	80 91 e4 00 	lds	r24, 0x00E4	; 0x8000e4 <__TEXT_REGION_LENGTH__+0x7e00e4>
    1bfc:	90 91 e5 00 	lds	r25, 0x00E5	; 0x8000e5 <__TEXT_REGION_LENGTH__+0x7e00e5>
    1c00:	f7 01       	movw	r30, r14
    1c02:	93 87       	std	Z+11, r25	; 0x0b
    1c04:	82 87       	std	Z+10, r24	; 0x0a
    1c06:	0f b6       	in	r0, 0x3f	; 63
    1c08:	f8 94       	cli
    1c0a:	9e be       	out	0x3e, r9	; 62
    1c0c:	0f be       	out	0x3f, r0	; 63
    1c0e:	8d be       	out	0x3d, r8	; 61
    1c10:	0f b6       	in	r0, 0x3f	; 63
    1c12:	f8 94       	cli
    1c14:	be be       	out	0x3e, r11	; 62
    1c16:	0f be       	out	0x3f, r0	; 63
    1c18:	ad be       	out	0x3d, r10	; 61
    1c1a:	0f 90       	pop	r0
    1c1c:	0f 90       	pop	r0
    1c1e:	0f 90       	pop	r0
    1c20:	df 91       	pop	r29
    1c22:	cf 91       	pop	r28
    1c24:	1f 91       	pop	r17
    1c26:	0f 91       	pop	r16
    1c28:	ff 90       	pop	r15
    1c2a:	ef 90       	pop	r14
    1c2c:	df 90       	pop	r13
    1c2e:	cf 90       	pop	r12
    1c30:	bf 90       	pop	r11
    1c32:	af 90       	pop	r10
    1c34:	9f 90       	pop	r9
    1c36:	8f 90       	pop	r8
    1c38:	7f 90       	pop	r7
    1c3a:	6f 90       	pop	r6
    1c3c:	5f 90       	pop	r5
    1c3e:	08 95       	ret

00001c40 <MS_Device_ProcessControlRequest>:
    1c40:	cf 93       	push	r28
    1c42:	df 93       	push	r29
    1c44:	20 91 e8 00 	lds	r18, 0x00E8	; 0x8000e8 <__TEXT_REGION_LENGTH__+0x7e00e8>
    1c48:	23 ff       	sbrs	r18, 3
    1c4a:	38 c0       	rjmp	.+112    	; 0x1cbc <MS_Device_ProcessControlRequest+0x7c>
    1c4c:	fc 01       	movw	r30, r24
    1c4e:	20 81       	ld	r18, Z
    1c50:	30 e0       	ldi	r19, 0x00	; 0
    1c52:	40 91 6f 09 	lds	r20, 0x096F	; 0x80096f <USB_ControlRequest+0x4>
    1c56:	50 91 70 09 	lds	r21, 0x0970	; 0x800970 <USB_ControlRequest+0x5>
    1c5a:	42 17       	cp	r20, r18
    1c5c:	53 07       	cpc	r21, r19
    1c5e:	71 f5       	brne	.+92     	; 0x1cbc <MS_Device_ProcessControlRequest+0x7c>
    1c60:	20 91 6c 09 	lds	r18, 0x096C	; 0x80096c <USB_ControlRequest+0x1>
    1c64:	2e 3f       	cpi	r18, 0xFE	; 254
    1c66:	81 f0       	breq	.+32     	; 0x1c88 <MS_Device_ProcessControlRequest+0x48>
    1c68:	2f 3f       	cpi	r18, 0xFF	; 255
    1c6a:	41 f5       	brne	.+80     	; 0x1cbc <MS_Device_ProcessControlRequest+0x7c>
    1c6c:	20 91 6b 09 	lds	r18, 0x096B	; 0x80096b <USB_ControlRequest>
    1c70:	21 32       	cpi	r18, 0x21	; 33
    1c72:	21 f5       	brne	.+72     	; 0x1cbc <MS_Device_ProcessControlRequest+0x7c>
    1c74:	ec 01       	movw	r28, r24
    1c76:	80 91 e8 00 	lds	r24, 0x00E8	; 0x8000e8 <__TEXT_REGION_LENGTH__+0x7e00e8>
    1c7a:	87 7f       	andi	r24, 0xF7	; 247
    1c7c:	80 93 e8 00 	sts	0x00E8, r24	; 0x8000e8 <__TEXT_REGION_LENGTH__+0x7e00e8>
    1c80:	7f d3       	rcall	.+1790   	; 0x2380 <Endpoint_ClearStatusStage>
    1c82:	81 e0       	ldi	r24, 0x01	; 1
    1c84:	88 af       	std	Y+56, r24	; 0x38
    1c86:	1a c0       	rjmp	.+52     	; 0x1cbc <MS_Device_ProcessControlRequest+0x7c>
    1c88:	20 91 6b 09 	lds	r18, 0x096B	; 0x80096b <USB_ControlRequest>
    1c8c:	21 3a       	cpi	r18, 0xA1	; 161
    1c8e:	b1 f4       	brne	.+44     	; 0x1cbc <MS_Device_ProcessControlRequest+0x7c>
    1c90:	20 91 e8 00 	lds	r18, 0x00E8	; 0x8000e8 <__TEXT_REGION_LENGTH__+0x7e00e8>
    1c94:	27 7f       	andi	r18, 0xF7	; 247
    1c96:	20 93 e8 00 	sts	0x00E8, r18	; 0x8000e8 <__TEXT_REGION_LENGTH__+0x7e00e8>
    1c9a:	20 91 e8 00 	lds	r18, 0x00E8	; 0x8000e8 <__TEXT_REGION_LENGTH__+0x7e00e8>
    1c9e:	20 ff       	sbrs	r18, 0
    1ca0:	fc cf       	rjmp	.-8      	; 0x1c9a <MS_Device_ProcessControlRequest+0x5a>
    1ca2:	fc 01       	movw	r30, r24
    1ca4:	83 85       	ldd	r24, Z+11	; 0x0b
    1ca6:	81 50       	subi	r24, 0x01	; 1
    1ca8:	80 93 f1 00 	sts	0x00F1, r24	; 0x8000f1 <__TEXT_REGION_LENGTH__+0x7e00f1>
    1cac:	80 91 e8 00 	lds	r24, 0x00E8	; 0x8000e8 <__TEXT_REGION_LENGTH__+0x7e00e8>
    1cb0:	8e 77       	andi	r24, 0x7E	; 126
    1cb2:	80 93 e8 00 	sts	0x00E8, r24	; 0x8000e8 <__TEXT_REGION_LENGTH__+0x7e00e8>
    1cb6:	df 91       	pop	r29
    1cb8:	cf 91       	pop	r28
    1cba:	62 c3       	rjmp	.+1732   	; 0x2380 <Endpoint_ClearStatusStage>
    1cbc:	df 91       	pop	r29
    1cbe:	cf 91       	pop	r28
    1cc0:	08 95       	ret

00001cc2 <MS_Device_ConfigureEndpoints>:
    1cc2:	cf 93       	push	r28
    1cc4:	df 93       	push	r29
    1cc6:	ec 01       	movw	r28, r24
    1cc8:	fc 01       	movw	r30, r24
    1cca:	3c 96       	adiw	r30, 0x0c	; 12
    1ccc:	8d e2       	ldi	r24, 0x2D	; 45
    1cce:	df 01       	movw	r26, r30
    1cd0:	1d 92       	st	X+, r1
    1cd2:	8a 95       	dec	r24
    1cd4:	e9 f7       	brne	.-6      	; 0x1cd0 <MS_Device_ConfigureEndpoints+0xe>
    1cd6:	82 e0       	ldi	r24, 0x02	; 2
    1cd8:	8c 83       	std	Y+4, r24	; 0x04
    1cda:	89 87       	std	Y+9, r24	; 0x09
    1cdc:	61 e0       	ldi	r22, 0x01	; 1
    1cde:	ce 01       	movw	r24, r28
    1ce0:	01 96       	adiw	r24, 0x01	; 1
    1ce2:	11 d3       	rcall	.+1570   	; 0x2306 <Endpoint_ConfigureEndpointTable>
    1ce4:	88 23       	and	r24, r24
    1ce6:	31 f0       	breq	.+12     	; 0x1cf4 <MS_Device_ConfigureEndpoints+0x32>
    1ce8:	61 e0       	ldi	r22, 0x01	; 1
    1cea:	ce 01       	movw	r24, r28
    1cec:	06 96       	adiw	r24, 0x06	; 6
    1cee:	df 91       	pop	r29
    1cf0:	cf 91       	pop	r28
    1cf2:	09 c3       	rjmp	.+1554   	; 0x2306 <Endpoint_ConfigureEndpointTable>
    1cf4:	80 e0       	ldi	r24, 0x00	; 0
    1cf6:	df 91       	pop	r29
    1cf8:	cf 91       	pop	r28
    1cfa:	08 95       	ret

00001cfc <MS_Device_USBTask>:
    1cfc:	ef 92       	push	r14
    1cfe:	ff 92       	push	r15
    1d00:	0f 93       	push	r16
    1d02:	1f 93       	push	r17
    1d04:	cf 93       	push	r28
    1d06:	df 93       	push	r29
    1d08:	00 d0       	rcall	.+0      	; 0x1d0a <MS_Device_USBTask+0xe>
    1d0a:	cd b7       	in	r28, 0x3d	; 61
    1d0c:	de b7       	in	r29, 0x3e	; 62
    1d0e:	20 91 6a 09 	lds	r18, 0x096A	; 0x80096a <USB_DeviceState>
    1d12:	24 30       	cpi	r18, 0x04	; 4
    1d14:	09 f0       	breq	.+2      	; 0x1d18 <MS_Device_USBTask+0x1c>
    1d16:	00 c1       	rjmp	.+512    	; 0x1f18 <MS_Device_USBTask+0x21c>
    1d18:	8c 01       	movw	r16, r24
    1d1a:	fc 01       	movw	r30, r24
    1d1c:	86 81       	ldd	r24, Z+6	; 0x06
    1d1e:	8f 70       	andi	r24, 0x0F	; 15
    1d20:	80 93 e9 00 	sts	0x00E9, r24	; 0x8000e9 <__TEXT_REGION_LENGTH__+0x7e00e9>
    1d24:	80 91 e8 00 	lds	r24, 0x00E8	; 0x8000e8 <__TEXT_REGION_LENGTH__+0x7e00e8>
    1d28:	82 ff       	sbrs	r24, 2
    1d2a:	bd c0       	rjmp	.+378    	; 0x1ea6 <MS_Device_USBTask+0x1aa>
    1d2c:	86 81       	ldd	r24, Z+6	; 0x06
    1d2e:	8f 70       	andi	r24, 0x0F	; 15
    1d30:	80 93 e9 00 	sts	0x00E9, r24	; 0x8000e9 <__TEXT_REGION_LENGTH__+0x7e00e9>
    1d34:	1a 82       	std	Y+2, r1	; 0x02
    1d36:	19 82       	std	Y+1, r1	; 0x01
    1d38:	78 01       	movw	r14, r16
    1d3a:	fc e0       	ldi	r31, 0x0C	; 12
    1d3c:	ef 0e       	add	r14, r31
    1d3e:	f1 1c       	adc	r15, r1
    1d40:	ae 01       	movw	r20, r28
    1d42:	4f 5f       	subi	r20, 0xFF	; 255
    1d44:	5f 4f       	sbci	r21, 0xFF	; 255
    1d46:	6f e0       	ldi	r22, 0x0F	; 15
    1d48:	70 e0       	ldi	r23, 0x00	; 0
    1d4a:	c7 01       	movw	r24, r14
    1d4c:	c4 d1       	rcall	.+904    	; 0x20d6 <Endpoint_Read_Stream_LE>
    1d4e:	f8 01       	movw	r30, r16
    1d50:	85 30       	cpi	r24, 0x05	; 5
    1d52:	21 f4       	brne	.+8      	; 0x1d5c <MS_Device_USBTask+0x60>
    1d54:	80 ad       	ldd	r24, Z+56	; 0x38
    1d56:	88 23       	and	r24, r24
    1d58:	99 f3       	breq	.-26     	; 0x1d40 <MS_Device_USBTask+0x44>
    1d5a:	a5 c0       	rjmp	.+330    	; 0x1ea6 <MS_Device_USBTask+0x1aa>
    1d5c:	84 85       	ldd	r24, Z+12	; 0x0c
    1d5e:	95 85       	ldd	r25, Z+13	; 0x0d
    1d60:	a6 85       	ldd	r26, Z+14	; 0x0e
    1d62:	b7 85       	ldd	r27, Z+15	; 0x0f
    1d64:	85 35       	cpi	r24, 0x55	; 85
    1d66:	93 45       	sbci	r25, 0x53	; 83
    1d68:	a2 44       	sbci	r26, 0x42	; 66
    1d6a:	b3 44       	sbci	r27, 0x43	; 67
    1d6c:	61 f4       	brne	.+24     	; 0x1d86 <MS_Device_USBTask+0x8a>
    1d6e:	f8 01       	movw	r30, r16
    1d70:	91 8d       	ldd	r25, Z+25	; 0x19
    1d72:	83 85       	ldd	r24, Z+11	; 0x0b
    1d74:	98 17       	cp	r25, r24
    1d76:	38 f4       	brcc	.+14     	; 0x1d86 <MS_Device_USBTask+0x8a>
    1d78:	80 8d       	ldd	r24, Z+24	; 0x18
    1d7a:	8f 71       	andi	r24, 0x1F	; 31
    1d7c:	21 f4       	brne	.+8      	; 0x1d86 <MS_Device_USBTask+0x8a>
    1d7e:	82 8d       	ldd	r24, Z+26	; 0x1a
    1d80:	81 50       	subi	r24, 0x01	; 1
    1d82:	80 31       	cpi	r24, 0x10	; 16
    1d84:	80 f0       	brcs	.+32     	; 0x1da6 <MS_Device_USBTask+0xaa>
    1d86:	80 91 eb 00 	lds	r24, 0x00EB	; 0x8000eb <__TEXT_REGION_LENGTH__+0x7e00eb>
    1d8a:	80 62       	ori	r24, 0x20	; 32
    1d8c:	80 93 eb 00 	sts	0x00EB, r24	; 0x8000eb <__TEXT_REGION_LENGTH__+0x7e00eb>
    1d90:	f8 01       	movw	r30, r16
    1d92:	81 81       	ldd	r24, Z+1	; 0x01
    1d94:	8f 70       	andi	r24, 0x0F	; 15
    1d96:	80 93 e9 00 	sts	0x00E9, r24	; 0x8000e9 <__TEXT_REGION_LENGTH__+0x7e00e9>
    1d9a:	80 91 eb 00 	lds	r24, 0x00EB	; 0x8000eb <__TEXT_REGION_LENGTH__+0x7e00eb>
    1d9e:	80 62       	ori	r24, 0x20	; 32
    1da0:	80 93 eb 00 	sts	0x00EB, r24	; 0x8000eb <__TEXT_REGION_LENGTH__+0x7e00eb>
    1da4:	80 c0       	rjmp	.+256    	; 0x1ea6 <MS_Device_USBTask+0x1aa>
    1da6:	1a 82       	std	Y+2, r1	; 0x02
    1da8:	19 82       	std	Y+1, r1	; 0x01
    1daa:	78 01       	movw	r14, r16
    1dac:	fb e1       	ldi	r31, 0x1B	; 27
    1dae:	ef 0e       	add	r14, r31
    1db0:	f1 1c       	adc	r15, r1
    1db2:	f8 01       	movw	r30, r16
    1db4:	62 8d       	ldd	r22, Z+26	; 0x1a
    1db6:	70 e0       	ldi	r23, 0x00	; 0
    1db8:	ae 01       	movw	r20, r28
    1dba:	4f 5f       	subi	r20, 0xFF	; 255
    1dbc:	5f 4f       	sbci	r21, 0xFF	; 255
    1dbe:	c7 01       	movw	r24, r14
    1dc0:	8a d1       	rcall	.+788    	; 0x20d6 <Endpoint_Read_Stream_LE>
    1dc2:	85 30       	cpi	r24, 0x05	; 5
    1dc4:	29 f4       	brne	.+10     	; 0x1dd0 <MS_Device_USBTask+0xd4>
    1dc6:	f8 01       	movw	r30, r16
    1dc8:	80 ad       	ldd	r24, Z+56	; 0x38
    1dca:	88 23       	and	r24, r24
    1dcc:	91 f3       	breq	.-28     	; 0x1db2 <MS_Device_USBTask+0xb6>
    1dce:	6b c0       	rjmp	.+214    	; 0x1ea6 <MS_Device_USBTask+0x1aa>
    1dd0:	80 91 e8 00 	lds	r24, 0x00E8	; 0x8000e8 <__TEXT_REGION_LENGTH__+0x7e00e8>
    1dd4:	8b 77       	andi	r24, 0x7B	; 123
    1dd6:	80 93 e8 00 	sts	0x00E8, r24	; 0x8000e8 <__TEXT_REGION_LENGTH__+0x7e00e8>
    1dda:	f8 01       	movw	r30, r16
    1ddc:	80 8d       	ldd	r24, Z+24	; 0x18
    1dde:	87 ff       	sbrs	r24, 7
    1de0:	04 c0       	rjmp	.+8      	; 0x1dea <MS_Device_USBTask+0xee>
    1de2:	81 81       	ldd	r24, Z+1	; 0x01
    1de4:	8f 70       	andi	r24, 0x0F	; 15
    1de6:	80 93 e9 00 	sts	0x00E9, r24	; 0x8000e9 <__TEXT_REGION_LENGTH__+0x7e00e9>
    1dea:	c8 01       	movw	r24, r16
    1dec:	0e 94 0d 06 	call	0xc1a	; 0xc1a <CALLBACK_MS_Device_SCSICommandReceived>
    1df0:	91 e0       	ldi	r25, 0x01	; 1
    1df2:	98 27       	eor	r25, r24
    1df4:	f8 01       	movw	r30, r16
    1df6:	97 ab       	std	Z+55, r25	; 0x37
    1df8:	45 e5       	ldi	r20, 0x55	; 85
    1dfa:	53 e5       	ldi	r21, 0x53	; 83
    1dfc:	62 e4       	ldi	r22, 0x42	; 66
    1dfe:	73 e5       	ldi	r23, 0x53	; 83
    1e00:	43 a7       	std	Z+43, r20	; 0x2b
    1e02:	54 a7       	std	Z+44, r21	; 0x2c
    1e04:	65 a7       	std	Z+45, r22	; 0x2d
    1e06:	76 a7       	std	Z+46, r23	; 0x2e
    1e08:	40 89       	ldd	r20, Z+16	; 0x10
    1e0a:	51 89       	ldd	r21, Z+17	; 0x11
    1e0c:	62 89       	ldd	r22, Z+18	; 0x12
    1e0e:	73 89       	ldd	r23, Z+19	; 0x13
    1e10:	47 a7       	std	Z+47, r20	; 0x2f
    1e12:	50 ab       	std	Z+48, r21	; 0x30
    1e14:	61 ab       	std	Z+49, r22	; 0x31
    1e16:	72 ab       	std	Z+50, r23	; 0x32
    1e18:	44 89       	ldd	r20, Z+20	; 0x14
    1e1a:	55 89       	ldd	r21, Z+21	; 0x15
    1e1c:	66 89       	ldd	r22, Z+22	; 0x16
    1e1e:	77 89       	ldd	r23, Z+23	; 0x17
    1e20:	43 ab       	std	Z+51, r20	; 0x33
    1e22:	54 ab       	std	Z+52, r21	; 0x34
    1e24:	65 ab       	std	Z+53, r22	; 0x35
    1e26:	76 ab       	std	Z+54, r23	; 0x36
    1e28:	81 11       	cpse	r24, r1
    1e2a:	09 c0       	rjmp	.+18     	; 0x1e3e <MS_Device_USBTask+0x142>
    1e2c:	45 2b       	or	r20, r21
    1e2e:	46 2b       	or	r20, r22
    1e30:	47 2b       	or	r20, r23
    1e32:	29 f0       	breq	.+10     	; 0x1e3e <MS_Device_USBTask+0x142>
    1e34:	80 91 eb 00 	lds	r24, 0x00EB	; 0x8000eb <__TEXT_REGION_LENGTH__+0x7e00eb>
    1e38:	80 62       	ori	r24, 0x20	; 32
    1e3a:	80 93 eb 00 	sts	0x00EB, r24	; 0x8000eb <__TEXT_REGION_LENGTH__+0x7e00eb>
    1e3e:	f8 01       	movw	r30, r16
    1e40:	86 81       	ldd	r24, Z+6	; 0x06
    1e42:	8f 70       	andi	r24, 0x0F	; 15
    1e44:	80 93 e9 00 	sts	0x00E9, r24	; 0x8000e9 <__TEXT_REGION_LENGTH__+0x7e00e9>
    1e48:	80 91 eb 00 	lds	r24, 0x00EB	; 0x8000eb <__TEXT_REGION_LENGTH__+0x7e00eb>
    1e4c:	f8 01       	movw	r30, r16
    1e4e:	85 ff       	sbrs	r24, 5
    1e50:	04 c0       	rjmp	.+8      	; 0x1e5a <MS_Device_USBTask+0x15e>
    1e52:	80 ad       	ldd	r24, Z+56	; 0x38
    1e54:	88 23       	and	r24, r24
    1e56:	c1 f3       	breq	.-16     	; 0x1e48 <MS_Device_USBTask+0x14c>
    1e58:	26 c0       	rjmp	.+76     	; 0x1ea6 <MS_Device_USBTask+0x1aa>
    1e5a:	81 81       	ldd	r24, Z+1	; 0x01
    1e5c:	8f 70       	andi	r24, 0x0F	; 15
    1e5e:	80 93 e9 00 	sts	0x00E9, r24	; 0x8000e9 <__TEXT_REGION_LENGTH__+0x7e00e9>
    1e62:	80 91 eb 00 	lds	r24, 0x00EB	; 0x8000eb <__TEXT_REGION_LENGTH__+0x7e00eb>
    1e66:	85 ff       	sbrs	r24, 5
    1e68:	05 c0       	rjmp	.+10     	; 0x1e74 <MS_Device_USBTask+0x178>
    1e6a:	f8 01       	movw	r30, r16
    1e6c:	80 ad       	ldd	r24, Z+56	; 0x38
    1e6e:	88 23       	and	r24, r24
    1e70:	c1 f3       	breq	.-16     	; 0x1e62 <MS_Device_USBTask+0x166>
    1e72:	19 c0       	rjmp	.+50     	; 0x1ea6 <MS_Device_USBTask+0x1aa>
    1e74:	1a 82       	std	Y+2, r1	; 0x02
    1e76:	19 82       	std	Y+1, r1	; 0x01
    1e78:	78 01       	movw	r14, r16
    1e7a:	fb e2       	ldi	r31, 0x2B	; 43
    1e7c:	ef 0e       	add	r14, r31
    1e7e:	f1 1c       	adc	r15, r1
    1e80:	ae 01       	movw	r20, r28
    1e82:	4f 5f       	subi	r20, 0xFF	; 255
    1e84:	5f 4f       	sbci	r21, 0xFF	; 255
    1e86:	6d e0       	ldi	r22, 0x0D	; 13
    1e88:	70 e0       	ldi	r23, 0x00	; 0
    1e8a:	c7 01       	movw	r24, r14
    1e8c:	8d d0       	rcall	.+282    	; 0x1fa8 <Endpoint_Write_Stream_LE>
    1e8e:	85 30       	cpi	r24, 0x05	; 5
    1e90:	29 f4       	brne	.+10     	; 0x1e9c <MS_Device_USBTask+0x1a0>
    1e92:	f8 01       	movw	r30, r16
    1e94:	80 ad       	ldd	r24, Z+56	; 0x38
    1e96:	88 23       	and	r24, r24
    1e98:	99 f3       	breq	.-26     	; 0x1e80 <MS_Device_USBTask+0x184>
    1e9a:	05 c0       	rjmp	.+10     	; 0x1ea6 <MS_Device_USBTask+0x1aa>
    1e9c:	80 91 e8 00 	lds	r24, 0x00E8	; 0x8000e8 <__TEXT_REGION_LENGTH__+0x7e00e8>
    1ea0:	8e 77       	andi	r24, 0x7E	; 126
    1ea2:	80 93 e8 00 	sts	0x00E8, r24	; 0x8000e8 <__TEXT_REGION_LENGTH__+0x7e00e8>
    1ea6:	f8 01       	movw	r30, r16
    1ea8:	80 ad       	ldd	r24, Z+56	; 0x38
    1eaa:	88 23       	and	r24, r24
    1eac:	a9 f1       	breq	.+106    	; 0x1f18 <MS_Device_USBTask+0x21c>
    1eae:	26 81       	ldd	r18, Z+6	; 0x06
    1eb0:	2f 70       	andi	r18, 0x0F	; 15
    1eb2:	81 e0       	ldi	r24, 0x01	; 1
    1eb4:	90 e0       	ldi	r25, 0x00	; 0
    1eb6:	ac 01       	movw	r20, r24
    1eb8:	02 c0       	rjmp	.+4      	; 0x1ebe <MS_Device_USBTask+0x1c2>
    1eba:	44 0f       	add	r20, r20
    1ebc:	55 1f       	adc	r21, r21
    1ebe:	2a 95       	dec	r18
    1ec0:	e2 f7       	brpl	.-8      	; 0x1eba <MS_Device_USBTask+0x1be>
    1ec2:	40 93 ea 00 	sts	0x00EA, r20	; 0x8000ea <__TEXT_REGION_LENGTH__+0x7e00ea>
    1ec6:	10 92 ea 00 	sts	0x00EA, r1	; 0x8000ea <__TEXT_REGION_LENGTH__+0x7e00ea>
    1eca:	21 81       	ldd	r18, Z+1	; 0x01
    1ecc:	2f 70       	andi	r18, 0x0F	; 15
    1ece:	01 c0       	rjmp	.+2      	; 0x1ed2 <MS_Device_USBTask+0x1d6>
    1ed0:	88 0f       	add	r24, r24
    1ed2:	2a 95       	dec	r18
    1ed4:	ea f7       	brpl	.-6      	; 0x1ed0 <MS_Device_USBTask+0x1d4>
    1ed6:	80 93 ea 00 	sts	0x00EA, r24	; 0x8000ea <__TEXT_REGION_LENGTH__+0x7e00ea>
    1eda:	10 92 ea 00 	sts	0x00EA, r1	; 0x8000ea <__TEXT_REGION_LENGTH__+0x7e00ea>
    1ede:	86 81       	ldd	r24, Z+6	; 0x06
    1ee0:	8f 70       	andi	r24, 0x0F	; 15
    1ee2:	80 93 e9 00 	sts	0x00E9, r24	; 0x8000e9 <__TEXT_REGION_LENGTH__+0x7e00e9>
    1ee6:	80 91 eb 00 	lds	r24, 0x00EB	; 0x8000eb <__TEXT_REGION_LENGTH__+0x7e00eb>
    1eea:	80 61       	ori	r24, 0x10	; 16
    1eec:	80 93 eb 00 	sts	0x00EB, r24	; 0x8000eb <__TEXT_REGION_LENGTH__+0x7e00eb>
    1ef0:	80 91 eb 00 	lds	r24, 0x00EB	; 0x8000eb <__TEXT_REGION_LENGTH__+0x7e00eb>
    1ef4:	88 60       	ori	r24, 0x08	; 8
    1ef6:	80 93 eb 00 	sts	0x00EB, r24	; 0x8000eb <__TEXT_REGION_LENGTH__+0x7e00eb>
    1efa:	81 81       	ldd	r24, Z+1	; 0x01
    1efc:	8f 70       	andi	r24, 0x0F	; 15
    1efe:	80 93 e9 00 	sts	0x00E9, r24	; 0x8000e9 <__TEXT_REGION_LENGTH__+0x7e00e9>
    1f02:	80 91 eb 00 	lds	r24, 0x00EB	; 0x8000eb <__TEXT_REGION_LENGTH__+0x7e00eb>
    1f06:	80 61       	ori	r24, 0x10	; 16
    1f08:	80 93 eb 00 	sts	0x00EB, r24	; 0x8000eb <__TEXT_REGION_LENGTH__+0x7e00eb>
    1f0c:	80 91 eb 00 	lds	r24, 0x00EB	; 0x8000eb <__TEXT_REGION_LENGTH__+0x7e00eb>
    1f10:	88 60       	ori	r24, 0x08	; 8
    1f12:	80 93 eb 00 	sts	0x00EB, r24	; 0x8000eb <__TEXT_REGION_LENGTH__+0x7e00eb>
    1f16:	10 ae       	std	Z+56, r1	; 0x38
    1f18:	0f 90       	pop	r0
    1f1a:	0f 90       	pop	r0
    1f1c:	df 91       	pop	r29
    1f1e:	cf 91       	pop	r28
    1f20:	1f 91       	pop	r17
    1f22:	0f 91       	pop	r16
    1f24:	ff 90       	pop	r15
    1f26:	ef 90       	pop	r14
    1f28:	08 95       	ret

00001f2a <Endpoint_Null_Stream>:
    1f2a:	ef 92       	push	r14
    1f2c:	ff 92       	push	r15
    1f2e:	0f 93       	push	r16
    1f30:	1f 93       	push	r17
    1f32:	cf 93       	push	r28
    1f34:	df 93       	push	r29
    1f36:	ec 01       	movw	r28, r24
    1f38:	8b 01       	movw	r16, r22
    1f3a:	41 d2       	rcall	.+1154   	; 0x23be <Endpoint_WaitUntilReady>
    1f3c:	81 11       	cpse	r24, r1
    1f3e:	2d c0       	rjmp	.+90     	; 0x1f9a <Endpoint_Null_Stream+0x70>
    1f40:	01 15       	cp	r16, r1
    1f42:	11 05       	cpc	r17, r1
    1f44:	29 f0       	breq	.+10     	; 0x1f50 <Endpoint_Null_Stream+0x26>
    1f46:	f8 01       	movw	r30, r16
    1f48:	80 81       	ld	r24, Z
    1f4a:	91 81       	ldd	r25, Z+1	; 0x01
    1f4c:	c8 1b       	sub	r28, r24
    1f4e:	d9 0b       	sbc	r29, r25
    1f50:	e1 2c       	mov	r14, r1
    1f52:	f1 2c       	mov	r15, r1
    1f54:	20 97       	sbiw	r28, 0x00	; 0
    1f56:	01 f1       	breq	.+64     	; 0x1f98 <Endpoint_Null_Stream+0x6e>
    1f58:	80 91 e8 00 	lds	r24, 0x00E8	; 0x8000e8 <__TEXT_REGION_LENGTH__+0x7e00e8>
    1f5c:	85 fd       	sbrc	r24, 5
    1f5e:	15 c0       	rjmp	.+42     	; 0x1f8a <Endpoint_Null_Stream+0x60>
    1f60:	80 91 e8 00 	lds	r24, 0x00E8	; 0x8000e8 <__TEXT_REGION_LENGTH__+0x7e00e8>
    1f64:	8e 77       	andi	r24, 0x7E	; 126
    1f66:	80 93 e8 00 	sts	0x00E8, r24	; 0x8000e8 <__TEXT_REGION_LENGTH__+0x7e00e8>
    1f6a:	01 15       	cp	r16, r1
    1f6c:	11 05       	cpc	r17, r1
    1f6e:	49 f0       	breq	.+18     	; 0x1f82 <Endpoint_Null_Stream+0x58>
    1f70:	f8 01       	movw	r30, r16
    1f72:	80 81       	ld	r24, Z
    1f74:	91 81       	ldd	r25, Z+1	; 0x01
    1f76:	e8 0e       	add	r14, r24
    1f78:	f9 1e       	adc	r15, r25
    1f7a:	f1 82       	std	Z+1, r15	; 0x01
    1f7c:	e0 82       	st	Z, r14
    1f7e:	85 e0       	ldi	r24, 0x05	; 5
    1f80:	0c c0       	rjmp	.+24     	; 0x1f9a <Endpoint_Null_Stream+0x70>
    1f82:	1d d2       	rcall	.+1082   	; 0x23be <Endpoint_WaitUntilReady>
    1f84:	88 23       	and	r24, r24
    1f86:	31 f3       	breq	.-52     	; 0x1f54 <Endpoint_Null_Stream+0x2a>
    1f88:	08 c0       	rjmp	.+16     	; 0x1f9a <Endpoint_Null_Stream+0x70>
    1f8a:	10 92 f1 00 	sts	0x00F1, r1	; 0x8000f1 <__TEXT_REGION_LENGTH__+0x7e00f1>
    1f8e:	21 97       	sbiw	r28, 0x01	; 1
    1f90:	ff ef       	ldi	r31, 0xFF	; 255
    1f92:	ef 1a       	sub	r14, r31
    1f94:	ff 0a       	sbc	r15, r31
    1f96:	de cf       	rjmp	.-68     	; 0x1f54 <Endpoint_Null_Stream+0x2a>
    1f98:	80 e0       	ldi	r24, 0x00	; 0
    1f9a:	df 91       	pop	r29
    1f9c:	cf 91       	pop	r28
    1f9e:	1f 91       	pop	r17
    1fa0:	0f 91       	pop	r16
    1fa2:	ff 90       	pop	r15
    1fa4:	ef 90       	pop	r14
    1fa6:	08 95       	ret

00001fa8 <Endpoint_Write_Stream_LE>:
    1fa8:	cf 92       	push	r12
    1faa:	df 92       	push	r13
    1fac:	ef 92       	push	r14
    1fae:	ff 92       	push	r15
    1fb0:	0f 93       	push	r16
    1fb2:	1f 93       	push	r17
    1fb4:	cf 93       	push	r28
    1fb6:	df 93       	push	r29
    1fb8:	ec 01       	movw	r28, r24
    1fba:	8b 01       	movw	r16, r22
    1fbc:	7a 01       	movw	r14, r20
    1fbe:	ff d1       	rcall	.+1022   	; 0x23be <Endpoint_WaitUntilReady>
    1fc0:	81 11       	cpse	r24, r1
    1fc2:	32 c0       	rjmp	.+100    	; 0x2028 <Endpoint_Write_Stream_LE+0x80>
    1fc4:	e1 14       	cp	r14, r1
    1fc6:	f1 04       	cpc	r15, r1
    1fc8:	39 f0       	breq	.+14     	; 0x1fd8 <Endpoint_Write_Stream_LE+0x30>
    1fca:	f7 01       	movw	r30, r14
    1fcc:	80 81       	ld	r24, Z
    1fce:	91 81       	ldd	r25, Z+1	; 0x01
    1fd0:	08 1b       	sub	r16, r24
    1fd2:	19 0b       	sbc	r17, r25
    1fd4:	c8 0f       	add	r28, r24
    1fd6:	d9 1f       	adc	r29, r25
    1fd8:	c1 2c       	mov	r12, r1
    1fda:	d1 2c       	mov	r13, r1
    1fdc:	01 15       	cp	r16, r1
    1fde:	11 05       	cpc	r17, r1
    1fe0:	11 f1       	breq	.+68     	; 0x2026 <Endpoint_Write_Stream_LE+0x7e>
    1fe2:	80 91 e8 00 	lds	r24, 0x00E8	; 0x8000e8 <__TEXT_REGION_LENGTH__+0x7e00e8>
    1fe6:	85 fd       	sbrc	r24, 5
    1fe8:	15 c0       	rjmp	.+42     	; 0x2014 <Endpoint_Write_Stream_LE+0x6c>
    1fea:	80 91 e8 00 	lds	r24, 0x00E8	; 0x8000e8 <__TEXT_REGION_LENGTH__+0x7e00e8>
    1fee:	8e 77       	andi	r24, 0x7E	; 126
    1ff0:	80 93 e8 00 	sts	0x00E8, r24	; 0x8000e8 <__TEXT_REGION_LENGTH__+0x7e00e8>
    1ff4:	e1 14       	cp	r14, r1
    1ff6:	f1 04       	cpc	r15, r1
    1ff8:	49 f0       	breq	.+18     	; 0x200c <Endpoint_Write_Stream_LE+0x64>
    1ffa:	f7 01       	movw	r30, r14
    1ffc:	80 81       	ld	r24, Z
    1ffe:	91 81       	ldd	r25, Z+1	; 0x01
    2000:	c8 0e       	add	r12, r24
    2002:	d9 1e       	adc	r13, r25
    2004:	d1 82       	std	Z+1, r13	; 0x01
    2006:	c0 82       	st	Z, r12
    2008:	85 e0       	ldi	r24, 0x05	; 5
    200a:	0e c0       	rjmp	.+28     	; 0x2028 <Endpoint_Write_Stream_LE+0x80>
    200c:	d8 d1       	rcall	.+944    	; 0x23be <Endpoint_WaitUntilReady>
    200e:	88 23       	and	r24, r24
    2010:	29 f3       	breq	.-54     	; 0x1fdc <Endpoint_Write_Stream_LE+0x34>
    2012:	0a c0       	rjmp	.+20     	; 0x2028 <Endpoint_Write_Stream_LE+0x80>
    2014:	89 91       	ld	r24, Y+
    2016:	80 93 f1 00 	sts	0x00F1, r24	; 0x8000f1 <__TEXT_REGION_LENGTH__+0x7e00f1>
    201a:	01 50       	subi	r16, 0x01	; 1
    201c:	11 09       	sbc	r17, r1
    201e:	ff ef       	ldi	r31, 0xFF	; 255
    2020:	cf 1a       	sub	r12, r31
    2022:	df 0a       	sbc	r13, r31
    2024:	db cf       	rjmp	.-74     	; 0x1fdc <Endpoint_Write_Stream_LE+0x34>
    2026:	80 e0       	ldi	r24, 0x00	; 0
    2028:	df 91       	pop	r29
    202a:	cf 91       	pop	r28
    202c:	1f 91       	pop	r17
    202e:	0f 91       	pop	r16
    2030:	ff 90       	pop	r15
    2032:	ef 90       	pop	r14
    2034:	df 90       	pop	r13
    2036:	cf 90       	pop	r12
    2038:	08 95       	ret

0000203a <Endpoint_Write_Stream_BE>:
    203a:	cf 92       	push	r12
    203c:	df 92       	push	r13
    203e:	ef 92       	push	r14
    2040:	ff 92       	push	r15
    2042:	0f 93       	push	r16
    2044:	1f 93       	push	r17
    2046:	cf 93       	push	r28
    2048:	df 93       	push	r29
    204a:	ec 01       	movw	r28, r24
    204c:	8b 01       	movw	r16, r22
    204e:	7a 01       	movw	r14, r20
    2050:	b6 d1       	rcall	.+876    	; 0x23be <Endpoint_WaitUntilReady>
    2052:	81 11       	cpse	r24, r1
    2054:	37 c0       	rjmp	.+110    	; 0x20c4 <Endpoint_Write_Stream_BE+0x8a>
    2056:	c8 01       	movw	r24, r16
    2058:	01 97       	sbiw	r24, 0x01	; 1
    205a:	c8 0f       	add	r28, r24
    205c:	d9 1f       	adc	r29, r25
    205e:	e1 14       	cp	r14, r1
    2060:	f1 04       	cpc	r15, r1
    2062:	39 f0       	breq	.+14     	; 0x2072 <Endpoint_Write_Stream_BE+0x38>
    2064:	f7 01       	movw	r30, r14
    2066:	80 81       	ld	r24, Z
    2068:	91 81       	ldd	r25, Z+1	; 0x01
    206a:	08 1b       	sub	r16, r24
    206c:	19 0b       	sbc	r17, r25
    206e:	c8 1b       	sub	r28, r24
    2070:	d9 0b       	sbc	r29, r25
    2072:	c1 2c       	mov	r12, r1
    2074:	d1 2c       	mov	r13, r1
    2076:	01 15       	cp	r16, r1
    2078:	11 05       	cpc	r17, r1
    207a:	19 f1       	breq	.+70     	; 0x20c2 <Endpoint_Write_Stream_BE+0x88>
    207c:	80 91 e8 00 	lds	r24, 0x00E8	; 0x8000e8 <__TEXT_REGION_LENGTH__+0x7e00e8>
    2080:	85 fd       	sbrc	r24, 5
    2082:	15 c0       	rjmp	.+42     	; 0x20ae <Endpoint_Write_Stream_BE+0x74>
    2084:	80 91 e8 00 	lds	r24, 0x00E8	; 0x8000e8 <__TEXT_REGION_LENGTH__+0x7e00e8>
    2088:	8e 77       	andi	r24, 0x7E	; 126
    208a:	80 93 e8 00 	sts	0x00E8, r24	; 0x8000e8 <__TEXT_REGION_LENGTH__+0x7e00e8>
    208e:	e1 14       	cp	r14, r1
    2090:	f1 04       	cpc	r15, r1
    2092:	49 f0       	breq	.+18     	; 0x20a6 <Endpoint_Write_Stream_BE+0x6c>
    2094:	f7 01       	movw	r30, r14
    2096:	80 81       	ld	r24, Z
    2098:	91 81       	ldd	r25, Z+1	; 0x01
    209a:	c8 0e       	add	r12, r24
    209c:	d9 1e       	adc	r13, r25
    209e:	d1 82       	std	Z+1, r13	; 0x01
    20a0:	c0 82       	st	Z, r12
    20a2:	85 e0       	ldi	r24, 0x05	; 5
    20a4:	0f c0       	rjmp	.+30     	; 0x20c4 <Endpoint_Write_Stream_BE+0x8a>
    20a6:	8b d1       	rcall	.+790    	; 0x23be <Endpoint_WaitUntilReady>
    20a8:	88 23       	and	r24, r24
    20aa:	29 f3       	breq	.-54     	; 0x2076 <Endpoint_Write_Stream_BE+0x3c>
    20ac:	0b c0       	rjmp	.+22     	; 0x20c4 <Endpoint_Write_Stream_BE+0x8a>
    20ae:	88 81       	ld	r24, Y
    20b0:	80 93 f1 00 	sts	0x00F1, r24	; 0x8000f1 <__TEXT_REGION_LENGTH__+0x7e00f1>
    20b4:	21 97       	sbiw	r28, 0x01	; 1
    20b6:	01 50       	subi	r16, 0x01	; 1
    20b8:	11 09       	sbc	r17, r1
    20ba:	ff ef       	ldi	r31, 0xFF	; 255
    20bc:	cf 1a       	sub	r12, r31
    20be:	df 0a       	sbc	r13, r31
    20c0:	da cf       	rjmp	.-76     	; 0x2076 <Endpoint_Write_Stream_BE+0x3c>
    20c2:	80 e0       	ldi	r24, 0x00	; 0
    20c4:	df 91       	pop	r29
    20c6:	cf 91       	pop	r28
    20c8:	1f 91       	pop	r17
    20ca:	0f 91       	pop	r16
    20cc:	ff 90       	pop	r15
    20ce:	ef 90       	pop	r14
    20d0:	df 90       	pop	r13
    20d2:	cf 90       	pop	r12
    20d4:	08 95       	ret

000020d6 <Endpoint_Read_Stream_LE>:
    20d6:	cf 92       	push	r12
    20d8:	df 92       	push	r13
    20da:	ef 92       	push	r14
    20dc:	ff 92       	push	r15
    20de:	0f 93       	push	r16
    20e0:	1f 93       	push	r17
    20e2:	cf 93       	push	r28
    20e4:	df 93       	push	r29
    20e6:	ec 01       	movw	r28, r24
    20e8:	8b 01       	movw	r16, r22
    20ea:	7a 01       	movw	r14, r20
    20ec:	68 d1       	rcall	.+720    	; 0x23be <Endpoint_WaitUntilReady>
    20ee:	81 11       	cpse	r24, r1
    20f0:	32 c0       	rjmp	.+100    	; 0x2156 <__stack+0x57>
    20f2:	e1 14       	cp	r14, r1
    20f4:	f1 04       	cpc	r15, r1
    20f6:	39 f0       	breq	.+14     	; 0x2106 <__stack+0x7>
    20f8:	f7 01       	movw	r30, r14
    20fa:	80 81       	ld	r24, Z
    20fc:	91 81       	ldd	r25, Z+1	; 0x01
    20fe:	08 1b       	sub	r16, r24
    2100:	19 0b       	sbc	r17, r25
    2102:	c8 0f       	add	r28, r24
    2104:	d9 1f       	adc	r29, r25
    2106:	c1 2c       	mov	r12, r1
    2108:	d1 2c       	mov	r13, r1
    210a:	01 15       	cp	r16, r1
    210c:	11 05       	cpc	r17, r1
    210e:	11 f1       	breq	.+68     	; 0x2154 <__stack+0x55>
    2110:	80 91 e8 00 	lds	r24, 0x00E8	; 0x8000e8 <__TEXT_REGION_LENGTH__+0x7e00e8>
    2114:	85 fd       	sbrc	r24, 5
    2116:	15 c0       	rjmp	.+42     	; 0x2142 <__stack+0x43>
    2118:	80 91 e8 00 	lds	r24, 0x00E8	; 0x8000e8 <__TEXT_REGION_LENGTH__+0x7e00e8>
    211c:	8b 77       	andi	r24, 0x7B	; 123
    211e:	80 93 e8 00 	sts	0x00E8, r24	; 0x8000e8 <__TEXT_REGION_LENGTH__+0x7e00e8>
    2122:	e1 14       	cp	r14, r1
    2124:	f1 04       	cpc	r15, r1
    2126:	49 f0       	breq	.+18     	; 0x213a <__stack+0x3b>
    2128:	f7 01       	movw	r30, r14
    212a:	80 81       	ld	r24, Z
    212c:	91 81       	ldd	r25, Z+1	; 0x01
    212e:	c8 0e       	add	r12, r24
    2130:	d9 1e       	adc	r13, r25
    2132:	d1 82       	std	Z+1, r13	; 0x01
    2134:	c0 82       	st	Z, r12
    2136:	85 e0       	ldi	r24, 0x05	; 5
    2138:	0e c0       	rjmp	.+28     	; 0x2156 <__stack+0x57>
    213a:	41 d1       	rcall	.+642    	; 0x23be <Endpoint_WaitUntilReady>
    213c:	88 23       	and	r24, r24
    213e:	29 f3       	breq	.-54     	; 0x210a <__stack+0xb>
    2140:	0a c0       	rjmp	.+20     	; 0x2156 <__stack+0x57>
    2142:	80 91 f1 00 	lds	r24, 0x00F1	; 0x8000f1 <__TEXT_REGION_LENGTH__+0x7e00f1>
    2146:	89 93       	st	Y+, r24
    2148:	01 50       	subi	r16, 0x01	; 1
    214a:	11 09       	sbc	r17, r1
    214c:	ff ef       	ldi	r31, 0xFF	; 255
    214e:	cf 1a       	sub	r12, r31
    2150:	df 0a       	sbc	r13, r31
    2152:	db cf       	rjmp	.-74     	; 0x210a <__stack+0xb>
    2154:	80 e0       	ldi	r24, 0x00	; 0
    2156:	df 91       	pop	r29
    2158:	cf 91       	pop	r28
    215a:	1f 91       	pop	r17
    215c:	0f 91       	pop	r16
    215e:	ff 90       	pop	r15
    2160:	ef 90       	pop	r14
    2162:	df 90       	pop	r13
    2164:	cf 90       	pop	r12
    2166:	08 95       	ret

00002168 <Endpoint_Write_Control_Stream_LE>:
    2168:	20 91 71 09 	lds	r18, 0x0971	; 0x800971 <USB_ControlRequest+0x6>
    216c:	30 91 72 09 	lds	r19, 0x0972	; 0x800972 <USB_ControlRequest+0x7>
    2170:	26 17       	cp	r18, r22
    2172:	37 07       	cpc	r19, r23
    2174:	48 f0       	brcs	.+18     	; 0x2188 <Endpoint_Write_Control_Stream_LE+0x20>
    2176:	61 15       	cp	r22, r1
    2178:	71 05       	cpc	r23, r1
    217a:	39 f4       	brne	.+14     	; 0x218a <Endpoint_Write_Control_Stream_LE+0x22>
    217c:	20 91 e8 00 	lds	r18, 0x00E8	; 0x8000e8 <__TEXT_REGION_LENGTH__+0x7e00e8>
    2180:	2e 77       	andi	r18, 0x7E	; 126
    2182:	20 93 e8 00 	sts	0x00E8, r18	; 0x8000e8 <__TEXT_REGION_LENGTH__+0x7e00e8>
    2186:	01 c0       	rjmp	.+2      	; 0x218a <Endpoint_Write_Control_Stream_LE+0x22>
    2188:	b9 01       	movw	r22, r18
    218a:	fc 01       	movw	r30, r24
    218c:	20 e0       	ldi	r18, 0x00	; 0
    218e:	61 15       	cp	r22, r1
    2190:	71 05       	cpc	r23, r1
    2192:	69 f1       	breq	.+90     	; 0x21ee <Endpoint_Write_Control_Stream_LE+0x86>
    2194:	80 91 6a 09 	lds	r24, 0x096A	; 0x80096a <USB_DeviceState>
    2198:	88 23       	and	r24, r24
    219a:	e1 f1       	breq	.+120    	; 0x2214 <Endpoint_Write_Control_Stream_LE+0xac>
    219c:	85 30       	cpi	r24, 0x05	; 5
    219e:	e1 f1       	breq	.+120    	; 0x2218 <Endpoint_Write_Control_Stream_LE+0xb0>
    21a0:	80 91 e8 00 	lds	r24, 0x00E8	; 0x8000e8 <__TEXT_REGION_LENGTH__+0x7e00e8>
    21a4:	83 fd       	sbrc	r24, 3
    21a6:	3a c0       	rjmp	.+116    	; 0x221c <Endpoint_Write_Control_Stream_LE+0xb4>
    21a8:	80 91 e8 00 	lds	r24, 0x00E8	; 0x8000e8 <__TEXT_REGION_LENGTH__+0x7e00e8>
    21ac:	82 fd       	sbrc	r24, 2
    21ae:	2c c0       	rjmp	.+88     	; 0x2208 <Endpoint_Write_Control_Stream_LE+0xa0>
    21b0:	80 91 e8 00 	lds	r24, 0x00E8	; 0x8000e8 <__TEXT_REGION_LENGTH__+0x7e00e8>
    21b4:	80 ff       	sbrs	r24, 0
    21b6:	eb cf       	rjmp	.-42     	; 0x218e <Endpoint_Write_Control_Stream_LE+0x26>
    21b8:	80 91 f2 00 	lds	r24, 0x00F2	; 0x8000f2 <__TEXT_REGION_LENGTH__+0x7e00f2>
    21bc:	90 91 f3 00 	lds	r25, 0x00F3	; 0x8000f3 <__TEXT_REGION_LENGTH__+0x7e00f3>
    21c0:	61 15       	cp	r22, r1
    21c2:	71 05       	cpc	r23, r1
    21c4:	51 f0       	breq	.+20     	; 0x21da <Endpoint_Write_Control_Stream_LE+0x72>
    21c6:	88 30       	cpi	r24, 0x08	; 8
    21c8:	91 05       	cpc	r25, r1
    21ca:	38 f4       	brcc	.+14     	; 0x21da <Endpoint_Write_Control_Stream_LE+0x72>
    21cc:	21 91       	ld	r18, Z+
    21ce:	20 93 f1 00 	sts	0x00F1, r18	; 0x8000f1 <__TEXT_REGION_LENGTH__+0x7e00f1>
    21d2:	61 50       	subi	r22, 0x01	; 1
    21d4:	71 09       	sbc	r23, r1
    21d6:	01 96       	adiw	r24, 0x01	; 1
    21d8:	f3 cf       	rjmp	.-26     	; 0x21c0 <Endpoint_Write_Control_Stream_LE+0x58>
    21da:	21 e0       	ldi	r18, 0x01	; 1
    21dc:	08 97       	sbiw	r24, 0x08	; 8
    21de:	09 f0       	breq	.+2      	; 0x21e2 <Endpoint_Write_Control_Stream_LE+0x7a>
    21e0:	20 e0       	ldi	r18, 0x00	; 0
    21e2:	80 91 e8 00 	lds	r24, 0x00E8	; 0x8000e8 <__TEXT_REGION_LENGTH__+0x7e00e8>
    21e6:	8e 77       	andi	r24, 0x7E	; 126
    21e8:	80 93 e8 00 	sts	0x00E8, r24	; 0x8000e8 <__TEXT_REGION_LENGTH__+0x7e00e8>
    21ec:	d0 cf       	rjmp	.-96     	; 0x218e <Endpoint_Write_Control_Stream_LE+0x26>
    21ee:	21 11       	cpse	r18, r1
    21f0:	d1 cf       	rjmp	.-94     	; 0x2194 <Endpoint_Write_Control_Stream_LE+0x2c>
    21f2:	0a c0       	rjmp	.+20     	; 0x2208 <Endpoint_Write_Control_Stream_LE+0xa0>
    21f4:	80 91 6a 09 	lds	r24, 0x096A	; 0x80096a <USB_DeviceState>
    21f8:	88 23       	and	r24, r24
    21fa:	61 f0       	breq	.+24     	; 0x2214 <Endpoint_Write_Control_Stream_LE+0xac>
    21fc:	85 30       	cpi	r24, 0x05	; 5
    21fe:	61 f0       	breq	.+24     	; 0x2218 <Endpoint_Write_Control_Stream_LE+0xb0>
    2200:	80 91 e8 00 	lds	r24, 0x00E8	; 0x8000e8 <__TEXT_REGION_LENGTH__+0x7e00e8>
    2204:	83 fd       	sbrc	r24, 3
    2206:	0a c0       	rjmp	.+20     	; 0x221c <Endpoint_Write_Control_Stream_LE+0xb4>
    2208:	80 91 e8 00 	lds	r24, 0x00E8	; 0x8000e8 <__TEXT_REGION_LENGTH__+0x7e00e8>
    220c:	82 ff       	sbrs	r24, 2
    220e:	f2 cf       	rjmp	.-28     	; 0x21f4 <Endpoint_Write_Control_Stream_LE+0x8c>
    2210:	80 e0       	ldi	r24, 0x00	; 0
    2212:	08 95       	ret
    2214:	82 e0       	ldi	r24, 0x02	; 2
    2216:	08 95       	ret
    2218:	83 e0       	ldi	r24, 0x03	; 3
    221a:	08 95       	ret
    221c:	81 e0       	ldi	r24, 0x01	; 1
    221e:	08 95       	ret

00002220 <Endpoint_Read_Control_Stream_LE>:
    2220:	61 15       	cp	r22, r1
    2222:	71 05       	cpc	r23, r1
    2224:	29 f4       	brne	.+10     	; 0x2230 <Endpoint_Read_Control_Stream_LE+0x10>
    2226:	20 91 e8 00 	lds	r18, 0x00E8	; 0x8000e8 <__TEXT_REGION_LENGTH__+0x7e00e8>
    222a:	2b 77       	andi	r18, 0x7B	; 123
    222c:	20 93 e8 00 	sts	0x00E8, r18	; 0x8000e8 <__TEXT_REGION_LENGTH__+0x7e00e8>
    2230:	fc 01       	movw	r30, r24
    2232:	61 15       	cp	r22, r1
    2234:	71 05       	cpc	r23, r1
    2236:	31 f1       	breq	.+76     	; 0x2284 <Endpoint_Read_Control_Stream_LE+0x64>
    2238:	80 91 6a 09 	lds	r24, 0x096A	; 0x80096a <USB_DeviceState>
    223c:	88 23       	and	r24, r24
    223e:	51 f1       	breq	.+84     	; 0x2294 <Endpoint_Read_Control_Stream_LE+0x74>
    2240:	85 30       	cpi	r24, 0x05	; 5
    2242:	51 f1       	breq	.+84     	; 0x2298 <Endpoint_Read_Control_Stream_LE+0x78>
    2244:	80 91 e8 00 	lds	r24, 0x00E8	; 0x8000e8 <__TEXT_REGION_LENGTH__+0x7e00e8>
    2248:	83 fd       	sbrc	r24, 3
    224a:	22 c0       	rjmp	.+68     	; 0x2290 <Endpoint_Read_Control_Stream_LE+0x70>
    224c:	80 91 e8 00 	lds	r24, 0x00E8	; 0x8000e8 <__TEXT_REGION_LENGTH__+0x7e00e8>
    2250:	82 ff       	sbrs	r24, 2
    2252:	ef cf       	rjmp	.-34     	; 0x2232 <Endpoint_Read_Control_Stream_LE+0x12>
    2254:	80 91 f2 00 	lds	r24, 0x00F2	; 0x8000f2 <__TEXT_REGION_LENGTH__+0x7e00f2>
    2258:	90 91 f3 00 	lds	r25, 0x00F3	; 0x8000f3 <__TEXT_REGION_LENGTH__+0x7e00f3>
    225c:	89 2b       	or	r24, r25
    225e:	31 f0       	breq	.+12     	; 0x226c <Endpoint_Read_Control_Stream_LE+0x4c>
    2260:	80 91 f1 00 	lds	r24, 0x00F1	; 0x8000f1 <__TEXT_REGION_LENGTH__+0x7e00f1>
    2264:	81 93       	st	Z+, r24
    2266:	61 50       	subi	r22, 0x01	; 1
    2268:	71 09       	sbc	r23, r1
    226a:	a1 f7       	brne	.-24     	; 0x2254 <Endpoint_Read_Control_Stream_LE+0x34>
    226c:	80 91 e8 00 	lds	r24, 0x00E8	; 0x8000e8 <__TEXT_REGION_LENGTH__+0x7e00e8>
    2270:	8b 77       	andi	r24, 0x7B	; 123
    2272:	80 93 e8 00 	sts	0x00E8, r24	; 0x8000e8 <__TEXT_REGION_LENGTH__+0x7e00e8>
    2276:	dd cf       	rjmp	.-70     	; 0x2232 <Endpoint_Read_Control_Stream_LE+0x12>
    2278:	80 91 6a 09 	lds	r24, 0x096A	; 0x80096a <USB_DeviceState>
    227c:	88 23       	and	r24, r24
    227e:	51 f0       	breq	.+20     	; 0x2294 <Endpoint_Read_Control_Stream_LE+0x74>
    2280:	85 30       	cpi	r24, 0x05	; 5
    2282:	51 f0       	breq	.+20     	; 0x2298 <Endpoint_Read_Control_Stream_LE+0x78>
    2284:	80 91 e8 00 	lds	r24, 0x00E8	; 0x8000e8 <__TEXT_REGION_LENGTH__+0x7e00e8>
    2288:	80 ff       	sbrs	r24, 0
    228a:	f6 cf       	rjmp	.-20     	; 0x2278 <Endpoint_Read_Control_Stream_LE+0x58>
    228c:	80 e0       	ldi	r24, 0x00	; 0
    228e:	08 95       	ret
    2290:	81 e0       	ldi	r24, 0x01	; 1
    2292:	08 95       	ret
    2294:	82 e0       	ldi	r24, 0x02	; 2
    2296:	08 95       	ret
    2298:	83 e0       	ldi	r24, 0x03	; 3
    229a:	08 95       	ret

0000229c <Endpoint_ConfigureEndpoint_Prv>:
    229c:	98 2f       	mov	r25, r24
    229e:	97 30       	cpi	r25, 0x07	; 7
    22a0:	68 f5       	brcc	.+90     	; 0x22fc <Endpoint_ConfigureEndpoint_Prv+0x60>
    22a2:	90 93 e9 00 	sts	0x00E9, r25	; 0x8000e9 <__TEXT_REGION_LENGTH__+0x7e00e9>
    22a6:	98 17       	cp	r25, r24
    22a8:	39 f0       	breq	.+14     	; 0x22b8 <Endpoint_ConfigureEndpoint_Prv+0x1c>
    22aa:	70 91 ec 00 	lds	r23, 0x00EC	; 0x8000ec <__TEXT_REGION_LENGTH__+0x7e00ec>
    22ae:	20 91 ed 00 	lds	r18, 0x00ED	; 0x8000ed <__TEXT_REGION_LENGTH__+0x7e00ed>
    22b2:	50 91 f0 00 	lds	r21, 0x00F0	; 0x8000f0 <__TEXT_REGION_LENGTH__+0x7e00f0>
    22b6:	03 c0       	rjmp	.+6      	; 0x22be <Endpoint_ConfigureEndpoint_Prv+0x22>
    22b8:	24 2f       	mov	r18, r20
    22ba:	76 2f       	mov	r23, r22
    22bc:	50 e0       	ldi	r21, 0x00	; 0
    22be:	21 fd       	sbrc	r18, 1
    22c0:	02 c0       	rjmp	.+4      	; 0x22c6 <Endpoint_ConfigureEndpoint_Prv+0x2a>
    22c2:	9f 5f       	subi	r25, 0xFF	; 255
    22c4:	ec cf       	rjmp	.-40     	; 0x229e <Endpoint_ConfigureEndpoint_Prv+0x2>
    22c6:	30 91 eb 00 	lds	r19, 0x00EB	; 0x8000eb <__TEXT_REGION_LENGTH__+0x7e00eb>
    22ca:	3e 7f       	andi	r19, 0xFE	; 254
    22cc:	30 93 eb 00 	sts	0x00EB, r19	; 0x8000eb <__TEXT_REGION_LENGTH__+0x7e00eb>
    22d0:	30 91 ed 00 	lds	r19, 0x00ED	; 0x8000ed <__TEXT_REGION_LENGTH__+0x7e00ed>
    22d4:	3d 7f       	andi	r19, 0xFD	; 253
    22d6:	30 93 ed 00 	sts	0x00ED, r19	; 0x8000ed <__TEXT_REGION_LENGTH__+0x7e00ed>
    22da:	30 91 eb 00 	lds	r19, 0x00EB	; 0x8000eb <__TEXT_REGION_LENGTH__+0x7e00eb>
    22de:	31 60       	ori	r19, 0x01	; 1
    22e0:	30 93 eb 00 	sts	0x00EB, r19	; 0x8000eb <__TEXT_REGION_LENGTH__+0x7e00eb>
    22e4:	70 93 ec 00 	sts	0x00EC, r23	; 0x8000ec <__TEXT_REGION_LENGTH__+0x7e00ec>
    22e8:	20 93 ed 00 	sts	0x00ED, r18	; 0x8000ed <__TEXT_REGION_LENGTH__+0x7e00ed>
    22ec:	50 93 f0 00 	sts	0x00F0, r21	; 0x8000f0 <__TEXT_REGION_LENGTH__+0x7e00f0>
    22f0:	20 91 ee 00 	lds	r18, 0x00EE	; 0x8000ee <__TEXT_REGION_LENGTH__+0x7e00ee>
    22f4:	27 fd       	sbrc	r18, 7
    22f6:	e5 cf       	rjmp	.-54     	; 0x22c2 <Endpoint_ConfigureEndpoint_Prv+0x26>
    22f8:	80 e0       	ldi	r24, 0x00	; 0
    22fa:	08 95       	ret
    22fc:	8f 70       	andi	r24, 0x0F	; 15
    22fe:	80 93 e9 00 	sts	0x00E9, r24	; 0x8000e9 <__TEXT_REGION_LENGTH__+0x7e00e9>
    2302:	81 e0       	ldi	r24, 0x01	; 1
    2304:	08 95       	ret

00002306 <Endpoint_ConfigureEndpointTable>:
    2306:	0f 93       	push	r16
    2308:	1f 93       	push	r17
    230a:	cf 93       	push	r28
    230c:	df 93       	push	r29
    230e:	06 2f       	mov	r16, r22
    2310:	ec 01       	movw	r28, r24
    2312:	10 e0       	ldi	r17, 0x00	; 0
    2314:	10 17       	cp	r17, r16
    2316:	71 f1       	breq	.+92     	; 0x2374 <Endpoint_ConfigureEndpointTable+0x6e>
    2318:	68 81       	ld	r22, Y
    231a:	61 11       	cpse	r22, r1
    231c:	03 c0       	rjmp	.+6      	; 0x2324 <Endpoint_ConfigureEndpointTable+0x1e>
    231e:	1f 5f       	subi	r17, 0xFF	; 255
    2320:	25 96       	adiw	r28, 0x05	; 5
    2322:	f8 cf       	rjmp	.-16     	; 0x2314 <Endpoint_ConfigureEndpointTable+0xe>
    2324:	2c 81       	ldd	r18, Y+4	; 0x04
    2326:	a9 81       	ldd	r26, Y+1	; 0x01
    2328:	ba 81       	ldd	r27, Y+2	; 0x02
    232a:	9b 81       	ldd	r25, Y+3	; 0x03
    232c:	86 2f       	mov	r24, r22
    232e:	8f 70       	andi	r24, 0x0F	; 15
    2330:	87 30       	cpi	r24, 0x07	; 7
    2332:	10 f0       	brcs	.+4      	; 0x2338 <Endpoint_ConfigureEndpointTable+0x32>
    2334:	80 e0       	ldi	r24, 0x00	; 0
    2336:	1f c0       	rjmp	.+62     	; 0x2376 <Endpoint_ConfigureEndpointTable+0x70>
    2338:	22 30       	cpi	r18, 0x02	; 2
    233a:	10 f4       	brcc	.+4      	; 0x2340 <Endpoint_ConfigureEndpointTable+0x3a>
    233c:	42 e0       	ldi	r20, 0x02	; 2
    233e:	01 c0       	rjmp	.+2      	; 0x2342 <Endpoint_ConfigureEndpointTable+0x3c>
    2340:	46 e0       	ldi	r20, 0x06	; 6
    2342:	e8 e0       	ldi	r30, 0x08	; 8
    2344:	f0 e0       	ldi	r31, 0x00	; 0
    2346:	20 e0       	ldi	r18, 0x00	; 0
    2348:	ea 17       	cp	r30, r26
    234a:	fb 07       	cpc	r31, r27
    234c:	20 f4       	brcc	.+8      	; 0x2356 <Endpoint_ConfigureEndpointTable+0x50>
    234e:	2f 5f       	subi	r18, 0xFF	; 255
    2350:	ee 0f       	add	r30, r30
    2352:	ff 1f       	adc	r31, r31
    2354:	f9 cf       	rjmp	.-14     	; 0x2348 <Endpoint_ConfigureEndpointTable+0x42>
    2356:	22 95       	swap	r18
    2358:	20 7f       	andi	r18, 0xF0	; 240
    235a:	42 2b       	or	r20, r18
    235c:	50 e4       	ldi	r21, 0x40	; 64
    235e:	95 9f       	mul	r25, r21
    2360:	90 01       	movw	r18, r0
    2362:	11 24       	eor	r1, r1
    2364:	66 1f       	adc	r22, r22
    2366:	66 27       	eor	r22, r22
    2368:	66 1f       	adc	r22, r22
    236a:	62 2b       	or	r22, r18
    236c:	97 df       	rcall	.-210    	; 0x229c <Endpoint_ConfigureEndpoint_Prv>
    236e:	81 11       	cpse	r24, r1
    2370:	d6 cf       	rjmp	.-84     	; 0x231e <Endpoint_ConfigureEndpointTable+0x18>
    2372:	e0 cf       	rjmp	.-64     	; 0x2334 <Endpoint_ConfigureEndpointTable+0x2e>
    2374:	81 e0       	ldi	r24, 0x01	; 1
    2376:	df 91       	pop	r29
    2378:	cf 91       	pop	r28
    237a:	1f 91       	pop	r17
    237c:	0f 91       	pop	r16
    237e:	08 95       	ret

00002380 <Endpoint_ClearStatusStage>:
    2380:	80 91 6b 09 	lds	r24, 0x096B	; 0x80096b <USB_ControlRequest>
    2384:	87 ff       	sbrs	r24, 7
    2386:	11 c0       	rjmp	.+34     	; 0x23aa <Endpoint_ClearStatusStage+0x2a>
    2388:	80 91 e8 00 	lds	r24, 0x00E8	; 0x8000e8 <__TEXT_REGION_LENGTH__+0x7e00e8>
    238c:	82 fd       	sbrc	r24, 2
    238e:	05 c0       	rjmp	.+10     	; 0x239a <Endpoint_ClearStatusStage+0x1a>
    2390:	80 91 6a 09 	lds	r24, 0x096A	; 0x80096a <USB_DeviceState>
    2394:	81 11       	cpse	r24, r1
    2396:	f8 cf       	rjmp	.-16     	; 0x2388 <Endpoint_ClearStatusStage+0x8>
    2398:	11 c0       	rjmp	.+34     	; 0x23bc <Endpoint_ClearStatusStage+0x3c>
    239a:	80 91 e8 00 	lds	r24, 0x00E8	; 0x8000e8 <__TEXT_REGION_LENGTH__+0x7e00e8>
    239e:	8b 77       	andi	r24, 0x7B	; 123
    23a0:	0b c0       	rjmp	.+22     	; 0x23b8 <Endpoint_ClearStatusStage+0x38>
    23a2:	80 91 6a 09 	lds	r24, 0x096A	; 0x80096a <USB_DeviceState>
    23a6:	88 23       	and	r24, r24
    23a8:	49 f0       	breq	.+18     	; 0x23bc <Endpoint_ClearStatusStage+0x3c>
    23aa:	80 91 e8 00 	lds	r24, 0x00E8	; 0x8000e8 <__TEXT_REGION_LENGTH__+0x7e00e8>
    23ae:	80 ff       	sbrs	r24, 0
    23b0:	f8 cf       	rjmp	.-16     	; 0x23a2 <Endpoint_ClearStatusStage+0x22>
    23b2:	80 91 e8 00 	lds	r24, 0x00E8	; 0x8000e8 <__TEXT_REGION_LENGTH__+0x7e00e8>
    23b6:	8e 77       	andi	r24, 0x7E	; 126
    23b8:	80 93 e8 00 	sts	0x00E8, r24	; 0x8000e8 <__TEXT_REGION_LENGTH__+0x7e00e8>
    23bc:	08 95       	ret

000023be <Endpoint_WaitUntilReady>:
    23be:	20 91 e4 00 	lds	r18, 0x00E4	; 0x8000e4 <__TEXT_REGION_LENGTH__+0x7e00e4>
    23c2:	30 91 e5 00 	lds	r19, 0x00E5	; 0x8000e5 <__TEXT_REGION_LENGTH__+0x7e00e5>
    23c6:	95 e6       	ldi	r25, 0x65	; 101
    23c8:	40 91 ec 00 	lds	r20, 0x00EC	; 0x8000ec <__TEXT_REGION_LENGTH__+0x7e00ec>
    23cc:	84 2f       	mov	r24, r20
    23ce:	81 70       	andi	r24, 0x01	; 1
    23d0:	40 ff       	sbrs	r20, 0
    23d2:	23 c0       	rjmp	.+70     	; 0x241a <Endpoint_WaitUntilReady+0x5c>
    23d4:	80 91 e8 00 	lds	r24, 0x00E8	; 0x8000e8 <__TEXT_REGION_LENGTH__+0x7e00e8>
    23d8:	80 fd       	sbrc	r24, 0
    23da:	1d c0       	rjmp	.+58     	; 0x2416 <Endpoint_WaitUntilReady+0x58>
    23dc:	80 91 6a 09 	lds	r24, 0x096A	; 0x80096a <USB_DeviceState>
    23e0:	88 23       	and	r24, r24
    23e2:	99 f0       	breq	.+38     	; 0x240a <Endpoint_WaitUntilReady+0x4c>
    23e4:	85 30       	cpi	r24, 0x05	; 5
    23e6:	99 f0       	breq	.+38     	; 0x240e <Endpoint_WaitUntilReady+0x50>
    23e8:	80 91 eb 00 	lds	r24, 0x00EB	; 0x8000eb <__TEXT_REGION_LENGTH__+0x7e00eb>
    23ec:	85 fd       	sbrc	r24, 5
    23ee:	11 c0       	rjmp	.+34     	; 0x2412 <Endpoint_WaitUntilReady+0x54>
    23f0:	40 91 e4 00 	lds	r20, 0x00E4	; 0x8000e4 <__TEXT_REGION_LENGTH__+0x7e00e4>
    23f4:	50 91 e5 00 	lds	r21, 0x00E5	; 0x8000e5 <__TEXT_REGION_LENGTH__+0x7e00e5>
    23f8:	24 17       	cp	r18, r20
    23fa:	35 07       	cpc	r19, r21
    23fc:	29 f3       	breq	.-54     	; 0x23c8 <Endpoint_WaitUntilReady+0xa>
    23fe:	91 50       	subi	r25, 0x01	; 1
    2400:	11 f0       	breq	.+4      	; 0x2406 <Endpoint_WaitUntilReady+0x48>
    2402:	9a 01       	movw	r18, r20
    2404:	e1 cf       	rjmp	.-62     	; 0x23c8 <Endpoint_WaitUntilReady+0xa>
    2406:	84 e0       	ldi	r24, 0x04	; 4
    2408:	08 95       	ret
    240a:	82 e0       	ldi	r24, 0x02	; 2
    240c:	08 95       	ret
    240e:	83 e0       	ldi	r24, 0x03	; 3
    2410:	08 95       	ret
    2412:	81 e0       	ldi	r24, 0x01	; 1
    2414:	08 95       	ret
    2416:	80 e0       	ldi	r24, 0x00	; 0
    2418:	08 95       	ret
    241a:	40 91 e8 00 	lds	r20, 0x00E8	; 0x8000e8 <__TEXT_REGION_LENGTH__+0x7e00e8>
    241e:	42 ff       	sbrs	r20, 2
    2420:	dd cf       	rjmp	.-70     	; 0x23dc <Endpoint_WaitUntilReady+0x1e>
    2422:	08 95       	ret

00002424 <USB_ResetInterface>:
    2424:	0f 93       	push	r16
    2426:	1f 93       	push	r17
    2428:	cf 93       	push	r28
    242a:	df 93       	push	r29
    242c:	4e d0       	rcall	.+156    	; 0x24ca <USB_INT_DisableAllInterrupts>
    242e:	55 d0       	rcall	.+170    	; 0x24da <USB_INT_ClearAllInterrupts>
    2430:	c8 ed       	ldi	r28, 0xD8	; 216
    2432:	d0 e0       	ldi	r29, 0x00	; 0
    2434:	88 81       	ld	r24, Y
    2436:	8f 77       	andi	r24, 0x7F	; 127
    2438:	88 83       	st	Y, r24
    243a:	88 81       	ld	r24, Y
    243c:	80 68       	ori	r24, 0x80	; 128
    243e:	88 83       	st	Y, r24
    2440:	88 81       	ld	r24, Y
    2442:	8f 7d       	andi	r24, 0xDF	; 223
    2444:	88 83       	st	Y, r24
    2446:	e7 ed       	ldi	r30, 0xD7	; 215
    2448:	f0 e0       	ldi	r31, 0x00	; 0
    244a:	80 81       	ld	r24, Z
    244c:	80 68       	ori	r24, 0x80	; 128
    244e:	80 83       	st	Z, r24
    2450:	19 bc       	out	0x29, r1	; 41
    2452:	10 92 6a 09 	sts	0x096A, r1	; 0x80096a <USB_DeviceState>
    2456:	10 92 66 09 	sts	0x0966, r1	; 0x800966 <USB_Device_ConfigurationNumber>
    245a:	10 92 68 09 	sts	0x0968, r1	; 0x800968 <USB_Device_RemoteWakeupEnabled>
    245e:	10 92 67 09 	sts	0x0967, r1	; 0x800967 <USB_Device_CurrentlySelfPowered>
    2462:	00 ee       	ldi	r16, 0xE0	; 224
    2464:	10 e0       	ldi	r17, 0x00	; 0
    2466:	f8 01       	movw	r30, r16
    2468:	80 81       	ld	r24, Z
    246a:	8b 7f       	andi	r24, 0xFB	; 251
    246c:	80 83       	st	Z, r24
    246e:	88 81       	ld	r24, Y
    2470:	81 60       	ori	r24, 0x01	; 1
    2472:	88 83       	st	Y, r24
    2474:	42 e0       	ldi	r20, 0x02	; 2
    2476:	60 e0       	ldi	r22, 0x00	; 0
    2478:	80 e0       	ldi	r24, 0x00	; 0
    247a:	10 df       	rcall	.-480    	; 0x229c <Endpoint_ConfigureEndpoint_Prv>
    247c:	e1 ee       	ldi	r30, 0xE1	; 225
    247e:	f0 e0       	ldi	r31, 0x00	; 0
    2480:	80 81       	ld	r24, Z
    2482:	8e 7f       	andi	r24, 0xFE	; 254
    2484:	80 83       	st	Z, r24
    2486:	e2 ee       	ldi	r30, 0xE2	; 226
    2488:	f0 e0       	ldi	r31, 0x00	; 0
    248a:	80 81       	ld	r24, Z
    248c:	81 60       	ori	r24, 0x01	; 1
    248e:	80 83       	st	Z, r24
    2490:	80 81       	ld	r24, Z
    2492:	88 60       	ori	r24, 0x08	; 8
    2494:	80 83       	st	Z, r24
    2496:	f8 01       	movw	r30, r16
    2498:	80 81       	ld	r24, Z
    249a:	8e 7f       	andi	r24, 0xFE	; 254
    249c:	80 83       	st	Z, r24
    249e:	88 81       	ld	r24, Y
    24a0:	80 61       	ori	r24, 0x10	; 16
    24a2:	88 83       	st	Y, r24
    24a4:	df 91       	pop	r29
    24a6:	cf 91       	pop	r28
    24a8:	1f 91       	pop	r17
    24aa:	0f 91       	pop	r16
    24ac:	08 95       	ret

000024ae <USB_Init>:
    24ae:	e8 ed       	ldi	r30, 0xD8	; 216
    24b0:	f0 e0       	ldi	r31, 0x00	; 0
    24b2:	80 81       	ld	r24, Z
    24b4:	8f 7e       	andi	r24, 0xEF	; 239
    24b6:	80 83       	st	Z, r24
    24b8:	e7 ed       	ldi	r30, 0xD7	; 215
    24ba:	f0 e0       	ldi	r31, 0x00	; 0
    24bc:	80 81       	ld	r24, Z
    24be:	81 60       	ori	r24, 0x01	; 1
    24c0:	80 83       	st	Z, r24
    24c2:	81 e0       	ldi	r24, 0x01	; 1
    24c4:	80 93 69 09 	sts	0x0969, r24	; 0x800969 <USB_IsInitialized>
    24c8:	ad cf       	rjmp	.-166    	; 0x2424 <USB_ResetInterface>

000024ca <USB_INT_DisableAllInterrupts>:
    24ca:	e8 ed       	ldi	r30, 0xD8	; 216
    24cc:	f0 e0       	ldi	r31, 0x00	; 0
    24ce:	80 81       	ld	r24, Z
    24d0:	8c 7f       	andi	r24, 0xFC	; 252
    24d2:	80 83       	st	Z, r24
    24d4:	10 92 e2 00 	sts	0x00E2, r1	; 0x8000e2 <__TEXT_REGION_LENGTH__+0x7e00e2>
    24d8:	08 95       	ret

000024da <USB_INT_ClearAllInterrupts>:
    24da:	10 92 da 00 	sts	0x00DA, r1	; 0x8000da <__TEXT_REGION_LENGTH__+0x7e00da>
    24de:	10 92 e1 00 	sts	0x00E1, r1	; 0x8000e1 <__TEXT_REGION_LENGTH__+0x7e00e1>
    24e2:	08 95       	ret

000024e4 <__vector_10>:
    24e4:	1f 92       	push	r1
    24e6:	0f 92       	push	r0
    24e8:	0f b6       	in	r0, 0x3f	; 63
    24ea:	0f 92       	push	r0
    24ec:	11 24       	eor	r1, r1
    24ee:	0b b6       	in	r0, 0x3b	; 59
    24f0:	0f 92       	push	r0
    24f2:	2f 93       	push	r18
    24f4:	3f 93       	push	r19
    24f6:	4f 93       	push	r20
    24f8:	5f 93       	push	r21
    24fa:	6f 93       	push	r22
    24fc:	7f 93       	push	r23
    24fe:	8f 93       	push	r24
    2500:	9f 93       	push	r25
    2502:	af 93       	push	r26
    2504:	bf 93       	push	r27
    2506:	ef 93       	push	r30
    2508:	ff 93       	push	r31
    250a:	80 91 e1 00 	lds	r24, 0x00E1	; 0x8000e1 <__TEXT_REGION_LENGTH__+0x7e00e1>
    250e:	82 ff       	sbrs	r24, 2
    2510:	0b c0       	rjmp	.+22     	; 0x2528 <__vector_10+0x44>
    2512:	80 91 e2 00 	lds	r24, 0x00E2	; 0x8000e2 <__TEXT_REGION_LENGTH__+0x7e00e2>
    2516:	82 ff       	sbrs	r24, 2
    2518:	07 c0       	rjmp	.+14     	; 0x2528 <__vector_10+0x44>
    251a:	80 91 e1 00 	lds	r24, 0x00E1	; 0x8000e1 <__TEXT_REGION_LENGTH__+0x7e00e1>
    251e:	8b 7f       	andi	r24, 0xFB	; 251
    2520:	80 93 e1 00 	sts	0x00E1, r24	; 0x8000e1 <__TEXT_REGION_LENGTH__+0x7e00e1>
    2524:	0e 94 37 06 	call	0xc6e	; 0xc6e <EVENT_USB_Device_StartOfFrame>
    2528:	80 91 da 00 	lds	r24, 0x00DA	; 0x8000da <__TEXT_REGION_LENGTH__+0x7e00da>
    252c:	80 ff       	sbrs	r24, 0
    252e:	1f c0       	rjmp	.+62     	; 0x256e <__vector_10+0x8a>
    2530:	80 91 d8 00 	lds	r24, 0x00D8	; 0x8000d8 <__TEXT_REGION_LENGTH__+0x7e00d8>
    2534:	80 ff       	sbrs	r24, 0
    2536:	1b c0       	rjmp	.+54     	; 0x256e <__vector_10+0x8a>
    2538:	80 91 da 00 	lds	r24, 0x00DA	; 0x8000da <__TEXT_REGION_LENGTH__+0x7e00da>
    253c:	8e 7f       	andi	r24, 0xFE	; 254
    253e:	80 93 da 00 	sts	0x00DA, r24	; 0x8000da <__TEXT_REGION_LENGTH__+0x7e00da>
    2542:	80 91 d9 00 	lds	r24, 0x00D9	; 0x8000d9 <__TEXT_REGION_LENGTH__+0x7e00d9>
    2546:	80 ff       	sbrs	r24, 0
    2548:	0d c0       	rjmp	.+26     	; 0x2564 <__vector_10+0x80>
    254a:	84 e1       	ldi	r24, 0x14	; 20
    254c:	89 bd       	out	0x29, r24	; 41
    254e:	86 e1       	ldi	r24, 0x16	; 22
    2550:	89 bd       	out	0x29, r24	; 41
    2552:	09 b4       	in	r0, 0x29	; 41
    2554:	00 fe       	sbrs	r0, 0
    2556:	fd cf       	rjmp	.-6      	; 0x2552 <__vector_10+0x6e>
    2558:	81 e0       	ldi	r24, 0x01	; 1
    255a:	80 93 6a 09 	sts	0x096A, r24	; 0x80096a <USB_DeviceState>
    255e:	0e 94 cc 05 	call	0xb98	; 0xb98 <EVENT_USB_Device_Connect>
    2562:	05 c0       	rjmp	.+10     	; 0x256e <__vector_10+0x8a>
    2564:	19 bc       	out	0x29, r1	; 41
    2566:	10 92 6a 09 	sts	0x096A, r1	; 0x80096a <USB_DeviceState>
    256a:	0e 94 d6 05 	call	0xbac	; 0xbac <EVENT_USB_Device_Disconnect>
    256e:	80 91 e1 00 	lds	r24, 0x00E1	; 0x8000e1 <__TEXT_REGION_LENGTH__+0x7e00e1>
    2572:	80 ff       	sbrs	r24, 0
    2574:	18 c0       	rjmp	.+48     	; 0x25a6 <__vector_10+0xc2>
    2576:	80 91 e2 00 	lds	r24, 0x00E2	; 0x8000e2 <__TEXT_REGION_LENGTH__+0x7e00e2>
    257a:	80 ff       	sbrs	r24, 0
    257c:	14 c0       	rjmp	.+40     	; 0x25a6 <__vector_10+0xc2>
    257e:	80 91 e2 00 	lds	r24, 0x00E2	; 0x8000e2 <__TEXT_REGION_LENGTH__+0x7e00e2>
    2582:	8e 7f       	andi	r24, 0xFE	; 254
    2584:	80 93 e2 00 	sts	0x00E2, r24	; 0x8000e2 <__TEXT_REGION_LENGTH__+0x7e00e2>
    2588:	80 91 e2 00 	lds	r24, 0x00E2	; 0x8000e2 <__TEXT_REGION_LENGTH__+0x7e00e2>
    258c:	80 61       	ori	r24, 0x10	; 16
    258e:	80 93 e2 00 	sts	0x00E2, r24	; 0x8000e2 <__TEXT_REGION_LENGTH__+0x7e00e2>
    2592:	80 91 d8 00 	lds	r24, 0x00D8	; 0x8000d8 <__TEXT_REGION_LENGTH__+0x7e00d8>
    2596:	80 62       	ori	r24, 0x20	; 32
    2598:	80 93 d8 00 	sts	0x00D8, r24	; 0x8000d8 <__TEXT_REGION_LENGTH__+0x7e00d8>
    259c:	19 bc       	out	0x29, r1	; 41
    259e:	85 e0       	ldi	r24, 0x05	; 5
    25a0:	80 93 6a 09 	sts	0x096A, r24	; 0x80096a <USB_DeviceState>
    25a4:	27 d2       	rcall	.+1102   	; 0x29f4 <USB_Event_Stub>
    25a6:	80 91 e1 00 	lds	r24, 0x00E1	; 0x8000e1 <__TEXT_REGION_LENGTH__+0x7e00e1>
    25aa:	84 ff       	sbrs	r24, 4
    25ac:	2f c0       	rjmp	.+94     	; 0x260c <__vector_10+0x128>
    25ae:	80 91 e2 00 	lds	r24, 0x00E2	; 0x8000e2 <__TEXT_REGION_LENGTH__+0x7e00e2>
    25b2:	84 ff       	sbrs	r24, 4
    25b4:	2b c0       	rjmp	.+86     	; 0x260c <__vector_10+0x128>
    25b6:	84 e1       	ldi	r24, 0x14	; 20
    25b8:	89 bd       	out	0x29, r24	; 41
    25ba:	86 e1       	ldi	r24, 0x16	; 22
    25bc:	89 bd       	out	0x29, r24	; 41
    25be:	09 b4       	in	r0, 0x29	; 41
    25c0:	00 fe       	sbrs	r0, 0
    25c2:	fd cf       	rjmp	.-6      	; 0x25be <__vector_10+0xda>
    25c4:	80 91 d8 00 	lds	r24, 0x00D8	; 0x8000d8 <__TEXT_REGION_LENGTH__+0x7e00d8>
    25c8:	8f 7d       	andi	r24, 0xDF	; 223
    25ca:	80 93 d8 00 	sts	0x00D8, r24	; 0x8000d8 <__TEXT_REGION_LENGTH__+0x7e00d8>
    25ce:	80 91 e1 00 	lds	r24, 0x00E1	; 0x8000e1 <__TEXT_REGION_LENGTH__+0x7e00e1>
    25d2:	8f 7e       	andi	r24, 0xEF	; 239
    25d4:	80 93 e1 00 	sts	0x00E1, r24	; 0x8000e1 <__TEXT_REGION_LENGTH__+0x7e00e1>
    25d8:	80 91 e2 00 	lds	r24, 0x00E2	; 0x8000e2 <__TEXT_REGION_LENGTH__+0x7e00e2>
    25dc:	8f 7e       	andi	r24, 0xEF	; 239
    25de:	80 93 e2 00 	sts	0x00E2, r24	; 0x8000e2 <__TEXT_REGION_LENGTH__+0x7e00e2>
    25e2:	80 91 e2 00 	lds	r24, 0x00E2	; 0x8000e2 <__TEXT_REGION_LENGTH__+0x7e00e2>
    25e6:	81 60       	ori	r24, 0x01	; 1
    25e8:	80 93 e2 00 	sts	0x00E2, r24	; 0x8000e2 <__TEXT_REGION_LENGTH__+0x7e00e2>
    25ec:	80 91 66 09 	lds	r24, 0x0966	; 0x800966 <USB_Device_ConfigurationNumber>
    25f0:	88 23       	and	r24, r24
    25f2:	11 f0       	breq	.+4      	; 0x25f8 <__vector_10+0x114>
    25f4:	84 e0       	ldi	r24, 0x04	; 4
    25f6:	07 c0       	rjmp	.+14     	; 0x2606 <__vector_10+0x122>
    25f8:	80 91 e3 00 	lds	r24, 0x00E3	; 0x8000e3 <__TEXT_REGION_LENGTH__+0x7e00e3>
    25fc:	87 fd       	sbrc	r24, 7
    25fe:	02 c0       	rjmp	.+4      	; 0x2604 <__vector_10+0x120>
    2600:	81 e0       	ldi	r24, 0x01	; 1
    2602:	01 c0       	rjmp	.+2      	; 0x2606 <__vector_10+0x122>
    2604:	83 e0       	ldi	r24, 0x03	; 3
    2606:	80 93 6a 09 	sts	0x096A, r24	; 0x80096a <USB_DeviceState>
    260a:	f4 d1       	rcall	.+1000   	; 0x29f4 <USB_Event_Stub>
    260c:	80 91 e1 00 	lds	r24, 0x00E1	; 0x8000e1 <__TEXT_REGION_LENGTH__+0x7e00e1>
    2610:	83 ff       	sbrs	r24, 3
    2612:	27 c0       	rjmp	.+78     	; 0x2662 <__vector_10+0x17e>
    2614:	80 91 e2 00 	lds	r24, 0x00E2	; 0x8000e2 <__TEXT_REGION_LENGTH__+0x7e00e2>
    2618:	83 ff       	sbrs	r24, 3
    261a:	23 c0       	rjmp	.+70     	; 0x2662 <__vector_10+0x17e>
    261c:	80 91 e1 00 	lds	r24, 0x00E1	; 0x8000e1 <__TEXT_REGION_LENGTH__+0x7e00e1>
    2620:	87 7f       	andi	r24, 0xF7	; 247
    2622:	80 93 e1 00 	sts	0x00E1, r24	; 0x8000e1 <__TEXT_REGION_LENGTH__+0x7e00e1>
    2626:	82 e0       	ldi	r24, 0x02	; 2
    2628:	80 93 6a 09 	sts	0x096A, r24	; 0x80096a <USB_DeviceState>
    262c:	10 92 66 09 	sts	0x0966, r1	; 0x800966 <USB_Device_ConfigurationNumber>
    2630:	80 91 e1 00 	lds	r24, 0x00E1	; 0x8000e1 <__TEXT_REGION_LENGTH__+0x7e00e1>
    2634:	8e 7f       	andi	r24, 0xFE	; 254
    2636:	80 93 e1 00 	sts	0x00E1, r24	; 0x8000e1 <__TEXT_REGION_LENGTH__+0x7e00e1>
    263a:	80 91 e2 00 	lds	r24, 0x00E2	; 0x8000e2 <__TEXT_REGION_LENGTH__+0x7e00e2>
    263e:	8e 7f       	andi	r24, 0xFE	; 254
    2640:	80 93 e2 00 	sts	0x00E2, r24	; 0x8000e2 <__TEXT_REGION_LENGTH__+0x7e00e2>
    2644:	80 91 e2 00 	lds	r24, 0x00E2	; 0x8000e2 <__TEXT_REGION_LENGTH__+0x7e00e2>
    2648:	80 61       	ori	r24, 0x10	; 16
    264a:	80 93 e2 00 	sts	0x00E2, r24	; 0x8000e2 <__TEXT_REGION_LENGTH__+0x7e00e2>
    264e:	42 e0       	ldi	r20, 0x02	; 2
    2650:	60 e0       	ldi	r22, 0x00	; 0
    2652:	80 e0       	ldi	r24, 0x00	; 0
    2654:	23 de       	rcall	.-954    	; 0x229c <Endpoint_ConfigureEndpoint_Prv>
    2656:	80 91 f0 00 	lds	r24, 0x00F0	; 0x8000f0 <__TEXT_REGION_LENGTH__+0x7e00f0>
    265a:	88 60       	ori	r24, 0x08	; 8
    265c:	80 93 f0 00 	sts	0x00F0, r24	; 0x8000f0 <__TEXT_REGION_LENGTH__+0x7e00f0>
    2660:	c9 d1       	rcall	.+914    	; 0x29f4 <USB_Event_Stub>
    2662:	ff 91       	pop	r31
    2664:	ef 91       	pop	r30
    2666:	bf 91       	pop	r27
    2668:	af 91       	pop	r26
    266a:	9f 91       	pop	r25
    266c:	8f 91       	pop	r24
    266e:	7f 91       	pop	r23
    2670:	6f 91       	pop	r22
    2672:	5f 91       	pop	r21
    2674:	4f 91       	pop	r20
    2676:	3f 91       	pop	r19
    2678:	2f 91       	pop	r18
    267a:	0f 90       	pop	r0
    267c:	0b be       	out	0x3b, r0	; 59
    267e:	0f 90       	pop	r0
    2680:	0f be       	out	0x3f, r0	; 63
    2682:	0f 90       	pop	r0
    2684:	1f 90       	pop	r1
    2686:	18 95       	reti

00002688 <__vector_11>:
    2688:	1f 92       	push	r1
    268a:	0f 92       	push	r0
    268c:	0f b6       	in	r0, 0x3f	; 63
    268e:	0f 92       	push	r0
    2690:	11 24       	eor	r1, r1
    2692:	0b b6       	in	r0, 0x3b	; 59
    2694:	0f 92       	push	r0
    2696:	2f 93       	push	r18
    2698:	3f 93       	push	r19
    269a:	4f 93       	push	r20
    269c:	5f 93       	push	r21
    269e:	6f 93       	push	r22
    26a0:	7f 93       	push	r23
    26a2:	8f 93       	push	r24
    26a4:	9f 93       	push	r25
    26a6:	af 93       	push	r26
    26a8:	bf 93       	push	r27
    26aa:	cf 93       	push	r28
    26ac:	df 93       	push	r29
    26ae:	ef 93       	push	r30
    26b0:	ff 93       	push	r31
    26b2:	c0 91 e9 00 	lds	r28, 0x00E9	; 0x8000e9 <__TEXT_REGION_LENGTH__+0x7e00e9>
    26b6:	cf 70       	andi	r28, 0x0F	; 15
    26b8:	80 91 ec 00 	lds	r24, 0x00EC	; 0x8000ec <__TEXT_REGION_LENGTH__+0x7e00ec>
    26bc:	d8 2f       	mov	r29, r24
    26be:	d1 70       	andi	r29, 0x01	; 1
    26c0:	80 fd       	sbrc	r24, 0
    26c2:	d0 e8       	ldi	r29, 0x80	; 128
    26c4:	10 92 e9 00 	sts	0x00E9, r1	; 0x8000e9 <__TEXT_REGION_LENGTH__+0x7e00e9>
    26c8:	80 91 f0 00 	lds	r24, 0x00F0	; 0x8000f0 <__TEXT_REGION_LENGTH__+0x7e00f0>
    26cc:	87 7f       	andi	r24, 0xF7	; 247
    26ce:	80 93 f0 00 	sts	0x00F0, r24	; 0x8000f0 <__TEXT_REGION_LENGTH__+0x7e00f0>
    26d2:	78 94       	sei
    26d4:	20 d0       	rcall	.+64     	; 0x2716 <USB_Device_ProcessControlRequest>
    26d6:	10 92 e9 00 	sts	0x00E9, r1	; 0x8000e9 <__TEXT_REGION_LENGTH__+0x7e00e9>
    26da:	80 91 f0 00 	lds	r24, 0x00F0	; 0x8000f0 <__TEXT_REGION_LENGTH__+0x7e00f0>
    26de:	88 60       	ori	r24, 0x08	; 8
    26e0:	80 93 f0 00 	sts	0x00F0, r24	; 0x8000f0 <__TEXT_REGION_LENGTH__+0x7e00f0>
    26e4:	cd 2b       	or	r28, r29
    26e6:	cf 70       	andi	r28, 0x0F	; 15
    26e8:	c0 93 e9 00 	sts	0x00E9, r28	; 0x8000e9 <__TEXT_REGION_LENGTH__+0x7e00e9>
    26ec:	ff 91       	pop	r31
    26ee:	ef 91       	pop	r30
    26f0:	df 91       	pop	r29
    26f2:	cf 91       	pop	r28
    26f4:	bf 91       	pop	r27
    26f6:	af 91       	pop	r26
    26f8:	9f 91       	pop	r25
    26fa:	8f 91       	pop	r24
    26fc:	7f 91       	pop	r23
    26fe:	6f 91       	pop	r22
    2700:	5f 91       	pop	r21
    2702:	4f 91       	pop	r20
    2704:	3f 91       	pop	r19
    2706:	2f 91       	pop	r18
    2708:	0f 90       	pop	r0
    270a:	0b be       	out	0x3b, r0	; 59
    270c:	0f 90       	pop	r0
    270e:	0f be       	out	0x3f, r0	; 63
    2710:	0f 90       	pop	r0
    2712:	1f 90       	pop	r1
    2714:	18 95       	reti

00002716 <USB_Device_ProcessControlRequest>:
    2716:	1f 93       	push	r17
    2718:	cf 93       	push	r28
    271a:	df 93       	push	r29
    271c:	cd b7       	in	r28, 0x3d	; 61
    271e:	de b7       	in	r29, 0x3e	; 62
    2720:	aa 97       	sbiw	r28, 0x2a	; 42
    2722:	0f b6       	in	r0, 0x3f	; 63
    2724:	f8 94       	cli
    2726:	de bf       	out	0x3e, r29	; 62
    2728:	0f be       	out	0x3f, r0	; 63
    272a:	cd bf       	out	0x3d, r28	; 61
    272c:	eb e6       	ldi	r30, 0x6B	; 107
    272e:	f9 e0       	ldi	r31, 0x09	; 9
    2730:	80 91 f1 00 	lds	r24, 0x00F1	; 0x8000f1 <__TEXT_REGION_LENGTH__+0x7e00f1>
    2734:	81 93       	st	Z+, r24
    2736:	29 e0       	ldi	r18, 0x09	; 9
    2738:	e3 37       	cpi	r30, 0x73	; 115
    273a:	f2 07       	cpc	r31, r18
    273c:	c9 f7       	brne	.-14     	; 0x2730 <USB_Device_ProcessControlRequest+0x1a>
    273e:	0e 94 03 06 	call	0xc06	; 0xc06 <EVENT_USB_Device_ControlRequest>
    2742:	80 91 e8 00 	lds	r24, 0x00E8	; 0x8000e8 <__TEXT_REGION_LENGTH__+0x7e00e8>
    2746:	83 ff       	sbrs	r24, 3
    2748:	3d c1       	rjmp	.+634    	; 0x29c4 <USB_Device_ProcessControlRequest+0x2ae>
    274a:	80 91 6b 09 	lds	r24, 0x096B	; 0x80096b <USB_ControlRequest>
    274e:	90 91 6c 09 	lds	r25, 0x096C	; 0x80096c <USB_ControlRequest+0x1>
    2752:	95 30       	cpi	r25, 0x05	; 5
    2754:	09 f4       	brne	.+2      	; 0x2758 <USB_Device_ProcessControlRequest+0x42>
    2756:	83 c0       	rjmp	.+262    	; 0x285e <USB_Device_ProcessControlRequest+0x148>
    2758:	30 f4       	brcc	.+12     	; 0x2766 <USB_Device_ProcessControlRequest+0x50>
    275a:	91 30       	cpi	r25, 0x01	; 1
    275c:	a9 f1       	breq	.+106    	; 0x27c8 <USB_Device_ProcessControlRequest+0xb2>
    275e:	68 f0       	brcs	.+26     	; 0x277a <USB_Device_ProcessControlRequest+0x64>
    2760:	93 30       	cpi	r25, 0x03	; 3
    2762:	91 f1       	breq	.+100    	; 0x27c8 <USB_Device_ProcessControlRequest+0xb2>
    2764:	2f c1       	rjmp	.+606    	; 0x29c4 <USB_Device_ProcessControlRequest+0x2ae>
    2766:	98 30       	cpi	r25, 0x08	; 8
    2768:	09 f4       	brne	.+2      	; 0x276c <USB_Device_ProcessControlRequest+0x56>
    276a:	fb c0       	rjmp	.+502    	; 0x2962 <USB_Device_ProcessControlRequest+0x24c>
    276c:	99 30       	cpi	r25, 0x09	; 9
    276e:	09 f4       	brne	.+2      	; 0x2772 <USB_Device_ProcessControlRequest+0x5c>
    2770:	07 c1       	rjmp	.+526    	; 0x2980 <USB_Device_ProcessControlRequest+0x26a>
    2772:	96 30       	cpi	r25, 0x06	; 6
    2774:	09 f0       	breq	.+2      	; 0x2778 <USB_Device_ProcessControlRequest+0x62>
    2776:	26 c1       	rjmp	.+588    	; 0x29c4 <USB_Device_ProcessControlRequest+0x2ae>
    2778:	94 c0       	rjmp	.+296    	; 0x28a2 <USB_Device_ProcessControlRequest+0x18c>
    277a:	80 38       	cpi	r24, 0x80	; 128
    277c:	21 f0       	breq	.+8      	; 0x2786 <USB_Device_ProcessControlRequest+0x70>
    277e:	82 38       	cpi	r24, 0x82	; 130
    2780:	09 f0       	breq	.+2      	; 0x2784 <USB_Device_ProcessControlRequest+0x6e>
    2782:	20 c1       	rjmp	.+576    	; 0x29c4 <USB_Device_ProcessControlRequest+0x2ae>
    2784:	08 c0       	rjmp	.+16     	; 0x2796 <USB_Device_ProcessControlRequest+0x80>
    2786:	80 91 67 09 	lds	r24, 0x0967	; 0x800967 <USB_Device_CurrentlySelfPowered>
    278a:	90 91 68 09 	lds	r25, 0x0968	; 0x800968 <USB_Device_RemoteWakeupEnabled>
    278e:	99 23       	and	r25, r25
    2790:	89 f0       	breq	.+34     	; 0x27b4 <USB_Device_ProcessControlRequest+0x9e>
    2792:	82 60       	ori	r24, 0x02	; 2
    2794:	0f c0       	rjmp	.+30     	; 0x27b4 <USB_Device_ProcessControlRequest+0x9e>
    2796:	80 91 6f 09 	lds	r24, 0x096F	; 0x80096f <USB_ControlRequest+0x4>
    279a:	8f 70       	andi	r24, 0x0F	; 15
    279c:	87 30       	cpi	r24, 0x07	; 7
    279e:	08 f0       	brcs	.+2      	; 0x27a2 <USB_Device_ProcessControlRequest+0x8c>
    27a0:	11 c1       	rjmp	.+546    	; 0x29c4 <USB_Device_ProcessControlRequest+0x2ae>
    27a2:	80 93 e9 00 	sts	0x00E9, r24	; 0x8000e9 <__TEXT_REGION_LENGTH__+0x7e00e9>
    27a6:	80 91 eb 00 	lds	r24, 0x00EB	; 0x8000eb <__TEXT_REGION_LENGTH__+0x7e00eb>
    27aa:	85 fb       	bst	r24, 5
    27ac:	88 27       	eor	r24, r24
    27ae:	80 f9       	bld	r24, 0
    27b0:	10 92 e9 00 	sts	0x00E9, r1	; 0x8000e9 <__TEXT_REGION_LENGTH__+0x7e00e9>
    27b4:	90 91 e8 00 	lds	r25, 0x00E8	; 0x8000e8 <__TEXT_REGION_LENGTH__+0x7e00e8>
    27b8:	97 7f       	andi	r25, 0xF7	; 247
    27ba:	90 93 e8 00 	sts	0x00E8, r25	; 0x8000e8 <__TEXT_REGION_LENGTH__+0x7e00e8>
    27be:	80 93 f1 00 	sts	0x00F1, r24	; 0x8000f1 <__TEXT_REGION_LENGTH__+0x7e00f1>
    27c2:	10 92 f1 00 	sts	0x00F1, r1	; 0x8000f1 <__TEXT_REGION_LENGTH__+0x7e00f1>
    27c6:	d8 c0       	rjmp	.+432    	; 0x2978 <USB_Device_ProcessControlRequest+0x262>
    27c8:	28 2f       	mov	r18, r24
    27ca:	2d 7f       	andi	r18, 0xFD	; 253
    27cc:	09 f0       	breq	.+2      	; 0x27d0 <USB_Device_ProcessControlRequest+0xba>
    27ce:	fa c0       	rjmp	.+500    	; 0x29c4 <USB_Device_ProcessControlRequest+0x2ae>
    27d0:	88 23       	and	r24, r24
    27d2:	19 f0       	breq	.+6      	; 0x27da <USB_Device_ProcessControlRequest+0xc4>
    27d4:	82 30       	cpi	r24, 0x02	; 2
    27d6:	61 f0       	breq	.+24     	; 0x27f0 <USB_Device_ProcessControlRequest+0xda>
    27d8:	f5 c0       	rjmp	.+490    	; 0x29c4 <USB_Device_ProcessControlRequest+0x2ae>
    27da:	80 91 6d 09 	lds	r24, 0x096D	; 0x80096d <USB_ControlRequest+0x2>
    27de:	81 30       	cpi	r24, 0x01	; 1
    27e0:	09 f0       	breq	.+2      	; 0x27e4 <USB_Device_ProcessControlRequest+0xce>
    27e2:	f0 c0       	rjmp	.+480    	; 0x29c4 <USB_Device_ProcessControlRequest+0x2ae>
    27e4:	93 30       	cpi	r25, 0x03	; 3
    27e6:	09 f0       	breq	.+2      	; 0x27ea <USB_Device_ProcessControlRequest+0xd4>
    27e8:	80 e0       	ldi	r24, 0x00	; 0
    27ea:	80 93 68 09 	sts	0x0968, r24	; 0x800968 <USB_Device_RemoteWakeupEnabled>
    27ee:	2e c0       	rjmp	.+92     	; 0x284c <USB_Device_ProcessControlRequest+0x136>
    27f0:	80 91 6d 09 	lds	r24, 0x096D	; 0x80096d <USB_ControlRequest+0x2>
    27f4:	81 11       	cpse	r24, r1
    27f6:	2a c0       	rjmp	.+84     	; 0x284c <USB_Device_ProcessControlRequest+0x136>
    27f8:	80 91 6f 09 	lds	r24, 0x096F	; 0x80096f <USB_ControlRequest+0x4>
    27fc:	8f 70       	andi	r24, 0x0F	; 15
    27fe:	2f ef       	ldi	r18, 0xFF	; 255
    2800:	28 0f       	add	r18, r24
    2802:	26 30       	cpi	r18, 0x06	; 6
    2804:	08 f0       	brcs	.+2      	; 0x2808 <USB_Device_ProcessControlRequest+0xf2>
    2806:	de c0       	rjmp	.+444    	; 0x29c4 <USB_Device_ProcessControlRequest+0x2ae>
    2808:	80 93 e9 00 	sts	0x00E9, r24	; 0x8000e9 <__TEXT_REGION_LENGTH__+0x7e00e9>
    280c:	20 91 eb 00 	lds	r18, 0x00EB	; 0x8000eb <__TEXT_REGION_LENGTH__+0x7e00eb>
    2810:	20 ff       	sbrs	r18, 0
    2812:	1c c0       	rjmp	.+56     	; 0x284c <USB_Device_ProcessControlRequest+0x136>
    2814:	93 30       	cpi	r25, 0x03	; 3
    2816:	21 f4       	brne	.+8      	; 0x2820 <USB_Device_ProcessControlRequest+0x10a>
    2818:	80 91 eb 00 	lds	r24, 0x00EB	; 0x8000eb <__TEXT_REGION_LENGTH__+0x7e00eb>
    281c:	80 62       	ori	r24, 0x20	; 32
    281e:	14 c0       	rjmp	.+40     	; 0x2848 <USB_Device_ProcessControlRequest+0x132>
    2820:	90 91 eb 00 	lds	r25, 0x00EB	; 0x8000eb <__TEXT_REGION_LENGTH__+0x7e00eb>
    2824:	90 61       	ori	r25, 0x10	; 16
    2826:	90 93 eb 00 	sts	0x00EB, r25	; 0x8000eb <__TEXT_REGION_LENGTH__+0x7e00eb>
    282a:	21 e0       	ldi	r18, 0x01	; 1
    282c:	30 e0       	ldi	r19, 0x00	; 0
    282e:	a9 01       	movw	r20, r18
    2830:	02 c0       	rjmp	.+4      	; 0x2836 <USB_Device_ProcessControlRequest+0x120>
    2832:	44 0f       	add	r20, r20
    2834:	55 1f       	adc	r21, r21
    2836:	8a 95       	dec	r24
    2838:	e2 f7       	brpl	.-8      	; 0x2832 <USB_Device_ProcessControlRequest+0x11c>
    283a:	40 93 ea 00 	sts	0x00EA, r20	; 0x8000ea <__TEXT_REGION_LENGTH__+0x7e00ea>
    283e:	10 92 ea 00 	sts	0x00EA, r1	; 0x8000ea <__TEXT_REGION_LENGTH__+0x7e00ea>
    2842:	80 91 eb 00 	lds	r24, 0x00EB	; 0x8000eb <__TEXT_REGION_LENGTH__+0x7e00eb>
    2846:	88 60       	ori	r24, 0x08	; 8
    2848:	80 93 eb 00 	sts	0x00EB, r24	; 0x8000eb <__TEXT_REGION_LENGTH__+0x7e00eb>
    284c:	10 92 e9 00 	sts	0x00E9, r1	; 0x8000e9 <__TEXT_REGION_LENGTH__+0x7e00e9>
    2850:	80 91 e8 00 	lds	r24, 0x00E8	; 0x8000e8 <__TEXT_REGION_LENGTH__+0x7e00e8>
    2854:	87 7f       	andi	r24, 0xF7	; 247
    2856:	80 93 e8 00 	sts	0x00E8, r24	; 0x8000e8 <__TEXT_REGION_LENGTH__+0x7e00e8>
    285a:	92 dd       	rcall	.-1244   	; 0x2380 <Endpoint_ClearStatusStage>
    285c:	b3 c0       	rjmp	.+358    	; 0x29c4 <USB_Device_ProcessControlRequest+0x2ae>
    285e:	81 11       	cpse	r24, r1
    2860:	b1 c0       	rjmp	.+354    	; 0x29c4 <USB_Device_ProcessControlRequest+0x2ae>
    2862:	10 91 6d 09 	lds	r17, 0x096D	; 0x80096d <USB_ControlRequest+0x2>
    2866:	1f 77       	andi	r17, 0x7F	; 127
    2868:	80 91 e3 00 	lds	r24, 0x00E3	; 0x8000e3 <__TEXT_REGION_LENGTH__+0x7e00e3>
    286c:	80 78       	andi	r24, 0x80	; 128
    286e:	81 2b       	or	r24, r17
    2870:	80 93 e3 00 	sts	0x00E3, r24	; 0x8000e3 <__TEXT_REGION_LENGTH__+0x7e00e3>
    2874:	80 91 e8 00 	lds	r24, 0x00E8	; 0x8000e8 <__TEXT_REGION_LENGTH__+0x7e00e8>
    2878:	87 7f       	andi	r24, 0xF7	; 247
    287a:	80 93 e8 00 	sts	0x00E8, r24	; 0x8000e8 <__TEXT_REGION_LENGTH__+0x7e00e8>
    287e:	80 dd       	rcall	.-1280   	; 0x2380 <Endpoint_ClearStatusStage>
    2880:	80 91 e8 00 	lds	r24, 0x00E8	; 0x8000e8 <__TEXT_REGION_LENGTH__+0x7e00e8>
    2884:	80 ff       	sbrs	r24, 0
    2886:	fc cf       	rjmp	.-8      	; 0x2880 <USB_Device_ProcessControlRequest+0x16a>
    2888:	80 91 e3 00 	lds	r24, 0x00E3	; 0x8000e3 <__TEXT_REGION_LENGTH__+0x7e00e3>
    288c:	80 68       	ori	r24, 0x80	; 128
    288e:	80 93 e3 00 	sts	0x00E3, r24	; 0x8000e3 <__TEXT_REGION_LENGTH__+0x7e00e3>
    2892:	11 11       	cpse	r17, r1
    2894:	02 c0       	rjmp	.+4      	; 0x289a <USB_Device_ProcessControlRequest+0x184>
    2896:	82 e0       	ldi	r24, 0x02	; 2
    2898:	01 c0       	rjmp	.+2      	; 0x289c <USB_Device_ProcessControlRequest+0x186>
    289a:	83 e0       	ldi	r24, 0x03	; 3
    289c:	80 93 6a 09 	sts	0x096A, r24	; 0x80096a <USB_DeviceState>
    28a0:	91 c0       	rjmp	.+290    	; 0x29c4 <USB_Device_ProcessControlRequest+0x2ae>
    28a2:	80 58       	subi	r24, 0x80	; 128
    28a4:	82 30       	cpi	r24, 0x02	; 2
    28a6:	08 f0       	brcs	.+2      	; 0x28aa <USB_Device_ProcessControlRequest+0x194>
    28a8:	8d c0       	rjmp	.+282    	; 0x29c4 <USB_Device_ProcessControlRequest+0x2ae>
    28aa:	80 91 6d 09 	lds	r24, 0x096D	; 0x80096d <USB_ControlRequest+0x2>
    28ae:	90 91 6e 09 	lds	r25, 0x096E	; 0x80096e <USB_ControlRequest+0x3>
    28b2:	8c 3d       	cpi	r24, 0xDC	; 220
    28b4:	53 e0       	ldi	r21, 0x03	; 3
    28b6:	95 07       	cpc	r25, r21
    28b8:	c9 f5       	brne	.+114    	; 0x292c <USB_Device_ProcessControlRequest+0x216>
    28ba:	83 e0       	ldi	r24, 0x03	; 3
    28bc:	8a 83       	std	Y+2, r24	; 0x02
    28be:	8a e2       	ldi	r24, 0x2A	; 42
    28c0:	89 83       	std	Y+1, r24	; 0x01
    28c2:	6f b7       	in	r22, 0x3f	; 63
    28c4:	f8 94       	cli
    28c6:	de 01       	movw	r26, r28
    28c8:	13 96       	adiw	r26, 0x03	; 3
    28ca:	40 e0       	ldi	r20, 0x00	; 0
    28cc:	5e e0       	ldi	r21, 0x0E	; 14
    28ce:	cd 01       	movw	r24, r26
    28d0:	71 e2       	ldi	r23, 0x21	; 33
    28d2:	e5 2f       	mov	r30, r21
    28d4:	f0 e0       	ldi	r31, 0x00	; 0
    28d6:	70 93 57 00 	sts	0x0057, r23	; 0x800057 <__TEXT_REGION_LENGTH__+0x7e0057>
    28da:	e4 91       	lpm	r30, Z
    28dc:	40 ff       	sbrs	r20, 0
    28de:	03 c0       	rjmp	.+6      	; 0x28e6 <USB_Device_ProcessControlRequest+0x1d0>
    28e0:	e2 95       	swap	r30
    28e2:	ef 70       	andi	r30, 0x0F	; 15
    28e4:	5f 5f       	subi	r21, 0xFF	; 255
    28e6:	ef 70       	andi	r30, 0x0F	; 15
    28e8:	2e 2f       	mov	r18, r30
    28ea:	30 e0       	ldi	r19, 0x00	; 0
    28ec:	ea 30       	cpi	r30, 0x0A	; 10
    28ee:	18 f0       	brcs	.+6      	; 0x28f6 <USB_Device_ProcessControlRequest+0x1e0>
    28f0:	29 5c       	subi	r18, 0xC9	; 201
    28f2:	3f 4f       	sbci	r19, 0xFF	; 255
    28f4:	02 c0       	rjmp	.+4      	; 0x28fa <USB_Device_ProcessControlRequest+0x1e4>
    28f6:	20 5d       	subi	r18, 0xD0	; 208
    28f8:	3f 4f       	sbci	r19, 0xFF	; 255
    28fa:	2d 93       	st	X+, r18
    28fc:	3d 93       	st	X+, r19
    28fe:	4f 5f       	subi	r20, 0xFF	; 255
    2900:	44 31       	cpi	r20, 0x14	; 20
    2902:	39 f7       	brne	.-50     	; 0x28d2 <USB_Device_ProcessControlRequest+0x1bc>
    2904:	6f bf       	out	0x3f, r22	; 63
    2906:	e0 91 2e 01 	lds	r30, 0x012E	; 0x80012e <LUFA_DREG_HOOK_INTERNAL_SERIAL>
    290a:	f0 91 2f 01 	lds	r31, 0x012F	; 0x80012f <LUFA_DREG_HOOK_INTERNAL_SERIAL+0x1>
    290e:	30 97       	sbiw	r30, 0x00	; 0
    2910:	19 f0       	breq	.+6      	; 0x2918 <USB_Device_ProcessControlRequest+0x202>
    2912:	64 e1       	ldi	r22, 0x14	; 20
    2914:	70 e0       	ldi	r23, 0x00	; 0
    2916:	09 95       	icall
    2918:	80 91 e8 00 	lds	r24, 0x00E8	; 0x8000e8 <__TEXT_REGION_LENGTH__+0x7e00e8>
    291c:	87 7f       	andi	r24, 0xF7	; 247
    291e:	80 93 e8 00 	sts	0x00E8, r24	; 0x8000e8 <__TEXT_REGION_LENGTH__+0x7e00e8>
    2922:	6a e2       	ldi	r22, 0x2A	; 42
    2924:	70 e0       	ldi	r23, 0x00	; 0
    2926:	ce 01       	movw	r24, r28
    2928:	01 96       	adiw	r24, 0x01	; 1
    292a:	14 c0       	rjmp	.+40     	; 0x2954 <USB_Device_ProcessControlRequest+0x23e>
    292c:	60 91 6f 09 	lds	r22, 0x096F	; 0x80096f <USB_ControlRequest+0x4>
    2930:	70 91 70 09 	lds	r23, 0x0970	; 0x800970 <USB_ControlRequest+0x5>
    2934:	ae 01       	movw	r20, r28
    2936:	4f 5f       	subi	r20, 0xFF	; 255
    2938:	5f 4f       	sbci	r21, 0xFF	; 255
    293a:	0e 94 ff 03 	call	0x7fe	; 0x7fe <CALLBACK_USB_GetDescriptor>
    293e:	bc 01       	movw	r22, r24
    2940:	89 2b       	or	r24, r25
    2942:	09 f4       	brne	.+2      	; 0x2946 <USB_Device_ProcessControlRequest+0x230>
    2944:	3f c0       	rjmp	.+126    	; 0x29c4 <USB_Device_ProcessControlRequest+0x2ae>
    2946:	90 91 e8 00 	lds	r25, 0x00E8	; 0x8000e8 <__TEXT_REGION_LENGTH__+0x7e00e8>
    294a:	97 7f       	andi	r25, 0xF7	; 247
    294c:	90 93 e8 00 	sts	0x00E8, r25	; 0x8000e8 <__TEXT_REGION_LENGTH__+0x7e00e8>
    2950:	89 81       	ldd	r24, Y+1	; 0x01
    2952:	9a 81       	ldd	r25, Y+2	; 0x02
    2954:	09 dc       	rcall	.-2030   	; 0x2168 <Endpoint_Write_Control_Stream_LE>
    2956:	80 91 e8 00 	lds	r24, 0x00E8	; 0x8000e8 <__TEXT_REGION_LENGTH__+0x7e00e8>
    295a:	8b 77       	andi	r24, 0x7B	; 123
    295c:	80 93 e8 00 	sts	0x00E8, r24	; 0x8000e8 <__TEXT_REGION_LENGTH__+0x7e00e8>
    2960:	31 c0       	rjmp	.+98     	; 0x29c4 <USB_Device_ProcessControlRequest+0x2ae>
    2962:	80 38       	cpi	r24, 0x80	; 128
    2964:	79 f5       	brne	.+94     	; 0x29c4 <USB_Device_ProcessControlRequest+0x2ae>
    2966:	80 91 e8 00 	lds	r24, 0x00E8	; 0x8000e8 <__TEXT_REGION_LENGTH__+0x7e00e8>
    296a:	87 7f       	andi	r24, 0xF7	; 247
    296c:	80 93 e8 00 	sts	0x00E8, r24	; 0x8000e8 <__TEXT_REGION_LENGTH__+0x7e00e8>
    2970:	80 91 66 09 	lds	r24, 0x0966	; 0x800966 <USB_Device_ConfigurationNumber>
    2974:	80 93 f1 00 	sts	0x00F1, r24	; 0x8000f1 <__TEXT_REGION_LENGTH__+0x7e00f1>
    2978:	80 91 e8 00 	lds	r24, 0x00E8	; 0x8000e8 <__TEXT_REGION_LENGTH__+0x7e00e8>
    297c:	8e 77       	andi	r24, 0x7E	; 126
    297e:	6b cf       	rjmp	.-298    	; 0x2856 <USB_Device_ProcessControlRequest+0x140>
    2980:	81 11       	cpse	r24, r1
    2982:	20 c0       	rjmp	.+64     	; 0x29c4 <USB_Device_ProcessControlRequest+0x2ae>
    2984:	80 91 6d 09 	lds	r24, 0x096D	; 0x80096d <USB_ControlRequest+0x2>
    2988:	90 91 6e 09 	lds	r25, 0x096E	; 0x80096e <USB_ControlRequest+0x3>
    298c:	99 27       	eor	r25, r25
    298e:	02 97       	sbiw	r24, 0x02	; 2
    2990:	cc f4       	brge	.+50     	; 0x29c4 <USB_Device_ProcessControlRequest+0x2ae>
    2992:	80 91 e8 00 	lds	r24, 0x00E8	; 0x8000e8 <__TEXT_REGION_LENGTH__+0x7e00e8>
    2996:	87 7f       	andi	r24, 0xF7	; 247
    2998:	80 93 e8 00 	sts	0x00E8, r24	; 0x8000e8 <__TEXT_REGION_LENGTH__+0x7e00e8>
    299c:	80 91 6d 09 	lds	r24, 0x096D	; 0x80096d <USB_ControlRequest+0x2>
    29a0:	80 93 66 09 	sts	0x0966, r24	; 0x800966 <USB_Device_ConfigurationNumber>
    29a4:	ed dc       	rcall	.-1574   	; 0x2380 <Endpoint_ClearStatusStage>
    29a6:	80 91 66 09 	lds	r24, 0x0966	; 0x800966 <USB_Device_ConfigurationNumber>
    29aa:	81 11       	cpse	r24, r1
    29ac:	06 c0       	rjmp	.+12     	; 0x29ba <USB_Device_ProcessControlRequest+0x2a4>
    29ae:	80 91 e3 00 	lds	r24, 0x00E3	; 0x8000e3 <__TEXT_REGION_LENGTH__+0x7e00e3>
    29b2:	87 fd       	sbrc	r24, 7
    29b4:	02 c0       	rjmp	.+4      	; 0x29ba <USB_Device_ProcessControlRequest+0x2a4>
    29b6:	81 e0       	ldi	r24, 0x01	; 1
    29b8:	01 c0       	rjmp	.+2      	; 0x29bc <USB_Device_ProcessControlRequest+0x2a6>
    29ba:	84 e0       	ldi	r24, 0x04	; 4
    29bc:	80 93 6a 09 	sts	0x096A, r24	; 0x80096a <USB_DeviceState>
    29c0:	0e 94 e0 05 	call	0xbc0	; 0xbc0 <EVENT_USB_Device_ConfigurationChanged>
    29c4:	80 91 e8 00 	lds	r24, 0x00E8	; 0x8000e8 <__TEXT_REGION_LENGTH__+0x7e00e8>
    29c8:	83 ff       	sbrs	r24, 3
    29ca:	0a c0       	rjmp	.+20     	; 0x29e0 <USB_Device_ProcessControlRequest+0x2ca>
    29cc:	80 91 e8 00 	lds	r24, 0x00E8	; 0x8000e8 <__TEXT_REGION_LENGTH__+0x7e00e8>
    29d0:	87 7f       	andi	r24, 0xF7	; 247
    29d2:	80 93 e8 00 	sts	0x00E8, r24	; 0x8000e8 <__TEXT_REGION_LENGTH__+0x7e00e8>
    29d6:	80 91 eb 00 	lds	r24, 0x00EB	; 0x8000eb <__TEXT_REGION_LENGTH__+0x7e00eb>
    29da:	80 62       	ori	r24, 0x20	; 32
    29dc:	80 93 eb 00 	sts	0x00EB, r24	; 0x8000eb <__TEXT_REGION_LENGTH__+0x7e00eb>
    29e0:	aa 96       	adiw	r28, 0x2a	; 42
    29e2:	0f b6       	in	r0, 0x3f	; 63
    29e4:	f8 94       	cli
    29e6:	de bf       	out	0x3e, r29	; 62
    29e8:	0f be       	out	0x3f, r0	; 63
    29ea:	cd bf       	out	0x3d, r28	; 61
    29ec:	df 91       	pop	r29
    29ee:	cf 91       	pop	r28
    29f0:	1f 91       	pop	r17
    29f2:	08 95       	ret

000029f4 <USB_Event_Stub>:
    29f4:	08 95       	ret

000029f6 <USB_USBTask>:
    29f6:	cf 93       	push	r28
    29f8:	80 91 6a 09 	lds	r24, 0x096A	; 0x80096a <USB_DeviceState>
    29fc:	88 23       	and	r24, r24
    29fe:	99 f0       	breq	.+38     	; 0x2a26 <USB_USBTask+0x30>
    2a00:	c0 91 e9 00 	lds	r28, 0x00E9	; 0x8000e9 <__TEXT_REGION_LENGTH__+0x7e00e9>
    2a04:	cf 70       	andi	r28, 0x0F	; 15
    2a06:	90 91 ec 00 	lds	r25, 0x00EC	; 0x8000ec <__TEXT_REGION_LENGTH__+0x7e00ec>
    2a0a:	89 2f       	mov	r24, r25
    2a0c:	81 70       	andi	r24, 0x01	; 1
    2a0e:	90 fd       	sbrc	r25, 0
    2a10:	80 e8       	ldi	r24, 0x80	; 128
    2a12:	c8 2b       	or	r28, r24
    2a14:	10 92 e9 00 	sts	0x00E9, r1	; 0x8000e9 <__TEXT_REGION_LENGTH__+0x7e00e9>
    2a18:	80 91 e8 00 	lds	r24, 0x00E8	; 0x8000e8 <__TEXT_REGION_LENGTH__+0x7e00e8>
    2a1c:	83 fd       	sbrc	r24, 3
    2a1e:	7b de       	rcall	.-778    	; 0x2716 <USB_Device_ProcessControlRequest>
    2a20:	cf 70       	andi	r28, 0x0F	; 15
    2a22:	c0 93 e9 00 	sts	0x00E9, r28	; 0x8000e9 <__TEXT_REGION_LENGTH__+0x7e00e9>
    2a26:	cf 91       	pop	r28
    2a28:	08 95       	ret

00002a2a <__udivmodqi4>:
    2a2a:	99 1b       	sub	r25, r25
    2a2c:	79 e0       	ldi	r23, 0x09	; 9
    2a2e:	04 c0       	rjmp	.+8      	; 0x2a38 <__udivmodqi4_ep>

00002a30 <__udivmodqi4_loop>:
    2a30:	99 1f       	adc	r25, r25
    2a32:	96 17       	cp	r25, r22
    2a34:	08 f0       	brcs	.+2      	; 0x2a38 <__udivmodqi4_ep>
    2a36:	96 1b       	sub	r25, r22

00002a38 <__udivmodqi4_ep>:
    2a38:	88 1f       	adc	r24, r24
    2a3a:	7a 95       	dec	r23
    2a3c:	c9 f7       	brne	.-14     	; 0x2a30 <__udivmodqi4_loop>
    2a3e:	80 95       	com	r24
    2a40:	08 95       	ret

00002a42 <__udivmodhi4>:
    2a42:	aa 1b       	sub	r26, r26
    2a44:	bb 1b       	sub	r27, r27
    2a46:	51 e1       	ldi	r21, 0x11	; 17
    2a48:	07 c0       	rjmp	.+14     	; 0x2a58 <__udivmodhi4_ep>

00002a4a <__udivmodhi4_loop>:
    2a4a:	aa 1f       	adc	r26, r26
    2a4c:	bb 1f       	adc	r27, r27
    2a4e:	a6 17       	cp	r26, r22
    2a50:	b7 07       	cpc	r27, r23
    2a52:	10 f0       	brcs	.+4      	; 0x2a58 <__udivmodhi4_ep>
    2a54:	a6 1b       	sub	r26, r22
    2a56:	b7 0b       	sbc	r27, r23

00002a58 <__udivmodhi4_ep>:
    2a58:	88 1f       	adc	r24, r24
    2a5a:	99 1f       	adc	r25, r25
    2a5c:	5a 95       	dec	r21
    2a5e:	a9 f7       	brne	.-22     	; 0x2a4a <__udivmodhi4_loop>
    2a60:	80 95       	com	r24
    2a62:	90 95       	com	r25
    2a64:	bc 01       	movw	r22, r24
    2a66:	cd 01       	movw	r24, r26
    2a68:	08 95       	ret

00002a6a <__udivmodsi4>:
    2a6a:	a1 e2       	ldi	r26, 0x21	; 33
    2a6c:	1a 2e       	mov	r1, r26
    2a6e:	aa 1b       	sub	r26, r26
    2a70:	bb 1b       	sub	r27, r27
    2a72:	fd 01       	movw	r30, r26
    2a74:	0d c0       	rjmp	.+26     	; 0x2a90 <__udivmodsi4_ep>

00002a76 <__udivmodsi4_loop>:
    2a76:	aa 1f       	adc	r26, r26
    2a78:	bb 1f       	adc	r27, r27
    2a7a:	ee 1f       	adc	r30, r30
    2a7c:	ff 1f       	adc	r31, r31
    2a7e:	a2 17       	cp	r26, r18
    2a80:	b3 07       	cpc	r27, r19
    2a82:	e4 07       	cpc	r30, r20
    2a84:	f5 07       	cpc	r31, r21
    2a86:	20 f0       	brcs	.+8      	; 0x2a90 <__udivmodsi4_ep>
    2a88:	a2 1b       	sub	r26, r18
    2a8a:	b3 0b       	sbc	r27, r19
    2a8c:	e4 0b       	sbc	r30, r20
    2a8e:	f5 0b       	sbc	r31, r21

00002a90 <__udivmodsi4_ep>:
    2a90:	66 1f       	adc	r22, r22
    2a92:	77 1f       	adc	r23, r23
    2a94:	88 1f       	adc	r24, r24
    2a96:	99 1f       	adc	r25, r25
    2a98:	1a 94       	dec	r1
    2a9a:	69 f7       	brne	.-38     	; 0x2a76 <__udivmodsi4_loop>
    2a9c:	60 95       	com	r22
    2a9e:	70 95       	com	r23
    2aa0:	80 95       	com	r24
    2aa2:	90 95       	com	r25
    2aa4:	9b 01       	movw	r18, r22
    2aa6:	ac 01       	movw	r20, r24
    2aa8:	bd 01       	movw	r22, r26
    2aaa:	cf 01       	movw	r24, r30
    2aac:	08 95       	ret

00002aae <isgraph>:
    2aae:	80 32       	cpi	r24, 0x20	; 32
    2ab0:	09 f0       	breq	.+2      	; 0x2ab4 <isprint+0x2>

00002ab2 <isprint>:
    2ab2:	91 11       	cpse	r25, r1
    2ab4:	c5 c2       	rjmp	.+1418   	; 0x3040 <__ctype_isfalse>
    2ab6:	80 52       	subi	r24, 0x20	; 32
    2ab8:	8f 55       	subi	r24, 0x5F	; 95
    2aba:	e0 f7       	brcc	.-8      	; 0x2ab4 <isprint+0x2>
    2abc:	08 95       	ret

00002abe <memcmp>:
    2abe:	fb 01       	movw	r30, r22
    2ac0:	dc 01       	movw	r26, r24
    2ac2:	04 c0       	rjmp	.+8      	; 0x2acc <memcmp+0xe>
    2ac4:	8d 91       	ld	r24, X+
    2ac6:	01 90       	ld	r0, Z+
    2ac8:	80 19       	sub	r24, r0
    2aca:	21 f4       	brne	.+8      	; 0x2ad4 <memcmp+0x16>
    2acc:	41 50       	subi	r20, 0x01	; 1
    2ace:	50 40       	sbci	r21, 0x00	; 0
    2ad0:	c8 f7       	brcc	.-14     	; 0x2ac4 <memcmp+0x6>
    2ad2:	88 1b       	sub	r24, r24
    2ad4:	99 0b       	sbc	r25, r25
    2ad6:	08 95       	ret

00002ad8 <memcpy>:
    2ad8:	fb 01       	movw	r30, r22
    2ada:	dc 01       	movw	r26, r24
    2adc:	02 c0       	rjmp	.+4      	; 0x2ae2 <memcpy+0xa>
    2ade:	01 90       	ld	r0, Z+
    2ae0:	0d 92       	st	X+, r0
    2ae2:	41 50       	subi	r20, 0x01	; 1
    2ae4:	50 40       	sbci	r21, 0x00	; 0
    2ae6:	d8 f7       	brcc	.-10     	; 0x2ade <memcpy+0x6>
    2ae8:	08 95       	ret

00002aea <memset>:
    2aea:	dc 01       	movw	r26, r24
    2aec:	01 c0       	rjmp	.+2      	; 0x2af0 <memset+0x6>
    2aee:	6d 93       	st	X+, r22
    2af0:	41 50       	subi	r20, 0x01	; 1
    2af2:	50 40       	sbci	r21, 0x00	; 0
    2af4:	e0 f7       	brcc	.-8      	; 0x2aee <memset+0x4>
    2af6:	08 95       	ret

00002af8 <fprintf>:
    2af8:	cf 93       	push	r28
    2afa:	df 93       	push	r29
    2afc:	cd b7       	in	r28, 0x3d	; 61
    2afe:	de b7       	in	r29, 0x3e	; 62
    2b00:	ae 01       	movw	r20, r28
    2b02:	47 5f       	subi	r20, 0xF7	; 247
    2b04:	5f 4f       	sbci	r21, 0xFF	; 255
    2b06:	6f 81       	ldd	r22, Y+7	; 0x07
    2b08:	78 85       	ldd	r23, Y+8	; 0x08
    2b0a:	8d 81       	ldd	r24, Y+5	; 0x05
    2b0c:	9e 81       	ldd	r25, Y+6	; 0x06
    2b0e:	9b d0       	rcall	.+310    	; 0x2c46 <vfprintf>
    2b10:	df 91       	pop	r29
    2b12:	cf 91       	pop	r28
    2b14:	08 95       	ret

00002b16 <printf>:
    2b16:	cf 93       	push	r28
    2b18:	df 93       	push	r29
    2b1a:	cd b7       	in	r28, 0x3d	; 61
    2b1c:	de b7       	in	r29, 0x3e	; 62
    2b1e:	ae 01       	movw	r20, r28
    2b20:	4b 5f       	subi	r20, 0xFB	; 251
    2b22:	5f 4f       	sbci	r21, 0xFF	; 255
    2b24:	fa 01       	movw	r30, r20
    2b26:	61 91       	ld	r22, Z+
    2b28:	71 91       	ld	r23, Z+
    2b2a:	af 01       	movw	r20, r30
    2b2c:	80 91 75 09 	lds	r24, 0x0975	; 0x800975 <__iob+0x2>
    2b30:	90 91 76 09 	lds	r25, 0x0976	; 0x800976 <__iob+0x3>
    2b34:	88 d0       	rcall	.+272    	; 0x2c46 <vfprintf>
    2b36:	df 91       	pop	r29
    2b38:	cf 91       	pop	r28
    2b3a:	08 95       	ret

00002b3c <printf_P>:
    2b3c:	0f 93       	push	r16
    2b3e:	1f 93       	push	r17
    2b40:	cf 93       	push	r28
    2b42:	df 93       	push	r29
    2b44:	cd b7       	in	r28, 0x3d	; 61
    2b46:	de b7       	in	r29, 0x3e	; 62
    2b48:	ae 01       	movw	r20, r28
    2b4a:	49 5f       	subi	r20, 0xF9	; 249
    2b4c:	5f 4f       	sbci	r21, 0xFF	; 255
    2b4e:	da 01       	movw	r26, r20
    2b50:	6d 91       	ld	r22, X+
    2b52:	7d 91       	ld	r23, X+
    2b54:	ad 01       	movw	r20, r26
    2b56:	03 e7       	ldi	r16, 0x73	; 115
    2b58:	19 e0       	ldi	r17, 0x09	; 9
    2b5a:	f8 01       	movw	r30, r16
    2b5c:	82 81       	ldd	r24, Z+2	; 0x02
    2b5e:	93 81       	ldd	r25, Z+3	; 0x03
    2b60:	dc 01       	movw	r26, r24
    2b62:	13 96       	adiw	r26, 0x03	; 3
    2b64:	2c 91       	ld	r18, X
    2b66:	13 97       	sbiw	r26, 0x03	; 3
    2b68:	28 60       	ori	r18, 0x08	; 8
    2b6a:	13 96       	adiw	r26, 0x03	; 3
    2b6c:	2c 93       	st	X, r18
    2b6e:	6b d0       	rcall	.+214    	; 0x2c46 <vfprintf>
    2b70:	d8 01       	movw	r26, r16
    2b72:	12 96       	adiw	r26, 0x02	; 2
    2b74:	ed 91       	ld	r30, X+
    2b76:	fc 91       	ld	r31, X
    2b78:	13 97       	sbiw	r26, 0x03	; 3
    2b7a:	23 81       	ldd	r18, Z+3	; 0x03
    2b7c:	27 7f       	andi	r18, 0xF7	; 247
    2b7e:	23 83       	std	Z+3, r18	; 0x03
    2b80:	df 91       	pop	r29
    2b82:	cf 91       	pop	r28
    2b84:	1f 91       	pop	r17
    2b86:	0f 91       	pop	r16
    2b88:	08 95       	ret

00002b8a <puts>:
    2b8a:	0f 93       	push	r16
    2b8c:	1f 93       	push	r17
    2b8e:	cf 93       	push	r28
    2b90:	df 93       	push	r29
    2b92:	e0 91 75 09 	lds	r30, 0x0975	; 0x800975 <__iob+0x2>
    2b96:	f0 91 76 09 	lds	r31, 0x0976	; 0x800976 <__iob+0x3>
    2b9a:	23 81       	ldd	r18, Z+3	; 0x03
    2b9c:	21 ff       	sbrs	r18, 1
    2b9e:	1b c0       	rjmp	.+54     	; 0x2bd6 <puts+0x4c>
    2ba0:	8c 01       	movw	r16, r24
    2ba2:	d0 e0       	ldi	r29, 0x00	; 0
    2ba4:	c0 e0       	ldi	r28, 0x00	; 0
    2ba6:	f8 01       	movw	r30, r16
    2ba8:	81 91       	ld	r24, Z+
    2baa:	8f 01       	movw	r16, r30
    2bac:	60 91 75 09 	lds	r22, 0x0975	; 0x800975 <__iob+0x2>
    2bb0:	70 91 76 09 	lds	r23, 0x0976	; 0x800976 <__iob+0x3>
    2bb4:	db 01       	movw	r26, r22
    2bb6:	18 96       	adiw	r26, 0x08	; 8
    2bb8:	ed 91       	ld	r30, X+
    2bba:	fc 91       	ld	r31, X
    2bbc:	19 97       	sbiw	r26, 0x09	; 9
    2bbe:	88 23       	and	r24, r24
    2bc0:	31 f0       	breq	.+12     	; 0x2bce <puts+0x44>
    2bc2:	09 95       	icall
    2bc4:	89 2b       	or	r24, r25
    2bc6:	79 f3       	breq	.-34     	; 0x2ba6 <puts+0x1c>
    2bc8:	df ef       	ldi	r29, 0xFF	; 255
    2bca:	cf ef       	ldi	r28, 0xFF	; 255
    2bcc:	ec cf       	rjmp	.-40     	; 0x2ba6 <puts+0x1c>
    2bce:	8a e0       	ldi	r24, 0x0A	; 10
    2bd0:	09 95       	icall
    2bd2:	89 2b       	or	r24, r25
    2bd4:	19 f0       	breq	.+6      	; 0x2bdc <puts+0x52>
    2bd6:	8f ef       	ldi	r24, 0xFF	; 255
    2bd8:	9f ef       	ldi	r25, 0xFF	; 255
    2bda:	02 c0       	rjmp	.+4      	; 0x2be0 <puts+0x56>
    2bdc:	8d 2f       	mov	r24, r29
    2bde:	9c 2f       	mov	r25, r28
    2be0:	df 91       	pop	r29
    2be2:	cf 91       	pop	r28
    2be4:	1f 91       	pop	r17
    2be6:	0f 91       	pop	r16
    2be8:	08 95       	ret

00002bea <sprintf>:
    2bea:	0f 93       	push	r16
    2bec:	1f 93       	push	r17
    2bee:	cf 93       	push	r28
    2bf0:	df 93       	push	r29
    2bf2:	cd b7       	in	r28, 0x3d	; 61
    2bf4:	de b7       	in	r29, 0x3e	; 62
    2bf6:	2e 97       	sbiw	r28, 0x0e	; 14
    2bf8:	0f b6       	in	r0, 0x3f	; 63
    2bfa:	f8 94       	cli
    2bfc:	de bf       	out	0x3e, r29	; 62
    2bfe:	0f be       	out	0x3f, r0	; 63
    2c00:	cd bf       	out	0x3d, r28	; 61
    2c02:	0d 89       	ldd	r16, Y+21	; 0x15
    2c04:	1e 89       	ldd	r17, Y+22	; 0x16
    2c06:	86 e0       	ldi	r24, 0x06	; 6
    2c08:	8c 83       	std	Y+4, r24	; 0x04
    2c0a:	1a 83       	std	Y+2, r17	; 0x02
    2c0c:	09 83       	std	Y+1, r16	; 0x01
    2c0e:	8f ef       	ldi	r24, 0xFF	; 255
    2c10:	9f e7       	ldi	r25, 0x7F	; 127
    2c12:	9e 83       	std	Y+6, r25	; 0x06
    2c14:	8d 83       	std	Y+5, r24	; 0x05
    2c16:	ae 01       	movw	r20, r28
    2c18:	47 5e       	subi	r20, 0xE7	; 231
    2c1a:	5f 4f       	sbci	r21, 0xFF	; 255
    2c1c:	6f 89       	ldd	r22, Y+23	; 0x17
    2c1e:	78 8d       	ldd	r23, Y+24	; 0x18
    2c20:	ce 01       	movw	r24, r28
    2c22:	01 96       	adiw	r24, 0x01	; 1
    2c24:	10 d0       	rcall	.+32     	; 0x2c46 <vfprintf>
    2c26:	ef 81       	ldd	r30, Y+7	; 0x07
    2c28:	f8 85       	ldd	r31, Y+8	; 0x08
    2c2a:	e0 0f       	add	r30, r16
    2c2c:	f1 1f       	adc	r31, r17
    2c2e:	10 82       	st	Z, r1
    2c30:	2e 96       	adiw	r28, 0x0e	; 14
    2c32:	0f b6       	in	r0, 0x3f	; 63
    2c34:	f8 94       	cli
    2c36:	de bf       	out	0x3e, r29	; 62
    2c38:	0f be       	out	0x3f, r0	; 63
    2c3a:	cd bf       	out	0x3d, r28	; 61
    2c3c:	df 91       	pop	r29
    2c3e:	cf 91       	pop	r28
    2c40:	1f 91       	pop	r17
    2c42:	0f 91       	pop	r16
    2c44:	08 95       	ret

00002c46 <vfprintf>:
    2c46:	2f 92       	push	r2
    2c48:	3f 92       	push	r3
    2c4a:	4f 92       	push	r4
    2c4c:	5f 92       	push	r5
    2c4e:	6f 92       	push	r6
    2c50:	7f 92       	push	r7
    2c52:	8f 92       	push	r8
    2c54:	9f 92       	push	r9
    2c56:	af 92       	push	r10
    2c58:	bf 92       	push	r11
    2c5a:	cf 92       	push	r12
    2c5c:	df 92       	push	r13
    2c5e:	ef 92       	push	r14
    2c60:	ff 92       	push	r15
    2c62:	0f 93       	push	r16
    2c64:	1f 93       	push	r17
    2c66:	cf 93       	push	r28
    2c68:	df 93       	push	r29
    2c6a:	cd b7       	in	r28, 0x3d	; 61
    2c6c:	de b7       	in	r29, 0x3e	; 62
    2c6e:	2b 97       	sbiw	r28, 0x0b	; 11
    2c70:	0f b6       	in	r0, 0x3f	; 63
    2c72:	f8 94       	cli
    2c74:	de bf       	out	0x3e, r29	; 62
    2c76:	0f be       	out	0x3f, r0	; 63
    2c78:	cd bf       	out	0x3d, r28	; 61
    2c7a:	6c 01       	movw	r12, r24
    2c7c:	7b 01       	movw	r14, r22
    2c7e:	8a 01       	movw	r16, r20
    2c80:	fc 01       	movw	r30, r24
    2c82:	17 82       	std	Z+7, r1	; 0x07
    2c84:	16 82       	std	Z+6, r1	; 0x06
    2c86:	83 81       	ldd	r24, Z+3	; 0x03
    2c88:	81 ff       	sbrs	r24, 1
    2c8a:	bf c1       	rjmp	.+894    	; 0x300a <vfprintf+0x3c4>
    2c8c:	ce 01       	movw	r24, r28
    2c8e:	01 96       	adiw	r24, 0x01	; 1
    2c90:	3c 01       	movw	r6, r24
    2c92:	f6 01       	movw	r30, r12
    2c94:	93 81       	ldd	r25, Z+3	; 0x03
    2c96:	f7 01       	movw	r30, r14
    2c98:	93 fd       	sbrc	r25, 3
    2c9a:	85 91       	lpm	r24, Z+
    2c9c:	93 ff       	sbrs	r25, 3
    2c9e:	81 91       	ld	r24, Z+
    2ca0:	7f 01       	movw	r14, r30
    2ca2:	88 23       	and	r24, r24
    2ca4:	09 f4       	brne	.+2      	; 0x2ca8 <vfprintf+0x62>
    2ca6:	ad c1       	rjmp	.+858    	; 0x3002 <vfprintf+0x3bc>
    2ca8:	85 32       	cpi	r24, 0x25	; 37
    2caa:	39 f4       	brne	.+14     	; 0x2cba <vfprintf+0x74>
    2cac:	93 fd       	sbrc	r25, 3
    2cae:	85 91       	lpm	r24, Z+
    2cb0:	93 ff       	sbrs	r25, 3
    2cb2:	81 91       	ld	r24, Z+
    2cb4:	7f 01       	movw	r14, r30
    2cb6:	85 32       	cpi	r24, 0x25	; 37
    2cb8:	21 f4       	brne	.+8      	; 0x2cc2 <vfprintf+0x7c>
    2cba:	b6 01       	movw	r22, r12
    2cbc:	90 e0       	ldi	r25, 0x00	; 0
    2cbe:	d9 d1       	rcall	.+946    	; 0x3072 <fputc>
    2cc0:	e8 cf       	rjmp	.-48     	; 0x2c92 <vfprintf+0x4c>
    2cc2:	91 2c       	mov	r9, r1
    2cc4:	21 2c       	mov	r2, r1
    2cc6:	31 2c       	mov	r3, r1
    2cc8:	ff e1       	ldi	r31, 0x1F	; 31
    2cca:	f3 15       	cp	r31, r3
    2ccc:	d8 f0       	brcs	.+54     	; 0x2d04 <vfprintf+0xbe>
    2cce:	8b 32       	cpi	r24, 0x2B	; 43
    2cd0:	79 f0       	breq	.+30     	; 0x2cf0 <vfprintf+0xaa>
    2cd2:	38 f4       	brcc	.+14     	; 0x2ce2 <vfprintf+0x9c>
    2cd4:	80 32       	cpi	r24, 0x20	; 32
    2cd6:	79 f0       	breq	.+30     	; 0x2cf6 <vfprintf+0xb0>
    2cd8:	83 32       	cpi	r24, 0x23	; 35
    2cda:	a1 f4       	brne	.+40     	; 0x2d04 <vfprintf+0xbe>
    2cdc:	23 2d       	mov	r18, r3
    2cde:	20 61       	ori	r18, 0x10	; 16
    2ce0:	1d c0       	rjmp	.+58     	; 0x2d1c <vfprintf+0xd6>
    2ce2:	8d 32       	cpi	r24, 0x2D	; 45
    2ce4:	61 f0       	breq	.+24     	; 0x2cfe <vfprintf+0xb8>
    2ce6:	80 33       	cpi	r24, 0x30	; 48
    2ce8:	69 f4       	brne	.+26     	; 0x2d04 <vfprintf+0xbe>
    2cea:	23 2d       	mov	r18, r3
    2cec:	21 60       	ori	r18, 0x01	; 1
    2cee:	16 c0       	rjmp	.+44     	; 0x2d1c <vfprintf+0xd6>
    2cf0:	83 2d       	mov	r24, r3
    2cf2:	82 60       	ori	r24, 0x02	; 2
    2cf4:	38 2e       	mov	r3, r24
    2cf6:	e3 2d       	mov	r30, r3
    2cf8:	e4 60       	ori	r30, 0x04	; 4
    2cfa:	3e 2e       	mov	r3, r30
    2cfc:	2a c0       	rjmp	.+84     	; 0x2d52 <vfprintf+0x10c>
    2cfe:	f3 2d       	mov	r31, r3
    2d00:	f8 60       	ori	r31, 0x08	; 8
    2d02:	1d c0       	rjmp	.+58     	; 0x2d3e <vfprintf+0xf8>
    2d04:	37 fc       	sbrc	r3, 7
    2d06:	2d c0       	rjmp	.+90     	; 0x2d62 <vfprintf+0x11c>
    2d08:	20 ed       	ldi	r18, 0xD0	; 208
    2d0a:	28 0f       	add	r18, r24
    2d0c:	2a 30       	cpi	r18, 0x0A	; 10
    2d0e:	40 f0       	brcs	.+16     	; 0x2d20 <vfprintf+0xda>
    2d10:	8e 32       	cpi	r24, 0x2E	; 46
    2d12:	b9 f4       	brne	.+46     	; 0x2d42 <vfprintf+0xfc>
    2d14:	36 fc       	sbrc	r3, 6
    2d16:	75 c1       	rjmp	.+746    	; 0x3002 <vfprintf+0x3bc>
    2d18:	23 2d       	mov	r18, r3
    2d1a:	20 64       	ori	r18, 0x40	; 64
    2d1c:	32 2e       	mov	r3, r18
    2d1e:	19 c0       	rjmp	.+50     	; 0x2d52 <vfprintf+0x10c>
    2d20:	36 fe       	sbrs	r3, 6
    2d22:	06 c0       	rjmp	.+12     	; 0x2d30 <vfprintf+0xea>
    2d24:	8a e0       	ldi	r24, 0x0A	; 10
    2d26:	98 9e       	mul	r9, r24
    2d28:	20 0d       	add	r18, r0
    2d2a:	11 24       	eor	r1, r1
    2d2c:	92 2e       	mov	r9, r18
    2d2e:	11 c0       	rjmp	.+34     	; 0x2d52 <vfprintf+0x10c>
    2d30:	ea e0       	ldi	r30, 0x0A	; 10
    2d32:	2e 9e       	mul	r2, r30
    2d34:	20 0d       	add	r18, r0
    2d36:	11 24       	eor	r1, r1
    2d38:	22 2e       	mov	r2, r18
    2d3a:	f3 2d       	mov	r31, r3
    2d3c:	f0 62       	ori	r31, 0x20	; 32
    2d3e:	3f 2e       	mov	r3, r31
    2d40:	08 c0       	rjmp	.+16     	; 0x2d52 <vfprintf+0x10c>
    2d42:	8c 36       	cpi	r24, 0x6C	; 108
    2d44:	21 f4       	brne	.+8      	; 0x2d4e <vfprintf+0x108>
    2d46:	83 2d       	mov	r24, r3
    2d48:	80 68       	ori	r24, 0x80	; 128
    2d4a:	38 2e       	mov	r3, r24
    2d4c:	02 c0       	rjmp	.+4      	; 0x2d52 <vfprintf+0x10c>
    2d4e:	88 36       	cpi	r24, 0x68	; 104
    2d50:	41 f4       	brne	.+16     	; 0x2d62 <vfprintf+0x11c>
    2d52:	f7 01       	movw	r30, r14
    2d54:	93 fd       	sbrc	r25, 3
    2d56:	85 91       	lpm	r24, Z+
    2d58:	93 ff       	sbrs	r25, 3
    2d5a:	81 91       	ld	r24, Z+
    2d5c:	7f 01       	movw	r14, r30
    2d5e:	81 11       	cpse	r24, r1
    2d60:	b3 cf       	rjmp	.-154    	; 0x2cc8 <vfprintf+0x82>
    2d62:	98 2f       	mov	r25, r24
    2d64:	9f 7d       	andi	r25, 0xDF	; 223
    2d66:	95 54       	subi	r25, 0x45	; 69
    2d68:	93 30       	cpi	r25, 0x03	; 3
    2d6a:	28 f4       	brcc	.+10     	; 0x2d76 <vfprintf+0x130>
    2d6c:	0c 5f       	subi	r16, 0xFC	; 252
    2d6e:	1f 4f       	sbci	r17, 0xFF	; 255
    2d70:	9f e3       	ldi	r25, 0x3F	; 63
    2d72:	99 83       	std	Y+1, r25	; 0x01
    2d74:	0d c0       	rjmp	.+26     	; 0x2d90 <vfprintf+0x14a>
    2d76:	83 36       	cpi	r24, 0x63	; 99
    2d78:	31 f0       	breq	.+12     	; 0x2d86 <vfprintf+0x140>
    2d7a:	83 37       	cpi	r24, 0x73	; 115
    2d7c:	71 f0       	breq	.+28     	; 0x2d9a <vfprintf+0x154>
    2d7e:	83 35       	cpi	r24, 0x53	; 83
    2d80:	09 f0       	breq	.+2      	; 0x2d84 <vfprintf+0x13e>
    2d82:	55 c0       	rjmp	.+170    	; 0x2e2e <vfprintf+0x1e8>
    2d84:	20 c0       	rjmp	.+64     	; 0x2dc6 <vfprintf+0x180>
    2d86:	f8 01       	movw	r30, r16
    2d88:	80 81       	ld	r24, Z
    2d8a:	89 83       	std	Y+1, r24	; 0x01
    2d8c:	0e 5f       	subi	r16, 0xFE	; 254
    2d8e:	1f 4f       	sbci	r17, 0xFF	; 255
    2d90:	88 24       	eor	r8, r8
    2d92:	83 94       	inc	r8
    2d94:	91 2c       	mov	r9, r1
    2d96:	53 01       	movw	r10, r6
    2d98:	12 c0       	rjmp	.+36     	; 0x2dbe <vfprintf+0x178>
    2d9a:	28 01       	movw	r4, r16
    2d9c:	f2 e0       	ldi	r31, 0x02	; 2
    2d9e:	4f 0e       	add	r4, r31
    2da0:	51 1c       	adc	r5, r1
    2da2:	f8 01       	movw	r30, r16
    2da4:	a0 80       	ld	r10, Z
    2da6:	b1 80       	ldd	r11, Z+1	; 0x01
    2da8:	36 fe       	sbrs	r3, 6
    2daa:	03 c0       	rjmp	.+6      	; 0x2db2 <vfprintf+0x16c>
    2dac:	69 2d       	mov	r22, r9
    2dae:	70 e0       	ldi	r23, 0x00	; 0
    2db0:	02 c0       	rjmp	.+4      	; 0x2db6 <vfprintf+0x170>
    2db2:	6f ef       	ldi	r22, 0xFF	; 255
    2db4:	7f ef       	ldi	r23, 0xFF	; 255
    2db6:	c5 01       	movw	r24, r10
    2db8:	51 d1       	rcall	.+674    	; 0x305c <strnlen>
    2dba:	4c 01       	movw	r8, r24
    2dbc:	82 01       	movw	r16, r4
    2dbe:	f3 2d       	mov	r31, r3
    2dc0:	ff 77       	andi	r31, 0x7F	; 127
    2dc2:	3f 2e       	mov	r3, r31
    2dc4:	15 c0       	rjmp	.+42     	; 0x2df0 <vfprintf+0x1aa>
    2dc6:	28 01       	movw	r4, r16
    2dc8:	22 e0       	ldi	r18, 0x02	; 2
    2dca:	42 0e       	add	r4, r18
    2dcc:	51 1c       	adc	r5, r1
    2dce:	f8 01       	movw	r30, r16
    2dd0:	a0 80       	ld	r10, Z
    2dd2:	b1 80       	ldd	r11, Z+1	; 0x01
    2dd4:	36 fe       	sbrs	r3, 6
    2dd6:	03 c0       	rjmp	.+6      	; 0x2dde <vfprintf+0x198>
    2dd8:	69 2d       	mov	r22, r9
    2dda:	70 e0       	ldi	r23, 0x00	; 0
    2ddc:	02 c0       	rjmp	.+4      	; 0x2de2 <vfprintf+0x19c>
    2dde:	6f ef       	ldi	r22, 0xFF	; 255
    2de0:	7f ef       	ldi	r23, 0xFF	; 255
    2de2:	c5 01       	movw	r24, r10
    2de4:	30 d1       	rcall	.+608    	; 0x3046 <strnlen_P>
    2de6:	4c 01       	movw	r8, r24
    2de8:	f3 2d       	mov	r31, r3
    2dea:	f0 68       	ori	r31, 0x80	; 128
    2dec:	3f 2e       	mov	r3, r31
    2dee:	82 01       	movw	r16, r4
    2df0:	33 fc       	sbrc	r3, 3
    2df2:	19 c0       	rjmp	.+50     	; 0x2e26 <vfprintf+0x1e0>
    2df4:	82 2d       	mov	r24, r2
    2df6:	90 e0       	ldi	r25, 0x00	; 0
    2df8:	88 16       	cp	r8, r24
    2dfa:	99 06       	cpc	r9, r25
    2dfc:	a0 f4       	brcc	.+40     	; 0x2e26 <vfprintf+0x1e0>
    2dfe:	b6 01       	movw	r22, r12
    2e00:	80 e2       	ldi	r24, 0x20	; 32
    2e02:	90 e0       	ldi	r25, 0x00	; 0
    2e04:	36 d1       	rcall	.+620    	; 0x3072 <fputc>
    2e06:	2a 94       	dec	r2
    2e08:	f5 cf       	rjmp	.-22     	; 0x2df4 <vfprintf+0x1ae>
    2e0a:	f5 01       	movw	r30, r10
    2e0c:	37 fc       	sbrc	r3, 7
    2e0e:	85 91       	lpm	r24, Z+
    2e10:	37 fe       	sbrs	r3, 7
    2e12:	81 91       	ld	r24, Z+
    2e14:	5f 01       	movw	r10, r30
    2e16:	b6 01       	movw	r22, r12
    2e18:	90 e0       	ldi	r25, 0x00	; 0
    2e1a:	2b d1       	rcall	.+598    	; 0x3072 <fputc>
    2e1c:	21 10       	cpse	r2, r1
    2e1e:	2a 94       	dec	r2
    2e20:	21 e0       	ldi	r18, 0x01	; 1
    2e22:	82 1a       	sub	r8, r18
    2e24:	91 08       	sbc	r9, r1
    2e26:	81 14       	cp	r8, r1
    2e28:	91 04       	cpc	r9, r1
    2e2a:	79 f7       	brne	.-34     	; 0x2e0a <vfprintf+0x1c4>
    2e2c:	e1 c0       	rjmp	.+450    	; 0x2ff0 <vfprintf+0x3aa>
    2e2e:	84 36       	cpi	r24, 0x64	; 100
    2e30:	11 f0       	breq	.+4      	; 0x2e36 <vfprintf+0x1f0>
    2e32:	89 36       	cpi	r24, 0x69	; 105
    2e34:	39 f5       	brne	.+78     	; 0x2e84 <vfprintf+0x23e>
    2e36:	f8 01       	movw	r30, r16
    2e38:	37 fe       	sbrs	r3, 7
    2e3a:	07 c0       	rjmp	.+14     	; 0x2e4a <vfprintf+0x204>
    2e3c:	60 81       	ld	r22, Z
    2e3e:	71 81       	ldd	r23, Z+1	; 0x01
    2e40:	82 81       	ldd	r24, Z+2	; 0x02
    2e42:	93 81       	ldd	r25, Z+3	; 0x03
    2e44:	0c 5f       	subi	r16, 0xFC	; 252
    2e46:	1f 4f       	sbci	r17, 0xFF	; 255
    2e48:	08 c0       	rjmp	.+16     	; 0x2e5a <vfprintf+0x214>
    2e4a:	60 81       	ld	r22, Z
    2e4c:	71 81       	ldd	r23, Z+1	; 0x01
    2e4e:	07 2e       	mov	r0, r23
    2e50:	00 0c       	add	r0, r0
    2e52:	88 0b       	sbc	r24, r24
    2e54:	99 0b       	sbc	r25, r25
    2e56:	0e 5f       	subi	r16, 0xFE	; 254
    2e58:	1f 4f       	sbci	r17, 0xFF	; 255
    2e5a:	f3 2d       	mov	r31, r3
    2e5c:	ff 76       	andi	r31, 0x6F	; 111
    2e5e:	3f 2e       	mov	r3, r31
    2e60:	97 ff       	sbrs	r25, 7
    2e62:	09 c0       	rjmp	.+18     	; 0x2e76 <vfprintf+0x230>
    2e64:	90 95       	com	r25
    2e66:	80 95       	com	r24
    2e68:	70 95       	com	r23
    2e6a:	61 95       	neg	r22
    2e6c:	7f 4f       	sbci	r23, 0xFF	; 255
    2e6e:	8f 4f       	sbci	r24, 0xFF	; 255
    2e70:	9f 4f       	sbci	r25, 0xFF	; 255
    2e72:	f0 68       	ori	r31, 0x80	; 128
    2e74:	3f 2e       	mov	r3, r31
    2e76:	2a e0       	ldi	r18, 0x0A	; 10
    2e78:	30 e0       	ldi	r19, 0x00	; 0
    2e7a:	a3 01       	movw	r20, r6
    2e7c:	36 d1       	rcall	.+620    	; 0x30ea <__ultoa_invert>
    2e7e:	88 2e       	mov	r8, r24
    2e80:	86 18       	sub	r8, r6
    2e82:	44 c0       	rjmp	.+136    	; 0x2f0c <vfprintf+0x2c6>
    2e84:	85 37       	cpi	r24, 0x75	; 117
    2e86:	31 f4       	brne	.+12     	; 0x2e94 <vfprintf+0x24e>
    2e88:	23 2d       	mov	r18, r3
    2e8a:	2f 7e       	andi	r18, 0xEF	; 239
    2e8c:	b2 2e       	mov	r11, r18
    2e8e:	2a e0       	ldi	r18, 0x0A	; 10
    2e90:	30 e0       	ldi	r19, 0x00	; 0
    2e92:	25 c0       	rjmp	.+74     	; 0x2ede <vfprintf+0x298>
    2e94:	93 2d       	mov	r25, r3
    2e96:	99 7f       	andi	r25, 0xF9	; 249
    2e98:	b9 2e       	mov	r11, r25
    2e9a:	8f 36       	cpi	r24, 0x6F	; 111
    2e9c:	c1 f0       	breq	.+48     	; 0x2ece <vfprintf+0x288>
    2e9e:	18 f4       	brcc	.+6      	; 0x2ea6 <vfprintf+0x260>
    2ea0:	88 35       	cpi	r24, 0x58	; 88
    2ea2:	79 f0       	breq	.+30     	; 0x2ec2 <vfprintf+0x27c>
    2ea4:	ae c0       	rjmp	.+348    	; 0x3002 <vfprintf+0x3bc>
    2ea6:	80 37       	cpi	r24, 0x70	; 112
    2ea8:	19 f0       	breq	.+6      	; 0x2eb0 <vfprintf+0x26a>
    2eaa:	88 37       	cpi	r24, 0x78	; 120
    2eac:	21 f0       	breq	.+8      	; 0x2eb6 <vfprintf+0x270>
    2eae:	a9 c0       	rjmp	.+338    	; 0x3002 <vfprintf+0x3bc>
    2eb0:	e9 2f       	mov	r30, r25
    2eb2:	e0 61       	ori	r30, 0x10	; 16
    2eb4:	be 2e       	mov	r11, r30
    2eb6:	b4 fe       	sbrs	r11, 4
    2eb8:	0d c0       	rjmp	.+26     	; 0x2ed4 <vfprintf+0x28e>
    2eba:	fb 2d       	mov	r31, r11
    2ebc:	f4 60       	ori	r31, 0x04	; 4
    2ebe:	bf 2e       	mov	r11, r31
    2ec0:	09 c0       	rjmp	.+18     	; 0x2ed4 <vfprintf+0x28e>
    2ec2:	34 fe       	sbrs	r3, 4
    2ec4:	0a c0       	rjmp	.+20     	; 0x2eda <vfprintf+0x294>
    2ec6:	29 2f       	mov	r18, r25
    2ec8:	26 60       	ori	r18, 0x06	; 6
    2eca:	b2 2e       	mov	r11, r18
    2ecc:	06 c0       	rjmp	.+12     	; 0x2eda <vfprintf+0x294>
    2ece:	28 e0       	ldi	r18, 0x08	; 8
    2ed0:	30 e0       	ldi	r19, 0x00	; 0
    2ed2:	05 c0       	rjmp	.+10     	; 0x2ede <vfprintf+0x298>
    2ed4:	20 e1       	ldi	r18, 0x10	; 16
    2ed6:	30 e0       	ldi	r19, 0x00	; 0
    2ed8:	02 c0       	rjmp	.+4      	; 0x2ede <vfprintf+0x298>
    2eda:	20 e1       	ldi	r18, 0x10	; 16
    2edc:	32 e0       	ldi	r19, 0x02	; 2
    2ede:	f8 01       	movw	r30, r16
    2ee0:	b7 fe       	sbrs	r11, 7
    2ee2:	07 c0       	rjmp	.+14     	; 0x2ef2 <vfprintf+0x2ac>
    2ee4:	60 81       	ld	r22, Z
    2ee6:	71 81       	ldd	r23, Z+1	; 0x01
    2ee8:	82 81       	ldd	r24, Z+2	; 0x02
    2eea:	93 81       	ldd	r25, Z+3	; 0x03
    2eec:	0c 5f       	subi	r16, 0xFC	; 252
    2eee:	1f 4f       	sbci	r17, 0xFF	; 255
    2ef0:	06 c0       	rjmp	.+12     	; 0x2efe <vfprintf+0x2b8>
    2ef2:	60 81       	ld	r22, Z
    2ef4:	71 81       	ldd	r23, Z+1	; 0x01
    2ef6:	80 e0       	ldi	r24, 0x00	; 0
    2ef8:	90 e0       	ldi	r25, 0x00	; 0
    2efa:	0e 5f       	subi	r16, 0xFE	; 254
    2efc:	1f 4f       	sbci	r17, 0xFF	; 255
    2efe:	a3 01       	movw	r20, r6
    2f00:	f4 d0       	rcall	.+488    	; 0x30ea <__ultoa_invert>
    2f02:	88 2e       	mov	r8, r24
    2f04:	86 18       	sub	r8, r6
    2f06:	fb 2d       	mov	r31, r11
    2f08:	ff 77       	andi	r31, 0x7F	; 127
    2f0a:	3f 2e       	mov	r3, r31
    2f0c:	36 fe       	sbrs	r3, 6
    2f0e:	0d c0       	rjmp	.+26     	; 0x2f2a <vfprintf+0x2e4>
    2f10:	23 2d       	mov	r18, r3
    2f12:	2e 7f       	andi	r18, 0xFE	; 254
    2f14:	a2 2e       	mov	r10, r18
    2f16:	89 14       	cp	r8, r9
    2f18:	58 f4       	brcc	.+22     	; 0x2f30 <vfprintf+0x2ea>
    2f1a:	34 fe       	sbrs	r3, 4
    2f1c:	0b c0       	rjmp	.+22     	; 0x2f34 <vfprintf+0x2ee>
    2f1e:	32 fc       	sbrc	r3, 2
    2f20:	09 c0       	rjmp	.+18     	; 0x2f34 <vfprintf+0x2ee>
    2f22:	83 2d       	mov	r24, r3
    2f24:	8e 7e       	andi	r24, 0xEE	; 238
    2f26:	a8 2e       	mov	r10, r24
    2f28:	05 c0       	rjmp	.+10     	; 0x2f34 <vfprintf+0x2ee>
    2f2a:	b8 2c       	mov	r11, r8
    2f2c:	a3 2c       	mov	r10, r3
    2f2e:	03 c0       	rjmp	.+6      	; 0x2f36 <vfprintf+0x2f0>
    2f30:	b8 2c       	mov	r11, r8
    2f32:	01 c0       	rjmp	.+2      	; 0x2f36 <vfprintf+0x2f0>
    2f34:	b9 2c       	mov	r11, r9
    2f36:	a4 fe       	sbrs	r10, 4
    2f38:	0f c0       	rjmp	.+30     	; 0x2f58 <vfprintf+0x312>
    2f3a:	fe 01       	movw	r30, r28
    2f3c:	e8 0d       	add	r30, r8
    2f3e:	f1 1d       	adc	r31, r1
    2f40:	80 81       	ld	r24, Z
    2f42:	80 33       	cpi	r24, 0x30	; 48
    2f44:	21 f4       	brne	.+8      	; 0x2f4e <vfprintf+0x308>
    2f46:	9a 2d       	mov	r25, r10
    2f48:	99 7e       	andi	r25, 0xE9	; 233
    2f4a:	a9 2e       	mov	r10, r25
    2f4c:	09 c0       	rjmp	.+18     	; 0x2f60 <vfprintf+0x31a>
    2f4e:	a2 fe       	sbrs	r10, 2
    2f50:	06 c0       	rjmp	.+12     	; 0x2f5e <vfprintf+0x318>
    2f52:	b3 94       	inc	r11
    2f54:	b3 94       	inc	r11
    2f56:	04 c0       	rjmp	.+8      	; 0x2f60 <vfprintf+0x31a>
    2f58:	8a 2d       	mov	r24, r10
    2f5a:	86 78       	andi	r24, 0x86	; 134
    2f5c:	09 f0       	breq	.+2      	; 0x2f60 <vfprintf+0x31a>
    2f5e:	b3 94       	inc	r11
    2f60:	a3 fc       	sbrc	r10, 3
    2f62:	10 c0       	rjmp	.+32     	; 0x2f84 <vfprintf+0x33e>
    2f64:	a0 fe       	sbrs	r10, 0
    2f66:	06 c0       	rjmp	.+12     	; 0x2f74 <vfprintf+0x32e>
    2f68:	b2 14       	cp	r11, r2
    2f6a:	80 f4       	brcc	.+32     	; 0x2f8c <vfprintf+0x346>
    2f6c:	28 0c       	add	r2, r8
    2f6e:	92 2c       	mov	r9, r2
    2f70:	9b 18       	sub	r9, r11
    2f72:	0d c0       	rjmp	.+26     	; 0x2f8e <vfprintf+0x348>
    2f74:	b2 14       	cp	r11, r2
    2f76:	58 f4       	brcc	.+22     	; 0x2f8e <vfprintf+0x348>
    2f78:	b6 01       	movw	r22, r12
    2f7a:	80 e2       	ldi	r24, 0x20	; 32
    2f7c:	90 e0       	ldi	r25, 0x00	; 0
    2f7e:	79 d0       	rcall	.+242    	; 0x3072 <fputc>
    2f80:	b3 94       	inc	r11
    2f82:	f8 cf       	rjmp	.-16     	; 0x2f74 <vfprintf+0x32e>
    2f84:	b2 14       	cp	r11, r2
    2f86:	18 f4       	brcc	.+6      	; 0x2f8e <vfprintf+0x348>
    2f88:	2b 18       	sub	r2, r11
    2f8a:	02 c0       	rjmp	.+4      	; 0x2f90 <vfprintf+0x34a>
    2f8c:	98 2c       	mov	r9, r8
    2f8e:	21 2c       	mov	r2, r1
    2f90:	a4 fe       	sbrs	r10, 4
    2f92:	0f c0       	rjmp	.+30     	; 0x2fb2 <vfprintf+0x36c>
    2f94:	b6 01       	movw	r22, r12
    2f96:	80 e3       	ldi	r24, 0x30	; 48
    2f98:	90 e0       	ldi	r25, 0x00	; 0
    2f9a:	6b d0       	rcall	.+214    	; 0x3072 <fputc>
    2f9c:	a2 fe       	sbrs	r10, 2
    2f9e:	16 c0       	rjmp	.+44     	; 0x2fcc <vfprintf+0x386>
    2fa0:	a1 fc       	sbrc	r10, 1
    2fa2:	03 c0       	rjmp	.+6      	; 0x2faa <vfprintf+0x364>
    2fa4:	88 e7       	ldi	r24, 0x78	; 120
    2fa6:	90 e0       	ldi	r25, 0x00	; 0
    2fa8:	02 c0       	rjmp	.+4      	; 0x2fae <vfprintf+0x368>
    2faa:	88 e5       	ldi	r24, 0x58	; 88
    2fac:	90 e0       	ldi	r25, 0x00	; 0
    2fae:	b6 01       	movw	r22, r12
    2fb0:	0c c0       	rjmp	.+24     	; 0x2fca <vfprintf+0x384>
    2fb2:	8a 2d       	mov	r24, r10
    2fb4:	86 78       	andi	r24, 0x86	; 134
    2fb6:	51 f0       	breq	.+20     	; 0x2fcc <vfprintf+0x386>
    2fb8:	a1 fe       	sbrs	r10, 1
    2fba:	02 c0       	rjmp	.+4      	; 0x2fc0 <vfprintf+0x37a>
    2fbc:	8b e2       	ldi	r24, 0x2B	; 43
    2fbe:	01 c0       	rjmp	.+2      	; 0x2fc2 <vfprintf+0x37c>
    2fc0:	80 e2       	ldi	r24, 0x20	; 32
    2fc2:	a7 fc       	sbrc	r10, 7
    2fc4:	8d e2       	ldi	r24, 0x2D	; 45
    2fc6:	b6 01       	movw	r22, r12
    2fc8:	90 e0       	ldi	r25, 0x00	; 0
    2fca:	53 d0       	rcall	.+166    	; 0x3072 <fputc>
    2fcc:	89 14       	cp	r8, r9
    2fce:	30 f4       	brcc	.+12     	; 0x2fdc <vfprintf+0x396>
    2fd0:	b6 01       	movw	r22, r12
    2fd2:	80 e3       	ldi	r24, 0x30	; 48
    2fd4:	90 e0       	ldi	r25, 0x00	; 0
    2fd6:	4d d0       	rcall	.+154    	; 0x3072 <fputc>
    2fd8:	9a 94       	dec	r9
    2fda:	f8 cf       	rjmp	.-16     	; 0x2fcc <vfprintf+0x386>
    2fdc:	8a 94       	dec	r8
    2fde:	f3 01       	movw	r30, r6
    2fe0:	e8 0d       	add	r30, r8
    2fe2:	f1 1d       	adc	r31, r1
    2fe4:	80 81       	ld	r24, Z
    2fe6:	b6 01       	movw	r22, r12
    2fe8:	90 e0       	ldi	r25, 0x00	; 0
    2fea:	43 d0       	rcall	.+134    	; 0x3072 <fputc>
    2fec:	81 10       	cpse	r8, r1
    2fee:	f6 cf       	rjmp	.-20     	; 0x2fdc <vfprintf+0x396>
    2ff0:	22 20       	and	r2, r2
    2ff2:	09 f4       	brne	.+2      	; 0x2ff6 <vfprintf+0x3b0>
    2ff4:	4e ce       	rjmp	.-868    	; 0x2c92 <vfprintf+0x4c>
    2ff6:	b6 01       	movw	r22, r12
    2ff8:	80 e2       	ldi	r24, 0x20	; 32
    2ffa:	90 e0       	ldi	r25, 0x00	; 0
    2ffc:	3a d0       	rcall	.+116    	; 0x3072 <fputc>
    2ffe:	2a 94       	dec	r2
    3000:	f7 cf       	rjmp	.-18     	; 0x2ff0 <vfprintf+0x3aa>
    3002:	f6 01       	movw	r30, r12
    3004:	86 81       	ldd	r24, Z+6	; 0x06
    3006:	97 81       	ldd	r25, Z+7	; 0x07
    3008:	02 c0       	rjmp	.+4      	; 0x300e <vfprintf+0x3c8>
    300a:	8f ef       	ldi	r24, 0xFF	; 255
    300c:	9f ef       	ldi	r25, 0xFF	; 255
    300e:	2b 96       	adiw	r28, 0x0b	; 11
    3010:	0f b6       	in	r0, 0x3f	; 63
    3012:	f8 94       	cli
    3014:	de bf       	out	0x3e, r29	; 62
    3016:	0f be       	out	0x3f, r0	; 63
    3018:	cd bf       	out	0x3d, r28	; 61
    301a:	df 91       	pop	r29
    301c:	cf 91       	pop	r28
    301e:	1f 91       	pop	r17
    3020:	0f 91       	pop	r16
    3022:	ff 90       	pop	r15
    3024:	ef 90       	pop	r14
    3026:	df 90       	pop	r13
    3028:	cf 90       	pop	r12
    302a:	bf 90       	pop	r11
    302c:	af 90       	pop	r10
    302e:	9f 90       	pop	r9
    3030:	8f 90       	pop	r8
    3032:	7f 90       	pop	r7
    3034:	6f 90       	pop	r6
    3036:	5f 90       	pop	r5
    3038:	4f 90       	pop	r4
    303a:	3f 90       	pop	r3
    303c:	2f 90       	pop	r2
    303e:	08 95       	ret

00003040 <__ctype_isfalse>:
    3040:	99 27       	eor	r25, r25
    3042:	88 27       	eor	r24, r24

00003044 <__ctype_istrue>:
    3044:	08 95       	ret

00003046 <strnlen_P>:
    3046:	fc 01       	movw	r30, r24
    3048:	05 90       	lpm	r0, Z+
    304a:	61 50       	subi	r22, 0x01	; 1
    304c:	70 40       	sbci	r23, 0x00	; 0
    304e:	01 10       	cpse	r0, r1
    3050:	d8 f7       	brcc	.-10     	; 0x3048 <strnlen_P+0x2>
    3052:	80 95       	com	r24
    3054:	90 95       	com	r25
    3056:	8e 0f       	add	r24, r30
    3058:	9f 1f       	adc	r25, r31
    305a:	08 95       	ret

0000305c <strnlen>:
    305c:	fc 01       	movw	r30, r24
    305e:	61 50       	subi	r22, 0x01	; 1
    3060:	70 40       	sbci	r23, 0x00	; 0
    3062:	01 90       	ld	r0, Z+
    3064:	01 10       	cpse	r0, r1
    3066:	d8 f7       	brcc	.-10     	; 0x305e <strnlen+0x2>
    3068:	80 95       	com	r24
    306a:	90 95       	com	r25
    306c:	8e 0f       	add	r24, r30
    306e:	9f 1f       	adc	r25, r31
    3070:	08 95       	ret

00003072 <fputc>:
    3072:	0f 93       	push	r16
    3074:	1f 93       	push	r17
    3076:	cf 93       	push	r28
    3078:	df 93       	push	r29
    307a:	fb 01       	movw	r30, r22
    307c:	23 81       	ldd	r18, Z+3	; 0x03
    307e:	21 fd       	sbrc	r18, 1
    3080:	03 c0       	rjmp	.+6      	; 0x3088 <fputc+0x16>
    3082:	8f ef       	ldi	r24, 0xFF	; 255
    3084:	9f ef       	ldi	r25, 0xFF	; 255
    3086:	2c c0       	rjmp	.+88     	; 0x30e0 <fputc+0x6e>
    3088:	22 ff       	sbrs	r18, 2
    308a:	16 c0       	rjmp	.+44     	; 0x30b8 <fputc+0x46>
    308c:	46 81       	ldd	r20, Z+6	; 0x06
    308e:	57 81       	ldd	r21, Z+7	; 0x07
    3090:	24 81       	ldd	r18, Z+4	; 0x04
    3092:	35 81       	ldd	r19, Z+5	; 0x05
    3094:	42 17       	cp	r20, r18
    3096:	53 07       	cpc	r21, r19
    3098:	44 f4       	brge	.+16     	; 0x30aa <fputc+0x38>
    309a:	a0 81       	ld	r26, Z
    309c:	b1 81       	ldd	r27, Z+1	; 0x01
    309e:	9d 01       	movw	r18, r26
    30a0:	2f 5f       	subi	r18, 0xFF	; 255
    30a2:	3f 4f       	sbci	r19, 0xFF	; 255
    30a4:	31 83       	std	Z+1, r19	; 0x01
    30a6:	20 83       	st	Z, r18
    30a8:	8c 93       	st	X, r24
    30aa:	26 81       	ldd	r18, Z+6	; 0x06
    30ac:	37 81       	ldd	r19, Z+7	; 0x07
    30ae:	2f 5f       	subi	r18, 0xFF	; 255
    30b0:	3f 4f       	sbci	r19, 0xFF	; 255
    30b2:	37 83       	std	Z+7, r19	; 0x07
    30b4:	26 83       	std	Z+6, r18	; 0x06
    30b6:	14 c0       	rjmp	.+40     	; 0x30e0 <fputc+0x6e>
    30b8:	8b 01       	movw	r16, r22
    30ba:	ec 01       	movw	r28, r24
    30bc:	fb 01       	movw	r30, r22
    30be:	00 84       	ldd	r0, Z+8	; 0x08
    30c0:	f1 85       	ldd	r31, Z+9	; 0x09
    30c2:	e0 2d       	mov	r30, r0
    30c4:	09 95       	icall
    30c6:	89 2b       	or	r24, r25
    30c8:	e1 f6       	brne	.-72     	; 0x3082 <fputc+0x10>
    30ca:	d8 01       	movw	r26, r16
    30cc:	16 96       	adiw	r26, 0x06	; 6
    30ce:	8d 91       	ld	r24, X+
    30d0:	9c 91       	ld	r25, X
    30d2:	17 97       	sbiw	r26, 0x07	; 7
    30d4:	01 96       	adiw	r24, 0x01	; 1
    30d6:	17 96       	adiw	r26, 0x07	; 7
    30d8:	9c 93       	st	X, r25
    30da:	8e 93       	st	-X, r24
    30dc:	16 97       	sbiw	r26, 0x06	; 6
    30de:	ce 01       	movw	r24, r28
    30e0:	df 91       	pop	r29
    30e2:	cf 91       	pop	r28
    30e4:	1f 91       	pop	r17
    30e6:	0f 91       	pop	r16
    30e8:	08 95       	ret

000030ea <__ultoa_invert>:
    30ea:	fa 01       	movw	r30, r20
    30ec:	aa 27       	eor	r26, r26
    30ee:	28 30       	cpi	r18, 0x08	; 8
    30f0:	51 f1       	breq	.+84     	; 0x3146 <__ultoa_invert+0x5c>
    30f2:	20 31       	cpi	r18, 0x10	; 16
    30f4:	81 f1       	breq	.+96     	; 0x3156 <__ultoa_invert+0x6c>
    30f6:	e8 94       	clt
    30f8:	6f 93       	push	r22
    30fa:	6e 7f       	andi	r22, 0xFE	; 254
    30fc:	6e 5f       	subi	r22, 0xFE	; 254
    30fe:	7f 4f       	sbci	r23, 0xFF	; 255
    3100:	8f 4f       	sbci	r24, 0xFF	; 255
    3102:	9f 4f       	sbci	r25, 0xFF	; 255
    3104:	af 4f       	sbci	r26, 0xFF	; 255
    3106:	b1 e0       	ldi	r27, 0x01	; 1
    3108:	3e d0       	rcall	.+124    	; 0x3186 <__ultoa_invert+0x9c>
    310a:	b4 e0       	ldi	r27, 0x04	; 4
    310c:	3c d0       	rcall	.+120    	; 0x3186 <__ultoa_invert+0x9c>
    310e:	67 0f       	add	r22, r23
    3110:	78 1f       	adc	r23, r24
    3112:	89 1f       	adc	r24, r25
    3114:	9a 1f       	adc	r25, r26
    3116:	a1 1d       	adc	r26, r1
    3118:	68 0f       	add	r22, r24
    311a:	79 1f       	adc	r23, r25
    311c:	8a 1f       	adc	r24, r26
    311e:	91 1d       	adc	r25, r1
    3120:	a1 1d       	adc	r26, r1
    3122:	6a 0f       	add	r22, r26
    3124:	71 1d       	adc	r23, r1
    3126:	81 1d       	adc	r24, r1
    3128:	91 1d       	adc	r25, r1
    312a:	a1 1d       	adc	r26, r1
    312c:	20 d0       	rcall	.+64     	; 0x316e <__ultoa_invert+0x84>
    312e:	09 f4       	brne	.+2      	; 0x3132 <__ultoa_invert+0x48>
    3130:	68 94       	set
    3132:	3f 91       	pop	r19
    3134:	2a e0       	ldi	r18, 0x0A	; 10
    3136:	26 9f       	mul	r18, r22
    3138:	11 24       	eor	r1, r1
    313a:	30 19       	sub	r19, r0
    313c:	30 5d       	subi	r19, 0xD0	; 208
    313e:	31 93       	st	Z+, r19
    3140:	de f6       	brtc	.-74     	; 0x30f8 <__ultoa_invert+0xe>
    3142:	cf 01       	movw	r24, r30
    3144:	08 95       	ret
    3146:	46 2f       	mov	r20, r22
    3148:	47 70       	andi	r20, 0x07	; 7
    314a:	40 5d       	subi	r20, 0xD0	; 208
    314c:	41 93       	st	Z+, r20
    314e:	b3 e0       	ldi	r27, 0x03	; 3
    3150:	0f d0       	rcall	.+30     	; 0x3170 <__ultoa_invert+0x86>
    3152:	c9 f7       	brne	.-14     	; 0x3146 <__ultoa_invert+0x5c>
    3154:	f6 cf       	rjmp	.-20     	; 0x3142 <__ultoa_invert+0x58>
    3156:	46 2f       	mov	r20, r22
    3158:	4f 70       	andi	r20, 0x0F	; 15
    315a:	40 5d       	subi	r20, 0xD0	; 208
    315c:	4a 33       	cpi	r20, 0x3A	; 58
    315e:	18 f0       	brcs	.+6      	; 0x3166 <__ultoa_invert+0x7c>
    3160:	49 5d       	subi	r20, 0xD9	; 217
    3162:	31 fd       	sbrc	r19, 1
    3164:	40 52       	subi	r20, 0x20	; 32
    3166:	41 93       	st	Z+, r20
    3168:	02 d0       	rcall	.+4      	; 0x316e <__ultoa_invert+0x84>
    316a:	a9 f7       	brne	.-22     	; 0x3156 <__ultoa_invert+0x6c>
    316c:	ea cf       	rjmp	.-44     	; 0x3142 <__ultoa_invert+0x58>
    316e:	b4 e0       	ldi	r27, 0x04	; 4
    3170:	a6 95       	lsr	r26
    3172:	97 95       	ror	r25
    3174:	87 95       	ror	r24
    3176:	77 95       	ror	r23
    3178:	67 95       	ror	r22
    317a:	ba 95       	dec	r27
    317c:	c9 f7       	brne	.-14     	; 0x3170 <__ultoa_invert+0x86>
    317e:	00 97       	sbiw	r24, 0x00	; 0
    3180:	61 05       	cpc	r22, r1
    3182:	71 05       	cpc	r23, r1
    3184:	08 95       	ret
    3186:	9b 01       	movw	r18, r22
    3188:	ac 01       	movw	r20, r24
    318a:	0a 2e       	mov	r0, r26
    318c:	06 94       	lsr	r0
    318e:	57 95       	ror	r21
    3190:	47 95       	ror	r20
    3192:	37 95       	ror	r19
    3194:	27 95       	ror	r18
    3196:	ba 95       	dec	r27
    3198:	c9 f7       	brne	.-14     	; 0x318c <__ultoa_invert+0xa2>
    319a:	62 0f       	add	r22, r18
    319c:	73 1f       	adc	r23, r19
    319e:	84 1f       	adc	r24, r20
    31a0:	95 1f       	adc	r25, r21
    31a2:	a0 1d       	adc	r26, r0
    31a4:	08 95       	ret

000031a6 <_exit>:
    31a6:	f8 94       	cli

000031a8 <__stop_program>:
    31a8:	ff cf       	rjmp	.-2      	; 0x31a8 <__stop_program>
